Archive member included because of file (symbol)

c:/Espressif/ESP8266_SDK_151/lib\libmain.a(debug-vector.o)
                              (_DebugExceptionVector)
c:/Espressif/ESP8266_SDK_151/lib\libmain.a(double-vector.o)
                              (_DoubleExceptionVector)
c:/Espressif/ESP8266_SDK_151/lib\libmain.a(kernel-vector.o)
                              (_KernelExceptionVector)
c:/Espressif/ESP8266_SDK_151/lib\libmain.a(nmi-vector.o)
                              (_NMIExceptionVector)
c:/Espressif/ESP8266_SDK_151/lib\libmain.a(user-vector.o)
                              (_UserExceptionVector)
c:/Espressif/ESP8266_SDK_151/lib\libmain.a(vector.o)
                              (call_user_start)
c:/Espressif/ESP8266_SDK_151/lib\libmain.a(app_main.o)
                              c:/Espressif/ESP8266_SDK_151/lib\libmain.a(nmi-vector.o) (NMI_Handler)
c:/Espressif/ESP8266_SDK_151/lib\libmain.a(ets_timer.o)
                              c:/Espressif/ESP8266_SDK_151/lib\libmain.a(app_main.o) (ets_timer_setfn)
c:/Espressif/ESP8266_SDK_151/lib\libmain.a(mem_manager.o)
                              c:/Espressif/ESP8266_SDK_151/lib\libmain.a(app_main.o) (pvPortMalloc)
c:/Espressif/ESP8266_SDK_151/lib\libmain.a(spi_flash.o)
                              c:/Espressif/ESP8266_SDK_151/lib\libmain.a(app_main.o) (spi_flash_read)
c:/Espressif/ESP8266_SDK_151/lib\libmain.a(user_interface.o)
                              c:/Espressif/ESP8266_SDK_151/lib\libmain.a(app_main.o) (done_cb)
c:/Espressif/ESP8266_SDK_151/lib\libmain.a(eagle_lib.o)
                              c:/Espressif/ESP8266_SDK_151/lib\libmain.a(user_interface.o) (ets_sprintf)
c:/Espressif/ESP8266_SDK_151/lib\libmain.a(eagle_lwip_if.o)
                              c:/Espressif/ESP8266_SDK_151/lib\libmain.a(user_interface.o) (hostname)
build/debug/app_app.a(user_main.o)
                              c:/Espressif/ESP8266_SDK_151/lib\libmain.a(app_main.o) (user_init)
build/debug/app_app.a(easygpio.o)
                              build/debug/app_app.a(user_main.o) (easygpio_pinMode)
build/debug/app_app.a(stdout.o)
                              build/debug/app_app.a(user_main.o) (stdout_init)
build/debug/app_app.a(hw_timer.o)
                              build/debug/app_app.a(user_main.o) (hw_timer_arm)
c:/espressif/xtensa-lx106-elf/bin/../lib/gcc/xtensa-lx106-elf/5.1.0\libgcc.a(_udivsi3.o)
                              c:/Espressif/ESP8266_SDK_151/lib\libmain.a(app_main.o) (__udivsi3)
c:/espressif/xtensa-lx106-elf/bin/../lib/gcc/xtensa-lx106-elf/5.1.0\libgcc.a(_umodsi3.o)
                              c:/Espressif/ESP8266_SDK_151/lib\libmain.a(eagle_lib.o) (__umodsi3)
c:/espressif/xtensa-lx106-elf/bin/../lib/gcc/xtensa-lx106-elf/5.1.0\libgcc.a(_muldi3.o)
                              c:/Espressif/ESP8266_SDK_151/lib\libmain.a(user_interface.o) (__muldi3)
c:/espressif/xtensa-lx106-elf/bin/../lib/gcc/xtensa-lx106-elf/5.1.0\libgcc.a(_umulsidi3.o)
                              c:/espressif/xtensa-lx106-elf/bin/../lib/gcc/xtensa-lx106-elf/5.1.0\libgcc.a(_muldi3.o) (__umulsidi3)
c:/espressif/xtensa-lx106-elf/bin/../lib/gcc/xtensa-lx106-elf/5.1.0/../../../../xtensa-lx106-elf/lib\libhal.a(int_asm--set_intclear.o)
                              c:/Espressif/ESP8266_SDK_151/lib\libmain.a(app_main.o) (xthal_set_intclear)
c:/Espressif/ESP8266_SDK_151/lib\libphy.a(phy.o)
                              c:/Espressif/ESP8266_SDK_151/lib\libmain.a(app_main.o) (phy_enable_agc)
c:/Espressif/ESP8266_SDK_151/lib\libphy.a(phy_chip_v6_ana.o)
                              c:/Espressif/ESP8266_SDK_151/lib\libmain.a(app_main.o) (chip_v6_set_chan_offset)
c:/Espressif/ESP8266_SDK_151/lib\libphy.a(phy_chip_v6.o)
                              c:/Espressif/ESP8266_SDK_151/lib\libphy.a(phy_chip_v6_ana.o) (g_phyFuns)
c:/Espressif/ESP8266_SDK_151/lib\libphy.a(phy_chip_v6_cal.o)
                              c:/Espressif/ESP8266_SDK_151/lib\libphy.a(phy_chip_v6.o) (loop_pwctrl_pwdet_error_accum_high_power)
c:/Espressif/ESP8266_SDK_151/lib\libphy.a(phy_chip_v6_unused.o)
                              c:/Espressif/ESP8266_SDK_151/lib\libphy.a(phy_chip_v6.o) (chip_v6_set_sense)
c:/Espressif/ESP8266_SDK_151/lib\libphy.a(phy_sleep.o)
                              c:/Espressif/ESP8266_SDK_151/lib\libphy.a(phy_chip_v6.o) (pm_set_sleep_cycles)
c:/Espressif/ESP8266_SDK_151/lib\libpp.a(if_hwctrl.o)
                              c:/Espressif/ESP8266_SDK_151/lib\libmain.a(user_interface.o) (ic_set_vif)
c:/Espressif/ESP8266_SDK_151/lib\libpp.a(lmac.o)
                              c:/Espressif/ESP8266_SDK_151/lib\libmain.a(app_main.o) (lmacInit)
c:/Espressif/ESP8266_SDK_151/lib\libpp.a(pm.o)
                              c:/Espressif/ESP8266_SDK_151/lib\libmain.a(user_interface.o) (pm_rtc_clock_cali_proc)
c:/Espressif/ESP8266_SDK_151/lib\libpp.a(pm_for_bcn_only_mode.o)
                              c:/Espressif/ESP8266_SDK_151/lib\libpp.a(pm.o) (fpm_is_open)
c:/Espressif/ESP8266_SDK_151/lib\libpp.a(pp.o)
                              c:/Espressif/ESP8266_SDK_151/lib\libpp.a(pm.o) (pend_flag_noise_check)
c:/Espressif/ESP8266_SDK_151/lib\libpp.a(rate_control.o)
                              c:/Espressif/ESP8266_SDK_151/lib\libpp.a(lmac.o) (RC_SetBasicRate)
c:/Espressif/ESP8266_SDK_151/lib\libpp.a(trc.o)
                              c:/Espressif/ESP8266_SDK_151/lib\libmain.a(user_interface.o) (rc_set_rate_limit_id)
c:/Espressif/ESP8266_SDK_151/lib\libpp.a(wdev.o)
                              c:/Espressif/ESP8266_SDK_151/lib\libpp.a(pp.o) (wDevCtrl)
c:/Espressif/ESP8266_SDK_151/lib\libpp.a(esf_buf.o)
                              c:/Espressif/ESP8266_SDK_151/lib\libpp.a(wdev.o) (esf_rx_buf_alloc)
c:/Espressif/ESP8266_SDK_151/lib\libnet80211.a(ieee80211.o)
                              c:/Espressif/ESP8266_SDK_151/lib\libmain.a(app_main.o) (g_ic)
c:/Espressif/ESP8266_SDK_151/lib\libnet80211.a(ieee80211_crypto.o)
                              c:/Espressif/ESP8266_SDK_151/lib\libnet80211.a(ieee80211.o) (ieee80211_crypto_attach)
c:/Espressif/ESP8266_SDK_151/lib\libnet80211.a(ieee80211_ets.o)
                              c:/Espressif/ESP8266_SDK_151/lib\libpp.a(pm.o) (ieee80211_getmgtframe)
c:/Espressif/ESP8266_SDK_151/lib\libnet80211.a(ieee80211_hostap.o)
                              c:/Espressif/ESP8266_SDK_151/lib\libmain.a(user_interface.o) (BcnEb_update)
c:/Espressif/ESP8266_SDK_151/lib\libnet80211.a(ieee80211_ht.o)
                              c:/Espressif/ESP8266_SDK_151/lib\libmain.a(user_interface.o) (ieee80211_ht_attach)
c:/Espressif/ESP8266_SDK_151/lib\libnet80211.a(ieee80211_input.o)
                              c:/Espressif/ESP8266_SDK_151/lib\libnet80211.a(ieee80211_hostap.o) (ieee80211_decap)
c:/Espressif/ESP8266_SDK_151/lib\libnet80211.a(ieee80211_mesh_quick.o)
                              c:/Espressif/ESP8266_SDK_151/lib\libnet80211.a(ieee80211_hostap.o) (ieee80211_mesh_quick_get)
c:/Espressif/ESP8266_SDK_151/lib\libnet80211.a(ieee80211_output.o)
                              c:/Espressif/ESP8266_SDK_151/lib\libmain.a(eagle_lwip_if.o) (ieee80211_output_pbuf)
c:/Espressif/ESP8266_SDK_151/lib\libnet80211.a(ieee80211_phy.o)
                              c:/Espressif/ESP8266_SDK_151/lib\libmain.a(app_main.o) (ieee80211_phy_init)
c:/Espressif/ESP8266_SDK_151/lib\libnet80211.a(ieee80211_power.o)
                              c:/Espressif/ESP8266_SDK_151/lib\libnet80211.a(ieee80211_hostap.o) (ieee80211_psq_init)
c:/Espressif/ESP8266_SDK_151/lib\libnet80211.a(ieee80211_proto.o)
                              c:/Espressif/ESP8266_SDK_151/lib\libnet80211.a(ieee80211.o) (ieee80211_proto_attach)
c:/Espressif/ESP8266_SDK_151/lib\libnet80211.a(ieee80211_rfid.o)
                              c:/Espressif/ESP8266_SDK_151/lib\libmain.a(user_interface.o) (ieee80211_rfid_locp_recv_open)
c:/Espressif/ESP8266_SDK_151/lib\libnet80211.a(ieee80211_scan.o)
                              c:/Espressif/ESP8266_SDK_151/lib\libpp.a(pp.o) (gScanStruct)
c:/Espressif/ESP8266_SDK_151/lib\libnet80211.a(ieee80211_sta.o)
                              c:/Espressif/ESP8266_SDK_151/lib\libmain.a(user_interface.o) (ieee80211_sta_new_state)
c:/Espressif/ESP8266_SDK_151/lib\libnet80211.a(wl_chm.o)
                              c:/Espressif/ESP8266_SDK_151/lib\libnet80211.a(ieee80211.o) (chm_init)
c:/Espressif/ESP8266_SDK_151/lib\libnet80211.a(wl_cnx.o)
                              c:/Espressif/ESP8266_SDK_151/lib\libmain.a(user_interface.o) (sta_con_timer)
c:/Espressif/ESP8266_SDK_151/lib\libnet80211.a(ieee80211_action.o)
                              c:/Espressif/ESP8266_SDK_151/lib\libnet80211.a(ieee80211_ht.o) (ieee80211_send_action_register)
c:/Espressif/ESP8266_SDK_151/lib\libnet80211.a(ieee80211_action_vendor.o)
                              c:/Espressif/ESP8266_SDK_151/lib\libnet80211.a(ieee80211.o) (ieee80211_action_vendor_spec_attach)
c:/Espressif/ESP8266_SDK_151/lib\libnet80211.a(ieee80211_crypto_ccmp.o)
                              c:/Espressif/ESP8266_SDK_151/lib\libnet80211.a(ieee80211_input.o) (ccmp)
c:/Espressif/ESP8266_SDK_151/lib\libnet80211.a(ieee80211_ie_vendor.o)
                              c:/Espressif/ESP8266_SDK_151/lib\libnet80211.a(ieee80211_mesh_quick.o) (ieee80211_add_ie_vendor_esp_mesh_assoc)
c:/Espressif/ESP8266_SDK_151/lib\liblwip.a(dhcp.o)
                              c:/Espressif/ESP8266_SDK_151/lib\libnet80211.a(wl_cnx.o) (dhcp_release)
c:/Espressif/ESP8266_SDK_151/lib\liblwip.a(dhcpserver.o)
                              c:/Espressif/ESP8266_SDK_151/lib\libmain.a(user_interface.o) (dhcps_start)
c:/Espressif/ESP8266_SDK_151/lib\liblwip.a(dns.o)
                              c:/Espressif/ESP8266_SDK_151/lib\liblwip.a(dhcp.o) (dns_setserver)
c:/Espressif/ESP8266_SDK_151/lib\liblwip.a(espconn_tcp.o)
                              c:/Espressif/ESP8266_SDK_151/lib\libmain.a(app_main.o) (espconn_init)
c:/Espressif/ESP8266_SDK_151/lib\liblwip.a(etharp.o)
                              c:/Espressif/ESP8266_SDK_151/lib\libmain.a(user_interface.o) (ethbroadcast)
c:/Espressif/ESP8266_SDK_151/lib\liblwip.a(init.o)
                              c:/Espressif/ESP8266_SDK_151/lib\libmain.a(app_main.o) (lwip_init)
c:/Espressif/ESP8266_SDK_151/lib\liblwip.a(ip_addr.o)
                              c:/Espressif/ESP8266_SDK_151/lib\liblwip.a(dhcp.o) (ip_addr_any)
c:/Espressif/ESP8266_SDK_151/lib\liblwip.a(ip.o)
                              c:/Espressif/ESP8266_SDK_151/lib\liblwip.a(etharp.o) (ip_input)
c:/Espressif/ESP8266_SDK_151/lib\liblwip.a(memp.o)
                              c:/Espressif/ESP8266_SDK_151/lib\liblwip.a(etharp.o) (memp_sizes)
c:/Espressif/ESP8266_SDK_151/lib\liblwip.a(netif.o)
                              c:/Espressif/ESP8266_SDK_151/lib\liblwip.a(dhcp.o) (netif_list)
c:/Espressif/ESP8266_SDK_151/lib\liblwip.a(pbuf.o)
                              c:/Espressif/ESP8266_SDK_151/lib\libnet80211.a(ieee80211_hostap.o) (pbuf_alloc)
c:/Espressif/ESP8266_SDK_151/lib\liblwip.a(raw.o)
                              c:/Espressif/ESP8266_SDK_151/lib\liblwip.a(ip.o) (raw_input)
c:/Espressif/ESP8266_SDK_151/lib\liblwip.a(tcp_in.o)
                              c:/Espressif/ESP8266_SDK_151/lib\liblwip.a(ip.o) (tcp_input)
c:/Espressif/ESP8266_SDK_151/lib\liblwip.a(tcp.o)
                              c:/Espressif/ESP8266_SDK_151/lib\liblwip.a(espconn_tcp.o) (tcp_active_pcbs)
c:/Espressif/ESP8266_SDK_151/lib\liblwip.a(tcp_out.o)
                              c:/Espressif/ESP8266_SDK_151/lib\liblwip.a(tcp.o) (tcp_send_fin)
c:/Espressif/ESP8266_SDK_151/lib\liblwip.a(timers.o)
                              c:/Espressif/ESP8266_SDK_151/lib\liblwip.a(tcp_in.o) (tcp_timer_needed)
c:/Espressif/ESP8266_SDK_151/lib\liblwip.a(udp.o)
                              c:/Espressif/ESP8266_SDK_151/lib\liblwip.a(ip.o) (udp_input)
c:/Espressif/ESP8266_SDK_151/lib\liblwip.a(espconn.o)
                              c:/Espressif/ESP8266_SDK_151/lib\liblwip.a(espconn_tcp.o) (plink_active)
c:/Espressif/ESP8266_SDK_151/lib\liblwip.a(espconn_udp.o)
                              c:/Espressif/ESP8266_SDK_151/lib\liblwip.a(espconn.o) (espconn_udp_sent)
c:/Espressif/ESP8266_SDK_151/lib\liblwip.a(icmp.o)
                              c:/Espressif/ESP8266_SDK_151/lib\liblwip.a(ip.o) (icmp_input)
c:/Espressif/ESP8266_SDK_151/lib\liblwip.a(igmp.o)
                              c:/Espressif/ESP8266_SDK_151/lib\liblwip.a(init.o) (igmp_init)
c:/Espressif/ESP8266_SDK_151/lib\liblwip.a(inet_chksum.o)
                              c:/Espressif/ESP8266_SDK_151/lib\liblwip.a(tcp_in.o) (inet_chksum_pseudo)
c:/Espressif/ESP8266_SDK_151/lib\libwpa.a(ap_config.o)
                              c:/Espressif/ESP8266_SDK_151/lib\libnet80211.a(ieee80211_hostap.o) (hostapd_setup_wpa_psk)
c:/Espressif/ESP8266_SDK_151/lib\libwpa.a(common.o)
                              c:/Espressif/ESP8266_SDK_151/lib\libmain.a(user_interface.o) (hexstr2bin)
c:/Espressif/ESP8266_SDK_151/lib\libwpa.a(os_xtensa.o)
                              c:/Espressif/ESP8266_SDK_151/lib\libwpa.a(common.o) (os_get_time)
c:/Espressif/ESP8266_SDK_151/lib\libwpa.a(wpa_auth.o)
                              c:/Espressif/ESP8266_SDK_151/lib\libnet80211.a(ieee80211_hostap.o) (wpa_init)
c:/Espressif/ESP8266_SDK_151/lib\libwpa.a(wpa_auth_ie.o)
                              c:/Espressif/ESP8266_SDK_151/lib\libwpa.a(wpa_auth.o) (wpa_auth_gen_wpa_ie)
c:/Espressif/ESP8266_SDK_151/lib\libwpa.a(wpa.o)
                              c:/Espressif/ESP8266_SDK_151/lib\libnet80211.a(ieee80211_sta.o) (wpa_sm_rx_eapol)
c:/Espressif/ESP8266_SDK_151/lib\libwpa.a(wpa_common.o)
                              c:/Espressif/ESP8266_SDK_151/lib\libwpa.a(wpa_auth_ie.o) (wpa_parse_wpa_ie_rsn)
c:/Espressif/ESP8266_SDK_151/lib\libwpa.a(wpa_debug.o)
                              c:/Espressif/ESP8266_SDK_151/lib\libwpa.a(wpa_auth.o) (eloop_cancel_timeout)
c:/Espressif/ESP8266_SDK_151/lib\libwpa.a(wpa_ie.o)
                              c:/Espressif/ESP8266_SDK_151/lib\libnet80211.a(ieee80211_scan.o) (wpa_parse_wpa_ie)
c:/Espressif/ESP8266_SDK_151/lib\libwpa.a(wpa_main.o)
                              c:/Espressif/ESP8266_SDK_151/lib\libnet80211.a(wl_cnx.o) (ppInstallKey)
c:/Espressif/ESP8266_SDK_151/lib\libwpa.a(wpas_glue.o)
                              c:/Espressif/ESP8266_SDK_151/lib\libwpa.a(wpa.o) (wpa_sm_alloc_eapol)
c:/Espressif/ESP8266_SDK_151/lib\libcrypto.a(aes-wrap.o)
                              c:/Espressif/ESP8266_SDK_151/lib\libwpa.a(wpa_auth.o) (aes_wrap)
c:/Espressif/ESP8266_SDK_151/lib\libcrypto.a(aes-internal-enc.o)
                              c:/Espressif/ESP8266_SDK_151/lib\libcrypto.a(aes-wrap.o) (aes_encrypt_init)
c:/Espressif/ESP8266_SDK_151/lib\libcrypto.a(aes-internal.o)
                              c:/Espressif/ESP8266_SDK_151/lib\libcrypto.a(aes-internal-enc.o) (rijndaelKeySetupEnc)
c:/espressif/xtensa-lx106-elf/bin/../lib/gcc/xtensa-lx106-elf/5.1.0\libgcc.a(_divsi3.o)
                              c:/Espressif/ESP8266_SDK_151/lib\libphy.a(phy_chip_v6_ana.o) (__divsi3)
c:/espressif/xtensa-lx106-elf/bin/../lib/gcc/xtensa-lx106-elf/5.1.0\libgcc.a(_modsi3.o)
                              c:/Espressif/ESP8266_SDK_151/lib\libphy.a(phy_chip_v6.o) (__modsi3)
c:/espressif/xtensa-lx106-elf/bin/../lib/gcc/xtensa-lx106-elf/5.1.0\libgcc.a(_ashrdi3.o)
                              c:/Espressif/ESP8266_SDK_151/lib\libphy.a(phy_chip_v6.o) (__ashrdi3)
c:/espressif/xtensa-lx106-elf/bin/../lib/gcc/xtensa-lx106-elf/5.1.0\libgcc.a(_addsubsf3.o)
                              c:/Espressif/ESP8266_SDK_151/lib\libphy.a(phy_chip_v6_ana.o) (__addsf3)
c:/espressif/xtensa-lx106-elf/bin/../lib/gcc/xtensa-lx106-elf/5.1.0\libgcc.a(_mulsf3.o)
                              c:/Espressif/ESP8266_SDK_151/lib\libphy.a(phy_chip_v6_ana.o) (__mulsf3)
c:/espressif/xtensa-lx106-elf/bin/../lib/gcc/xtensa-lx106-elf/5.1.0\libgcc.a(_divsf3.o)
                              c:/Espressif/ESP8266_SDK_151/lib\libphy.a(phy_chip_v6_ana.o) (__divsf3)
c:/espressif/xtensa-lx106-elf/bin/../lib/gcc/xtensa-lx106-elf/5.1.0\libgcc.a(_fixsfsi.o)
                              c:/Espressif/ESP8266_SDK_151/lib\libphy.a(phy_chip_v6.o) (__fixsfsi)
c:/espressif/xtensa-lx106-elf/bin/../lib/gcc/xtensa-lx106-elf/5.1.0\libgcc.a(_fixunssfsi.o)
                              c:/Espressif/ESP8266_SDK_151/lib\libphy.a(phy_chip_v6_ana.o) (__fixunssfsi)
c:/espressif/xtensa-lx106-elf/bin/../lib/gcc/xtensa-lx106-elf/5.1.0\libgcc.a(_floatsisf.o)
                              c:/Espressif/ESP8266_SDK_151/lib\libphy.a(phy_chip_v6.o) (__floatunsisf)
c:/espressif/xtensa-lx106-elf/bin/../lib/gcc/xtensa-lx106-elf/5.1.0\libgcc.a(_muldf3.o)
                              c:/Espressif/ESP8266_SDK_151/lib\libphy.a(phy_chip_v6.o) (__muldf3)
c:/espressif/xtensa-lx106-elf/bin/../lib/gcc/xtensa-lx106-elf/5.1.0\libgcc.a(_divdf3.o)
                              c:/Espressif/ESP8266_SDK_151/lib\libphy.a(phy_chip_v6_ana.o) (__divdf3)
c:/espressif/xtensa-lx106-elf/bin/../lib/gcc/xtensa-lx106-elf/5.1.0\libgcc.a(_fixdfsi.o)
                              c:/Espressif/ESP8266_SDK_151/lib\libphy.a(phy_chip_v6.o) (__fixdfsi)
c:/espressif/xtensa-lx106-elf/bin/../lib/gcc/xtensa-lx106-elf/5.1.0\libgcc.a(_floatsidf.o)
                              c:/Espressif/ESP8266_SDK_151/lib\libphy.a(phy_chip_v6_ana.o) (__floatunsidf)
c:/espressif/xtensa-lx106-elf/bin/../lib/gcc/xtensa-lx106-elf/5.1.0\libgcc.a(_truncdfsf2.o)
                              c:/Espressif/ESP8266_SDK_151/lib\libphy.a(phy_chip_v6_ana.o) (__truncdfsf2)
c:/espressif/xtensa-lx106-elf/bin/../lib/gcc/xtensa-lx106-elf/5.1.0\libgcc.a(_divdi3.o)
                              c:/Espressif/ESP8266_SDK_151/lib\libphy.a(phy_chip_v6_cal.o) (__divdi3)
c:/espressif/xtensa-lx106-elf/bin/../lib/gcc/xtensa-lx106-elf/5.1.0\libgcc.a(_umoddi3.o)
                              c:/Espressif/ESP8266_SDK_151/lib\libpp.a(pm.o) (__umoddi3)
c:/Espressif/ESP8266_SDK_151/lib\libnet80211.a(ieee80211_crypto_tkip.o)
                              c:/Espressif/ESP8266_SDK_151/lib\libwpa.a(wpa_auth.o) (tkip)
c:/Espressif/ESP8266_SDK_151/lib\libnet80211.a(ieee80211_crypto_wep.o)
                              c:/Espressif/ESP8266_SDK_151/lib\libwpa.a(wpa_auth.o) (wep)

Memory Configuration

Name             Origin             Length             Attributes
dport0_0_seg     0x3ff00000         0x00000010
dram0_0_seg      0x3ffe8000         0x00014000
iram1_0_seg      0x40100000         0x00008000
irom0_0_seg      0x40210000         0x00068000
*default*        0x00000000         0xffffffff

Linker script and memory map

START GROUP
LOAD c:/espressif/xtensa-lx106-elf/bin/../lib/gcc/xtensa-lx106-elf/5.1.0/../../../../xtensa-lx106-elf/lib\libc.a
LOAD c:/espressif/xtensa-lx106-elf/bin/../lib/gcc/xtensa-lx106-elf/5.1.0\libgcc.a
LOAD c:/espressif/xtensa-lx106-elf/bin/../lib/gcc/xtensa-lx106-elf/5.1.0/../../../../xtensa-lx106-elf/lib\libhal.a
LOAD c:/Espressif/ESP8266_SDK_151/lib\libphy.a
LOAD c:/Espressif/ESP8266_SDK_151/lib\libpp.a
LOAD c:/Espressif/ESP8266_SDK_151/lib\libnet80211.a
LOAD c:/Espressif/ESP8266_SDK_151/lib\liblwip.a
LOAD c:/Espressif/ESP8266_SDK_151/lib\libwpa.a
LOAD c:/Espressif/ESP8266_SDK_151/lib\libmain.a
LOAD c:/Espressif/ESP8266_SDK_151/lib\libupgrade.a
LOAD c:/Espressif/ESP8266_SDK_151/lib\libssl.a
LOAD c:/Espressif/ESP8266_SDK_151/lib\libsmartconfig.a
LOAD c:/Espressif/ESP8266_SDK_151/lib\libcrypto.a
LOAD build/debug/app_app.a
END GROUP
                0x40000000                PROVIDE (_memmap_vecbase_reset, 0x40000000)
                0x00000110                _memmap_cacheattr_wb_base = 0x110
                0x00000110                _memmap_cacheattr_wt_base = 0x110
                0x00000220                _memmap_cacheattr_bp_base = 0x220
                0xfffff00f                _memmap_cacheattr_unused_mask = 0xfffff00f
                0x2222211f                _memmap_cacheattr_wb_trapnull = 0x2222211f
                0x2222211f                _memmap_cacheattr_wba_trapnull = 0x2222211f
                0x2222211f                _memmap_cacheattr_wbna_trapnull = 0x2222211f
                0x2222211f                _memmap_cacheattr_wt_trapnull = 0x2222211f
                0x2222222f                _memmap_cacheattr_bp_trapnull = 0x2222222f
                0xfffff11f                _memmap_cacheattr_wb_strict = 0xfffff11f
                0xfffff11f                _memmap_cacheattr_wt_strict = 0xfffff11f
                0xfffff22f                _memmap_cacheattr_bp_strict = 0xfffff22f
                0x22222112                _memmap_cacheattr_wb_allvalid = 0x22222112
                0x22222112                _memmap_cacheattr_wt_allvalid = 0x22222112
                0x22222222                _memmap_cacheattr_bp_allvalid = 0x22222222
                0x2222211f                PROVIDE (_memmap_cacheattr_reset, _memmap_cacheattr_wb_trapnull)

.dport0.rodata  0x3ff00000        0x0
                0x3ff00000                _dport0_rodata_start = ABSOLUTE (.)
 *(.dport0.rodata)
 *(.dport.rodata)
                0x3ff00000                _dport0_rodata_end = ABSOLUTE (.)

.dport0.literal
                0x3ff00000        0x0
                0x3ff00000                _dport0_literal_start = ABSOLUTE (.)
 *(.dport0.literal)
 *(.dport.literal)
                0x3ff00000                _dport0_literal_end = ABSOLUTE (.)

.dport0.data    0x3ff00000        0x0
                0x3ff00000                _dport0_data_start = ABSOLUTE (.)
 *(.dport0.data)
 *(.dport.data)
                0x3ff00000                _dport0_data_end = ABSOLUTE (.)

.data           0x3ffe8000      0x374
                0x3ffe8000                _data_start = ABSOLUTE (.)
 *(.data)
 .data          0x3ffe8000        0x0 c:/Espressif/ESP8266_SDK_151/lib\libmain.a(debug-vector.o)
 .data          0x3ffe8000        0x0 c:/Espressif/ESP8266_SDK_151/lib\libmain.a(double-vector.o)
 .data          0x3ffe8000        0x0 c:/Espressif/ESP8266_SDK_151/lib\libmain.a(kernel-vector.o)
 .data          0x3ffe8000        0x4 c:/Espressif/ESP8266_SDK_151/lib\libmain.a(nmi-vector.o)
                0x3ffe8000                _Pri_3_HandlerAddress
 .data          0x3ffe8004        0x0 c:/Espressif/ESP8266_SDK_151/lib\libmain.a(user-vector.o)
 .data          0x3ffe8004        0x0 c:/Espressif/ESP8266_SDK_151/lib\libmain.a(vector.o)
 .data          0x3ffe8004        0x1 c:/Espressif/ESP8266_SDK_151/lib\libmain.a(app_main.o)
 .data          0x3ffe8005        0x0 c:/Espressif/ESP8266_SDK_151/lib\libmain.a(ets_timer.o)
 .data          0x3ffe8005        0x0 c:/Espressif/ESP8266_SDK_151/lib\libmain.a(mem_manager.o)
 .data          0x3ffe8005        0x0 c:/Espressif/ESP8266_SDK_151/lib\libmain.a(spi_flash.o)
 *fill*         0x3ffe8005        0x3 
 .data          0x3ffe8008        0x6 c:/Espressif/ESP8266_SDK_151/lib\libmain.a(user_interface.o)
                0x3ffe8009                timer2_ms_flag
                0x3ffe800a                dhcps_flag
                0x3ffe800b                dhcpc_flag
                0x3ffe800d                reconnect_internal
 .data          0x3ffe800e        0x0 c:/Espressif/ESP8266_SDK_151/lib\libmain.a(eagle_lib.o)
 *fill*         0x3ffe800e        0x2 
 .data          0x3ffe8010        0x1 c:/Espressif/ESP8266_SDK_151/lib\libmain.a(eagle_lwip_if.o)
                0x3ffe8010                default_hostname
 *fill*         0x3ffe8011        0x3 
 .data          0x3ffe8014        0x4 build/debug/app_app.a(user_main.o)
                0x3ffe8014                version
 .data          0x3ffe8018        0x0 build/debug/app_app.a(easygpio.o)
 .data          0x3ffe8018        0x0 build/debug/app_app.a(stdout.o)
 .data          0x3ffe8018        0x0 build/debug/app_app.a(hw_timer.o)
 .data          0x3ffe8018        0x0 c:/espressif/xtensa-lx106-elf/bin/../lib/gcc/xtensa-lx106-elf/5.1.0\libgcc.a(_udivsi3.o)
 .data          0x3ffe8018        0x0 c:/espressif/xtensa-lx106-elf/bin/../lib/gcc/xtensa-lx106-elf/5.1.0\libgcc.a(_umodsi3.o)
 .data          0x3ffe8018        0x0 c:/espressif/xtensa-lx106-elf/bin/../lib/gcc/xtensa-lx106-elf/5.1.0\libgcc.a(_muldi3.o)
 .data          0x3ffe8018        0x0 c:/espressif/xtensa-lx106-elf/bin/../lib/gcc/xtensa-lx106-elf/5.1.0\libgcc.a(_umulsidi3.o)
 .data          0x3ffe8018        0x0 c:/espressif/xtensa-lx106-elf/bin/../lib/gcc/xtensa-lx106-elf/5.1.0/../../../../xtensa-lx106-elf/lib\libhal.a(int_asm--set_intclear.o)
 .data          0x3ffe8018        0x0 c:/Espressif/ESP8266_SDK_151/lib\libphy.a(phy.o)
 .data          0x3ffe8018        0x0 c:/Espressif/ESP8266_SDK_151/lib\libphy.a(phy_chip_v6_ana.o)
 *fill*         0x3ffe8018        0x8 
 .data          0x3ffe8020       0x53 c:/Espressif/ESP8266_SDK_151/lib\libphy.a(phy_chip_v6.o)
                0x3ffe8022                tx_rf_ana_gain
                0x3ffe8050                rx_gain_swp
                0x3ffe8070                test_rffreq_txcap
 .data          0x3ffe8073        0x0 c:/Espressif/ESP8266_SDK_151/lib\libphy.a(phy_chip_v6_cal.o)
 .data          0x3ffe8073        0x0 c:/Espressif/ESP8266_SDK_151/lib\libphy.a(phy_chip_v6_unused.o)
 *fill*         0x3ffe8073        0x1 
 .data          0x3ffe8074        0x4 c:/Espressif/ESP8266_SDK_151/lib\libphy.a(phy_sleep.o)
                0x3ffe8074                chip_version
 .data          0x3ffe8078        0x0 c:/Espressif/ESP8266_SDK_151/lib\libpp.a(if_hwctrl.o)
 .data          0x3ffe8078        0x0 c:/Espressif/ESP8266_SDK_151/lib\libpp.a(lmac.o)
 .data          0x3ffe8078        0x1 c:/Espressif/ESP8266_SDK_151/lib\libpp.a(pm.o)
 *fill*         0x3ffe8079        0x3 
 .data          0x3ffe807c        0x1 c:/Espressif/ESP8266_SDK_151/lib\libpp.a(pm_for_bcn_only_mode.o)
 *fill*         0x3ffe807d        0x3 
 .data          0x3ffe8080       0x1c c:/Espressif/ESP8266_SDK_151/lib\libpp.a(pp.o)
                0x3ffe8080                soft_wdt_interval
                0x3ffe8084                NoiseTimerInterval
                0x3ffe808c                sleep_start_wait_time
                0x3ffe8094                CanDoFreqCal
                0x3ffe8098                tcb
 *fill*         0x3ffe809c        0x4 
 .data          0x3ffe80a0       0x40 c:/Espressif/ESP8266_SDK_151/lib\libpp.a(rate_control.o)
 .data          0x3ffe80e0      0x24c c:/Espressif/ESP8266_SDK_151/lib\libpp.a(trc.o)
 .data          0x3ffe832c        0x8 c:/Espressif/ESP8266_SDK_151/lib\libpp.a(wdev.o)
 .data          0x3ffe8334        0x0 c:/Espressif/ESP8266_SDK_151/lib\libpp.a(esf_buf.o)
 .data          0x3ffe8334        0x0 c:/Espressif/ESP8266_SDK_151/lib\libnet80211.a(ieee80211.o)
 .data          0x3ffe8334        0x0 c:/Espressif/ESP8266_SDK_151/lib\libnet80211.a(ieee80211_crypto.o)
 .data          0x3ffe8334        0x0 c:/Espressif/ESP8266_SDK_151/lib\libnet80211.a(ieee80211_ets.o)
 .data          0x3ffe8334        0x1 c:/Espressif/ESP8266_SDK_151/lib\libnet80211.a(ieee80211_hostap.o)
                0x3ffe8334                TmpSTAAPCloseAP
 .data          0x3ffe8335        0x0 c:/Espressif/ESP8266_SDK_151/lib\libnet80211.a(ieee80211_ht.o)
 .data          0x3ffe8335        0x0 c:/Espressif/ESP8266_SDK_151/lib\libnet80211.a(ieee80211_input.o)
 .data          0x3ffe8335        0x0 c:/Espressif/ESP8266_SDK_151/lib\libnet80211.a(ieee80211_mesh_quick.o)
 .data          0x3ffe8335        0x0 c:/Espressif/ESP8266_SDK_151/lib\libnet80211.a(ieee80211_output.o)
 .data          0x3ffe8335        0x0 c:/Espressif/ESP8266_SDK_151/lib\libnet80211.a(ieee80211_phy.o)
 .data          0x3ffe8335        0x0 c:/Espressif/ESP8266_SDK_151/lib\libnet80211.a(ieee80211_power.o)
 .data          0x3ffe8335        0x0 c:/Espressif/ESP8266_SDK_151/lib\libnet80211.a(ieee80211_proto.o)
 .data          0x3ffe8335        0x0 c:/Espressif/ESP8266_SDK_151/lib\libnet80211.a(ieee80211_rfid.o)
 .data          0x3ffe8335        0x0 c:/Espressif/ESP8266_SDK_151/lib\libnet80211.a(ieee80211_scan.o)
 .data          0x3ffe8335        0x0 c:/Espressif/ESP8266_SDK_151/lib\libnet80211.a(ieee80211_sta.o)
 .data          0x3ffe8335        0x0 c:/Espressif/ESP8266_SDK_151/lib\libnet80211.a(wl_chm.o)
 *fill*         0x3ffe8335        0x3 
 .data          0x3ffe8338        0x1 c:/Espressif/ESP8266_SDK_151/lib\libnet80211.a(wl_cnx.o)
 *fill*         0x3ffe8339        0x7 
 .data          0x3ffe8340       0x1c c:/Espressif/ESP8266_SDK_151/lib\libnet80211.a(ieee80211_action.o)
 .data          0x3ffe835c        0x0 c:/Espressif/ESP8266_SDK_151/lib\libnet80211.a(ieee80211_action_vendor.o)
 .data          0x3ffe835c        0x0 c:/Espressif/ESP8266_SDK_151/lib\libnet80211.a(ieee80211_crypto_ccmp.o)
 .data          0x3ffe835c        0x0 c:/Espressif/ESP8266_SDK_151/lib\libnet80211.a(ieee80211_ie_vendor.o)
 .data          0x3ffe835c        0x4 c:/Espressif/ESP8266_SDK_151/lib\liblwip.a(dhcp.o)
 .data          0x3ffe8360        0x5 c:/Espressif/ESP8266_SDK_151/lib\liblwip.a(dhcpserver.o)
                0x3ffe8360                dhcps_lease_time
 .data          0x3ffe8365        0x0 c:/Espressif/ESP8266_SDK_151/lib\liblwip.a(dns.o)
 .data          0x3ffe8365        0x0 c:/Espressif/ESP8266_SDK_151/lib\liblwip.a(espconn_tcp.o)
 .data          0x3ffe8365        0x0 c:/Espressif/ESP8266_SDK_151/lib\liblwip.a(etharp.o)
 .data          0x3ffe8365        0x0 c:/Espressif/ESP8266_SDK_151/lib\liblwip.a(init.o)
 .data          0x3ffe8365        0x0 c:/Espressif/ESP8266_SDK_151/lib\liblwip.a(ip_addr.o)
 .data          0x3ffe8365        0x0 c:/Espressif/ESP8266_SDK_151/lib\liblwip.a(ip.o)
 *fill*         0x3ffe8365        0x3 
 .data          0x3ffe8368        0x2 c:/Espressif/ESP8266_SDK_151/lib\liblwip.a(memp.o)
                0x3ffe8368                memp_sizes_test
 .data          0x3ffe836a        0x0 c:/Espressif/ESP8266_SDK_151/lib\liblwip.a(netif.o)
 .data          0x3ffe836a        0x0 c:/Espressif/ESP8266_SDK_151/lib\liblwip.a(pbuf.o)
 .data          0x3ffe836a        0x0 c:/Espressif/ESP8266_SDK_151/lib\liblwip.a(raw.o)
 .data          0x3ffe836a        0x0 c:/Espressif/ESP8266_SDK_151/lib\liblwip.a(tcp_in.o)
 *fill*         0x3ffe836a        0x2 
 .data          0x3ffe836c        0x8 c:/Espressif/ESP8266_SDK_151/lib\liblwip.a(tcp.o)
 .data          0x3ffe8374        0x0 c:/Espressif/ESP8266_SDK_151/lib\liblwip.a(tcp_out.o)
 .data          0x3ffe8374        0x0 c:/Espressif/ESP8266_SDK_151/lib\liblwip.a(timers.o)
 .data          0x3ffe8374        0x0 c:/Espressif/ESP8266_SDK_151/lib\liblwip.a(udp.o)
 .data          0x3ffe8374        0x0 c:/Espressif/ESP8266_SDK_151/lib\liblwip.a(espconn.o)
 .data          0x3ffe8374        0x0 c:/Espressif/ESP8266_SDK_151/lib\liblwip.a(espconn_udp.o)
 .data          0x3ffe8374        0x0 c:/Espressif/ESP8266_SDK_151/lib\liblwip.a(icmp.o)
 .data          0x3ffe8374        0x0 c:/Espressif/ESP8266_SDK_151/lib\liblwip.a(igmp.o)
 .data          0x3ffe8374        0x0 c:/Espressif/ESP8266_SDK_151/lib\liblwip.a(inet_chksum.o)
 .data          0x3ffe8374        0x0 c:/Espressif/ESP8266_SDK_151/lib\libwpa.a(ap_config.o)
 .data          0x3ffe8374        0x0 c:/Espressif/ESP8266_SDK_151/lib\libwpa.a(common.o)
 .data          0x3ffe8374        0x0 c:/Espressif/ESP8266_SDK_151/lib\libwpa.a(os_xtensa.o)
 .data          0x3ffe8374        0x0 c:/Espressif/ESP8266_SDK_151/lib\libwpa.a(wpa_auth.o)
 .data          0x3ffe8374        0x0 c:/Espressif/ESP8266_SDK_151/lib\libwpa.a(wpa_auth_ie.o)
 .data          0x3ffe8374        0x0 c:/Espressif/ESP8266_SDK_151/lib\libwpa.a(wpa.o)
 .data          0x3ffe8374        0x0 c:/Espressif/ESP8266_SDK_151/lib\libwpa.a(wpa_common.o)
 .data          0x3ffe8374        0x0 c:/Espressif/ESP8266_SDK_151/lib\libwpa.a(wpa_debug.o)
 .data          0x3ffe8374        0x0 c:/Espressif/ESP8266_SDK_151/lib\libwpa.a(wpa_ie.o)
 .data          0x3ffe8374        0x0 c:/Espressif/ESP8266_SDK_151/lib\libwpa.a(wpa_main.o)
 .data          0x3ffe8374        0x0 c:/Espressif/ESP8266_SDK_151/lib\libwpa.a(wpas_glue.o)
 .data          0x3ffe8374        0x0 c:/Espressif/ESP8266_SDK_151/lib\libcrypto.a(aes-wrap.o)
 .data          0x3ffe8374        0x0 c:/Espressif/ESP8266_SDK_151/lib\libcrypto.a(aes-internal-enc.o)
 .data          0x3ffe8374        0x0 c:/Espressif/ESP8266_SDK_151/lib\libcrypto.a(aes-internal.o)
 .data          0x3ffe8374        0x0 c:/espressif/xtensa-lx106-elf/bin/../lib/gcc/xtensa-lx106-elf/5.1.0\libgcc.a(_divsi3.o)
 .data          0x3ffe8374        0x0 c:/espressif/xtensa-lx106-elf/bin/../lib/gcc/xtensa-lx106-elf/5.1.0\libgcc.a(_modsi3.o)
 .data          0x3ffe8374        0x0 c:/espressif/xtensa-lx106-elf/bin/../lib/gcc/xtensa-lx106-elf/5.1.0\libgcc.a(_ashrdi3.o)
 .data          0x3ffe8374        0x0 c:/espressif/xtensa-lx106-elf/bin/../lib/gcc/xtensa-lx106-elf/5.1.0\libgcc.a(_addsubsf3.o)
 .data          0x3ffe8374        0x0 c:/espressif/xtensa-lx106-elf/bin/../lib/gcc/xtensa-lx106-elf/5.1.0\libgcc.a(_mulsf3.o)
 .data          0x3ffe8374        0x0 c:/espressif/xtensa-lx106-elf/bin/../lib/gcc/xtensa-lx106-elf/5.1.0\libgcc.a(_divsf3.o)
 .data          0x3ffe8374        0x0 c:/espressif/xtensa-lx106-elf/bin/../lib/gcc/xtensa-lx106-elf/5.1.0\libgcc.a(_fixsfsi.o)
 .data          0x3ffe8374        0x0 c:/espressif/xtensa-lx106-elf/bin/../lib/gcc/xtensa-lx106-elf/5.1.0\libgcc.a(_fixunssfsi.o)
 .data          0x3ffe8374        0x0 c:/espressif/xtensa-lx106-elf/bin/../lib/gcc/xtensa-lx106-elf/5.1.0\libgcc.a(_floatsisf.o)
 .data          0x3ffe8374        0x0 c:/espressif/xtensa-lx106-elf/bin/../lib/gcc/xtensa-lx106-elf/5.1.0\libgcc.a(_muldf3.o)
 .data          0x3ffe8374        0x0 c:/espressif/xtensa-lx106-elf/bin/../lib/gcc/xtensa-lx106-elf/5.1.0\libgcc.a(_divdf3.o)
 .data          0x3ffe8374        0x0 c:/espressif/xtensa-lx106-elf/bin/../lib/gcc/xtensa-lx106-elf/5.1.0\libgcc.a(_fixdfsi.o)
 .data          0x3ffe8374        0x0 c:/espressif/xtensa-lx106-elf/bin/../lib/gcc/xtensa-lx106-elf/5.1.0\libgcc.a(_floatsidf.o)
 .data          0x3ffe8374        0x0 c:/espressif/xtensa-lx106-elf/bin/../lib/gcc/xtensa-lx106-elf/5.1.0\libgcc.a(_truncdfsf2.o)
 .data          0x3ffe8374        0x0 c:/espressif/xtensa-lx106-elf/bin/../lib/gcc/xtensa-lx106-elf/5.1.0\libgcc.a(_divdi3.o)
 .data          0x3ffe8374        0x0 c:/espressif/xtensa-lx106-elf/bin/../lib/gcc/xtensa-lx106-elf/5.1.0\libgcc.a(_umoddi3.o)
 .data          0x3ffe8374        0x0 c:/Espressif/ESP8266_SDK_151/lib\libnet80211.a(ieee80211_crypto_tkip.o)
 .data          0x3ffe8374        0x0 c:/Espressif/ESP8266_SDK_151/lib\libnet80211.a(ieee80211_crypto_wep.o)
 *(.data.*)
 *(.gnu.linkonce.d.*)
 *(.data1)
 *(.sdata)
 *(.sdata.*)
 *(.gnu.linkonce.s.*)
 *(.sdata2)
 *(.sdata2.*)
 *(.gnu.linkonce.s2.*)
 *(.jcr)
                0x3ffe8374                _data_end = ABSOLUTE (.)

.rodata         0x3ffe8380      0x248
                0x3ffe8380                _rodata_start = ABSOLUTE (.)
 *(.sdk.version)
 .sdk.version   0x3ffe8380       0x10 c:/Espressif/ESP8266_SDK_151/lib\libmain.a(app_main.o)
                0x3ffe8380                SDK_VERSION
 *(.rodata)
 .rodata        0x3ffe8390       0x40 build/debug/app_app.a(easygpio.o)
 .rodata        0x3ffe83d0        0x8 c:/Espressif/ESP8266_SDK_151/lib\libphy.a(phy_chip_v6_ana.o)
 .rodata        0x3ffe83d8        0x8 c:/Espressif/ESP8266_SDK_151/lib\libphy.a(phy_chip_v6.o)
 .rodata        0x3ffe83e0        0x4 c:/Espressif/ESP8266_SDK_151/lib\libpp.a(pp.o)
 .rodata        0x3ffe83e4        0x8 c:/Espressif/ESP8266_SDK_151/lib\libnet80211.a(ieee80211_hostap.o)
 .rodata        0x3ffe83ec        0x9 c:/Espressif/ESP8266_SDK_151/lib\libnet80211.a(ieee80211_output.o)
 *fill*         0x3ffe83f5        0x3 
 .rodata        0x3ffe83f8        0x6 c:/Espressif/ESP8266_SDK_151/lib\liblwip.a(etharp.o)
                0x3ffe83f8                ethbroadcast
 *(.rodata.*)
 *fill*         0x3ffe83fe        0x2 
 .rodata.str1.4
                0x3ffe8400        0xc c:/Espressif/ESP8266_SDK_151/lib\libmain.a(app_main.o)
 .rodata.str1.4
                0x3ffe840c        0x4 c:/Espressif/ESP8266_SDK_151/lib\libmain.a(ets_timer.o)
                                  0xc (size before relaxing)
 .rodata.str1.4
                0x3ffe8410       0x1a c:/Espressif/ESP8266_SDK_151/lib\libmain.a(mem_manager.o)
 *fill*         0x3ffe842a        0x2 
 .rodata.str1.4
                0x3ffe842c       0x28 build/debug/app_app.a(user_main.o)
 .rodata.str1.4
                0x3ffe8454       0xd8 build/debug/app_app.a(easygpio.o)
 .rodata.str1.4
                0x3ffe852c        0x4 c:/Espressif/ESP8266_SDK_151/lib\libpp.a(lmac.o)
                                  0xc (size before relaxing)
 .rodata.str1.4
                0x3ffe8530        0x4 c:/Espressif/ESP8266_SDK_151/lib\libpp.a(pm_for_bcn_only_mode.o)
                                  0xc (size before relaxing)
 .rodata.str1.4
                0x3ffe8534        0x8 c:/Espressif/ESP8266_SDK_151/lib\libpp.a(pp.o)
                                 0x10 (size before relaxing)
 .rodata.str1.4
                0x3ffe853c        0x4 c:/Espressif/ESP8266_SDK_151/lib\libpp.a(wdev.o)
                                  0xc (size before relaxing)
 .rodata.str1.4
                0x3ffe8540        0x3 c:/Espressif/ESP8266_SDK_151/lib\libnet80211.a(ieee80211_hostap.o)
                                  0x8 (size before relaxing)
 *fill*         0x3ffe8543        0x1 
 .rodata.str1.4
                0x3ffe8544        0x7 c:/Espressif/ESP8266_SDK_151/lib\libnet80211.a(ieee80211_mesh_quick.o)
 .rodata.str1.4
                0x00000000        0x4 c:/Espressif/ESP8266_SDK_151/lib\libnet80211.a(ieee80211_sta.o)
 .rodata.str1.4
                0x00000000        0x4 c:/Espressif/ESP8266_SDK_151/lib\libnet80211.a(ieee80211_action_vendor.o)
 .rodata.str1.4
                0x00000000        0x4 c:/Espressif/ESP8266_SDK_151/lib\libnet80211.a(ieee80211_ie_vendor.o)
 .rodata.str1.4
                0x00000000        0x7 c:/Espressif/ESP8266_SDK_151/lib\liblwip.a(espconn_tcp.o)
                                  0x1 (size before relaxing)
 *fill*         0x3ffe854b        0x1 
 .rodata.str1.4
                0x3ffe854c       0x10 c:/Espressif/ESP8266_SDK_151/lib\libwpa.a(wpa_debug.o)
                                  0xd (size before relaxing)
 *(.gnu.linkonce.r.*)
 *(.rodata1)
                0x3ffe855c                __XT_EXCEPTION_TABLE__ = ABSOLUTE (.)
 *(.xt_except_table)
 *(.gcc_except_table)
 *(.gnu.linkonce.e.*)
 *(.gnu.version_r)
 *(.eh_frame)
 .eh_frame      0x3ffe855c       0x38 c:/espressif/xtensa-lx106-elf/bin/../lib/gcc/xtensa-lx106-elf/5.1.0\libgcc.a(_divdi3.o)
 .eh_frame      0x3ffe8594       0x2c c:/espressif/xtensa-lx106-elf/bin/../lib/gcc/xtensa-lx106-elf/5.1.0\libgcc.a(_umoddi3.o)
                                 0x3c (size before relaxing)
 *crtbegin.o(.ctors)
 *(EXCLUDE_FILE(*crtend.o) .ctors)
 *(SORT(.ctors.*))
 *(.ctors)
 *crtbegin.o(.dtors)
 *(EXCLUDE_FILE(*crtend.o) .dtors)
 *(SORT(.dtors.*))
 *(.dtors)
                0x3ffe85c0                __XT_EXCEPTION_DESCS__ = ABSOLUTE (.)
 *(.xt_except_desc)
 *(.gnu.linkonce.h.*)
                0x3ffe85c0                __XT_EXCEPTION_DESCS_END__ = ABSOLUTE (.)
 *(.xt_except_desc_end)
 *(.dynamic)
 *(.gnu.version_d)
                0x3ffe85c0                . = ALIGN (0x4)
                0x3ffe85c0                _bss_table_start = ABSOLUTE (.)
                0x3ffe85c0        0x4 LONG 0x3ffe85c8 _bss_start
                0x3ffe85c4        0x4 LONG 0x3ffee808 _bss_end
                0x3ffe85c8                _bss_table_end = ABSOLUTE (.)
                0x3ffe85c8                _rodata_end = ABSOLUTE (.)

.bss            0x3ffe85c8     0x6240
                0x3ffe85c8                . = ALIGN (0x8)
                0x3ffe85c8                _bss_start = ABSOLUTE (.)
 *(.dynsbss)
 *(.sbss)
 *(.sbss.*)
 *(.gnu.linkonce.sb.*)
 *(.scommon)
 *(.sbss2)
 *(.sbss2.*)
 *(.gnu.linkonce.sb2.*)
 *(.dynbss)
 *(.bss)
 .bss           0x3ffe85c8        0x0 c:/Espressif/ESP8266_SDK_151/lib\libmain.a(debug-vector.o)
 .bss           0x3ffe85c8        0x0 c:/Espressif/ESP8266_SDK_151/lib\libmain.a(double-vector.o)
 .bss           0x3ffe85c8        0x0 c:/Espressif/ESP8266_SDK_151/lib\libmain.a(kernel-vector.o)
 *fill*         0x3ffe85c8        0x8 
 .bss           0x3ffe85d0      0x1c0 c:/Espressif/ESP8266_SDK_151/lib\libmain.a(nmi-vector.o)
 .bss           0x3ffe8790        0x0 c:/Espressif/ESP8266_SDK_151/lib\libmain.a(user-vector.o)
 .bss           0x3ffe8790        0x0 c:/Espressif/ESP8266_SDK_151/lib\libmain.a(vector.o)
 .bss           0x3ffe8790       0x41 c:/Espressif/ESP8266_SDK_151/lib\libmain.a(app_main.o)
                0x3ffe8794                info
                0x3ffe87b8                lwip_timer_interval
                0x3ffe87bc                check_timeouts_timer
                0x3ffe87d0                user_init_flag
 *fill*         0x3ffe87d1        0xf 
 .bss           0x3ffe87e0       0x30 c:/Espressif/ESP8266_SDK_151/lib\libmain.a(ets_timer.o)
                0x3ffe87e0                timer_list
                0x3ffe87e4                debug_timer
                0x3ffe87e8                debug_timerfn
 .bss           0x3ffe8810       0x3c c:/Espressif/ESP8266_SDK_151/lib\libmain.a(mem_manager.o)
 .bss           0x3ffe884c        0x4 c:/Espressif/ESP8266_SDK_151/lib\libmain.a(spi_flash.o)
                0x3ffe884c                flash_read
 .bss           0x3ffe8850      0x242 c:/Espressif/ESP8266_SDK_151/lib\libmain.a(user_interface.o)
                0x3ffe8947                deep_sleep_flag
                0x3ffe8948                cpu_overclock
                0x3ffe894c                event_cb
                0x3ffe8950                status_led_output_level
                0x3ffe8954                done_cb
                0x3ffe8958                rst_if
                0x3ffe8974                default_interface
                0x3ffe8975                OpmodChgIsOnGoing
                0x3ffe8978                promiscuous_cb
                0x3ffe8990                event_TaskQueue
 .bss           0x3ffe8a92        0x0 c:/Espressif/ESP8266_SDK_151/lib\libmain.a(eagle_lib.o)
 *fill*         0x3ffe8a92        0x2 
 .bss           0x3ffe8a94        0xc c:/Espressif/ESP8266_SDK_151/lib\libmain.a(eagle_lwip_if.o)
                0x3ffe8a94                hostname
 .bss           0x3ffe8aa0       0x2c build/debug/app_app.a(user_main.o)
                0x3ffe8aa0                wordBitCount
 .bss           0x3ffe8acc        0x0 build/debug/app_app.a(easygpio.o)
 .bss           0x3ffe8acc        0x0 build/debug/app_app.a(stdout.o)
 .bss           0x3ffe8acc        0x4 build/debug/app_app.a(hw_timer.o)
 .bss           0x3ffe8ad0        0x0 c:/espressif/xtensa-lx106-elf/bin/../lib/gcc/xtensa-lx106-elf/5.1.0\libgcc.a(_udivsi3.o)
 .bss           0x3ffe8ad0        0x0 c:/espressif/xtensa-lx106-elf/bin/../lib/gcc/xtensa-lx106-elf/5.1.0\libgcc.a(_umodsi3.o)
 .bss           0x3ffe8ad0        0x0 c:/espressif/xtensa-lx106-elf/bin/../lib/gcc/xtensa-lx106-elf/5.1.0\libgcc.a(_muldi3.o)
 .bss           0x3ffe8ad0        0x0 c:/espressif/xtensa-lx106-elf/bin/../lib/gcc/xtensa-lx106-elf/5.1.0\libgcc.a(_umulsidi3.o)
 .bss           0x3ffe8ad0        0x0 c:/espressif/xtensa-lx106-elf/bin/../lib/gcc/xtensa-lx106-elf/5.1.0/../../../../xtensa-lx106-elf/lib\libhal.a(int_asm--set_intclear.o)
 .bss           0x3ffe8ad0        0x4 c:/Espressif/ESP8266_SDK_151/lib\libphy.a(phy.o)
 .bss           0x3ffe8ad4        0x2 c:/Espressif/ESP8266_SDK_151/lib\libphy.a(phy_chip_v6_ana.o)
                0x3ffe8ad4                tout_dis_txpwr_track
                0x3ffe8ad5                sleep_mode_flag
 *fill*         0x3ffe8ad6        0x2 
 .bss           0x3ffe8ad8      0x160 c:/Espressif/ESP8266_SDK_151/lib\libphy.a(phy_chip_v6.o)
                0x3ffe8ad8                g_phyFuns
                0x3ffe8adc                rxiq_compute_num
                0x3ffe8ae0                rx_table_renew_en
                0x3ffe8ae4                check_result
                0x3ffe8ae8                chip6_sleep_params
                0x3ffe8b7c                chip6_phy_init_ctrl
                0x3ffe8bf0                phy_freq_offset
                0x3ffe8bf2                do_pwctrl_flag
                0x3ffe8bf3                pwctrl_debug
                0x3ffe8bf4                txbk_dpdby_flag
                0x3ffe8bf6                sw_scan_mode
                0x3ffe8bf7                rxmax_ext_level
                0x3ffe8bf8                phy_rx_gain_dc_table
                0x3ffe8c0c                periodic_cal_dc_num
                0x3ffe8c10                periodic_cal_flag
                0x3ffe8c11                bbpll_cal_flag
                0x3ffe8c12                phy_in_most_power
                0x3ffe8c13                init_rf_no_cal
                0x3ffe8c14                test_print_time
                0x3ffe8c18                phy_rx_gain_dc_flag
                0x3ffe8c19                phy_in_vdd33_offset
                0x3ffe8c1a                phy_set_most_tpw_disbg
                0x3ffe8c1b                phy_set_most_tpw_index
                0x3ffe8c1c                adc_rand_noise
                0x3ffe8c20                dpd_bypass_original
                0x3ffe8c28                noise_array
 .bss           0x3ffe8c38        0x8 c:/Espressif/ESP8266_SDK_151/lib\libphy.a(phy_chip_v6_cal.o)
                0x3ffe8c38                phy_tx_power_out
                0x3ffe8c3a                loop_pwctrl_pwdet_error_accum_high_power
                0x3ffe8c3c                tx_pwctrl_pk_num
                0x3ffe8c3d                tx_pwctrl_track_num
                0x3ffe8c3e                loop_pwctrl_correct_atten_high_power
                0x3ffe8c3f                rxiq_cover_fail_num
 .bss           0x3ffe8c40        0x0 c:/Espressif/ESP8266_SDK_151/lib\libphy.a(phy_chip_v6_unused.o)
 .bss           0x3ffe8c40        0x7 c:/Espressif/ESP8266_SDK_151/lib\libphy.a(phy_sleep.o)
                0x3ffe8c40                periodic_cal_sat
                0x3ffe8c42                lslp_mem_opt_8266
                0x3ffe8c44                software_slp_reject
                0x3ffe8c45                SDIO_slp_reject
                0x3ffe8c46                hardware_reject
 *fill*         0x3ffe8c47        0x9 
 .bss           0x3ffe8c50       0x40 c:/Espressif/ESP8266_SDK_151/lib\libpp.a(if_hwctrl.o)
                0x3ffe8c50                interface_mask
                0x3ffe8c70                if_ctrl
 .bss           0x3ffe8c90      0x150 c:/Espressif/ESP8266_SDK_151/lib\libpp.a(lmac.o)
                0x3ffe8c94                lmacConfMib
                0x3ffe8cb8                our_tx_eb
 .bss           0x3ffe8de0      0x11a c:/Espressif/ESP8266_SDK_151/lib\libpp.a(pm.o)
                0x3ffe8de0                pmc
                0x3ffe8ec0                flash_tmp
 *fill*         0x3ffe8efa        0x2 
 .bss           0x3ffe8efc       0x34 c:/Espressif/ESP8266_SDK_151/lib\libpp.a(pm_for_bcn_only_mode.o)
 .bss           0x3ffe8f30      0x322 c:/Espressif/ESP8266_SDK_151/lib\libpp.a(pp.o)
                0x3ffe8f48                pend_flag_noise_check
                0x3ffe8f50                pend_flag_periodic_cal
                0x3ffe8f68                idle_timer_reopen_flag
                0x3ffe8f6a                dbg_stop_sw_wdt
                0x3ffe8f6b                dbg_stop_hw_wdt
                0x3ffe8f6d                total_buffed_eb_num
                0x3ffe8f70                HighestFreqOffsetInOneChk
                0x3ffe8f72                LowestFreqOffsetInOneChk
                0x3ffe8f74                DefFreqCalTimer
                0x3ffe8f88                PktNumInOneChk
                0x3ffe9110                buffed_eb_arr
 *fill*         0x3ffe9252        0xe 
 .bss           0x3ffe9260      0x100 c:/Espressif/ESP8266_SDK_151/lib\libpp.a(rate_control.o)
 .bss           0x3ffe9360      0x46c c:/Espressif/ESP8266_SDK_151/lib\libpp.a(trc.o)
 *fill*         0x3ffe97cc        0x4 
 .bss           0x3ffe97d0     0x2f88 c:/Espressif/ESP8266_SDK_151/lib\libpp.a(wdev.o)
                0x3ffe97d0                wDevCtrl
                0x3ffe9978                WdevTimOffSet
 *fill*         0x3ffec758        0x8 
 .bss           0x3ffec760      0xaa4 c:/Espressif/ESP8266_SDK_151/lib\libpp.a(esf_buf.o)
 .bss           0x3ffed204      0x67c c:/Espressif/ESP8266_SDK_151/lib\libnet80211.a(ieee80211.o)
                0x3ffed204                g_ic
 .bss           0x3ffed880        0x0 c:/Espressif/ESP8266_SDK_151/lib\libnet80211.a(ieee80211_crypto.o)
 .bss           0x3ffed880        0x0 c:/Espressif/ESP8266_SDK_151/lib\libnet80211.a(ieee80211_ets.o)
 .bss           0x3ffed880       0x56 c:/Espressif/ESP8266_SDK_151/lib\libnet80211.a(ieee80211_hostap.o)
                0x3ffed880                BcnEb_update
                0x3ffed88d                BcnWithMcastSendStart
                0x3ffed88e                BcnWithMcastSendCnt
                0x3ffed8a8                PendFreeBcnEb
                0x3ffed8ac                ApFreqCalTimer
                0x3ffed8c0                APRecvBcnStartTick
 .bss           0x3ffed8d6        0x0 c:/Espressif/ESP8266_SDK_151/lib\libnet80211.a(ieee80211_ht.o)
 .bss           0x3ffed8d6        0x0 c:/Espressif/ESP8266_SDK_151/lib\libnet80211.a(ieee80211_input.o)
 .bss           0x3ffed8d6        0x0 c:/Espressif/ESP8266_SDK_151/lib\libnet80211.a(ieee80211_mesh_quick.o)
 .bss           0x3ffed8d6        0x0 c:/Espressif/ESP8266_SDK_151/lib\libnet80211.a(ieee80211_output.o)
 .bss           0x3ffed8d6        0x0 c:/Espressif/ESP8266_SDK_151/lib\libnet80211.a(ieee80211_phy.o)
 .bss           0x3ffed8d6        0x0 c:/Espressif/ESP8266_SDK_151/lib\libnet80211.a(ieee80211_power.o)
 .bss           0x3ffed8d6        0x0 c:/Espressif/ESP8266_SDK_151/lib\libnet80211.a(ieee80211_proto.o)
 .bss           0x3ffed8d6        0x0 c:/Espressif/ESP8266_SDK_151/lib\libnet80211.a(ieee80211_rfid.o)
 *fill*         0x3ffed8d6        0x2 
 .bss           0x3ffed8d8       0xc8 c:/Espressif/ESP8266_SDK_151/lib\libnet80211.a(ieee80211_scan.o)
                0x3ffed8d8                gScanStruct
                0x3ffed984                connect_scan_flag
                0x3ffed985                FreqCalCntForScan
                0x3ffed986                TestStaFreqCalValInput
                0x3ffed988                auth_type
                0x3ffed98a                scannum
 .bss           0x3ffed9a0       0x10 c:/Espressif/ESP8266_SDK_151/lib\libnet80211.a(ieee80211_sta.o)
 .bss           0x3ffed9b0       0x3c c:/Espressif/ESP8266_SDK_151/lib\libnet80211.a(wl_chm.o)
 *fill*         0x3ffed9ec        0x4 
 .bss           0x3ffed9f0      0x37a c:/Espressif/ESP8266_SDK_151/lib\libnet80211.a(wl_cnx.o)
                0x3ffedd50                sta_con_timer
                0x3ffedd64                g_cnx_probe_rc_list_cb
                0x3ffedd68                reconnect_flag
                0x3ffedd69                no_ap_found_index
 .bss           0x3ffedd6a        0x0 c:/Espressif/ESP8266_SDK_151/lib\libnet80211.a(ieee80211_action.o)
 *fill*         0x3ffedd6a        0x2 
 .bss           0x3ffedd6c       0x10 c:/Espressif/ESP8266_SDK_151/lib\libnet80211.a(ieee80211_action_vendor.o)
 .bss           0x3ffedd7c        0x0 c:/Espressif/ESP8266_SDK_151/lib\libnet80211.a(ieee80211_crypto_ccmp.o)
 .bss           0x3ffedd7c        0x0 c:/Espressif/ESP8266_SDK_151/lib\libnet80211.a(ieee80211_ie_vendor.o)
 *fill*         0x3ffedd7c        0x4 
 .bss           0x3ffedd80       0x38 c:/Espressif/ESP8266_SDK_151/lib\liblwip.a(dhcp.o)
                0x3ffedd80                dhcp_rx_options_given
                0x3ffedd90                dhcp_rx_options_val
 .bss           0x3ffeddb8       0x28 c:/Espressif/ESP8266_SDK_151/lib\liblwip.a(dhcpserver.o)
 .bss           0x3ffedde0      0x480 c:/Espressif/ESP8266_SDK_151/lib\liblwip.a(dns.o)
 .bss           0x3ffee260       0x78 c:/Espressif/ESP8266_SDK_151/lib\liblwip.a(espconn_tcp.o)
                0x3ffee260                espconn_TaskQueue
 *fill*         0x3ffee2d8        0x8 
 .bss           0x3ffee2e0      0x100 c:/Espressif/ESP8266_SDK_151/lib\liblwip.a(etharp.o)
                0x3ffee2e4                ethzero
 .bss           0x3ffee3e0        0x0 c:/Espressif/ESP8266_SDK_151/lib\liblwip.a(init.o)
 .bss           0x3ffee3e0       0x10 c:/Espressif/ESP8266_SDK_151/lib\liblwip.a(ip_addr.o)
 .bss           0x3ffee3f0       0x12 c:/Espressif/ESP8266_SDK_151/lib\liblwip.a(ip.o)
                0x3ffee3f0                current_iphdr_dest
                0x3ffee3f4                current_iphdr_src
                0x3ffee3f8                current_netif
                0x3ffee3fc                current_header
 .bss           0x3ffee402        0x0 c:/Espressif/ESP8266_SDK_151/lib\liblwip.a(memp.o)
 *fill*         0x3ffee402        0x2 
 .bss           0x3ffee404        0x9 c:/Espressif/ESP8266_SDK_151/lib\liblwip.a(netif.o)
                0x3ffee404                netif_list
                0x3ffee408                netif_default
 .bss           0x3ffee40d        0x0 c:/Espressif/ESP8266_SDK_151/lib\liblwip.a(pbuf.o)
 *fill*         0x3ffee40d        0x3 
 .bss           0x3ffee410        0x4 c:/Espressif/ESP8266_SDK_151/lib\liblwip.a(raw.o)
 .bss           0x3ffee414       0x34 c:/Espressif/ESP8266_SDK_151/lib\liblwip.a(tcp_in.o)
                0x3ffee444                tcp_input_pcb
 .bss           0x3ffee448       0x1c c:/Espressif/ESP8266_SDK_151/lib\liblwip.a(tcp.o)
                0x3ffee44c                tcp_active_pcbs
                0x3ffee450                tcp_tmp_pcb
                0x3ffee454                tcp_tw_pcbs
                0x3ffee458                tcp_bound_pcbs
                0x3ffee45c                tcp_listen_pcbs
                0x3ffee460                tcp_ticks
 .bss           0x3ffee464        0x0 c:/Espressif/ESP8266_SDK_151/lib\liblwip.a(tcp_out.o)
 .bss           0x3ffee464        0xc c:/Espressif/ESP8266_SDK_151/lib\liblwip.a(timers.o)
 .bss           0x3ffee470        0x4 c:/Espressif/ESP8266_SDK_151/lib\liblwip.a(udp.o)
                0x3ffee470                udp_pcbs
 *fill*         0x3ffee474        0xc 
 .bss           0x3ffee480      0x104 c:/Espressif/ESP8266_SDK_151/lib\liblwip.a(espconn.o)
                0x3ffee480                plink_active
                0x3ffee484                pserver_list
                0x3ffee490                premot
                0x3ffee550                pktinfo
 .bss           0x3ffee584        0x0 c:/Espressif/ESP8266_SDK_151/lib\liblwip.a(espconn_udp.o)
 .bss           0x3ffee584        0x0 c:/Espressif/ESP8266_SDK_151/lib\liblwip.a(icmp.o)
 .bss           0x3ffee584        0xc c:/Espressif/ESP8266_SDK_151/lib\liblwip.a(igmp.o)
 .bss           0x3ffee590        0x0 c:/Espressif/ESP8266_SDK_151/lib\liblwip.a(inet_chksum.o)
 .bss           0x3ffee590        0x0 c:/Espressif/ESP8266_SDK_151/lib\libwpa.a(ap_config.o)
 .bss           0x3ffee590        0x0 c:/Espressif/ESP8266_SDK_151/lib\libwpa.a(common.o)
 .bss           0x3ffee590        0x0 c:/Espressif/ESP8266_SDK_151/lib\libwpa.a(os_xtensa.o)
 .bss           0x3ffee590        0x0 c:/Espressif/ESP8266_SDK_151/lib\libwpa.a(wpa_auth.o)
 .bss           0x3ffee590        0x0 c:/Espressif/ESP8266_SDK_151/lib\libwpa.a(wpa_auth_ie.o)
 .bss           0x3ffee590      0x26a c:/Espressif/ESP8266_SDK_151/lib\libwpa.a(wpa.o)
 .bss           0x3ffee7fa        0x0 c:/Espressif/ESP8266_SDK_151/lib\libwpa.a(wpa_common.o)
 .bss           0x3ffee7fa        0x0 c:/Espressif/ESP8266_SDK_151/lib\libwpa.a(wpa_debug.o)
 .bss           0x3ffee7fa        0x0 c:/Espressif/ESP8266_SDK_151/lib\libwpa.a(wpa_ie.o)
 .bss           0x3ffee7fa        0x0 c:/Espressif/ESP8266_SDK_151/lib\libwpa.a(wpa_main.o)
 .bss           0x3ffee7fa        0x0 c:/Espressif/ESP8266_SDK_151/lib\libwpa.a(wpas_glue.o)
 .bss           0x3ffee7fa        0x0 c:/Espressif/ESP8266_SDK_151/lib\libcrypto.a(aes-wrap.o)
 .bss           0x3ffee7fa        0x0 c:/Espressif/ESP8266_SDK_151/lib\libcrypto.a(aes-internal-enc.o)
 .bss           0x3ffee7fa        0x0 c:/Espressif/ESP8266_SDK_151/lib\libcrypto.a(aes-internal.o)
 .bss           0x3ffee7fa        0x0 c:/espressif/xtensa-lx106-elf/bin/../lib/gcc/xtensa-lx106-elf/5.1.0\libgcc.a(_divsi3.o)
 .bss           0x3ffee7fa        0x0 c:/espressif/xtensa-lx106-elf/bin/../lib/gcc/xtensa-lx106-elf/5.1.0\libgcc.a(_modsi3.o)
 .bss           0x3ffee7fa        0x0 c:/espressif/xtensa-lx106-elf/bin/../lib/gcc/xtensa-lx106-elf/5.1.0\libgcc.a(_ashrdi3.o)
 .bss           0x3ffee7fa        0x0 c:/espressif/xtensa-lx106-elf/bin/../lib/gcc/xtensa-lx106-elf/5.1.0\libgcc.a(_addsubsf3.o)
 .bss           0x3ffee7fa        0x0 c:/espressif/xtensa-lx106-elf/bin/../lib/gcc/xtensa-lx106-elf/5.1.0\libgcc.a(_mulsf3.o)
 .bss           0x3ffee7fa        0x0 c:/espressif/xtensa-lx106-elf/bin/../lib/gcc/xtensa-lx106-elf/5.1.0\libgcc.a(_divsf3.o)
 .bss           0x3ffee7fa        0x0 c:/espressif/xtensa-lx106-elf/bin/../lib/gcc/xtensa-lx106-elf/5.1.0\libgcc.a(_fixsfsi.o)
 .bss           0x3ffee7fa        0x0 c:/espressif/xtensa-lx106-elf/bin/../lib/gcc/xtensa-lx106-elf/5.1.0\libgcc.a(_fixunssfsi.o)
 .bss           0x3ffee7fa        0x0 c:/espressif/xtensa-lx106-elf/bin/../lib/gcc/xtensa-lx106-elf/5.1.0\libgcc.a(_floatsisf.o)
 .bss           0x3ffee7fa        0x0 c:/espressif/xtensa-lx106-elf/bin/../lib/gcc/xtensa-lx106-elf/5.1.0\libgcc.a(_muldf3.o)
 .bss           0x3ffee7fa        0x0 c:/espressif/xtensa-lx106-elf/bin/../lib/gcc/xtensa-lx106-elf/5.1.0\libgcc.a(_divdf3.o)
 .bss           0x3ffee7fa        0x0 c:/espressif/xtensa-lx106-elf/bin/../lib/gcc/xtensa-lx106-elf/5.1.0\libgcc.a(_fixdfsi.o)
 .bss           0x3ffee7fa        0x0 c:/espressif/xtensa-lx106-elf/bin/../lib/gcc/xtensa-lx106-elf/5.1.0\libgcc.a(_floatsidf.o)
 .bss           0x3ffee7fa        0x0 c:/espressif/xtensa-lx106-elf/bin/../lib/gcc/xtensa-lx106-elf/5.1.0\libgcc.a(_truncdfsf2.o)
 .bss           0x3ffee7fa        0x0 c:/espressif/xtensa-lx106-elf/bin/../lib/gcc/xtensa-lx106-elf/5.1.0\libgcc.a(_divdi3.o)
 .bss           0x3ffee7fa        0x0 c:/espressif/xtensa-lx106-elf/bin/../lib/gcc/xtensa-lx106-elf/5.1.0\libgcc.a(_umoddi3.o)
 *fill*         0x3ffee7fa        0x6 
 .bss           0x3ffee800        0x8 c:/Espressif/ESP8266_SDK_151/lib\libnet80211.a(ieee80211_crypto_tkip.o)
 .bss           0x3ffee808        0x0 c:/Espressif/ESP8266_SDK_151/lib\libnet80211.a(ieee80211_crypto_wep.o)
 *(.bss.*)
 *(.gnu.linkonce.b.*)
 *(COMMON)
                0x3ffee808                . = ALIGN (0x8)
                0x3ffee808                _bss_end = ABSOLUTE (.)
                0x3ffee808                _heap_start = ABSOLUTE (.)

.text           0x40100000     0x6926
                0x40100000                _stext = .
                0x40100000                _text_start = ABSOLUTE (.)
 *(.UserEnter.text)
 .UserEnter.text
                0x40100000        0xd c:/Espressif/ESP8266_SDK_151/lib\libmain.a(vector.o)
                                 0x14 (size before relaxing)
                0x40100004                call_user_start
                0x40100010                . = ALIGN (0x10)
 *fill*         0x4010000d        0x3 
 *(.DebugExceptionVector.text)
 .DebugExceptionVector.text
                0x40100010        0x6 c:/Espressif/ESP8266_SDK_151/lib\libmain.a(debug-vector.o)
                0x40100010                _DebugExceptionVector
                0x40100020                . = ALIGN (0x10)
 *fill*         0x40100016        0xa 
 *(.NMIExceptionVector.text)
 .NMIExceptionVector.text
                0x40100020        0x6 c:/Espressif/ESP8266_SDK_151/lib\libmain.a(nmi-vector.o)
                                  0xd (size before relaxing)
                0x40100020                _NMIExceptionVector
                0x40100030                . = ALIGN (0x10)
 *fill*         0x40100026        0xa 
 *(.KernelExceptionVector.text)
 .KernelExceptionVector.text
                0x40100030        0x6 c:/Espressif/ESP8266_SDK_151/lib\libmain.a(kernel-vector.o)
                0x40100030                _KernelExceptionVector
                0x40100036        0x4 LONG 0x0
                0x4010003a        0x4 LONG 0x0
                0x4010003e        0x4 LONG 0x0
                0x40100042        0x4 LONG 0x0
                0x40100050                . = ALIGN (0x10)
 *fill*         0x40100046        0xa 
 *(.UserExceptionVector.text)
 .UserExceptionVector.text
                0x40100050        0x6 c:/Espressif/ESP8266_SDK_151/lib\libmain.a(user-vector.o)
                                  0xd (size before relaxing)
                0x40100050                _UserExceptionVector
                0x40100056        0x4 LONG 0x0
                0x4010005a        0x4 LONG 0x0
                0x4010005e        0x4 LONG 0x0
                0x40100062        0x4 LONG 0x0
                0x40100070                . = ALIGN (0x10)
 *fill*         0x40100066        0xa 
 *(.DoubleExceptionVector.text)
 .DoubleExceptionVector.text
                0x40100070        0x6 c:/Espressif/ESP8266_SDK_151/lib\libmain.a(double-vector.o)
                0x40100070                _DoubleExceptionVector
                0x40100076        0x4 LONG 0x0
                0x4010007a        0x4 LONG 0x0
                0x4010007e        0x4 LONG 0x0
                0x40100082        0x4 LONG 0x0
                0x40100090                . = ALIGN (0x10)
 *fill*         0x40100086        0xa 
 *(.entry.text)
 *(.init.literal)
 *(.init)
 *(.literal .text .literal.* .text.* .stub .gnu.warning .gnu.linkonce.literal.* .gnu.linkonce.t.*.literal .gnu.linkonce.t.*)
 .text          0x40100090       0xc7 c:/Espressif/ESP8266_SDK_151/lib\libmain.a(nmi-vector.o)
                                 0xcb (size before relaxing)
                0x4010009c                _NMILevelVector
 *fill*         0x40100157        0x1 
 .text          0x40100158       0x1e c:/Espressif/ESP8266_SDK_151/lib\libmain.a(user-vector.o)
                0x4010015c                _UserExceptionVector_1
 *fill*         0x40100176        0x2 
 .text          0x40100178      0x55f c:/Espressif/ESP8266_SDK_151/lib\libmain.a(app_main.o)
                                0x5bb (size before relaxing)
                0x401001b0                Cache_Read_Enable_New
                0x401001ec                NmiTimSetFunc
                0x40100210                NMI_Handler
                0x40100268                call_user_start_local
                0x40100388                wdt_feed
 *fill*         0x401006d7        0x1 
 .text          0x401006d8      0x267 c:/Espressif/ESP8266_SDK_151/lib\libmain.a(ets_timer.o)
                                0x29f (size before relaxing)
                0x40100744                ets_timer_setfn
                0x401007bc                ets_timer_disarm
                0x4010084c                ets_timer_arm_new
 *fill*         0x4010093f        0x1 
 .text          0x40100940      0x30f c:/Espressif/ESP8266_SDK_151/lib\libmain.a(mem_manager.o)
                                0x367 (size before relaxing)
                0x40100944                prvInsertBlockIntoUsedList
                0x40100974                system_show_malloc
                0x40100974                pvShowMalloc
                0x40100a00                prvRemoveBlockFromUsedList
                0x40100a2c                xPortWantedSizeAlign
                0x40100a54                pvPortMalloc
                0x40100b1c                vPortFree
                0x40100b74                pvPortCalloc
                0x40100ba4                pvPortZalloc
                0x40100bc0                pvPortRealloc
 *fill*         0x40100c4f        0x1 
 .text          0x40100c50      0x269 c:/Espressif/ESP8266_SDK_151/lib\libmain.a(spi_flash.o)
                                0x2b5 (size before relaxing)
                0x40100c54                Cache_Read_Disable_2
                0x40100c94                Cache_Read_Enable_2
                0x40100ccc                spi_flash_get_id
                0x40100d28                spi_flash_read_status
                0x40100d5c                spi_flash_write_status
                0x40100ddc                spi_flash_erase_sector
                0x40100e10                spi_flash_write
                0x40100e64                spi_flash_read
 *fill*         0x40100eb9        0x3 
 .text          0x40100ebc      0x2ee c:/Espressif/ESP8266_SDK_151/lib\libmain.a(user_interface.o)
                                0x34a (size before relaxing)
                0x40100ed8                os_printf_plus
                0x40101004                system_restart_core
                0x4010103c                system_deep_sleep_local_2
                0x401010b0                system_get_time
                0x401010c8                system_os_post
                0x401010fc                system_rtc_mem_write
                0x40101154                system_rtc_mem_read
 *fill*         0x401011aa        0x2 
 .text          0x401011ac      0x135 build/debug/app_app.a(user_main.o)
                                0x165 (size before relaxing)
 *fill*         0x401012e1        0x3 
 .text          0x401012e4       0x9c build/debug/app_app.a(easygpio.o)
                0x401012ec                easygpio_outputSet
                0x4010134c                easygpio_inputGet
 .text          0x40101380       0x6b build/debug/app_app.a(hw_timer.o)
                                 0x7f (size before relaxing)
                0x4010139c                hw_timer_arm
                0x401013e4                hw_timer_set_func
 *fill*         0x401013eb        0x1 
 .literal       0x401013ec        0x0 c:/espressif/xtensa-lx106-elf/bin/../lib/gcc/xtensa-lx106-elf/5.1.0\libgcc.a(_muldi3.o)
                                  0x4 (size before relaxing)
 .literal       0x401013ec        0x4 c:/espressif/xtensa-lx106-elf/bin/../lib/gcc/xtensa-lx106-elf/5.1.0\libgcc.a(_addsubsf3.o)
                                  0xc (size before relaxing)
 .literal       0x401013f0        0x0 c:/espressif/xtensa-lx106-elf/bin/../lib/gcc/xtensa-lx106-elf/5.1.0\libgcc.a(_mulsf3.o)
                                 0x10 (size before relaxing)
 .literal       0x401013f0        0x0 c:/espressif/xtensa-lx106-elf/bin/../lib/gcc/xtensa-lx106-elf/5.1.0\libgcc.a(_divsf3.o)
                                 0x10 (size before relaxing)
 .literal       0x401013f0        0x0 c:/espressif/xtensa-lx106-elf/bin/../lib/gcc/xtensa-lx106-elf/5.1.0\libgcc.a(_fixsfsi.o)
                                  0x4 (size before relaxing)
 .literal       0x401013f0        0x0 c:/espressif/xtensa-lx106-elf/bin/../lib/gcc/xtensa-lx106-elf/5.1.0\libgcc.a(_fixunssfsi.o)
                                  0x4 (size before relaxing)
 .literal       0x401013f0        0x8 c:/espressif/xtensa-lx106-elf/bin/../lib/gcc/xtensa-lx106-elf/5.1.0\libgcc.a(_muldf3.o)
                                 0x10 (size before relaxing)
 .literal       0x401013f8        0x0 c:/espressif/xtensa-lx106-elf/bin/../lib/gcc/xtensa-lx106-elf/5.1.0\libgcc.a(_divdf3.o)
                                 0x10 (size before relaxing)
 .literal       0x401013f8        0x0 c:/espressif/xtensa-lx106-elf/bin/../lib/gcc/xtensa-lx106-elf/5.1.0\libgcc.a(_fixdfsi.o)
                                  0x4 (size before relaxing)
 .literal       0x401013f8        0x4 c:/espressif/xtensa-lx106-elf/bin/../lib/gcc/xtensa-lx106-elf/5.1.0\libgcc.a(_truncdfsf2.o)
                                  0x8 (size before relaxing)
 .literal       0x401013fc        0x0 c:/espressif/xtensa-lx106-elf/bin/../lib/gcc/xtensa-lx106-elf/5.1.0\libgcc.a(_divdi3.o)
                                 0x48 (size before relaxing)
 .literal       0x401013fc        0x0 c:/espressif/xtensa-lx106-elf/bin/../lib/gcc/xtensa-lx106-elf/5.1.0\libgcc.a(_umoddi3.o)
                                 0x48 (size before relaxing)
 .text          0x401013fc       0x36 c:/espressif/xtensa-lx106-elf/bin/../lib/gcc/xtensa-lx106-elf/5.1.0\libgcc.a(_muldi3.o)
                0x401013fc                __muldi3
 *fill*         0x40101432        0x2 
 .text          0x40101434       0x53 c:/Espressif/ESP8266_SDK_151/lib\libphy.a(phy.o)
                                 0x5f (size before relaxing)
                0x4010143c                register_phy_ops
                0x4010145c                register_get_phy_addr
                0x40101464                phy_change_channel
                0x4010147c                phy_get_mactime
 *fill*         0x40101487        0x1 
 .text          0x40101488       0xaa c:/Espressif/ESP8266_SDK_151/lib\libphy.a(phy_chip_v6_cal.o)
                                 0xb2 (size before relaxing)
                0x40101488                unsign_to_sign
                0x401014c0                phy_get_bb_freqoffset
                0x40101524                phy_get_bb_evm
 *fill*         0x40101532        0x2 
 .text          0x40101534       0xef c:/Espressif/ESP8266_SDK_151/lib\libphy.a(phy_sleep.o)
                                0x103 (size before relaxing)
                0x40101540                pm_rtc_clock_cali
                0x401015f8                clockgate_watchdog
 *fill*         0x40101623        0x1 
 .text          0x40101624     0x160a c:/Espressif/ESP8266_SDK_151/lib\libpp.a(lmac.o)
                               0x1962 (size before relaxing)
                0x40101628                lmacIsActive
                0x4010163c                lmacIsIdle
                0x40101ac0                lmacSetAcParam
                0x40101b14                lmacProcessTXStartData
                0x40101c94                lmacProcessTxSuccess
                0x40101dd8                GetAccess
                0x40101de4                lmacDiscardAgedMSDU
                0x40101df8                lmacRecycleMPDU
                0x401023c0                lmacProcessTxTimeout
                0x40102428                lmacProcessAllTxTimeout
                0x4010243c                lmacProcessCollisions
                0x4010249c                lmacProcessCollision
                0x40102520                lmacMSDUAged
                0x401028b0                lmacProcessCtsTimeout
                0x401028e8                lmacProcessAckTimeout
                0x40102940                lmacProcessRtsStart
                0x4010294c                lmacProcessTxRtsError
                0x401029ec                lmacProcessTxError
                0x40102a7c                lmacTxFrame
                0x40102c18                lmacRxDone
 *fill*         0x40102c2e        0x2 
 .text          0x40102c30      0x8e1 c:/Espressif/ESP8266_SDK_151/lib\libpp.a(pp.o)
                                0x9fd (size before relaxing)
                0x40102c64                pp_soft_wdt_feed_local
                0x40102cf8                ppProcessTxQ
                0x40102d6c                ppFetchTxQFirstAvail
                0x40102dac                ppDequeueTxQ
                0x40102dd4                ppRollBackTxQ
                0x40102df8                ppRecordBarRRC
                0x40102e08                ppTxqUpdateBitmap
                0x40102e30                ppEnqueueTxDone
                0x40102e64                ppEnqueueRxq
                0x4010334c                ppDiscardMPDU
                0x40103370                pp_post
                0x401033fc                pp_post2
                0x40103424                ppCalTxop
                0x401034a4                ppCalFrameTimes
 *fill*         0x40103511        0x3 
 .text          0x40103514       0xf5 c:/Espressif/ESP8266_SDK_151/lib\libpp.a(rate_control.o)
                                0x109 (size before relaxing)
                0x40103534                RC_GetAckRate
                0x40103540                RC_GetRtsRate
                0x40103550                RC_GetAckTime
                0x40103564                RC_GetCtsTime
                0x4010359c                RC_GetBlockAckTime
 *fill*         0x40103609        0x3 
 .text          0x4010360c      0x9a1 c:/Espressif/ESP8266_SDK_151/lib\libpp.a(trc.o)
                                0xa05 (size before relaxing)
                0x401037e0                rcUpdateTxDone
                0x40103874                rcUpdateRxDone
                0x401038d0                rcUpdateDataRxDone
                0x401038ec                rcGetSched
                0x401039d0                rcGetRate
                0x40103ee0                rcReachRetryLimit
                0x40103ef8                trc_NeedRTS
 *fill*         0x40103fad        0x3 
 .text          0x40103fb0     0x105f c:/Espressif/ESP8266_SDK_151/lib\libpp.a(wdev.o)
                               0x1347 (size before relaxing)
                0x40104354                wDev_MacTim1SetFunc
                0x40104374                wDev_MacTim1Arm
                0x40104408                wDev_ProcessFiq
                0x4010474c                wDev_EnableTransmit
                0x40104784                wDev_DisableTransmit
                0x401047a4                Tx_Copy2Queue
                0x401047ec                wDev_ProcessCollision
                0x40104810                wDev_GetTxqCollisions
                0x40104820                wDev_ClearTxqCollisions
                0x4010483c                wDev_SetWaitingQueue
                0x40104884                wDev_ClearWaitingQueue
                0x401048a8                wDev_SetFrameAckType
                0x4010490c                wDev_AppendRxBlocks
                0x40104a50                wDev_AppendRxAmpduLensBlocks
                0x40104b24                wDev_GetBAInfo
                0x40104b58                wDevDisableRx
 *fill*         0x4010500f        0x1 
 .text          0x40105010       0x4c c:/Espressif/ESP8266_SDK_151/lib\libpp.a(esf_buf.o)
                                 0x5c (size before relaxing)
                0x40105014                esf_rx_buf_alloc
 .text          0x4010505c       0x23 c:/Espressif/ESP8266_SDK_151/lib\libnet80211.a(ieee80211_output.o)
                                 0x27 (size before relaxing)
 *fill*         0x4010507f        0x1 
 .text          0x40105080        0xb c:/Espressif/ESP8266_SDK_151/lib\libnet80211.a(wl_chm.o)
                0x40105084                chm_get_current_channel
 *fill*         0x4010508b        0x1 
 .text          0x4010508c       0x43 c:/Espressif/ESP8266_SDK_151/lib\liblwip.a(etharp.o)
                                 0x47 (size before relaxing)
 *fill*         0x401050cf        0x1 
 .text          0x401050d0      0x1fd c:/Espressif/ESP8266_SDK_151/lib\liblwip.a(tcp.o)
                                0x229 (size before relaxing)
 *fill*         0x401052cd        0x3 
 .text          0x401052d0      0x15d c:/Espressif/ESP8266_SDK_151/lib\liblwip.a(tcp_out.o)
                                0x161 (size before relaxing)
 *fill*         0x4010542d        0x3 
 .text          0x40105430       0xb4 c:/Espressif/ESP8266_SDK_151/lib\liblwip.a(timers.o)
                                 0xc0 (size before relaxing)
 .text          0x401054e4      0x1ff c:/espressif/xtensa-lx106-elf/bin/../lib/gcc/xtensa-lx106-elf/5.1.0\libgcc.a(_addsubsf3.o)
                0x40105500                __addsf3
                0x401055e8                __subsf3
 *fill*         0x401056e3        0x1 
 .text          0x401056e4      0x15d c:/espressif/xtensa-lx106-elf/bin/../lib/gcc/xtensa-lx106-elf/5.1.0\libgcc.a(_mulsf3.o)
                0x4010575c                __mulsf3
 *fill*         0x40105841        0x3 
 .text          0x40105844      0x135 c:/espressif/xtensa-lx106-elf/bin/../lib/gcc/xtensa-lx106-elf/5.1.0\libgcc.a(_divsf3.o)
                0x401058c0                __divsf3
 *fill*         0x40105979        0x3 
 .text          0x4010597c       0x40 c:/espressif/xtensa-lx106-elf/bin/../lib/gcc/xtensa-lx106-elf/5.1.0\libgcc.a(_fixsfsi.o)
                0x4010597c                __fixsfsi
 .text          0x401059bc       0x51 c:/espressif/xtensa-lx106-elf/bin/../lib/gcc/xtensa-lx106-elf/5.1.0\libgcc.a(_fixunssfsi.o)
                0x401059bc                __fixunssfsi
 *fill*         0x40105a0d        0x3 
 .text          0x40105a10      0x29b c:/espressif/xtensa-lx106-elf/bin/../lib/gcc/xtensa-lx106-elf/5.1.0\libgcc.a(_muldf3.o)
                0x40105af0                __muldf3
 *fill*         0x40105cab        0x1 
 .text          0x40105cac      0x20b c:/espressif/xtensa-lx106-elf/bin/../lib/gcc/xtensa-lx106-elf/5.1.0\libgcc.a(_divdf3.o)
                0x40105d94                __divdf3
 *fill*         0x40105eb7        0x1 
 .text          0x40105eb8       0x48 c:/espressif/xtensa-lx106-elf/bin/../lib/gcc/xtensa-lx106-elf/5.1.0\libgcc.a(_fixdfsi.o)
                0x40105eb8                __fixdfsi
 .text          0x40105f00       0xa0 c:/espressif/xtensa-lx106-elf/bin/../lib/gcc/xtensa-lx106-elf/5.1.0\libgcc.a(_truncdfsf2.o)
                0x40105f00                __truncdfsf2
 .text          0x40105fa0      0x3df c:/espressif/xtensa-lx106-elf/bin/../lib/gcc/xtensa-lx106-elf/5.1.0\libgcc.a(_divdi3.o)
                                0x40f (size before relaxing)
                0x40105fa0                __divdi3
 *fill*         0x4010637f        0x1 
 .text          0x40106380      0x350 c:/espressif/xtensa-lx106-elf/bin/../lib/gcc/xtensa-lx106-elf/5.1.0\libgcc.a(_umoddi3.o)
                                0x388 (size before relaxing)
                0x40106380                __umoddi3
 .text          0x401066d0        0x0 c:/Espressif/ESP8266_SDK_151/lib\libmain.a(debug-vector.o)
 .text          0x401066d0        0x0 c:/Espressif/ESP8266_SDK_151/lib\libmain.a(double-vector.o)
 .text          0x401066d0        0x0 c:/Espressif/ESP8266_SDK_151/lib\libmain.a(kernel-vector.o)
 .literal       0x401066d0        0x0 c:/Espressif/ESP8266_SDK_151/lib\libmain.a(nmi-vector.o)
 *fill*         0x401066d0        0x0 
 .literal       0x401066d0        0x0 c:/Espressif/ESP8266_SDK_151/lib\libmain.a(user-vector.o)
 .text          0x401066d0        0x0 c:/Espressif/ESP8266_SDK_151/lib\libmain.a(vector.o)
 *fill*         0x401066d0        0x0 
 .literal       0x401066d0        0x0 c:/Espressif/ESP8266_SDK_151/lib\libmain.a(app_main.o)
 *fill*         0x401066d0        0x0 
 .literal       0x401066d0        0x0 c:/Espressif/ESP8266_SDK_151/lib\libmain.a(ets_timer.o)
 *fill*         0x401066d0        0x0 
 .literal       0x401066d0        0x0 c:/Espressif/ESP8266_SDK_151/lib\libmain.a(mem_manager.o)
 *fill*         0x401066d0        0x0 
 .literal       0x401066d0        0x0 c:/Espressif/ESP8266_SDK_151/lib\libmain.a(spi_flash.o)
 *fill*         0x401066d0        0x0 
 .literal       0x401066d0        0x0 c:/Espressif/ESP8266_SDK_151/lib\libmain.a(user_interface.o)
 .text          0x401066d0        0x0 c:/Espressif/ESP8266_SDK_151/lib\libmain.a(eagle_lib.o)
 .text          0x401066d0        0x0 c:/Espressif/ESP8266_SDK_151/lib\libmain.a(eagle_lwip_if.o)
 *fill*         0x401066d0        0x0 
 .literal       0x401066d0        0x0 build/debug/app_app.a(user_main.o)
 *fill*         0x401066d0        0x0 
 .literal       0x401066d0        0x0 build/debug/app_app.a(easygpio.o)
 .text          0x401066d0        0x0 build/debug/app_app.a(stdout.o)
 .literal       0x401066d0        0x0 build/debug/app_app.a(hw_timer.o)
 *fill*         0x401066d0        0x0 
 .text          0x401066d0       0x4c c:/espressif/xtensa-lx106-elf/bin/../lib/gcc/xtensa-lx106-elf/5.1.0\libgcc.a(_udivsi3.o)
                0x401066d0                __udivsi3
 .text          0x4010671c       0x39 c:/espressif/xtensa-lx106-elf/bin/../lib/gcc/xtensa-lx106-elf/5.1.0\libgcc.a(_umodsi3.o)
                0x4010671c                __umodsi3
 *fill*         0x40106755        0x0 
 *fill*         0x40106755        0x3 
 .text          0x40106758       0x48 c:/espressif/xtensa-lx106-elf/bin/../lib/gcc/xtensa-lx106-elf/5.1.0\libgcc.a(_umulsidi3.o)
                0x40106758                __umulsidi3
 .text          0x401067a0        0x5 c:/espressif/xtensa-lx106-elf/bin/../lib/gcc/xtensa-lx106-elf/5.1.0/../../../../xtensa-lx106-elf/lib\libhal.a(int_asm--set_intclear.o)
                0x401067a0                xthal_set_intclear
 *fill*         0x401067a5        0x3 
 .literal       0x401067a8        0x0 c:/Espressif/ESP8266_SDK_151/lib\libphy.a(phy.o)
 .text          0x401067a8        0x0 c:/Espressif/ESP8266_SDK_151/lib\libphy.a(phy_chip_v6_ana.o)
 .text          0x401067a8        0x0 c:/Espressif/ESP8266_SDK_151/lib\libphy.a(phy_chip_v6.o)
 *fill*         0x401067a8        0x0 
 .literal       0x401067a8        0x0 c:/Espressif/ESP8266_SDK_151/lib\libphy.a(phy_chip_v6_cal.o)
 .text          0x401067a8        0x0 c:/Espressif/ESP8266_SDK_151/lib\libphy.a(phy_chip_v6_unused.o)
 *fill*         0x401067a8        0x0 
 .literal       0x401067a8        0x0 c:/Espressif/ESP8266_SDK_151/lib\libphy.a(phy_sleep.o)
 .text          0x401067a8        0x0 c:/Espressif/ESP8266_SDK_151/lib\libpp.a(if_hwctrl.o)
 *fill*         0x401067a8        0x0 
 .literal       0x401067a8        0x0 c:/Espressif/ESP8266_SDK_151/lib\libpp.a(lmac.o)
 .text          0x401067a8        0x0 c:/Espressif/ESP8266_SDK_151/lib\libpp.a(pm.o)
 .text          0x401067a8        0x0 c:/Espressif/ESP8266_SDK_151/lib\libpp.a(pm_for_bcn_only_mode.o)
 *fill*         0x401067a8        0x0 
 .literal       0x401067a8        0x0 c:/Espressif/ESP8266_SDK_151/lib\libpp.a(pp.o)
 *fill*         0x401067a8        0x0 
 .literal       0x401067a8        0x0 c:/Espressif/ESP8266_SDK_151/lib\libpp.a(rate_control.o)
 *fill*         0x401067a8        0x0 
 .literal       0x401067a8        0x0 c:/Espressif/ESP8266_SDK_151/lib\libpp.a(trc.o)
 *fill*         0x401067a8        0x0 
 .literal       0x401067a8        0x0 c:/Espressif/ESP8266_SDK_151/lib\libpp.a(wdev.o)
 *fill*         0x401067a8        0x0 
 .literal       0x401067a8        0x0 c:/Espressif/ESP8266_SDK_151/lib\libpp.a(esf_buf.o)
 .text          0x401067a8        0x0 c:/Espressif/ESP8266_SDK_151/lib\libnet80211.a(ieee80211.o)
 .text          0x401067a8        0x0 c:/Espressif/ESP8266_SDK_151/lib\libnet80211.a(ieee80211_crypto.o)
 .text          0x401067a8        0x0 c:/Espressif/ESP8266_SDK_151/lib\libnet80211.a(ieee80211_ets.o)
 .literal       0x401067a8        0x0 c:/Espressif/ESP8266_SDK_151/lib\libnet80211.a(ieee80211_hostap.o)
 .text          0x401067a8       0x25 c:/Espressif/ESP8266_SDK_151/lib\libnet80211.a(ieee80211_hostap.o)
 .text          0x401067cd        0x0 c:/Espressif/ESP8266_SDK_151/lib\libnet80211.a(ieee80211_ht.o)
 .text          0x401067cd        0x0 c:/Espressif/ESP8266_SDK_151/lib\libnet80211.a(ieee80211_input.o)
 .text          0x401067cd        0x0 c:/Espressif/ESP8266_SDK_151/lib\libnet80211.a(ieee80211_mesh_quick.o)
 *fill*         0x401067cd        0x3 
 .literal       0x401067d0        0x0 c:/Espressif/ESP8266_SDK_151/lib\libnet80211.a(ieee80211_output.o)
 .text          0x401067d0        0x0 c:/Espressif/ESP8266_SDK_151/lib\libnet80211.a(ieee80211_phy.o)
 .text          0x401067d0        0x0 c:/Espressif/ESP8266_SDK_151/lib\libnet80211.a(ieee80211_power.o)
 .text          0x401067d0        0x0 c:/Espressif/ESP8266_SDK_151/lib\libnet80211.a(ieee80211_proto.o)
 .text          0x401067d0        0x0 c:/Espressif/ESP8266_SDK_151/lib\libnet80211.a(ieee80211_rfid.o)
 .text          0x401067d0        0x0 c:/Espressif/ESP8266_SDK_151/lib\libnet80211.a(ieee80211_scan.o)
 .text          0x401067d0        0x0 c:/Espressif/ESP8266_SDK_151/lib\libnet80211.a(ieee80211_sta.o)
 *fill*         0x401067d0        0x0 
 .literal       0x401067d0        0x0 c:/Espressif/ESP8266_SDK_151/lib\libnet80211.a(wl_chm.o)
 .text          0x401067d0        0x0 c:/Espressif/ESP8266_SDK_151/lib\libnet80211.a(wl_cnx.o)
 .text          0x401067d0        0x0 c:/Espressif/ESP8266_SDK_151/lib\libnet80211.a(ieee80211_action.o)
 .text          0x401067d0        0x0 c:/Espressif/ESP8266_SDK_151/lib\libnet80211.a(ieee80211_action_vendor.o)
 .text          0x401067d0        0x0 c:/Espressif/ESP8266_SDK_151/lib\libnet80211.a(ieee80211_crypto_ccmp.o)
 .text          0x401067d0        0x0 c:/Espressif/ESP8266_SDK_151/lib\libnet80211.a(ieee80211_ie_vendor.o)
 .text          0x401067d0        0x0 c:/Espressif/ESP8266_SDK_151/lib\liblwip.a(dhcp.o)
 .text          0x401067d0        0x0 c:/Espressif/ESP8266_SDK_151/lib\liblwip.a(dhcpserver.o)
 .text          0x401067d0        0x0 c:/Espressif/ESP8266_SDK_151/lib\liblwip.a(dns.o)
 .text          0x401067d0        0x0 c:/Espressif/ESP8266_SDK_151/lib\liblwip.a(espconn_tcp.o)
 *fill*         0x401067d0        0x0 
 .literal       0x401067d0        0x0 c:/Espressif/ESP8266_SDK_151/lib\liblwip.a(etharp.o)
 .text          0x401067d0        0x0 c:/Espressif/ESP8266_SDK_151/lib\liblwip.a(init.o)
 .text          0x401067d0        0x0 c:/Espressif/ESP8266_SDK_151/lib\liblwip.a(ip_addr.o)
 .text          0x401067d0        0x0 c:/Espressif/ESP8266_SDK_151/lib\liblwip.a(ip.o)
 .text          0x401067d0        0x0 c:/Espressif/ESP8266_SDK_151/lib\liblwip.a(memp.o)
 .text          0x401067d0        0x0 c:/Espressif/ESP8266_SDK_151/lib\liblwip.a(netif.o)
 .text          0x401067d0        0x0 c:/Espressif/ESP8266_SDK_151/lib\liblwip.a(pbuf.o)
 .text          0x401067d0        0x0 c:/Espressif/ESP8266_SDK_151/lib\liblwip.a(raw.o)
 .text          0x401067d0        0x0 c:/Espressif/ESP8266_SDK_151/lib\liblwip.a(tcp_in.o)
 *fill*         0x401067d0        0x0 
 .literal       0x401067d0        0x0 c:/Espressif/ESP8266_SDK_151/lib\liblwip.a(tcp.o)
 *fill*         0x401067d0        0x0 
 .literal       0x401067d0        0x0 c:/Espressif/ESP8266_SDK_151/lib\liblwip.a(tcp_out.o)
 *fill*         0x401067d0        0x0 
 .literal       0x401067d0        0x0 c:/Espressif/ESP8266_SDK_151/lib\liblwip.a(timers.o)
 .text          0x401067d0        0x0 c:/Espressif/ESP8266_SDK_151/lib\liblwip.a(udp.o)
 .text          0x401067d0        0x0 c:/Espressif/ESP8266_SDK_151/lib\liblwip.a(espconn.o)
 .text          0x401067d0        0x0 c:/Espressif/ESP8266_SDK_151/lib\liblwip.a(espconn_udp.o)
 .text          0x401067d0        0x0 c:/Espressif/ESP8266_SDK_151/lib\liblwip.a(icmp.o)
 .text          0x401067d0        0x0 c:/Espressif/ESP8266_SDK_151/lib\liblwip.a(igmp.o)
 .text          0x401067d0        0x0 c:/Espressif/ESP8266_SDK_151/lib\liblwip.a(inet_chksum.o)
 .text          0x401067d0        0x0 c:/Espressif/ESP8266_SDK_151/lib\libwpa.a(ap_config.o)
 .text          0x401067d0        0x0 c:/Espressif/ESP8266_SDK_151/lib\libwpa.a(common.o)
 .text          0x401067d0        0x0 c:/Espressif/ESP8266_SDK_151/lib\libwpa.a(os_xtensa.o)
 .literal       0x401067d0        0x0 c:/Espressif/ESP8266_SDK_151/lib\libwpa.a(wpa_auth.o)
 .text          0x401067d0       0x11 c:/Espressif/ESP8266_SDK_151/lib\libwpa.a(wpa_auth.o)
 .text          0x401067e1        0x0 c:/Espressif/ESP8266_SDK_151/lib\libwpa.a(wpa_auth_ie.o)
 .text          0x401067e1        0x0 c:/Espressif/ESP8266_SDK_151/lib\libwpa.a(wpa.o)
 .text          0x401067e1        0x0 c:/Espressif/ESP8266_SDK_151/lib\libwpa.a(wpa_common.o)
 .text          0x401067e1        0x0 c:/Espressif/ESP8266_SDK_151/lib\libwpa.a(wpa_debug.o)
 .text          0x401067e1        0x0 c:/Espressif/ESP8266_SDK_151/lib\libwpa.a(wpa_ie.o)
 .text          0x401067e1        0x0 c:/Espressif/ESP8266_SDK_151/lib\libwpa.a(wpa_main.o)
 .text          0x401067e1        0x0 c:/Espressif/ESP8266_SDK_151/lib\libwpa.a(wpas_glue.o)
 .text          0x401067e1        0x0 c:/Espressif/ESP8266_SDK_151/lib\libcrypto.a(aes-wrap.o)
 .text          0x401067e1        0x0 c:/Espressif/ESP8266_SDK_151/lib\libcrypto.a(aes-internal-enc.o)
 .text          0x401067e1        0x0 c:/Espressif/ESP8266_SDK_151/lib\libcrypto.a(aes-internal.o)
 *fill*         0x401067e1        0x3 
 .text          0x401067e4       0x64 c:/espressif/xtensa-lx106-elf/bin/../lib/gcc/xtensa-lx106-elf/5.1.0\libgcc.a(_divsi3.o)
                0x401067e4                __divsi3
 .text          0x40106848       0x49 c:/espressif/xtensa-lx106-elf/bin/../lib/gcc/xtensa-lx106-elf/5.1.0\libgcc.a(_modsi3.o)
                0x40106848                __modsi3
 *fill*         0x40106891        0x3 
 .text          0x40106894       0x18 c:/espressif/xtensa-lx106-elf/bin/../lib/gcc/xtensa-lx106-elf/5.1.0\libgcc.a(_ashrdi3.o)
                0x40106894                __ashrdi3
 *fill*         0x401068ac        0x0 
 *fill*         0x401068ac        0x0 
 *fill*         0x401068ac        0x0 
 *fill*         0x401068ac        0x0 
 .text          0x401068ac       0x44 c:/espressif/xtensa-lx106-elf/bin/../lib/gcc/xtensa-lx106-elf/5.1.0\libgcc.a(_floatsisf.o)
                0x401068ac                __floatunsisf
                0x401068b4                __floatsisf
 *fill*         0x401068f0        0x0 
 *fill*         0x401068f0        0x0 
 .text          0x401068f0       0x36 c:/espressif/xtensa-lx106-elf/bin/../lib/gcc/xtensa-lx106-elf/5.1.0\libgcc.a(_floatsidf.o)
                0x401068f0                __floatunsidf
                0x401068f8                __floatsidf
 *fill*         0x40106926        0x0 
 *fill*         0x40106926        0x0 
 .text          0x40106926        0x0 c:/Espressif/ESP8266_SDK_151/lib\libnet80211.a(ieee80211_crypto_tkip.o)
 .text          0x40106926        0x0 c:/Espressif/ESP8266_SDK_151/lib\libnet80211.a(ieee80211_crypto_wep.o)
 *(.fini.literal)
 *(.fini)
 *(.gnu.version)
                0x40106926                _text_end = ABSOLUTE (.)
                0x40106926                _etext = .

.NMIExceptionVector.literal
                0x40106928        0x0
 .NMIExceptionVector.literal
                0x40106928        0x0 c:/Espressif/ESP8266_SDK_151/lib\libmain.a(nmi-vector.o)

.UserExceptionVector.literal
                0x40106928        0x0
 .UserExceptionVector.literal
                0x40106928        0x0 c:/Espressif/ESP8266_SDK_151/lib\libmain.a(user-vector.o)

.UserEnter.literal
                0x40106928        0x0
 .UserEnter.literal
                0x40106928        0x0 c:/Espressif/ESP8266_SDK_151/lib\libmain.a(vector.o)

.lit4           0x40106928        0x0
                0x40106928                _lit4_start = ABSOLUTE (.)
 *(*.lit4)
 *(.lit4.*)
 *(.gnu.linkonce.lit4.*)
                0x40106928                _lit4_end = ABSOLUTE (.)

.irom0.text     0x40210000    0x2dbf4
                0x40210000                _irom0_text_start = ABSOLUTE (.)
 *(.irom0.literal .irom.literal .irom.text.literal .irom0.text .irom.text)
 .irom0.text    0x40210000      0xa1d c:/Espressif/ESP8266_SDK_151/lib\libmain.a(app_main.o)
                                0xc31 (size before relaxing)
                0x402101e8                wdt_init
                0x40210290                user_uart_wait_tx_fifo_empty
                0x40210544                user_rf_pre_init
 *fill*         0x40210a1d        0x3 
 .irom0.text    0x40210a20      0x186 c:/Espressif/ESP8266_SDK_151/lib\libmain.a(ets_timer.o)
                                0x1b2 (size before relaxing)
                0x40210a28                ets_timer_done
                0x40210a74                ets_timer_handler_isr
                0x40210b44                ets_timer_init
 *fill*         0x40210ba6        0x2 
 .irom0.text    0x40210ba8       0xec c:/Espressif/ESP8266_SDK_151/lib\libmain.a(mem_manager.o)
                                 0xf8 (size before relaxing)
                0x40210ba8                check_memleak_debug_enable
                0x40210c14                xPortGetFreeHeapSize
                0x40210c1c                vPortInitialiseBlocks
 .irom0.text    0x40210c94        0xb c:/Espressif/ESP8266_SDK_151/lib\libmain.a(spi_flash.o)
                0x40210c98                spi_flash_set_read_func
 *fill*         0x40210c9f        0x1 
 .irom0.text    0x40210ca0     0x3459 c:/Espressif/ESP8266_SDK_151/lib\libmain.a(user_interface.o)
                               0x3e71 (size before relaxing)
                0x40210ca4                system_set_os_print
                0x40210cb4                system_get_os_print
                0x40210e7c                system_pp_recycle_rx_pkt
                0x40210e90                system_adc_read
                0x40210ea8                system_get_vdd33
                0x40210ec0                system_restart_hook
                0x40210ed8                system_restart_local
                0x40210fb8                system_restart
                0x40211014                system_restore
                0x4021107c                system_get_flash_size_map
                0x4021109c                system_get_boot_version
                0x402110d4                system_get_test_result
                0x402110fc                system_get_userbin_addr
                0x40211194                system_get_boot_mode
                0x402111c4                system_restart_enhance
                0x402112f4                system_upgrade_userbin_set
                0x40211340                system_upgrade_userbin_check
                0x40211380                system_upgrade_flag_set
                0x40211394                system_upgrade_flag_check
                0x402113bc                system_upgrade_reboot
                0x402114f0                system_deep_sleep_instant
                0x40211688                system_deep_sleep
                0x402116e8                system_deep_sleep_set_option
                0x40211704                system_phy_temperature_alert
                0x40211718                system_phy_set_max_tpw
                0x4021172c                system_phy_set_tpw_via_vdd33
                0x40211740                system_phy_set_rfoption
                0x40211754                system_phy_set_powerup_option
                0x4021176c                system_update_cpu_freq
                0x402117c8                system_get_cpu_freq
                0x402117e0                system_overclock
                0x4021180c                system_restoreclock
                0x4021183c                system_timer_reinit
                0x40211854                system_relative_time
                0x40211878                system_station_got_ip_set
                0x402119a4                system_print_meminfo
                0x40211a04                system_get_free_heap_size
                0x40211a1c                system_get_chip_id
                0x40211a40                system_rtc_clock_cali_proc
                0x40211a54                system_get_rtc_time
                0x40211a68                system_mktime
                0x40211b38                system_init_done_cb
                0x40211b40                system_get_rst_info
                0x40211b48                system_get_data_of_array_8
                0x40211b6c                system_get_data_of_array_16
                0x40211b94                system_get_string_from_flash
                0x40211c00                wifi_softap_dhcps_start
                0x40211c48                wifi_softap_dhcps_stop
                0x40211c88                wifi_softap_dhcps_status
                0x40211c90                wifi_station_dhcpc_start
                0x40211ce8                wifi_station_dhcpc_stop
                0x40211d28                wifi_station_dhcpc_event
                0x40211d9c                wifi_station_dhcpc_set_maxtry
                0x40211dac                wifi_station_dhcpc_status
                0x40211e24                wifi_get_opmode
                0x40211e38                wifi_get_opmode_default
                0x40211eb4                wifi_get_broadcast_if
                0x40211ef0                wifi_set_broadcast_if
                0x40212050                wifi_set_opmode
                0x40212064                wifi_set_opmode_current
                0x40212078                system_get_checksum
                0x402120c0                wifi_param_save_protect_with_check
                0x4021217c                system_param_save_with_protect
                0x40212224                system_save_sys_param
                0x40212250                system_param_load
                0x40212388                wifi_station_get_config
                0x4021239c                wifi_station_get_config_default
                0x402123bc                wifi_station_get_ap_info
                0x40212474                wifi_station_ap_number_set
                0x402127d8                wifi_station_set_config
                0x402127f0                wifi_station_set_config_current
                0x40212808                wifi_station_restore_config
                0x40212820                wifi_station_get_current_ap_id
                0x40212834                wifi_station_ap_check
                0x4021287c                wifi_station_ap_change
                0x402129a8                wifi_station_scan
                0x402129f4                wifi_station_get_auto_connect
                0x40212a08                wifi_station_set_auto_connect
                0x40212a58                wifi_station_save_pmk2cache
                0x40212b0c                wifi_station_connect
                0x40212ba0                wifi_station_disconnect
                0x40212c60                wifi_station_get_connect_status
                0x40212c90                wifi_station_set_reconnect_policy
                0x40212ca8                wifi_station_get_reconnect_policy
                0x40212cb0                wifi_station_get_rssi
                0x40212d00                wifi_station_set_default_hostname
                0x40212d68                wifi_station_get_hostname
                0x40212d98                wifi_station_set_hostname
                0x40212e38                wifi_softap_cacl_mac
                0x40212ea8                wifi_softap_set_default_ssid
                0x40213088                wifi_softap_get_config
                0x4021309c                wifi_softap_get_config_default
                0x402133f0                wifi_softap_set_config
                0x40213404                wifi_softap_set_config_current
                0x40213418                wifi_softap_set_station_info
                0x40213484                wifi_softap_get_station_info
                0x40213534                wifi_softap_free_station_info
                0x4021357c                wifi_softap_get_station_num
                0x402135d0                wifi_softap_deauth
                0x40213680                wifi_softap_get_beacon_only_mode
                0x40213694                wifi_softap_set_beacon_only_mode
                0x402136f8                wifi_register_user_ie_manufacturer_recv_cb
                0x4021370c                wifi_unregister_user_ie_manufacturer_recv_cb
                0x40213740                wifi_set_user_ie
                0x40213850                wifi_get_user_ie
                0x40213884                wifi_get_phy_mode
                0x4021388c                wifi_set_phy_mode
                0x40213954                wifi_set_sleep_type
                0x40213970                wifi_get_sleep_type
                0x40213988                wifi_get_channel
                0x402139a0                wifi_set_channel
                0x402139e4                wifi_promiscuous_set_mac
                0x40213a44                wifi_promiscuous_enable
                0x40213b28                wifi_set_promiscuous_rx_cb
                0x40213b38                wifi_get_ip_info
                0x40213bb8                wifi_set_ip_info
                0x40213c2c                wifi_get_macaddr
                0x40213c8c                wifi_set_macaddr
                0x40213da8                wifi_enable_6m_rate
                0x40213db0                wifi_get_user_fixed_rate
                0x40213dd0                wifi_set_user_fixed_rate
                0x40213df0                wifi_set_user_sup_rate
                0x40213e2c                wifi_set_user_rate_limit
                0x40213e50                wifi_get_user_limit_rate_mask
                0x40213e58                wifi_set_user_limit_rate_mask
                0x40213e70                wifi_register_send_pkt_freedom_cb
                0x40213e84                wifi_unregister_send_pkt_freedom_cb
                0x40213e90                wifi_send_pkt_freedom
                0x40213edc                wifi_rfid_locp_recv_open
                0x40213ef0                wifi_rfid_locp_recv_close
                0x40213f04                wifi_register_rfid_locp_recv_cb
                0x40213f18                wifi_unregister_rfid_locp_recv_cb
                0x40213f30                wifi_status_led_install
                0x40213f64                wifi_status_led_uninstall
                0x40213f88                wifi_set_status_led_output_level
                0x40213fdc                wifi_set_event_handler_cb
                0x40214024                system_os_task
                0x40214060                system_uart_swap
                0x402140c0                system_uart_de_swap
                0x402140f4                system_get_sdk_version
 *fill*         0x402140f9        0x3 
 .irom0.text    0x402140fc      0x610 c:/Espressif/ESP8266_SDK_151/lib\libmain.a(eagle_lib.o)
                                0x620 (size before relaxing)
                0x40214100                divide
                0x4021413c                skip_atoi
                0x402142bc                ets_vsnprintf
                0x4021461c                ets_vsprintf
                0x40214640                ets_sprintf
                0x40214668                ets_strcat
                0x40214688                ets_strrchr
                0x402146b4                ets_strchr
                0x402146cc                bit_popcount
                0x402146e8                ets_snprintf
 .irom0.text    0x4021470c      0x2f6 c:/Espressif/ESP8266_SDK_151/lib\libmain.a(eagle_lwip_if.o)
                                0x3b2 (size before relaxing)
                0x402147c4                eagle_lwip_if_alloc
                0x40214974                eagle_lwip_if_free
                0x402149e0                eagle_lwip_getif
 *fill*         0x40214a02        0x2 
 .irom0.text    0x40214a04      0x130 build/debug/app_app.a(user_main.o)
                                0x198 (size before relaxing)
                0x40214b0c                user_init
 .irom0.text    0x40214b34      0x4b9 build/debug/app_app.a(easygpio.o)
                                0x4f5 (size before relaxing)
                0x40214b34                easygpio_countBits
                0x40214b8c                easygpio_getGPIONameFunc
                0x40214cb8                easygpio_pullMode
                0x40214d0c                easygpio_pinMode
                0x40214e3c                easygpio_attachInterrupt
                0x40214f1c                easygpio_detachInterrupt
                0x40214f48                easygpio_outputDisable
                0x40214f88                easygpio_outputEnable
 *fill*         0x40214fed        0x3 
 .irom0.text    0x40214ff0       0xd9 build/debug/app_app.a(stdout.o)
                                 0xe1 (size before relaxing)
                0x40215050                stdout_init
 *fill*         0x402150c9        0x3 
 .irom0.text    0x402150cc       0x73 build/debug/app_app.a(hw_timer.o)
                                 0x7b (size before relaxing)
                0x402150dc                hw_timer_init
 *fill*         0x4021513f        0x1 
 .irom0.text    0x40215140       0xfa c:/Espressif/ESP8266_SDK_151/lib\libphy.a(phy.o)
                                0x11e (size before relaxing)
                0x40215144                rf_init
                0x40215160                bb_init
                0x40215178                phy_init
                0x402151a8                RFChannelSel
                0x402151c4                phy_delete_channel
                0x402151dc                phy_enable_agc
                0x402151f4                phy_disable_agc
                0x4021520c                phy_initialize_bb
                0x40215224                phy_set_sense
 *fill*         0x4021523a        0x2 
 .irom0.text    0x4021523c     0x16f7 c:/Espressif/ESP8266_SDK_151/lib\libphy.a(phy_chip_v6_ana.o)
                               0x18e3 (size before relaxing)
                0x40215240                ram_pbus_set_rxgain
                0x40215318                ram_pbus_debugmode
                0x402153cc                ram_pbus_xpd_tx_on
                0x40215438                set_rf_freq_offset
                0x402154ac                chip_v6_rxmax_ext_ana
                0x40215600                ram_chip_v6_rx_init
                0x40215634                tsen_meas
                0x402156e4                readvdd33
                0x402158b0                txpwr_offset
                0x4021596c                set_txcap_reg
                0x402159ec                ram_ana_inf_gating_en
                0x40215b4c                ram_restart_cal
                0x40215bb8                wait_rfpll_cal_end
                0x40215c50                ram_rfpll_set_freq
                0x40215d5c                ram_set_channel_freq
                0x4021605c                chip_60_set_channel
                0x402161ec                chip_v6_set_chan_offset
                0x40216228                chip_v6_set_chan
                0x402162bc                chip_v6_set_chan_wakeup
                0x40216340                chip_v6_rf_init
                0x40216564                low_power_set
                0x402165b4                test_tout
                0x4021672c                check_data_flag
                0x4021674c                phy_get_check_flag
                0x40216880                phy_get_vdd33
 *fill*         0x40216933        0x1 
 .irom0.text    0x40216934     0x3c33 c:/Espressif/ESP8266_SDK_151/lib\libphy.a(phy_chip_v6.o)
                               0x4293 (size before relaxing)
                0x40216934                ram_tx_mac_enable
                0x40216938                ram_tx_mac_disable
                0x4021693c                rtc_mem_backup
                0x4021696c                rtc_mem_recovery
                0x4021699c                set_cal_rxdc
                0x40216a50                set_rx_gain_cal_iq
                0x40216dac                gen_rx_gain_table
                0x40216f04                pbus_set_rxbbgain
                0x40216f84                set_rx_gain_testchip_50
                0x402172b8                ram_get_corr_power
                0x402173a8                check_data_func
                0x402173c8                do_noisefloor_lsleep_v50
                0x402173fc                do_noisefloor
                0x4021746c                start_dig_rx
                0x402174b0                stop_dig_rx
                0x402174dc                chip_v6_set_chanfreq
                0x40217508                tx_cap_init
                0x402176bc                target_power_add_backoff
                0x4021770c                tx_pwctrl_init_cal
                0x40217874                tx_atten_set_interp
                0x40217ae4                tx_pwctrl_init
                0x40217bd8                ram_get_noisefloor
                0x40217bf4                get_noisefloor_sat
                0x40217c24                ram_set_noise_floor
                0x40217c80                ram_start_noisefloor
                0x40217ccc                read_hw_noisefloor
                0x40217cf8                noise_check_loop
                0x40217e54                noise_init
                0x40218054                target_power_backoff
                0x402180a8                sdt_on_noise_start
                0x40218128                chip_v6_set_chan_rx_cmp
                0x402182b4                chip_v6_set_chan_misc
                0x40218348                phy_dig_spur_set
                0x402186a0                phy_dig_spur_prot
                0x402188d8                chip_v6_rxmax_ext_dig
                0x40218924                chip_v6_rxmax_ext
                0x402189d8                phy_bb_rx_cfg
                0x40218de0                uart_wait_idle
                0x40218e18                phy_pbus_soc_cfg
                0x40218ed8                phy_gpio_cfg
                0x40219220                tx_cont_en
                0x402192c4                tx_cont_dis
                0x40219318                tx_cont_cfg
                0x4021933c                chip_v6_initialize_bb
                0x402194a4                periodic_cal
                0x40219584                bbpll_cal
                0x4021961c                periodic_cal_top
                0x4021967c                register_chipv6_phy_init_param
                0x40219920                change_bbpll160_sleep
                0x40219a4c                change_bbpll160
                0x40219a84                set_crystal_uart
                0x40219b1c                ant_switch_init
                0x40219bc8                reduce_current_init
                0x40219c30                rtc_mem_check
                0x40219c6c                phy_afterwake_set_rfoption
                0x40219c8c                deep_sleep_set_option
                0x40219cb8                write_data_to_rtc
                0x40219cf0                get_data_from_rtc
                0x40219d78                register_chipv6_phy
                0x4021a188                set_dpd_bypass
                0x4021a1b0                set_rf_gain_stage10
                0x4021a1e0                get_vdd33_offset
                0x4021a254                get_phy_target_power
                0x4021a308                set_most_pwr_reg
                0x4021a3dc                phy_set_most_tpw
                0x4021a3fc                phy_vdd33_set_tpw
                0x4021a414                get_adc_rand
                0x4021a448                phy_get_rand
                0x4021a460                phy_tx_pwctrl_cali
                0x4021a488                phy_check_data_table
                0x4021a4c4                phy_after_init_enrx
                0x4021a528                phy_set_rx11b_reg
                0x4021a55c                phy_set_powerup_option
 *fill*         0x4021a567        0x1 
 .irom0.text    0x4021a568     0x21ac c:/Espressif/ESP8266_SDK_151/lib\libphy.a(phy_chip_v6_cal.o)
                               0x23ec (size before relaxing)
                0x4021a568                txbbgain2dcoindex
                0x4021a588                dcoindex2txbbgain
                0x4021a5ac                init_cal_dcoffset
                0x4021a670                set_rfanagain_dc_reg
                0x4021a70c                set_txdc_pbus
                0x4021a778                get_rf_gain_qdb
                0x4021a7a0                correct_rf_ana_gain
                0x4021a8a8                get_sar_dout
                0x4021a940                cal_rf_ana_gain
                0x4021aa18                meas_tone_pwr_db
                0x4021aa88                tx_pwr_backoff
                0x4021abd4                get_fcc_1m2m_pwr_offset
                0x4021ac10                ram_set_txbb_atten
                0x4021aca4                txiq_get_mis_pwr
                0x4021ad48                txiq_cover
                0x4021af64                ram_rfcal_txiq
                0x4021b1d4                rc_cal
                0x4021b394                get_target_power_offset
                0x4021b49c                get_pwctrl_correct
                0x4021b4f8                tx_pwctrl_cal
                0x4021b888                tx_pwctrl_bg_init
                0x4021b900                tx_pwctrl_background
                0x4021b9d8                read_sar_dout
                0x4021ba3c                ram_get_fm_sar_dout
                0x4021bae0                ram_cal_tos_v60
                0x4021bcc0                ram_get_bb_atten
                0x4021bcf0                ram_rfcal_txcap
                0x4021beb4                ram_rfcal_pwrctrl
                0x4021c0d0                ram_rxiq_get_mis
                0x4021c2a0                ram_rxiq_cover_mg_mp
                0x4021c444                ram_rfcal_rxiq
                0x4021c650                dpd_scale_set
                0x4021c698                dpd_mem_write
 .irom0.text    0x4021c714      0xd82 c:/Espressif/ESP8266_SDK_151/lib\libphy.a(phy_sleep.o)
                                0xfaa (size before relaxing)
                0x4021c714                pm_usec2rtc
                0x4021c748                pm_rtc2usec
                0x4021c758                pm_set_sleep_cycles
                0x4021c780                pm_sleep_opt
                0x4021c898                pm_wakeup_opt
                0x4021c8d0                get_chip_version
                0x4021c910                pm_sleep_opt_bb_off
                0x4021c950                pm_sleep_opt_bb_on
                0x4021c99c                pm_set_pll_xtal_wait_time
                0x4021c9e4                pm_prepare_to_sleep
                0x4021ca08                pm_sdio_nidle
                0x4021ca7c                chg_lslp_mem_opt_8266
                0x4021caac                pm_goto_sleep
                0x4021cbf8                pm_wait4wakeup
                0x4021cc34                pm_open_rf
                0x4021cc78                pm_sleep_set_mac
                0x4021ccfc                pm_set_wakeup_mac
                0x4021cd98                pm_check_mac_idle
                0x4021cdf0                pm_set_sleep_btco
                0x4021ce90                pm_set_wakeup_btco
                0x4021cfa8                pm_set_sleep_mode
                0x4021d0c4                pm_unmask_bt
                0x4021d12c                pm_wakeup_init
                0x4021d33c                sleep_opt_8266
                0x4021d35c                sleep_opt_bb_on_8266
                0x4021d394                sleep_reset_analog_rtcreg_8266
 *fill*         0x4021d496        0x2 
 .irom0.text    0x4021d498      0x469 c:/Espressif/ESP8266_SDK_151/lib\libpp.a(if_hwctrl.o)
                                0x581 (size before relaxing)
                0x4021d4b8                ic_get_addr
                0x4021d4c4                ic_set_opmode
                0x4021d4d8                ic_enable_interface
                0x4021d528                ic_interface_enabled
                0x4021d53c                ic_disable_interface
                0x4021d584                ic_is_pure_sta
                0x4021d5a0                ic_get_ptk_alg
                0x4021d5b0                ic_get_gtk_alg
                0x4021d5c0                ic_set_ptk_alg
                0x4021d5d0                ic_set_gtk_alg
                0x4021d5e0                ic_interface_is_p2p
                0x4021d678                ic_set_vif
                0x4021d738                ic_set_sta
                0x4021d810                ic_bss_info_update
                0x4021d86c                ic_set_key
                0x4021d8c8                ic_remove_key
                0x4021d8dc                ic_get_rssi
 *fill*         0x4021d901        0x3 
 .irom0.text    0x4021d904      0x100 c:/Espressif/ESP8266_SDK_151/lib\libpp.a(lmac.o)
                                0x118 (size before relaxing)
                0x4021d908                lmacInitAc
                0x4021d93c                lmacInit
                0x4021d9e8                lmacSetRetryLimit
 .irom0.text    0x4021da04     0x184d c:/Espressif/ESP8266_SDK_151/lib\libpp.a(pm.o)
                               0x1d31 (size before relaxing)
                0x4021da0c                pm_rtc_clock_cali_proc
                0x4021da44                pm_get_ck170_period
                0x4021da68                pm_set_sleep_time
                0x4021ddc8                pm_rf_is_closed
                0x4021ddf8                pm_set_sleep_type_from_upper
                0x4021dee8                pm_get_sleep_type
                0x4021e06c                uart_tx_flush
                0x4021e070                pm_suspend
                0x4021e290                pm_shutdown
                0x4021e358                pm_reset_idle_sleep
                0x4021e398                pm_idle_sleep
                0x4021e3a4                pm_open
                0x4021e46c                pm_onBcnRx
                0x4021e7d4                StopLightSleepSetFunc
                0x4021e7dc                LightSleepWakedCbSetFunc
                0x4021ecd8                pm_enable_gpio_wakeup
                0x4021ed10                pm_attach
                0x4021ee00                pm_send_nullfunc
                0x4021ef88                pm_is_waked
                0x4021efa0                pm_is_open
                0x4021efb8                pm_scan_lock
                0x4021efe0                pm_try_scan_unlock
                0x4021eff8                pm_force_scan_unlock
                0x4021f074                pm_scan_unlocked
                0x4021f088                pm_allow_tx
                0x4021f0a4                pm_assoc_parse
                0x4021f0bc                pm_set_addr
                0x4021f0dc                pm_sleep_for
                0x4021f10c                pm_post
                0x4021f210                pm_get_idle_wait_time
 *fill*         0x4021f251        0x3 
 .irom0.text    0x4021f254      0xa91 c:/Espressif/ESP8266_SDK_151/lib\libpp.a(pm_for_bcn_only_mode.o)
                                0xe19 (size before relaxing)
                0x4021f268                wifi_fpm_set_sleep_type
                0x4021f268                fpm_set_type_from_upper
                0x4021f324                fpm_get_slp_type
                0x4021f324                wifi_fpm_get_sleep_type
                0x4021f32c                fpm_rf_is_closed
                0x4021f340                fpm_is_open
                0x4021f34c                fpm_allow_tx
                0x4021f370                fpm_close
                0x4021f370                wifi_fpm_close
                0x4021f3ec                fpm_open
                0x4021f3ec                wifi_fpm_open
                0x4021f454                fpm_attach
                0x4021f638                fpm_set_wakeup_cb
                0x4021f638                wifi_fpm_set_wakeup_cb
                0x4021f7a8                fpm_do_wakeup
                0x4021f7a8                wifi_fpm_do_wakeup
                0x4021fc6c                fpm_do_sleep
                0x4021fc6c                wifi_fpm_do_sleep
 *fill*         0x4021fce5        0x3 
 .irom0.text    0x4021fce8     0x15b2 c:/Espressif/ESP8266_SDK_151/lib\libpp.a(pp.o)
                               0x1992 (size before relaxing)
                0x4021fcf4                PPWdtReset
                0x4021fd28                pp_soft_wdt_init
                0x4021fd48                system_soft_wdt_feed
                0x4021fd48                pp_soft_wdt_feed
                0x4021fd64                system_soft_wdt_stop
                0x4021fd64                pp_soft_wdt_stop
                0x4021fd90                system_soft_wdt_restart
                0x4021fd90                pp_soft_wdt_restart
                0x4021fdc8                RxNodeNum
                0x4021fde0                TxNodeNum
                0x4021fe04                pp_disable_noise_timer
                0x4021fe24                pp_enable_noise_timer
                0x4021ff34                pp_noise_test
                0x4021ff44                reset_noise_timer
                0x4021ff7c                pp_disable_idle_timer
                0x4021ffa0                pp_enable_idle_timer
                0x4021ffc8                pp_try_enable_idle_timer
                0x40220004                ppPeocessRxPktHdr
                0x40220338                HdlAllBuffedEb
                0x402203c0                ppTxPkt
                0x40220538                ppProcessWaitQ
                0x40220548                ppRegisterTxCallback
                0x40220570                ppUnregisterTxCallback
                0x402205a4                ppRecycleRxPkt
                0x40220604                ppCheckTxIdle
                0x4022087c                pp_tx_idle_timeout
                0x40220a38                DefFreqCalTimerCB
                0x40220db8                ppGetTxQFirstAvail_Locked
                0x40220e98                pp_attach
 *fill*         0x4022129a        0x2 
 .irom0.text    0x4022129c      0x296 c:/Espressif/ESP8266_SDK_151/lib\libpp.a(rate_control.o)
                                0x2a2 (size before relaxing)
                0x402214e8                RC_SetBasicRate
 *fill*         0x40221532        0x2 
 .irom0.text    0x40221534      0x5e9 c:/Espressif/ESP8266_SDK_151/lib\libpp.a(trc.o)
                                0x64d (size before relaxing)
                0x40221534                phytype2mode
                0x40221550                rc_set_rate_limit_id
                0x4022166c                rcUpdatePhyMode
                0x40221838                rcAttach
                0x40221884                rcGetTrc
                0x4022188c                trc_onDisconnect
                0x40221890                trc_onScanStart
                0x402218a4                trc_onScanDone
                0x402218c0                rc_enable_trc
                0x40221998                rc_get_mask
                0x402219ac                rc_disable_trc
                0x40221a00                rc_disable_trc_by_interface
                0x40221a1c                rc_get_sta_trc
                0x40221a60                rc_get_trc
                0x40221ad0                rc_get_trc_by_index
                0x40221af0                rc_only_sta_trc
 *fill*         0x40221b1d        0x3 
 .irom0.text    0x40221b20      0xaf7 c:/Espressif/ESP8266_SDK_151/lib\libpp.a(wdev.o)
                                0xc53 (size before relaxing)
                0x40221b2c                wDev_Option_Init
                0x40221c20                wDev_Enable_Beacon_Tsf
                0x40221c3c                wDev_Disable_Beacon_Tsf
                0x40221c58                wDev_Set_Beacon_Int
                0x40221c60                wDev_Reset_TBTT
                0x40221c90                wDev_Get_Next_TBTT
                0x40221f0c                wDev_Initialize
                0x40221f7c                wDevForceAck6M
                0x40221f98                wDev_SetMacAddress
                0x40222034                wDev_SetRxPolicy
                0x40222088                wDev_SetBssid
                0x40222160                wDev_ClearBssid
                0x40222198                wDev_Insert_KeyEntry
                0x4022228c                wDev_remove_KeyEntry
                0x402222c8                wDev_remove_KeyEntry_all_cnx
                0x40222318                wDev_Crypto_Conf
                0x402223b4                wDev_Crypto_Disable
                0x402223ec                wDevEnableRx
                0x40222414                wdev_go_sniffer
                0x402224f0                wdev_set_sniffer_addr
                0x40222548                wdev_exit_sniffer
 *fill*         0x40222617        0x1 
 .irom0.text    0x40222618      0x3ed c:/Espressif/ESP8266_SDK_151/lib\libpp.a(esf_buf.o)
                                0x4c1 (size before relaxing)
                0x40222620                esf_buf_alloc
                0x40222808                esf_buf_recycle
                0x40222948                esf_buf_setup
 *fill*         0x40222a05        0x3 
 .irom0.text    0x40222a08      0x475 c:/Espressif/ESP8266_SDK_151/lib\libnet80211.a(ieee80211.o)
                                0x545 (size before relaxing)
                0x40222a8c                ieee80211_rate_ref_init
                0x40222aa0                ieee80211_freedom_inside_cb
                0x40222ad0                ieee80211_freedom_init
                0x40222af4                ieee80211_user_ie_init
                0x40222b10                ieee80211_ifattach
                0x40222b74                ieee80211_mhz2ieee
                0x40222bd0                ieee80211_chan2ieee
                0x40222bec                ieee80211_ieee2mhz
                0x40222c2c                ieee80211_find_channel
                0x40222c58                ieee80211_find_channel_byieee
                0x40222ca8                wifi_mode_set
 *fill*         0x40222e7d        0x3 
 .irom0.text    0x40222e80       0xcf c:/Espressif/ESP8266_SDK_151/lib\libnet80211.a(ieee80211_crypto.o)
                                 0xd7 (size before relaxing)
                0x40222e80                ieee80211_crypto_attach
                0x40222e84                ieee80211_crypto_available
                0x40222e88                ieee80211_crypto_setkey
                0x40222e8c                ieee80211_crypto_encap
                0x40222ee4                ieee80211_crypto_decap
 *fill*         0x40222f4f        0x1 
 .irom0.text    0x40222f50       0x4c c:/Espressif/ESP8266_SDK_151/lib\libnet80211.a(ieee80211_ets.o)
                                 0x50 (size before relaxing)
                0x40222f54                ieee80211_getmgtframe
 .irom0.text    0x40222f9c     0x1a08 c:/Espressif/ESP8266_SDK_151/lib\libnet80211.a(ieee80211_hostap.o)
                               0x1f77 (size before relaxing)
                0x402235c0                ieee80211_hostap_attach
                0x402236bc                hostap_handle_timer
                0x40223754                hostap_input
                0x402246a0                wifi_softap_start
                0x4022480c                wifi_softap_stop
 *fill*         0x402249a4        0x0 
 .irom0.text    0x402249a4      0xa7e c:/Espressif/ESP8266_SDK_151/lib\libnet80211.a(ieee80211_ht.o)
                                0xb4e (size before relaxing)
                0x402249b4                ieee80211_ht_attach
                0x40224a08                ieee80211_ht_node_init
                0x40224a48                ieee80211_ht_node_cleanup
                0x40224a80                ieee80211_parse_htcap
                0x40224b60                ieee80211_ht_updateparams
                0x40224c74                ieee80211_setup_htrates
                0x40224d40                ieee80211_setup_basic_htrates
                0x4022508c                ieee80211_add_htcap
                0x402250a8                ieee80211_add_htcap_vendor
                0x402251cc                ieee80211_add_htinfo
                0x402251e8                ieee80211_add_htinfo_vendor
 *fill*         0x40225422        0x2 
 .irom0.text    0x40225424      0xa8c c:/Espressif/ESP8266_SDK_151/lib\libnet80211.a(ieee80211_input.o)
                                0xb1c (size before relaxing)
                0x40225424                ieee80211_deliver_data
                0x40225478                ieee80211_decap
                0x4022557c                ieee80211_setup_rates
                0x402255ec                ieee80211_alloc_challenge
                0x40225628                ieee80211_parse_beacon
                0x40225bfc                ieee80211_parse_wpa
                0x40225d10                ieee80211_parse_rsn
                0x40225e10                ieee80211_parse_action
                0x40225eac                ieee80211_setup_rateset
 .irom0.text    0x40225eb0      0x2a6 c:/Espressif/ESP8266_SDK_151/lib\libnet80211.a(ieee80211_mesh_quick.o)
                                0x302 (size before relaxing)
                0x40225ebc                ieee80211_mesh_quick_init
                0x40225f2c                ieee80211_mesh_quick_deinit
                0x40225f5c                ieee80211_mesh_quick_set
                0x40226058                ieee80211_mesh_quick_get
                0x40226124                ieee80211_mesh_quick_ie_add
 *fill*         0x40226156        0x2 
 .irom0.text    0x40226158     0x1c46 c:/Espressif/ESP8266_SDK_151/lib\libnet80211.a(ieee80211_output.o)
                               0x1fe2 (size before relaxing)
                0x4022615c                ieee80211_output_pbuf
                0x402263cc                ieee80211_send_setup
                0x40226500                ieee80211_mgmt_output
                0x402265e4                ieee80211_tx_mgt_cb
                0x402265e8                ieee80211_send_nulldata
                0x40226a58                ieee80211_add_rates
                0x40226aa8                ieee80211_add_xrates
                0x40226b78                ieee80211_send_probereq
                0x40226d8c                ieee80211_getcapinfo
                0x40226de8                ieee80211_send_mgmt
                0x40227388                ieee80211_alloc_proberesp
                0x40227560                ieee80211_send_proberesp
                0x402276a8                ieee80211_alloc_deauth
                0x402276e8                ieee80211_send_deauth
                0x40227824                ieee80211_freedom_output
                0x40227c08                ieee80211_beacon_alloc
 *fill*         0x40227d9e        0x2 
 .irom0.text    0x40227da0       0xe0 c:/Espressif/ESP8266_SDK_151/lib\libnet80211.a(ieee80211_phy.o)
                                0x108 (size before relaxing)
                0x40227da0                ieee80211_phy_init
                0x40227dd4                ieee80211_phy_type_get
                0x40227df0                ieee80211_setup_ratetable
 .irom0.text    0x40227e80      0x1b6 c:/Espressif/ESP8266_SDK_151/lib\libnet80211.a(ieee80211_power.o)
                                0x1f2 (size before relaxing)
                0x40227e80                ieee80211_psq_init
                0x40227ea0                ieee80211_psq_cleanup
                0x40227ea8                ieee80211_set_tim
                0x40227ee8                ieee80211_pwrsave
                0x40227f50                pwrsave_flushq
                0x40228000                ieee80211_node_pwrsave
 *fill*         0x40228036        0x2 
 .irom0.text    0x40228038      0x101 c:/Espressif/ESP8266_SDK_151/lib\libnet80211.a(ieee80211_proto.o)
                                0x129 (size before relaxing)
                0x4022803c                ieee80211_proto_attach
                0x40228064                ieee80211_set_shortslottime
                0x40228080                ieee80211_iserp_rateset
                0x402280b4                ieee80211_wme_initparams
                0x402280b8                ieee80211_wme_updateparams
                0x402280c0                ieee80211_mlme_connect_bss
 *fill*         0x40228139        0x3 
 .irom0.text    0x4022813c       0xaa c:/Espressif/ESP8266_SDK_151/lib\libnet80211.a(ieee80211_rfid.o)
                                 0xd6 (size before relaxing)
                0x4022813c                ieee80211_rfid_locp_recv_open
                0x40228174                ieee80211_rfid_locp_recv_close
                0x4022818c                ieee80211_rfid_locp_recv_reset
                0x402281ac                ieee80211_rfid_locp_recv
                0x402281c8                register_ieee80211_rfid_locp_recv_cb
                0x402281dc                unregister_ieee80211_rfid_locp_recv_cb
 *fill*         0x402281e6        0x2 
 .irom0.text    0x402281e8      0xf55 c:/Espressif/ESP8266_SDK_151/lib\libnet80211.a(ieee80211_scan.o)
                               0x12a1 (size before relaxing)
                0x402281f4                ieee80211_scan_attach
                0x40228288                scan_start
                0x4022844c                scan_pm_channel_op_cb
                0x402285ec                scan_cancel
                0x40228748                scan_add_bssid
                0x4022876c                scan_remove_bssid
                0x40228778                scan_hidden_ssid
                0x40228780                scan_add_probe_ssid
                0x402287d4                scan_remove_probe_ssid
                0x40228910                scan_clear_channles
                0x40228984                scan_set_desChan
                0x40228990                scan_get_type
                0x40228998                cannel_scan_connect_state
                0x402289b0                scan_connect_state
                0x402289f8                scan_check_hidden
                0x40228a24                scan_profile_check
                0x40228dcc                scan_parse_beacon
 *fill*         0x4022913d        0x3 
 .irom0.text    0x40229140     0x1026 c:/Espressif/ESP8266_SDK_151/lib\libnet80211.a(ieee80211_sta.o)
                               0x12b1 (size before relaxing)
                0x4022919c                sta_status_set
                0x40229208                ieee80211_sta_new_state
                0x40229580                sta_input
                0x40229acc                ieee80211_parse_wmeparams
                0x4022a0bc                wifi_station_start
                0x4022a12c                wifi_station_stop
 *fill*         0x4022a166        0x2 
 .irom0.text    0x4022a168      0x29e c:/Espressif/ESP8266_SDK_151/lib\libnet80211.a(wl_chm.o)
                                0x31e (size before relaxing)
                0x4022a174                chm_init
                0x4022a1d8                chm_acquire_lock
                0x4022a21c                chm_release_lock
                0x4022a230                chm_start_op
                0x4022a2d4                chm_end_op
                0x4022a31c                chm_cancel_op
                0x4022a350                chm_return_home_channel
                0x4022a380                chm_set_current_channel
                0x4022a3b0                chm_freq2index
                0x4022a3d8                chm_check_same_channel
 *fill*         0x4022a406        0x2 
 .irom0.text    0x4022a408     0x1791 c:/Espressif/ESP8266_SDK_151/lib\libnet80211.a(wl_cnx.o)
                               0x1cfd (size before relaxing)
                0x4022a414                cnx_attach
                0x4022a454                cnx_sta_connect_led_timer_cb
                0x4022a4a8                cnx_sta_connect_cmd
                0x4022a564                cnx_sta_scan_cmd
                0x4022a7c0                cnx_connect_timeout
                0x4022a83c                cnx_auth_timeout
                0x4022a860                cnx_assoc_timeout
                0x4022a884                cnx_handshake_timeout
                0x4022a8c4                cnx_start_handoff_cb
                0x4022ad24                cnx_bss_alloc
                0x4022adc4                cnx_rc_search
                0x4022ae44                cnx_add_rc
                0x4022aeb0                cnx_remove_all_rc
                0x4022aefc                cnx_remove_rc
                0x4022afcc                cnx_rc_update_rssi
                0x4022b054                cnx_rc_update_state_metric
                0x4022b0c0                cnx_rc_update_age
                0x4022b0e4                cnx_update_bss
                0x4022b118                cnx_update_bss_more
                0x4022b2f4                cnx_sta_leave
                0x4022b588                cnx_sta_associated
                0x4022b690                cnx_node_alloc
                0x4022b704                cnx_node_remove
                0x4022b790                cnx_node_search
                0x4022b80c                cnx_node_leave
                0x4022b90c                wifi_softap_staconnected_event_policy
                0x4022b934                wifi_softap_toomany_deny
                0x4022b96c                cnx_node_join
 *fill*         0x4022bb99        0x3 
 .irom0.text    0x4022bb9c      0x16f c:/Espressif/ESP8266_SDK_151/lib\libnet80211.a(ieee80211_action.o)
                                0x193 (size before relaxing)
                0x4022bbac                ieee80211_send_action_register
                0x4022bbe0                ieee80211_send_action_unregister
                0x4022bbf4                ieee80211_send_action
                0x4022bc60                ieee80211_recv_action_register
                0x4022bc94                ieee80211_recv_action_unregister
                0x4022bca8                ieee80211_recv_action
 *fill*         0x4022bd0b        0x1 
 .irom0.text    0x4022bd0c      0x479 c:/Espressif/ESP8266_SDK_151/lib\libnet80211.a(ieee80211_action_vendor.o)
                                0x505 (size before relaxing)
                0x4022bd10                get_iav_key
                0x4022bd30                register_ieee80211_action_vendor_get_key_cb
                0x4022bd44                unregister_ieee80211_action_vendor_get_key_cb
                0x4022bd58                ieee80211_add_action_vendor_spec_esp
                0x4022bda0                ieee80211_alloc_action_vendor_spec
                0x4022be8c                ieee80211_send_action_vendor_spec
                0x4022c020                ieee80211_recv_action_vendor_spec
                0x4022c128                ieee80211_action_vendor_spec_attach
                0x4022c168                register_ieee80211_action_vendor_spec_cb
                0x4022c17c                unregister_ieee80211_action_vendor_spec_cb
 *fill*         0x4022c185        0x3 
 .irom0.text    0x4022c188      0x15d c:/Espressif/ESP8266_SDK_151/lib\libnet80211.a(ieee80211_crypto_ccmp.o)
                                0x165 (size before relaxing)
 *fill*         0x4022c2e5        0x3 
 .irom0.text    0x4022c2e8      0x23d c:/Espressif/ESP8266_SDK_151/lib\libnet80211.a(ieee80211_ie_vendor.o)
                                0x25d (size before relaxing)
                0x4022c2ec                ieee80211_add_ie_vendor_esp_head
                0x4022c324                ieee80211_add_ie_vendor_esp_mesh_assoc
                0x4022c3a8                ieee80211_add_ie_vendor_esp_mesh_group
                0x4022c3d8                ieee80211_add_ie_vendor_esp_simple_pair
                0x4022c428                ieee80211_add_ie_vendor_esp_freq_annon
                0x4022c460                ieee80211_add_ie_vendor_esp_now
                0x4022c498                ieee80211_add_ie_vendor_esp_ssid
                0x4022c4d8                ieee80211_add_ie_vendor_esp_manufacturer
 *fill*         0x4022c525        0x3 
 .irom0.text    0x4022c528     0x13b2 c:/Espressif/ESP8266_SDK_151/lib\liblwip.a(dhcp.o)
                               0x159e (size before relaxing)
                0x4022c7a4                dhcp_coarse_tmr
                0x4022c7f0                dhcp_fine_tmr
                0x4022ca48                dhcp_set_struct
                0x4022ca70                dhcp_cleanup
                0x4022ca9c                dhcp_start
                0x4022cb54                dhcp_inform
                0x4022cc00                dhcp_network_changed
                0x4022cc48                dhcp_arp_reply
                0x4022cf44                dhcp_renew
                0x4022d1b8                dhcp_release
                0x4022d278                dhcp_stop
 *fill*         0x4022d8da        0x2 
 .irom0.text    0x4022d8dc      0xcd7 c:/Espressif/ESP8266_SDK_151/lib\liblwip.a(dhcpserver.o)
                                0xebf (size before relaxing)
                0x4022d8dc                node_insert_to_list
                0x4022d914                node_remove_from_list
                0x4022e23c                dhcps_start
                0x4022e2a4                dhcps_stop
                0x4022e310                wifi_softap_set_dhcps_lease
                0x4022e3fc                wifi_softap_get_dhcps_lease
                0x4022e494                dhcps_coarse_tmr
                0x4022e50c                wifi_softap_set_dhcps_offer_option
                0x4022e550                wifi_softap_set_dhcps_lease_time
                0x4022e580                wifi_softap_reset_dhcps_lease_time
                0x4022e5ac                wifi_softap_get_dhcps_lease_time
 *fill*         0x4022e5b3        0x1 
 .irom0.text    0x4022e5b4      0x5c3 c:/Espressif/ESP8266_SDK_151/lib\liblwip.a(dns.o)
                                0x677 (size before relaxing)
                0x4022e5c0                dns_init
                0x4022e600                dns_setserver
                0x4022e620                dns_getserver
                0x4022e634                dns_tmr
                0x4022eb20                dns_gethostbyname
 *fill*         0x4022eb77        0x1 
 .irom0.text    0x4022eb78      0xfe8 c:/Espressif/ESP8266_SDK_151/lib\liblwip.a(espconn_tcp.o)
                               0x130c (size before relaxing)
                0x4022ec60                espconn_kill_oldest_pcb
                0x4022ece4                espconn_kill_pcb
                0x4022ed60                espconn_find_current_pcb
                0x4022f074                espconn_tcp_sent
                0x4022f12c                espconn_tcp_disconnect
                0x4022f1d4                espconn_recv_hold
                0x4022f218                espconn_recv_unhold
                0x4022f324                espconn_tcp_write
                0x4022f554                espconn_tcp_client
                0x4022f9fc                espconn_tcp_server
                0x4022fab8                espconn_tcp_delete
                0x4022fb44                espconn_init
 .irom0.text    0x4022fb60      0x8cf c:/Espressif/ESP8266_SDK_151/lib\liblwip.a(etharp.o)
                                0x9b7 (size before relaxing)
                0x4022fb94                etharp_tmr
                0x4022fdc0                etharp_cleanup_netif
                0x4022fdfc                etharp_find_addr
                0x40230050                etharp_output
                0x40230164                etharp_query
                0x40230394                etharp_request
                0x402303b8                ethernet_input
 *fill*         0x4023042f        0x1 
 .irom0.text    0x40230430       0x40 c:/Espressif/ESP8266_SDK_151/lib\liblwip.a(init.o)
                                 0x60 (size before relaxing)
                0x40230434                lwip_init
 .irom0.text    0x40230470      0x37a c:/Espressif/ESP8266_SDK_151/lib\liblwip.a(ip_addr.o)
                                0x3a2 (size before relaxing)
                0x40230470                ip4_addr_isbroadcast
                0x4023049c                ip4_addr_netmask_valid
                0x402304dc                ipaddr_addr
                0x402304f8                ipaddr_aton
                0x40230714                ipaddr_ntoa
                0x40230728                ipaddr_ntoa_r
 *fill*         0x402307ea        0x2 
 .irom0.text    0x402307ec      0x581 c:/Espressif/ESP8266_SDK_151/lib\liblwip.a(ip.o)
                                0x62d (size before relaxing)
                0x402307ec                ip_route
                0x40230868                ip_router
                0x402308e4                ip_input
                0x40230b3c                ip_output_if
                0x40230b58                ip_output_if_opt
                0x40230d34                ip_output
 *fill*         0x40230d6d        0x3 
 .irom0.text    0x40230d70      0x27d c:/Espressif/ESP8266_SDK_151/lib\liblwip.a(netif.o)
                                0x2bd (size before relaxing)
                0x40230d70                netif_init
                0x40230d78                netif_add
                0x40230de0                netif_set_addr
                0x40230e08                netif_remove
                0x40230e64                netif_find
                0x40230ea0                netif_set_ipaddr
                0x40230f08                netif_set_gw
                0x40230f18                netif_set_netmask
                0x40230f28                netif_set_default
                0x40230f30                netif_set_up
                0x40230f6c                netif_set_down
                0x40230f90                netif_set_link_up
                0x40230fdc                netif_set_link_down
 *fill*         0x40230fed        0x3 
 .irom0.text    0x40230ff0      0x68e c:/Espressif/ESP8266_SDK_151/lib\liblwip.a(pbuf.o)
                                0x6f6 (size before relaxing)
                0x40230ff0                pbuf_free_ooseq_new
                0x40231048                pbuf_alloc
                0x402311a8                pbuf_realloc
                0x402311f0                pbuf_header
                0x4023125c                pbuf_free
                0x402312e8                pbuf_clen
                0x40231300                pbuf_ref
                0x4023130c                pbuf_cat
                0x40231338                pbuf_chain
                0x40231354                pbuf_dechain
                0x40231390                pbuf_copy
                0x40231434                pbuf_copy_partial
                0x402314b4                pbuf_take
                0x40231514                pbuf_coalesce
                0x40231548                pbuf_get_at
                0x40231570                pbuf_memcmp
                0x402315dc                pbuf_memfind
                0x40231634                pbuf_strstr
 *fill*         0x4023167e        0x2 
 .irom0.text    0x40231680      0x1f0 c:/Espressif/ESP8266_SDK_151/lib\liblwip.a(raw.o)
                                0x248 (size before relaxing)
                0x40231688                raw_input
                0x40231710                raw_bind
                0x40231720                raw_connect
                0x40231730                raw_recv
                0x40231738                raw_sendto
                0x402317d4                raw_send
                0x402317ec                raw_remove
                0x40231828                raw_new
 .irom0.text    0x40231870     0x157c c:/Espressif/ESP8266_SDK_151/lib\liblwip.a(tcp_in.o)
                               0x17c0 (size before relaxing)
                0x40231878                tcp_input
 .irom0.text    0x40232dec      0xae7 c:/Espressif/ESP8266_SDK_151/lib\liblwip.a(tcp.o)
                                0xc1f (size before relaxing)
                0x40232df0                tcp_tmr
                0x40232e14                tcp_close
                0x40232e38                tcp_shutdown
                0x40232e98                tcp_abandon
                0x40232f40                tcp_abort
                0x40232f58                tcp_bind
                0x40232fd4                tcp_listen_with_backlog
                0x40233094                tcp_update_rcv_ann_wnd
                0x402330d8                tcp_recved
                0x40233134                tcp_connect
                0x40233240                tcp_slowtmr
                0x402334e8                tcp_fasttmr
                0x40233564                tcp_segs_free
                0x40233580                tcp_seg_free
                0x402335ac                tcp_setprio
                0x402335b4                tcp_seg_copy
                0x402335f8                tcp_recv_null
                0x402336b0                tcp_alloc
                0x40233794                tcp_new
                0x402337a8                tcp_arg
                0x402337ac                tcp_recv
                0x402337b4                tcp_sent
                0x402337bc                tcp_err
                0x402337c4                tcp_accept
                0x402337c8                tcp_poll
                0x402337d0                tcp_pcb_purge
                0x40233824                tcp_pcb_remove
                0x4023388c                tcp_next_iss
                0x402338a0                tcp_eff_send_mss
 *fill*         0x402338d3        0x1 
 .irom0.text    0x402338d4      0xf14 c:/Espressif/ESP8266_SDK_151/lib\liblwip.a(tcp_out.o)
                               0x1018 (size before relaxing)
                0x402339cc                tcp_send_fin
                0x40233bb4                tcp_write
                0x40233ef0                tcp_enqueue_flags
                0x40233fd4                tcp_send_empty_ack
                0x40234068                tcp_output
                0x4023436c                tcp_rst
                0x402344ac                tcp_rexmit_rto
                0x40234520                tcp_rexmit
                0x402345cc                tcp_rexmit_fast
                0x40234624                tcp_keepalive
                0x402346a4                tcp_zero_window_probe
 .irom0.text    0x402347e8      0x2c7 c:/Espressif/ESP8266_SDK_151/lib\liblwip.a(timers.o)
                                0x357 (size before relaxing)
                0x40234828                tcp_timer_needed
                0x402348b0                sys_timeouts_init
                0x40234918                sys_timeout
                0x40234994                sys_untimeout
                0x402349e4                sys_check_timeouts
                0x40234aa0                sys_restart_timeouts
 *fill*         0x40234aaf        0x1 
 .irom0.text    0x40234ab0      0x572 c:/Espressif/ESP8266_SDK_151/lib\liblwip.a(udp.o)
                                0x62a (size before relaxing)
                0x40234ab4                udp_input
                0x40234d0c                udp_send
                0x40234d20                udp_sendto
                0x40234d6c                udp_sendto_if
                0x40234eb4                udp_bind
                0x40234f30                udp_connect
                0x40234f8c                udp_disconnect
                0x40234fa4                udp_recv
                0x40234fb0                udp_remove
                0x40234fec                udp_new
 *fill*         0x40235022        0x2 
 .irom0.text    0x40235024      0xa6a c:/Espressif/ESP8266_SDK_151/lib\liblwip.a(espconn.o)
                                0xb6e (size before relaxing)
                0x40235024                espconn_copy_partial
                0x402350b4                espconn_list_creat
                0x402350d4                espconn_list_delete
                0x402350fc                espconn_pbuf_create
                0x40235118                espconn_pbuf_delete
                0x4023513c                espconn_find_connection
                0x402351f8                espconn_connect
                0x402352dc                espconn_create
                0x40235324                espconn_send
                0x40235324                espconn_sent
                0x402353e8                espconn_sendto
                0x40235430                espconn_tcp_get_wnd
                0x40235454                espconn_tcp_set_wnd
                0x40235470                espconn_tcp_get_mss
                0x40235478                espconn_tcp_get_max_con
                0x40235488                espconn_tcp_set_max_con
                0x402354a0                espconn_tcp_get_max_retran
                0x402354b0                espconn_tcp_set_max_retran
                0x402354c8                espconn_tcp_get_max_syn
                0x402354d8                espconn_tcp_set_max_syn
                0x402354f0                espconn_tcp_get_max_con_allow
                0x40235518                espconn_tcp_set_max_con_allow
                0x40235548                espconn_tcp_set_buf_count
                0x4023558c                espconn_regist_sentcb
                0x40235598                espconn_regist_write_finish
                0x402355b0                espconn_regist_connectcb
                0x402355c0                espconn_regist_recvcb
                0x402355cc                espconn_regist_reconcb
                0x402355dc                espconn_regist_disconcb
                0x402355f0                espconn_get_connection_info
                0x402356b8                espconn_accept
                0x402356fc                espconn_regist_time
                0x4023573c                espconn_disconnect
                0x4023577c                espconn_abort
                0x402357bc                espconn_get_packet_info
                0x4023584c                espconn_set_opt
                0x402358a4                espconn_clear_opt
                0x40235904                espconn_set_keepalive
                0x40235970                espconn_get_keepalive
                0x402359e0                espconn_delete
                0x40235a28                espconn_port
                0x40235a60                espconn_gethostbyname
                0x40235a7c                espconn_dns_setserver
 *fill*         0x40235a8e        0x2 
 .irom0.text    0x40235a90      0x4e7 c:/Espressif/ESP8266_SDK_151/lib\liblwip.a(espconn_udp.o)
                                0x63f (size before relaxing)
                0x40235ae0                espconn_udp_sent
                0x40235c48                espconn_udp_sendto
                0x40235e9c                espconn_udp_disconnect
                0x40235ed8                espconn_udp_server
                0x40235f40                espconn_igmp_leave
                0x40235f5c                espconn_igmp_join
 *fill*         0x40235f77        0x1 
 .irom0.text    0x40235f78      0x26e c:/Espressif/ESP8266_SDK_151/lib\liblwip.a(icmp.o)
                                0x312 (size before relaxing)
                0x40235f7c                icmp_input
                0x40236128                icmp_dest_unreach
 *fill*         0x402361e6        0x2 
 .irom0.text    0x402361e8      0x5e6 c:/Espressif/ESP8266_SDK_151/lib\liblwip.a(igmp.o)
                                0x67a (size before relaxing)
                0x402361f4                igmp_init
                0x40236204                igmp_start
                0x40236248                igmp_stop
                0x402362ac                igmp_report_groups
                0x402362dc                igmp_lookfor_group
                0x402363a4                igmp_input
                0x402364ec                igmp_joingroup
                0x40236594                igmp_leavegroup
                0x40236638                igmp_tmr
 *fill*         0x402367ce        0x2 
 .irom0.text    0x402367d0      0x2aa c:/Espressif/ESP8266_SDK_151/lib\libwpa.a(ap_config.o)
                                0x2ee (size before relaxing)
                0x402367d4                hostapd_config_defaults_bss
                0x40236820                hostapd_config_defaults
                0x402368a4                hostapd_mac_comp
                0x402368b8                hostapd_mac_comp_empty
                0x40236924                hostapd_setup_wpa_psk
                0x40236954                hostapd_wep_key_cmp
                0x402369a4                hostapd_maclist_found
                0x40236a0c                hostapd_rate_found
                0x40236a28                hostapd_get_psk
 *fill*         0x40236a7a        0x2 
 .irom0.text    0x40236a7c      0x2b6 c:/Espressif/ESP8266_SDK_151/lib\libwpa.a(common.o)
                                0x302 (size before relaxing)
                0x40236a7c                inc_byte_array
                0x40236ad0                hex2byte
                0x40236b04                hexstr2bin
                0x40236b50                wpa_get_ntp_timestamp
                0x40236be8                wpa_config_parse_string
                0x40236cec                dup_binstr
 *fill*         0x40236d32        0x2 
 .irom0.text    0x40236d34       0xcc c:/Espressif/ESP8266_SDK_151/lib\libwpa.a(os_xtensa.o)
                                 0xdc (size before relaxing)
                0x40236d38                ets_strdup
                0x40236d7c                os_get_time
                0x40236d80                r_rand
                0x40236d94                os_random
                0x40236da4                os_get_random
 .irom0.text    0x40236e00     0x1c86 c:/Espressif/ESP8266_SDK_151/lib\libwpa.a(wpa_auth.o)
                               0x1f66 (size before relaxing)
                0x40236f4c                wpa_auth_for_each_sta
                0x402370cc                wpa_init
                0x4023715c                wpa_auth_sta_init
                0x402371a4                wpa_auth_sta_associated
                0x40237210                wpa_auth_sta_no_wpa
                0x4023726c                wpa_auth_sta_deinit
                0x4023733c                wpa_receive
                0x402377a0                __wpa_send_eapol
                0x40237cc4                wpa_remove_ptk
                0x40237d10                wpa_auth_sm_event
 *fill*         0x40238a86        0x2 
 .irom0.text    0x40238a88      0x582 c:/Espressif/ESP8266_SDK_151/lib\libwpa.a(wpa_auth_ie.o)
                                0x5f6 (size before relaxing)
                0x40238b4c                wpa_write_rsn_ie
                0x40238c58                wpa_auth_gen_wpa_ie
                0x40238ce8                wpa_add_kde
                0x40238d54                wpa_validate_wpa_ie
                0x40238f60                wpa_parse_kde_ies
                0x40238ffc                wpa_auth_uses_mfp
 *fill*         0x4023900a        0x2 
 .irom0.text    0x4023900c     0x14d0 c:/Espressif/ESP8266_SDK_151/lib\libwpa.a(wpa.o)
                               0x1708 (size before relaxing)
                0x40239f98                wpa_sm_rx_eapol
                0x4023a110                wpa_register
                0x4023a13c                wpa_set_profile
                0x4023a154                wpa_set_pmk
                0x4023a180                wpa_set_bss
                0x4023a384                pp_michael_mic_failure
                0x4023a428                eapol_txcb
                0x4023a4b4                wpa_sm_set_state
 .irom0.text    0x4023a4dc      0x76a c:/Espressif/ESP8266_SDK_151/lib\libwpa.a(wpa_common.o)
                                0x7fa (size before relaxing)
                0x4023a624                wpa_parse_wpa_ie_rsn
                0x4023a7b8                wpa_parse_wpa_ie_wpa
                0x4023a948                wpa_eapol_key_mic
                0x4023a988                wpa_compare_rsn_ie
                0x4023a9b0                wpa_pmk_to_ptk
                0x4023aaa0                rsn_pmkid
                0x4023aafc                wpa_cipher_key_len
                0x4023ab20                wpa_cipher_to_alg
                0x4023ab48                wpa_cipher_to_suite
                0x4023ab9c                rsn_cipher_put_suites
                0x4023abfc                wpa_cipher_put_suites
 *fill*         0x4023ac46        0x2 
 .irom0.text    0x4023ac48       0xa8 c:/Espressif/ESP8266_SDK_151/lib\libwpa.a(wpa_debug.o)
                                 0xac (size before relaxing)
                0x4023acc0                wpa_snprintf_hex_uppercase
                0x4023acd4                wpa_snprintf_hex
                0x4023ace8                eloop_cancel_timeout
                0x4023acec                eloop_register_timeout
 .irom0.text    0x4023acf0      0x325 c:/Espressif/ESP8266_SDK_151/lib\libwpa.a(wpa_ie.o)
                                0x341 (size before relaxing)
                0x4023acf0                wpa_parse_wpa_ie
                0x4023ade4                wpa_supplicant_parse_ies
                0x4023afe4                wpa_gen_wpa_ie
 *fill*         0x4023b015        0x3 
 .irom0.text    0x4023b018      0x418 c:/Espressif/ESP8266_SDK_151/lib\libwpa.a(wpa_main.o)
                                0x52c (size before relaxing)
                0x4023b01c                ppInstallKey
                0x4023b1ac                wpa_config_profile
                0x4023b1e0                wpa_config_bss
                0x4023b20c                wpa_config_assoc_ie
                0x4023b220                dhcp_bind_check
                0x4023b254                eagle_auth_done
                0x4023b3d0                wpa_neg_complete
                0x4023b3f8                wpa_attach
 .irom0.text    0x4023b430       0xd6 c:/Espressif/ESP8266_SDK_151/lib\libwpa.a(wpas_glue.o)
                                 0xe2 (size before relaxing)
                0x4023b4a0                wpa_sm_alloc_eapol
                0x4023b4e0                wpa_sm_deauthenticate
                0x4023b4fc                wpa_sm_mlme_setprotection
                0x4023b500                wpa_sm_get_beacon_ie
                0x4023b504                wpa_sm_disassociate
 *fill*         0x4023b506        0x2 
 .irom0.text    0x4023b508       0xdf c:/Espressif/ESP8266_SDK_151/lib\libcrypto.a(aes-wrap.o)
                                0x103 (size before relaxing)
                0x4023b508                aes_wrap
 *fill*         0x4023b5e7        0x1 
 .irom0.text    0x4023b5e8      0x4b7 c:/Espressif/ESP8266_SDK_151/lib\libcrypto.a(aes-internal-enc.o)
                                0x4df (size before relaxing)
                0x4023b5ec                rijndaelEncrypt
                0x4023ba08                aes_encrypt_init
                0x4023ba5c                aes_encrypt
                0x4023ba74                aes_encrypt_deinit
 *fill*         0x4023ba9f        0x1 
 .irom0.text    0x4023baa0      0x304 c:/Espressif/ESP8266_SDK_151/lib\libcrypto.a(aes-internal.o)
                                0x31c (size before relaxing)
                0x4023baa4                rijndaelKeySetupEnc
 .irom0.text    0x4023bda4      0x187 c:/Espressif/ESP8266_SDK_151/lib\libnet80211.a(ieee80211_crypto_tkip.o)
                                0x197 (size before relaxing)
 *fill*         0x4023bf2b        0x1 
 .irom0.text    0x4023bf2c       0x78 c:/Espressif/ESP8266_SDK_151/lib\libnet80211.a(ieee80211_crypto_wep.o)
                                 0x7c (size before relaxing)
 .irom0.literal
                0x4023bfa4        0x0 c:/Espressif/ESP8266_SDK_151/lib\libmain.a(app_main.o)
 *fill*         0x4023bfa4        0xc 
 .irom.text     0x4023bfb0      0x490 c:/Espressif/ESP8266_SDK_151/lib\libmain.a(app_main.o)
 .irom0.literal
                0x4023c440        0x0 c:/Espressif/ESP8266_SDK_151/lib\libmain.a(ets_timer.o)
 *fill*         0x4023c440        0x0 
 .irom.text     0x4023c440       0x5b c:/Espressif/ESP8266_SDK_151/lib\libmain.a(ets_timer.o)
 *fill*         0x4023c49b        0x1 
 .irom0.literal
                0x4023c49c        0x0 c:/Espressif/ESP8266_SDK_151/lib\libmain.a(mem_manager.o)
 *fill*         0x4023c49c        0x4 
 .irom.text     0x4023c4a0       0x11 c:/Espressif/ESP8266_SDK_151/lib\libmain.a(mem_manager.o)
 *fill*         0x4023c4b1        0x3 
 .irom0.literal
                0x4023c4b4        0x0 c:/Espressif/ESP8266_SDK_151/lib\libmain.a(spi_flash.o)
 *fill*         0x4023c4b4        0x0 
 .irom0.literal
                0x4023c4b4        0x0 c:/Espressif/ESP8266_SDK_151/lib\libmain.a(user_interface.o)
 *fill*         0x4023c4b4        0xc 
 .irom.text     0x4023c4c0      0x2d5 c:/Espressif/ESP8266_SDK_151/lib\libmain.a(user_interface.o)
                0x4023c4e0                default_ssid
 *fill*         0x4023c795        0x3 
 .irom0.literal
                0x4023c798        0x0 c:/Espressif/ESP8266_SDK_151/lib\libmain.a(eagle_lib.o)
 .irom0.literal
                0x4023c798        0x0 c:/Espressif/ESP8266_SDK_151/lib\libmain.a(eagle_lwip_if.o)
 *fill*         0x4023c798        0x8 
 .irom.text     0x4023c7a0       0x63 c:/Espressif/ESP8266_SDK_151/lib\libmain.a(eagle_lwip_if.o)
 *fill*         0x4023c803        0x1 
 .irom0.literal
                0x4023c804        0x0 build/debug/app_app.a(user_main.o)
 .irom0.literal
                0x4023c804        0x0 build/debug/app_app.a(easygpio.o)
 *fill*         0x4023c804        0x0 
 .irom0.literal
                0x4023c804        0x0 build/debug/app_app.a(stdout.o)
 *fill*         0x4023c804        0x0 
 .irom0.literal
                0x4023c804        0x0 build/debug/app_app.a(hw_timer.o)
 *fill*         0x4023c804        0x0 
 .irom0.literal
                0x4023c804        0x0 c:/Espressif/ESP8266_SDK_151/lib\libphy.a(phy.o)
 *fill*         0x4023c804        0x0 
 .irom0.literal
                0x4023c804        0x0 c:/Espressif/ESP8266_SDK_151/lib\libphy.a(phy_chip_v6_ana.o)
 *fill*         0x4023c804        0xc 
 .irom.text     0x4023c810       0x65 c:/Espressif/ESP8266_SDK_151/lib\libphy.a(phy_chip_v6_ana.o)
 *fill*         0x4023c875        0x3 
 .irom0.literal
                0x4023c878        0x0 c:/Espressif/ESP8266_SDK_151/lib\libphy.a(phy_chip_v6.o)
 *fill*         0x4023c878        0x8 
 .irom.text     0x4023c880      0x148 c:/Espressif/ESP8266_SDK_151/lib\libphy.a(phy_chip_v6.o)
 .irom0.literal
                0x4023c9c8        0x0 c:/Espressif/ESP8266_SDK_151/lib\libphy.a(phy_chip_v6_cal.o)
 *fill*         0x4023c9c8        0x8 
 .irom.text     0x4023c9d0      0x174 c:/Espressif/ESP8266_SDK_151/lib\libphy.a(phy_chip_v6_cal.o)
 .irom0.literal
                0x4023cb44        0x0 c:/Espressif/ESP8266_SDK_151/lib\libphy.a(phy_chip_v6_unused.o)
 .irom0.text    0x4023cb44        0xc c:/Espressif/ESP8266_SDK_151/lib\libphy.a(phy_chip_v6_unused.o)
                0x4023cb44                chip_v6_set_sense
                0x4023cb48                chip_v6_get_sense
                0x4023cb4c                chip_v6_unset_chanfreq
 .irom0.literal
                0x4023cb50        0x0 c:/Espressif/ESP8266_SDK_151/lib\libphy.a(phy_sleep.o)
 *fill*         0x4023cb50        0x0 
 .irom0.literal
                0x4023cb50        0x0 c:/Espressif/ESP8266_SDK_151/lib\libpp.a(if_hwctrl.o)
 *fill*         0x4023cb50        0x0 
 .irom.text     0x4023cb50       0x50 c:/Espressif/ESP8266_SDK_151/lib\libpp.a(if_hwctrl.o)
 .irom0.literal
                0x4023cba0        0x0 c:/Espressif/ESP8266_SDK_151/lib\libpp.a(lmac.o)
 *fill*         0x4023cba0        0x0 
 .irom.text     0x4023cba0       0x2f c:/Espressif/ESP8266_SDK_151/lib\libpp.a(lmac.o)
 *fill*         0x4023cbcf        0x1 
 .irom0.literal
                0x4023cbd0        0x0 c:/Espressif/ESP8266_SDK_151/lib\libpp.a(pm.o)
 *fill*         0x4023cbd0        0x0 
 .irom.text     0x4023cbd0      0x10d c:/Espressif/ESP8266_SDK_151/lib\libpp.a(pm.o)
 *fill*         0x4023ccdd        0x3 
 .irom0.literal
                0x4023cce0        0x0 c:/Espressif/ESP8266_SDK_151/lib\libpp.a(pm_for_bcn_only_mode.o)
 *fill*         0x4023cce0        0x0 
 .irom.text     0x4023cce0      0x145 c:/Espressif/ESP8266_SDK_151/lib\libpp.a(pm_for_bcn_only_mode.o)
 *fill*         0x4023ce25        0x3 
 .irom0.literal
                0x4023ce28        0x0 c:/Espressif/ESP8266_SDK_151/lib\libpp.a(pp.o)
 *fill*         0x4023ce28        0x8 
 .irom.text     0x4023ce30       0x5b c:/Espressif/ESP8266_SDK_151/lib\libpp.a(pp.o)
 *fill*         0x4023ce8b        0x1 
 .irom0.literal
                0x4023ce8c        0x0 c:/Espressif/ESP8266_SDK_151/lib\libpp.a(rate_control.o)
 *fill*         0x4023ce8c        0x0 
 .irom0.literal
                0x4023ce8c        0x0 c:/Espressif/ESP8266_SDK_151/lib\libpp.a(trc.o)
 *fill*         0x4023ce8c        0x4 
 .irom.text     0x4023ce90       0x38 c:/Espressif/ESP8266_SDK_151/lib\libpp.a(trc.o)
 .irom0.literal
                0x4023cec8        0x0 c:/Espressif/ESP8266_SDK_151/lib\libpp.a(wdev.o)
 *fill*         0x4023cec8        0x0 
 .irom.text     0x4023cec8        0x7 c:/Espressif/ESP8266_SDK_151/lib\libpp.a(wdev.o)
 *fill*         0x4023cecf        0x1 
 .irom0.literal
                0x4023ced0        0x0 c:/Espressif/ESP8266_SDK_151/lib\libpp.a(esf_buf.o)
 *fill*         0x4023ced0        0x0 
 .irom.text     0x4023ced0        0xa c:/Espressif/ESP8266_SDK_151/lib\libpp.a(esf_buf.o)
 *fill*         0x4023ceda        0x2 
 .irom0.literal
                0x4023cedc        0x0 c:/Espressif/ESP8266_SDK_151/lib\libnet80211.a(ieee80211.o)
 *fill*         0x4023cedc        0x4 
 .irom.text     0x4023cee0       0x82 c:/Espressif/ESP8266_SDK_151/lib\libnet80211.a(ieee80211.o)
                0x4023cef0                ieee80211_opcap
 *fill*         0x4023cf62        0x2 
 .irom0.literal
                0x4023cf64        0x0 c:/Espressif/ESP8266_SDK_151/lib\libnet80211.a(ieee80211_crypto.o)
 *fill*         0x4023cf64        0x0 
 .irom0.literal
                0x4023cf64        0x0 c:/Espressif/ESP8266_SDK_151/lib\libnet80211.a(ieee80211_ets.o)
 .irom0.literal
                0x4023cf64        0x0 c:/Espressif/ESP8266_SDK_151/lib\libnet80211.a(ieee80211_hostap.o)
 *fill*         0x4023cf64        0xc 
 .irom.text     0x4023cf70       0x5b c:/Espressif/ESP8266_SDK_151/lib\libnet80211.a(ieee80211_hostap.o)
 *fill*         0x4023cfcb        0x1 
 .irom0.literal
                0x4023cfcc        0x0 c:/Espressif/ESP8266_SDK_151/lib\libnet80211.a(ieee80211_ht.o)
 *fill*         0x4023cfcc        0x4 
 .irom.text     0x4023cfd0       0x19 c:/Espressif/ESP8266_SDK_151/lib\libnet80211.a(ieee80211_ht.o)
 *fill*         0x4023cfe9        0x3 
 .irom0.literal
                0x4023cfec        0x0 c:/Espressif/ESP8266_SDK_151/lib\libnet80211.a(ieee80211_input.o)
 *fill*         0x4023cfec        0x4 
 .irom.text     0x4023cff0       0x12 c:/Espressif/ESP8266_SDK_151/lib\libnet80211.a(ieee80211_input.o)
 *fill*         0x4023d002        0x2 
 .irom0.literal
                0x4023d004        0x0 c:/Espressif/ESP8266_SDK_151/lib\libnet80211.a(ieee80211_mesh_quick.o)
 *fill*         0x4023d004        0xc 
 .irom.text     0x4023d010       0x43 c:/Espressif/ESP8266_SDK_151/lib\libnet80211.a(ieee80211_mesh_quick.o)
 *fill*         0x4023d053        0x1 
 .irom0.literal
                0x4023d054        0x0 c:/Espressif/ESP8266_SDK_151/lib\libnet80211.a(ieee80211_output.o)
 *fill*         0x4023d054        0xc 
 .irom.text     0x4023d060       0x1d c:/Espressif/ESP8266_SDK_151/lib\libnet80211.a(ieee80211_output.o)
 *fill*         0x4023d07d        0x3 
 .irom0.literal
                0x4023d080        0x0 c:/Espressif/ESP8266_SDK_151/lib\libnet80211.a(ieee80211_phy.o)
 *fill*         0x4023d080        0x0 
 .irom.text     0x4023d080      0x1b8 c:/Espressif/ESP8266_SDK_151/lib\libnet80211.a(ieee80211_phy.o)
 .irom0.literal
                0x4023d238        0x0 c:/Espressif/ESP8266_SDK_151/lib\libnet80211.a(ieee80211_power.o)
 *fill*         0x4023d238        0x0 
 .irom0.literal
                0x4023d238        0x0 c:/Espressif/ESP8266_SDK_151/lib\libnet80211.a(ieee80211_proto.o)
 *fill*         0x4023d238        0x8 
 .irom.text     0x4023d240       0x1c c:/Espressif/ESP8266_SDK_151/lib\libnet80211.a(ieee80211_proto.o)
 .irom0.literal
                0x4023d25c        0x0 c:/Espressif/ESP8266_SDK_151/lib\libnet80211.a(ieee80211_rfid.o)
 *fill*         0x4023d25c        0x0 
 .irom0.literal
                0x4023d25c        0x0 c:/Espressif/ESP8266_SDK_151/lib\libnet80211.a(ieee80211_scan.o)
 *fill*         0x4023d25c        0x4 
 .irom.text     0x4023d260       0x99 c:/Espressif/ESP8266_SDK_151/lib\libnet80211.a(ieee80211_scan.o)
 *fill*         0x4023d2f9        0x3 
 .irom0.literal
                0x4023d2fc        0x0 c:/Espressif/ESP8266_SDK_151/lib\libnet80211.a(ieee80211_sta.o)
 *fill*         0x4023d2fc        0x4 
 .irom.text     0x4023d300       0x26 c:/Espressif/ESP8266_SDK_151/lib\libnet80211.a(ieee80211_sta.o)
 *fill*         0x4023d326        0x2 
 .irom0.literal
                0x4023d328        0x0 c:/Espressif/ESP8266_SDK_151/lib\libnet80211.a(wl_chm.o)
 *fill*         0x4023d328        0x0 
 .irom0.literal
                0x4023d328        0x0 c:/Espressif/ESP8266_SDK_151/lib\libnet80211.a(wl_cnx.o)
 *fill*         0x4023d328        0x8 
 .irom.text     0x4023d330      0x167 c:/Espressif/ESP8266_SDK_151/lib\libnet80211.a(wl_cnx.o)
 *fill*         0x4023d497        0x1 
 .irom0.literal
                0x4023d498        0x0 c:/Espressif/ESP8266_SDK_151/lib\libnet80211.a(ieee80211_action.o)
 *fill*         0x4023d498        0x0 
 .irom0.literal
                0x4023d498        0x0 c:/Espressif/ESP8266_SDK_151/lib\libnet80211.a(ieee80211_action_vendor.o)
 *fill*         0x4023d498        0x8 
 .irom.text     0x4023d4a0       0x83 c:/Espressif/ESP8266_SDK_151/lib\libnet80211.a(ieee80211_action_vendor.o)
 *fill*         0x4023d523        0x1 
 .irom0.literal
                0x4023d524        0x0 c:/Espressif/ESP8266_SDK_151/lib\libnet80211.a(ieee80211_crypto_ccmp.o)
 *fill*         0x4023d524        0x0 
 .irom.text     0x4023d524       0x18 c:/Espressif/ESP8266_SDK_151/lib\libnet80211.a(ieee80211_crypto_ccmp.o)
                0x4023d524                ccmp
 .irom0.literal
                0x4023d53c        0x0 c:/Espressif/ESP8266_SDK_151/lib\libnet80211.a(ieee80211_ie_vendor.o)
 *fill*         0x4023d53c        0x0 
 .irom0.literal
                0x4023d53c        0x0 c:/Espressif/ESP8266_SDK_151/lib\liblwip.a(dhcp.o)
 *fill*         0x4023d53c        0x4 
 .irom.text     0x4023d540       0x1e c:/Espressif/ESP8266_SDK_151/lib\liblwip.a(dhcp.o)
 *fill*         0x4023d55e        0x2 
 .irom0.literal
                0x4023d560        0x0 c:/Espressif/ESP8266_SDK_151/lib\liblwip.a(dhcpserver.o)
 *fill*         0x4023d560        0x0 
 .irom.text     0x4023d560       0x65 c:/Espressif/ESP8266_SDK_151/lib\liblwip.a(dhcpserver.o)
 *fill*         0x4023d5c5        0x3 
 .irom0.literal
                0x4023d5c8        0x0 c:/Espressif/ESP8266_SDK_151/lib\liblwip.a(dns.o)
 *fill*         0x4023d5c8        0x0 
 .irom.text     0x4023d5c8        0x6 c:/Espressif/ESP8266_SDK_151/lib\liblwip.a(dns.o)
 *fill*         0x4023d5ce        0x2 
 .irom0.literal
                0x4023d5d0        0x0 c:/Espressif/ESP8266_SDK_151/lib\liblwip.a(espconn_tcp.o)
 *fill*         0x4023d5d0        0x0 
 .irom.text     0x4023d5d0       0xab c:/Espressif/ESP8266_SDK_151/lib\liblwip.a(espconn_tcp.o)
 *fill*         0x4023d67b        0x1 
 .irom0.literal
                0x4023d67c        0x0 c:/Espressif/ESP8266_SDK_151/lib\liblwip.a(etharp.o)
 *fill*         0x4023d67c        0x4 
 .irom.text     0x4023d680        0x9 c:/Espressif/ESP8266_SDK_151/lib\liblwip.a(etharp.o)
 *fill*         0x4023d689        0x3 
 .irom0.literal
                0x4023d68c        0x0 c:/Espressif/ESP8266_SDK_151/lib\liblwip.a(init.o)
 .irom0.literal
                0x4023d68c        0x0 c:/Espressif/ESP8266_SDK_151/lib\liblwip.a(ip_addr.o)
 *fill*         0x4023d68c        0x0 
 .irom.text     0x4023d68c        0x8 c:/Espressif/ESP8266_SDK_151/lib\liblwip.a(ip_addr.o)
                0x4023d68c                ip_addr_any
                0x4023d690                ip_addr_broadcast
 .irom0.literal
                0x4023d694        0x0 c:/Espressif/ESP8266_SDK_151/lib\liblwip.a(ip.o)
 *fill*         0x4023d694        0xc 
 .irom.text     0x4023d6a0       0x11 c:/Espressif/ESP8266_SDK_151/lib\liblwip.a(ip.o)
 *fill*         0x4023d6b1        0xf 
 .irom.text     0x4023d6c0       0x28 c:/Espressif/ESP8266_SDK_151/lib\liblwip.a(memp.o)
                0x4023d6c0                memp_sizes
 .irom0.literal
                0x4023d6e8        0x0 c:/Espressif/ESP8266_SDK_151/lib\liblwip.a(netif.o)
 *fill*         0x4023d6e8        0x0 
 .irom0.literal
                0x4023d6e8        0x0 c:/Espressif/ESP8266_SDK_151/lib\liblwip.a(pbuf.o)
 *fill*         0x4023d6e8        0x0 
 .irom.text     0x4023d6e8        0x7 c:/Espressif/ESP8266_SDK_151/lib\liblwip.a(pbuf.o)
 *fill*         0x4023d6ef        0x1 
 .irom0.literal
                0x4023d6f0        0x0 c:/Espressif/ESP8266_SDK_151/lib\liblwip.a(raw.o)
 .irom.text     0x4023d6f0        0x6 c:/Espressif/ESP8266_SDK_151/lib\liblwip.a(raw.o)
 *fill*         0x4023d6f6        0x2 
 .irom0.literal
                0x4023d6f8        0x0 c:/Espressif/ESP8266_SDK_151/lib\liblwip.a(tcp_in.o)
 *fill*         0x4023d6f8        0x8 
 .irom.text     0x4023d700        0x9 c:/Espressif/ESP8266_SDK_151/lib\liblwip.a(tcp_in.o)
 *fill*         0x4023d709        0x3 
 .irom0.literal
                0x4023d70c        0x0 c:/Espressif/ESP8266_SDK_151/lib\liblwip.a(tcp.o)
 *fill*         0x4023d70c        0x4 
 .irom.text     0x4023d710       0x3d c:/Espressif/ESP8266_SDK_151/lib\liblwip.a(tcp.o)
                0x4023d720                tcp_pcb_lists
                0x4023d730                tcp_persist_backoff
                0x4023d740                tcp_backoff
 *fill*         0x4023d74d        0x3 
 .irom0.literal
                0x4023d750        0x0 c:/Espressif/ESP8266_SDK_151/lib\liblwip.a(tcp_out.o)
 *fill*         0x4023d750        0x0 
 .irom.text     0x4023d750        0xa c:/Espressif/ESP8266_SDK_151/lib\liblwip.a(tcp_out.o)
 *fill*         0x4023d75a        0x2 
 .irom0.literal
                0x4023d75c        0x0 c:/Espressif/ESP8266_SDK_151/lib\liblwip.a(timers.o)
 *fill*         0x4023d75c        0x4 
 .irom.text     0x4023d760        0x9 c:/Espressif/ESP8266_SDK_151/lib\liblwip.a(timers.o)
 *fill*         0x4023d769        0x3 
 .irom0.literal
                0x4023d76c        0x0 c:/Espressif/ESP8266_SDK_151/lib\liblwip.a(udp.o)
 *fill*         0x4023d76c        0x4 
 .irom.text     0x4023d770        0x6 c:/Espressif/ESP8266_SDK_151/lib\liblwip.a(udp.o)
 *fill*         0x4023d776        0x2 
 .irom0.literal
                0x4023d778        0x0 c:/Espressif/ESP8266_SDK_151/lib\liblwip.a(espconn.o)
 *fill*         0x4023d778        0x8 
 .irom.text     0x4023d780        0xa c:/Espressif/ESP8266_SDK_151/lib\liblwip.a(espconn.o)
 *fill*         0x4023d78a        0x2 
 .irom0.literal
                0x4023d78c        0x0 c:/Espressif/ESP8266_SDK_151/lib\liblwip.a(espconn_udp.o)
 *fill*         0x4023d78c        0x4 
 .irom.text     0x4023d790        0xe c:/Espressif/ESP8266_SDK_151/lib\liblwip.a(espconn_udp.o)
 *fill*         0x4023d79e        0x2 
 .irom0.literal
                0x4023d7a0        0x0 c:/Espressif/ESP8266_SDK_151/lib\liblwip.a(icmp.o)
 *fill*         0x4023d7a0        0x0 
 .irom0.literal
                0x4023d7a0        0x0 c:/Espressif/ESP8266_SDK_151/lib\liblwip.a(igmp.o)
 *fill*         0x4023d7a0        0x0 
 .irom.text     0x4023d7a0        0x7 c:/Espressif/ESP8266_SDK_151/lib\liblwip.a(igmp.o)
 *fill*         0x4023d7a7        0x1 
 .irom0.literal
                0x4023d7a8        0x0 c:/Espressif/ESP8266_SDK_151/lib\liblwip.a(inet_chksum.o)
 .irom0.text    0x4023d7a8      0x298 c:/Espressif/ESP8266_SDK_151/lib\liblwip.a(inet_chksum.o)
                0x4023d820                inet_chksum_pseudo
                0x4023d8e0                inet_chksum_pseudo_partial
                0x4023d9bc                inet_chksum
                0x4023d9d4                inet_chksum_pbuf
 .irom0.literal
                0x4023da40        0x0 c:/Espressif/ESP8266_SDK_151/lib\libwpa.a(ap_config.o)
 *fill*         0x4023da40        0x0 
 .irom.text     0x4023da40        0xc c:/Espressif/ESP8266_SDK_151/lib\libwpa.a(ap_config.o)
 .irom0.literal
                0x4023da4c        0x0 c:/Espressif/ESP8266_SDK_151/lib\libwpa.a(common.o)
 *fill*         0x4023da4c        0x4 
 .irom.text     0x4023da50        0x9 c:/Espressif/ESP8266_SDK_151/lib\libwpa.a(common.o)
 *fill*         0x4023da59        0x3 
 .irom0.literal
                0x4023da5c        0x0 c:/Espressif/ESP8266_SDK_151/lib\libwpa.a(os_xtensa.o)
 *fill*         0x4023da5c        0x4 
 .irom.text     0x4023da60        0xc c:/Espressif/ESP8266_SDK_151/lib\libwpa.a(os_xtensa.o)
 .irom0.literal
                0x4023da6c        0x0 c:/Espressif/ESP8266_SDK_151/lib\libwpa.a(wpa_auth.o)
 *fill*         0x4023da6c        0x4 
 .irom.text     0x4023da70       0x74 c:/Espressif/ESP8266_SDK_151/lib\libwpa.a(wpa_auth.o)
 .irom0.literal
                0x4023dae4        0x0 c:/Espressif/ESP8266_SDK_151/lib\libwpa.a(wpa_auth_ie.o)
 *fill*         0x4023dae4        0xc 
 .irom.text     0x4023daf0        0xe c:/Espressif/ESP8266_SDK_151/lib\libwpa.a(wpa_auth_ie.o)
 *fill*         0x4023dafe        0x2 
 .irom0.literal
                0x4023db00        0x0 c:/Espressif/ESP8266_SDK_151/lib\libwpa.a(wpa.o)
 *fill*         0x4023db00        0x0 
 .irom.text     0x4023db00       0x17 c:/Espressif/ESP8266_SDK_151/lib\libwpa.a(wpa.o)
 *fill*         0x4023db17        0x1 
 .irom0.literal
                0x4023db18        0x0 c:/Espressif/ESP8266_SDK_151/lib\libwpa.a(wpa_common.o)
 *fill*         0x4023db18        0x8 
 .irom.text     0x4023db20       0x1c c:/Espressif/ESP8266_SDK_151/lib\libwpa.a(wpa_common.o)
 .irom0.literal
                0x4023db3c        0x0 c:/Espressif/ESP8266_SDK_151/lib\libwpa.a(wpa_debug.o)
 .irom0.literal
                0x4023db3c        0x0 c:/Espressif/ESP8266_SDK_151/lib\libwpa.a(wpa_ie.o)
 *fill*         0x4023db3c        0x0 
 .irom0.literal
                0x4023db3c        0x0 c:/Espressif/ESP8266_SDK_151/lib\libwpa.a(wpa_main.o)
 *fill*         0x4023db3c        0x4 
 .irom.text     0x4023db40       0x67 c:/Espressif/ESP8266_SDK_151/lib\libwpa.a(wpa_main.o)
 *fill*         0x4023dba7        0x1 
 .irom0.literal
                0x4023dba8        0x0 c:/Espressif/ESP8266_SDK_151/lib\libwpa.a(wpas_glue.o)
 *fill*         0x4023dba8        0x0 
 .irom0.literal
                0x4023dba8        0x0 c:/Espressif/ESP8266_SDK_151/lib\libcrypto.a(aes-wrap.o)
 *fill*         0x4023dba8        0x0 
 .irom0.literal
                0x4023dba8        0x0 c:/Espressif/ESP8266_SDK_151/lib\libcrypto.a(aes-internal-enc.o)
 *fill*         0x4023dba8        0x8 
 .irom.text     0x4023dbb0       0x13 c:/Espressif/ESP8266_SDK_151/lib\libcrypto.a(aes-internal-enc.o)
 *fill*         0x4023dbc3        0x1 
 .irom0.literal
                0x4023dbc4        0x0 c:/Espressif/ESP8266_SDK_151/lib\libcrypto.a(aes-internal.o)
 .irom0.literal
                0x4023dbc4        0x0 c:/Espressif/ESP8266_SDK_151/lib\libnet80211.a(ieee80211_crypto_tkip.o)
 *fill*         0x4023dbc4        0x0 
 .irom.text     0x4023dbc4       0x18 c:/Espressif/ESP8266_SDK_151/lib\libnet80211.a(ieee80211_crypto_tkip.o)
                0x4023dbc4                tkip
 .irom0.literal
                0x4023dbdc        0x0 c:/Espressif/ESP8266_SDK_151/lib\libnet80211.a(ieee80211_crypto_wep.o)
 .irom.text     0x4023dbdc       0x18 c:/Espressif/ESP8266_SDK_151/lib\libnet80211.a(ieee80211_crypto_wep.o)
                0x4023dbdc                wep
                0x4023dbf4                _irom0_text_end = ABSOLUTE (.)
                0x400047f0                PROVIDE (Cache_Read_Disable, 0x400047f0)
                0x40004678                PROVIDE (Cache_Read_Enable, 0x40004678)
                0x400035a0                PROVIDE (FilePacketSendReqMsgProc, 0x400035a0)
                0x4000368c                PROVIDE (FlashDwnLdParamCfgMsgProc, 0x4000368c)
                0x40003538                PROVIDE (FlashDwnLdStartMsgProc, 0x40003538)
                0x40003658                PROVIDE (FlashDwnLdStopReqMsgProc, 0x40003658)
                0x40003f4c                PROVIDE (GetUartDevice, 0x40003f4c)
                0x40009900                PROVIDE (MD5Final, 0x40009900)
                0x40009818                PROVIDE (MD5Init, 0x40009818)
                0x40009834                PROVIDE (MD5Update, 0x40009834)
                0x400036c4                PROVIDE (MemDwnLdStartMsgProc, 0x400036c4)
                0x4000377c                PROVIDE (MemDwnLdStopReqMsgProc, 0x4000377c)
                0x400036f0                PROVIDE (MemPacketSendReqMsgProc, 0x400036f0)
                0x40003eac                PROVIDE (RcvMsg, 0x40003eac)
                0x4000b648                PROVIDE (SHA1Final, 0x4000b648)
                0x4000b584                PROVIDE (SHA1Init, 0x4000b584)
                0x4000a364                PROVIDE (SHA1Transform, 0x4000a364)
                0x4000b5a8                PROVIDE (SHA1Update, 0x4000b5a8)
                0x400043c8                PROVIDE (SPI_read_status, 0x400043c8)
                0x40004400                PROVIDE (SPI_write_status, 0x40004400)
                0x4000443c                PROVIDE (SPI_write_enable, 0x4000443c)
                0x4000448c                PROVIDE (Wait_SPI_Idle, 0x4000448c)
                0x40004b44                PROVIDE (SPIEraseArea, 0x40004b44)
                0x400049b4                PROVIDE (SPIEraseBlock, 0x400049b4)
                0x40004984                PROVIDE (SPIEraseChip, 0x40004984)
                0x40004a00                PROVIDE (SPIEraseSector, 0x40004a00)
                0x400048a8                PROVIDE (SPILock, 0x400048a8)
                0x40004c2c                PROVIDE (SPIParamCfg, 0x40004c2c)
                0x40004b1c                PROVIDE (SPIRead, 0x40004b1c)
                0x400048ec                PROVIDE (SPIReadModeCnfig, 0x400048ec)
                0x40004878                PROVIDE (SPIUnlock, 0x40004878)
                0x40004a4c                PROVIDE (SPIWrite, 0x40004a4c)
                0x40003f58                PROVIDE (SelectSpiFunction, 0x40003f58)
                0x40003cf4                PROVIDE (SendMsg, 0x40003cf4)
                0x40003230                PROVIDE (UartConnCheck, 0x40003230)
                0x400037a0                PROVIDE (UartConnectProc, 0x400037a0)
                0x40003368                PROVIDE (UartDwnLdProc, 0x40003368)
                0x40003ef4                PROVIDE (UartGetCmdLn, 0x40003ef4)
                0x4000381c                PROVIDE (UartRegReadProc, 0x4000381c)
                0x400037ac                PROVIDE (UartRegWriteProc, 0x400037ac)
                0x40003c30                PROVIDE (UartRxString, 0x40003c30)
                0x40003a14                PROVIDE (Uart_Init, 0x40003a14)
                0x40000010                PROVIDE (_DebugExceptionVector, 0x40000010)
                0x40000070                PROVIDE (_DoubleExceptionVector, 0x40000070)
                0x40000030                PROVIDE (_KernelExceptionVector, 0x40000030)
                0x40000020                PROVIDE (_NMIExceptionVector, 0x40000020)
                0x400000a4                PROVIDE (_ResetHandler, 0x400000a4)
                0x40000080                PROVIDE (_ResetVector, 0x40000080)
                0x40000050                PROVIDE (_UserExceptionVector, 0x40000050)
                0x4000c538                PROVIDE (__adddf3, 0x4000c538)
                0x4000c180                PROVIDE (__addsf3, 0x4000c180)
                0x4000cb94                PROVIDE (__divdf3, 0x4000cb94)
                0x4000ce60                PROVIDE (__divdi3, 0x4000ce60)
                0x4000dc88                PROVIDE (__divsi3, 0x4000dc88)
                0x4000cdfc                PROVIDE (__extendsfdf2, 0x4000cdfc)
                0x4000ccb8                PROVIDE (__fixdfsi, 0x4000ccb8)
                0x4000cd00                PROVIDE (__fixunsdfsi, 0x4000cd00)
                0x4000c4c4                PROVIDE (__fixunssfsi, 0x4000c4c4)
                0x4000e2f0                PROVIDE (__floatsidf, 0x4000e2f0)
                0x4000e2ac                PROVIDE (__floatsisf, 0x4000e2ac)
                0x4000e2e8                PROVIDE (__floatunsidf, 0x4000e2e8)
                0x4000e2a4                PROVIDE (__floatunsisf, 0x4000e2a4)
                0x4000c8f0                PROVIDE (__muldf3, 0x4000c8f0)
                0x40000650                PROVIDE (__muldi3, 0x40000650)
                0x4000c3dc                PROVIDE (__mulsf3, 0x4000c3dc)
                0x4000c688                PROVIDE (__subdf3, 0x4000c688)
                0x4000c268                PROVIDE (__subsf3, 0x4000c268)
                0x4000cd5c                PROVIDE (__truncdfsf2, 0x4000cd5c)
                0x4000d310                PROVIDE (__udivdi3, 0x4000d310)
                0x4000e21c                PROVIDE (__udivsi3, 0x4000e21c)
                0x4000d770                PROVIDE (__umoddi3, 0x4000d770)
                0x4000e268                PROVIDE (__umodsi3, 0x4000e268)
                0x4000dcf0                PROVIDE (__umulsidi3, 0x4000dcf0)
                0x4000e388                PROVIDE (_rom_store, 0x4000e388)
                0x4000e328                PROVIDE (_rom_store_table, 0x4000e328)
                0x4000042c                PROVIDE (_start, 0x4000042c)
                0x4000dbe0                PROVIDE (_xtos_alloca_handler, 0x4000dbe0)
                0x40000598                PROVIDE (_xtos_c_wrapper_handler, 0x40000598)
                0x40000590                PROVIDE (_xtos_cause3_handler, 0x40000590)
                0x4000bda4                PROVIDE (_xtos_ints_off, 0x4000bda4)
                0x4000bd84                PROVIDE (_xtos_ints_on, 0x4000bd84)
                0x4000048c                PROVIDE (_xtos_l1int_handler, 0x4000048c)
                0x4000dbf8                PROVIDE (_xtos_p_none, 0x4000dbf8)
                0x4000056c                PROVIDE (_xtos_restore_intlevel, 0x4000056c)
                0x4000dc54                PROVIDE (_xtos_return_from_exc, 0x4000dc54)
                0x40000454                PROVIDE (_xtos_set_exception_handler, 0x40000454)
                0x4000bd70                PROVIDE (_xtos_set_interrupt_handler, 0x4000bd70)
                0x4000bd28                PROVIDE (_xtos_set_interrupt_handler_arg, 0x4000bd28)
                0x4000dbfc                PROVIDE (_xtos_set_intlevel, 0x4000dbfc)
                0x4000dc18                PROVIDE (_xtos_set_min_intlevel, 0x4000dc18)
                0x40000574                PROVIDE (_xtos_set_vpri, 0x40000574)
                0x4000dbe4                PROVIDE (_xtos_syscall_handler, 0x4000dbe4)
                0x4000dc44                PROVIDE (_xtos_unhandled_exception, 0x4000dc44)
                0x4000dc3c                PROVIDE (_xtos_unhandled_interrupt, 0x4000dc3c)
                0x400092d4                PROVIDE (aes_decrypt, 0x400092d4)
                0x400092e4                PROVIDE (aes_decrypt_deinit, 0x400092e4)
                0x40008ea4                PROVIDE (aes_decrypt_init, 0x40008ea4)
                0x40009410                PROVIDE (aes_unwrap, 0x40009410)
                0x40009648                PROVIDE (base64_decode, 0x40009648)
                0x400094fc                PROVIDE (base64_encode, 0x400094fc)
                0x4000de84                PROVIDE (bzero, 0x4000de84)
                0x40000814                PROVIDE (cmd_parse, 0x40000814)
                0x40000b24                PROVIDE (conv_str_decimal, 0x40000b24)
                0x40000cb8                PROVIDE (conv_str_hex, 0x40000cb8)
                0x40000a60                PROVIDE (convert_para_str, 0x40000a60)
                0x400026d0                PROVIDE (dtm_get_intr_mask, 0x400026d0)
                0x4000269c                PROVIDE (dtm_params_init, 0x4000269c)
                0x400026c8                PROVIDE (dtm_set_intr_mask, 0x400026c8)
                0x400026dc                PROVIDE (dtm_set_params, 0x400026dc)
                0x40001d14                PROVIDE (eprintf, 0x40001d14)
                0x40001cb8                PROVIDE (eprintf_init_buf, 0x40001cb8)
                0x40001d48                PROVIDE (eprintf_to_host, 0x40001d48)
                0x40002494                PROVIDE (est_get_printf_buf_remain_len, 0x40002494)
                0x4000249c                PROVIDE (est_reset_printf_buf_len, 0x4000249c)
                0x40002ae8                PROVIDE (ets_bzero, 0x40002ae8)
                0x40002b74                PROVIDE (ets_char2xdigit, 0x40002b74)
                0x40002ecc                PROVIDE (ets_delay_us, 0x40002ecc)
                0x400027b8                PROVIDE (ets_enter_sleep, 0x400027b8)
                0x40002578                PROVIDE (ets_external_printf, 0x40002578)
                0x40002f0c                PROVIDE (ets_get_cpu_frequency, 0x40002f0c)
                0x40002bcc                PROVIDE (ets_getc, 0x40002bcc)
                0x40002450                PROVIDE (ets_install_external_printf, 0x40002450)
                0x4000242c                PROVIDE (ets_install_putc1, 0x4000242c)
                0x4000248c                PROVIDE (ets_install_putc2, 0x4000248c)
                0x40002438                PROVIDE (ets_install_uart_printf, 0x40002438)
                0x40000f74                PROVIDE (ets_intr_lock, 0x40000f74)
                0x40000f80                PROVIDE (ets_intr_unlock, 0x40000f80)
                0x40000f88                PROVIDE (ets_isr_attach, 0x40000f88)
                0x40000f98                PROVIDE (ets_isr_mask, 0x40000f98)
                0x40000fa8                PROVIDE (ets_isr_unmask, 0x40000fa8)
                0x400018d4                PROVIDE (ets_memcmp, 0x400018d4)
                0x400018b4                PROVIDE (ets_memcpy, 0x400018b4)
                0x400018c4                PROVIDE (ets_memmove, 0x400018c4)
                0x400018a4                PROVIDE (ets_memset, 0x400018a4)
                0x40000e24                PROVIDE (ets_post, 0x40000e24)
                0x400024cc                PROVIDE (ets_printf, 0x400024cc)
                0x40002be8                PROVIDE (ets_putc, 0x40002be8)
                0x40002a40                PROVIDE (ets_rtc_int_register, 0x40002a40)
                0x40000e04                PROVIDE (ets_run, 0x40000e04)
                0x40000dc0                PROVIDE (ets_set_idle_cb, 0x40000dc0)
                0x40000fbc                PROVIDE (ets_set_user_start, 0x40000fbc)
                0x40002af8                PROVIDE (ets_str2macaddr, 0x40002af8)
                0x40002aa8                PROVIDE (ets_strcmp, 0x40002aa8)
                0x40002a88                PROVIDE (ets_strcpy, 0x40002a88)
                0x40002ac8                PROVIDE (ets_strlen, 0x40002ac8)
                0x40002ab8                PROVIDE (ets_strncmp, 0x40002ab8)
                0x40002a98                PROVIDE (ets_strncpy, 0x40002a98)
                0x40002ad8                PROVIDE (ets_strstr, 0x40002ad8)
                0x40000dd0                PROVIDE (ets_task, 0x40000dd0)
                0x40002cc4                PROVIDE (ets_timer_arm, 0x40002cc4)
                0x40002d40                PROVIDE (ets_timer_disarm, 0x40002d40)
                0x40002d80                PROVIDE (ets_timer_done, 0x40002d80)
                0x40002da8                PROVIDE (ets_timer_handler_isr, 0x40002da8)
                0x40002e68                PROVIDE (ets_timer_init, 0x40002e68)
                0x40002c48                PROVIDE (ets_timer_setfn, 0x40002c48)
                0x40002544                PROVIDE (ets_uart_printf, 0x40002544)
                0x40002f04                PROVIDE (ets_update_cpu_frequency, 0x40002f04)
                0x40001f00                PROVIDE (ets_vprintf, 0x40001f00)
                0x400030f0                PROVIDE (ets_wdt_disable, 0x400030f0)
                0x40002fa0                PROVIDE (ets_wdt_enable, 0x40002fa0)
                0x40002f34                PROVIDE (ets_wdt_get_mode, 0x40002f34)
                0x40003170                PROVIDE (ets_wdt_init, 0x40003170)
                0x40003158                PROVIDE (ets_wdt_restore, 0x40003158)
                0x40001da0                PROVIDE (ets_write_char, 0x40001da0)
                0x4000091c                PROVIDE (get_first_seg, 0x4000091c)
                0x40004c50                PROVIDE (gpio_init, 0x40004c50)
                0x40004cf0                PROVIDE (gpio_input_get, 0x40004cf0)
                0x40004dcc                PROVIDE (gpio_intr_ack, 0x40004dcc)
                0x40004e28                PROVIDE (gpio_intr_handler_register, 0x40004e28)
                0x40004d88                PROVIDE (gpio_intr_pending, 0x40004d88)
                0x40004efc                PROVIDE (gpio_intr_test, 0x40004efc)
                0x40004cd0                PROVIDE (gpio_output_set, 0x40004cd0)
                0x40004d90                PROVIDE (gpio_pin_intr_state_set, 0x40004d90)
                0x40004ed4                PROVIDE (gpio_pin_wakeup_disable, 0x40004ed4)
                0x40004e90                PROVIDE (gpio_pin_wakeup_enable, 0x40004e90)
                0x40004d5c                PROVIDE (gpio_register_get, 0x40004d5c)
                0x40004d04                PROVIDE (gpio_register_set, 0x40004d04)
                0x4000a2cc                PROVIDE (hmac_md5, 0x4000a2cc)
                0x4000a160                PROVIDE (hmac_md5_vector, 0x4000a160)
                0x4000ba28                PROVIDE (hmac_sha1, 0x4000ba28)
                0x4000b8b4                PROVIDE (hmac_sha1_vector, 0x4000b8b4)
                0x40004f40                PROVIDE (lldesc_build_chain, 0x40004f40)
                0x40005050                PROVIDE (lldesc_num2link, 0x40005050)
                0x4000507c                PROVIDE (lldesc_set_owner, 0x4000507c)
                0x40000fec                PROVIDE (main, 0x40000fec)
                0x400097ac                PROVIDE (md5_vector, 0x400097ac)
                0x40001c2c                PROVIDE (mem_calloc, 0x40001c2c)
                0x400019e0                PROVIDE (mem_free, 0x400019e0)
                0x40001998                PROVIDE (mem_init, 0x40001998)
                0x40001b40                PROVIDE (mem_malloc, 0x40001b40)
                0x40001c6c                PROVIDE (mem_realloc, 0x40001c6c)
                0x40001a14                PROVIDE (mem_trim, 0x40001a14)
                0x40001c58                PROVIDE (mem_zalloc, 0x40001c58)
                0x4000dea8                PROVIDE (memcmp, 0x4000dea8)
                0x4000df48                PROVIDE (memcpy, 0x4000df48)
                0x4000e04c                PROVIDE (memmove, 0x4000e04c)
                0x4000e190                PROVIDE (memset, 0x4000e190)
                0x400031c0                PROVIDE (multofup, 0x400031c0)
                0x4000b840                PROVIDE (pbkdf2_sha1, 0x4000b840)
                0x40006b08                PROVIDE (phy_get_romfuncs, 0x40006b08)
                0x40000600                PROVIDE (rand, 0x40000600)
                0x4000dd68                PROVIDE (rc4_skip, 0x4000dd68)
                0x40003d08                PROVIDE (recv_packet, 0x40003d08)
                0x40000a04                PROVIDE (remove_head_space, 0x40000a04)
                0x40008dd0                PROVIDE (rijndaelKeySetupDec, 0x40008dd0)
                0x40009300                PROVIDE (rijndaelKeySetupEnc, 0x40009300)
                0x400060c0                PROVIDE (rom_abs_temp, 0x400060c0)
                0x40006b10                PROVIDE (rom_ana_inf_gating_en, 0x40006b10)
                0x40007a28                PROVIDE (rom_cal_tos_v50, 0x40007a28)
                0x40006f84                PROVIDE (rom_chip_50_set_channel, 0x40006f84)
                0x400060d0                PROVIDE (rom_chip_v5_disable_cca, 0x400060d0)
                0x400060ec                PROVIDE (rom_chip_v5_enable_cca, 0x400060ec)
                0x4000711c                PROVIDE (rom_chip_v5_rx_init, 0x4000711c)
                0x4000610c                PROVIDE (rom_chip_v5_sense_backoff, 0x4000610c)
                0x4000718c                PROVIDE (rom_chip_v5_tx_init, 0x4000718c)
                0x4000615c                PROVIDE (rom_dc_iq_est, 0x4000615c)
                0x400061b8                PROVIDE (rom_en_pwdet, 0x400061b8)
                0x40006238                PROVIDE (rom_get_bb_atten, 0x40006238)
                0x40006260                PROVIDE (rom_get_corr_power, 0x40006260)
                0x400062dc                PROVIDE (rom_get_fm_sar_dout, 0x400062dc)
                0x40006394                PROVIDE (rom_get_noisefloor, 0x40006394)
                0x400063b0                PROVIDE (rom_get_power_db, 0x400063b0)
                0x40007268                PROVIDE (rom_i2c_readReg, 0x40007268)
                0x4000729c                PROVIDE (rom_i2c_readReg_Mask, 0x4000729c)
                0x400072d8                PROVIDE (rom_i2c_writeReg, 0x400072d8)
                0x4000730c                PROVIDE (rom_i2c_writeReg_Mask, 0x4000730c)
                0x40006400                PROVIDE (rom_iq_est_disable, 0x40006400)
                0x40006430                PROVIDE (rom_iq_est_enable, 0x40006430)
                0x40006484                PROVIDE (rom_linear_to_db, 0x40006484)
                0x400065a4                PROVIDE (rom_mhz2ieee, 0x400065a4)
                0x40007bf0                PROVIDE (rom_pbus_dco___SA2, 0x40007bf0)
                0x4000737c                PROVIDE (rom_pbus_debugmode, 0x4000737c)
                0x40007410                PROVIDE (rom_pbus_enter_debugmode, 0x40007410)
                0x40007448                PROVIDE (rom_pbus_exit_debugmode, 0x40007448)
                0x4000747c                PROVIDE (rom_pbus_force_test, 0x4000747c)
                0x400074d8                PROVIDE (rom_pbus_rd, 0x400074d8)
                0x4000754c                PROVIDE (rom_pbus_set_rxgain, 0x4000754c)
                0x40007610                PROVIDE (rom_pbus_set_txgain, 0x40007610)
                0x40007648                PROVIDE (rom_pbus_workmode, 0x40007648)
                0x40007688                PROVIDE (rom_pbus_xpd_rx_off, 0x40007688)
                0x400076cc                PROVIDE (rom_pbus_xpd_rx_on, 0x400076cc)
                0x400076fc                PROVIDE (rom_pbus_xpd_tx_off, 0x400076fc)
                0x40007740                PROVIDE (rom_pbus_xpd_tx_on, 0x40007740)
                0x400077a0                PROVIDE (rom_pbus_xpd_tx_on__low_gain, 0x400077a0)
                0x40007804                PROVIDE (rom_phy_reset_req, 0x40007804)
                0x4000781c                PROVIDE (rom_restart_cal, 0x4000781c)
                0x40007eb4                PROVIDE (rom_rfcal_pwrctrl, 0x40007eb4)
                0x4000804c                PROVIDE (rom_rfcal_rxiq, 0x4000804c)
                0x40008264                PROVIDE (rom_rfcal_rxiq_set_reg, 0x40008264)
                0x40008388                PROVIDE (rom_rfcal_txcap, 0x40008388)
                0x40008610                PROVIDE (rom_rfcal_txiq, 0x40008610)
                0x400088b8                PROVIDE (rom_rfcal_txiq_cover, 0x400088b8)
                0x40008a70                PROVIDE (rom_rfcal_txiq_set_reg, 0x40008a70)
                0x40007868                PROVIDE (rom_rfpll_reset, 0x40007868)
                0x40007968                PROVIDE (rom_rfpll_set_freq, 0x40007968)
                0x40008b6c                PROVIDE (rom_rxiq_cover_mg_mp, 0x40008b6c)
                0x40006628                PROVIDE (rom_rxiq_get_mis, 0x40006628)
                0x40006738                PROVIDE (rom_sar_init, 0x40006738)
                0x4000678c                PROVIDE (rom_set_ana_inf_tx_scale, 0x4000678c)
                0x40006c50                PROVIDE (rom_set_channel_freq, 0x40006c50)
                0x400067c8                PROVIDE (rom_set_loopback_gain, 0x400067c8)
                0x40006830                PROVIDE (rom_set_noise_floor, 0x40006830)
                0x40006550                PROVIDE (rom_set_rxclk_en, 0x40006550)
                0x40008c6c                PROVIDE (rom_set_txbb_atten, 0x40008c6c)
                0x4000650c                PROVIDE (rom_set_txclk_en, 0x4000650c)
                0x40008d34                PROVIDE (rom_set_txiq_cal, 0x40008d34)
                0x40006874                PROVIDE (rom_start_noisefloor, 0x40006874)
                0x400068b4                PROVIDE (rom_start_tx_tone, 0x400068b4)
                0x4000698c                PROVIDE (rom_stop_tx_tone, 0x4000698c)
                0x40006a98                PROVIDE (rom_tx_mac_disable, 0x40006a98)
                0x40006ad4                PROVIDE (rom_tx_mac_enable, 0x40006ad4)
                0x40006a1c                PROVIDE (rom_txtone_linear_pwr, 0x40006a1c)
                0x400078dc                PROVIDE (rom_write_rfpll_sdm, 0x400078dc)
                0x400031b4                PROVIDE (roundup2, 0x400031b4)
                0x40002870                PROVIDE (rtc_enter_sleep, 0x40002870)
                0x400025e0                PROVIDE (rtc_get_reset_reason, 0x400025e0)
                0x400029ec                PROVIDE (rtc_intr_handler, 0x400029ec)
                0x40002668                PROVIDE (rtc_set_sleep_mode, 0x40002668)
                0x400027a4                PROVIDE (save_rxbcn_mactime, 0x400027a4)
                0x400027ac                PROVIDE (save_tsf_us, 0x400027ac)
                0x40003c80                PROVIDE (send_packet, 0x40003c80)
                0x4000ba48                PROVIDE (sha1_prf, 0x4000ba48)
                0x4000a2ec                PROVIDE (sha1_vector, 0x4000a2ec)
                0x40005180                PROVIDE (sip_alloc_to_host_evt, 0x40005180)
                0x400058a8                PROVIDE (sip_get_ptr, 0x400058a8)
                0x40005668                PROVIDE (sip_get_state, 0x40005668)
                0x4000567c                PROVIDE (sip_init_attach, 0x4000567c)
                0x4000544c                PROVIDE (sip_install_rx_ctrl_cb, 0x4000544c)
                0x4000545c                PROVIDE (sip_install_rx_data_cb, 0x4000545c)
                0x400050fc                PROVIDE (sip_post, 0x400050fc)
                0x400056c4                PROVIDE (sip_post_init, 0x400056c4)
                0x4000534c                PROVIDE (sip_reclaim_from_host_cmd, 0x4000534c)
                0x400052c0                PROVIDE (sip_reclaim_tx_data_pkt, 0x400052c0)
                0x40005808                PROVIDE (sip_send, 0x40005808)
                0x40005864                PROVIDE (sip_to_host_chain_append, 0x40005864)
                0x40005234                PROVIDE (sip_to_host_evt_send_done, 0x40005234)
                0x400060ac                PROVIDE (slc_add_credits, 0x400060ac)
                0x40005d90                PROVIDE (slc_enable, 0x40005d90)
                0x40005f24                PROVIDE (slc_from_host_chain_fetch, 0x40005f24)
                0x40005e94                PROVIDE (slc_from_host_chain_recycle, 0x40005e94)
                0x40005c50                PROVIDE (slc_init_attach, 0x40005c50)
                0x4000608c                PROVIDE (slc_init_credit, 0x4000608c)
                0x40006014                PROVIDE (slc_pause_from_host, 0x40006014)
                0x40005c1c                PROVIDE (slc_reattach, 0x40005c1c)
                0x4000603c                PROVIDE (slc_resume_from_host, 0x4000603c)
                0x40005dc0                PROVIDE (slc_select_tohost_gpio, 0x40005dc0)
                0x40005db8                PROVIDE (slc_select_tohost_gpio_mode, 0x40005db8)
                0x40005de4                PROVIDE (slc_send_to_host_chain, 0x40005de4)
                0x40006068                PROVIDE (slc_set_host_io_max_window, 0x40006068)
                0x40005f10                PROVIDE (slc_to_host_chain_recycle, 0x40005f10)
                0x4000264c                PROVIDE (software_reset, 0x4000264c)
                0x40004644                PROVIDE (spi_flash_attach, 0x40004644)
                0x400005f0                PROVIDE (srand, 0x400005f0)
                0x4000bdc8                PROVIDE (strcmp, 0x4000bdc8)
                0x4000bec8                PROVIDE (strcpy, 0x4000bec8)
                0x4000bf4c                PROVIDE (strlen, 0x4000bf4c)
                0x4000bfa8                PROVIDE (strncmp, 0x4000bfa8)
                0x4000c0a0                PROVIDE (strncpy, 0x4000c0a0)
                0x4000e1e0                PROVIDE (strstr, 0x4000e1e0)
                0x40002c64                PROVIDE (timer_insert, 0x40002c64)
                0x4000383c                PROVIDE (uartAttach, 0x4000383c)
                0x40003924                PROVIDE (uart_baudrate_detect, 0x40003924)
                0x400038a4                PROVIDE (uart_buff_switch, 0x400038a4)
                0x400039d8                PROVIDE (uart_div_modify, 0x400039d8)
                0x40003bbc                PROVIDE (uart_rx_intr_handler, 0x40003bbc)
                0x40003b8c                PROVIDE (uart_rx_one_char, 0x40003b8c)
                0x40003b64                PROVIDE (uart_rx_one_char_block, 0x40003b64)
                0x40003ec8                PROVIDE (uart_rx_readbuff, 0x40003ec8)
                0x40003b30                PROVIDE (uart_tx_one_char, 0x40003b30)
                0x4000bc40                PROVIDE (wepkey_128, 0x4000bc40)
                0x4000bb3c                PROVIDE (wepkey_64, 0x4000bb3c)
                0x40000688                PROVIDE (xthal_bcopy, 0x40000688)
                0x4000074c                PROVIDE (xthal_copy123, 0x4000074c)
                0x4000dd4c                PROVIDE (xthal_get_ccompare, 0x4000dd4c)
                0x4000dd38                PROVIDE (xthal_get_ccount, 0x4000dd38)
                0x4000dd58                PROVIDE (xthal_get_interrupt, 0x4000dd58)
                0x4000dd58                PROVIDE (xthal_get_intread, 0x4000dd58)
                0x400006c4                PROVIDE (xthal_memcpy, 0x400006c4)
                0x4000dd40                PROVIDE (xthal_set_ccompare, 0x4000dd40)
                0x4000dd60                PROVIDE (xthal_set_intclear, 0x4000dd60)
                0x4000e320                PROVIDE (xthal_spill_registers_into_stack_nw, 0x4000e320)
                0x4000e324                PROVIDE (xthal_window_spill, 0x4000e324)
                0x4000e320                PROVIDE (xthal_window_spill_nw, 0x4000e320)
                0x3fffccf0                PROVIDE (Te0, 0x3fffccf0)
                0x3fffd100                PROVIDE (Td0, 0x3fffd100)
                0x3fffd500                PROVIDE (Td4s, 0x3fffd500)
                0x3fffd0f0                PROVIDE (rcons, 0x3fffd0f0)
                0x3fffde10                PROVIDE (UartDev, 0x3fffde10)
                0x3fffc714                PROVIDE (flashchip, 0x3fffc714)
OUTPUT(build/debug/app.out elf32-xtensa-le)

.xtensa.info    0x00000000       0x38
 .xtensa.info   0x00000000       0x38 c:/Espressif/ESP8266_SDK_151/lib\libmain.a(debug-vector.o)
 .xtensa.info   0x00000000        0x0 c:/Espressif/ESP8266_SDK_151/lib\libmain.a(double-vector.o)
 .xtensa.info   0x00000000        0x0 c:/Espressif/ESP8266_SDK_151/lib\libmain.a(kernel-vector.o)
 .xtensa.info   0x00000000        0x0 c:/Espressif/ESP8266_SDK_151/lib\libmain.a(nmi-vector.o)
 .xtensa.info   0x00000000        0x0 c:/Espressif/ESP8266_SDK_151/lib\libmain.a(user-vector.o)
 .xtensa.info   0x00000000        0x0 c:/Espressif/ESP8266_SDK_151/lib\libmain.a(vector.o)
 .xtensa.info   0x00000000        0x0 c:/Espressif/ESP8266_SDK_151/lib\libmain.a(app_main.o)
 .xtensa.info   0x00000000        0x0 c:/Espressif/ESP8266_SDK_151/lib\libmain.a(ets_timer.o)
 .xtensa.info   0x00000000        0x0 c:/Espressif/ESP8266_SDK_151/lib\libmain.a(mem_manager.o)
 .xtensa.info   0x00000000        0x0 c:/Espressif/ESP8266_SDK_151/lib\libmain.a(spi_flash.o)
 .xtensa.info   0x00000000        0x0 c:/Espressif/ESP8266_SDK_151/lib\libmain.a(user_interface.o)
 .xtensa.info   0x00000000        0x0 c:/Espressif/ESP8266_SDK_151/lib\libmain.a(eagle_lib.o)
 .xtensa.info   0x00000000        0x0 c:/Espressif/ESP8266_SDK_151/lib\libmain.a(eagle_lwip_if.o)
 .xtensa.info   0x00000000        0x0 build/debug/app_app.a(user_main.o)
 .xtensa.info   0x00000000        0x0 build/debug/app_app.a(easygpio.o)
 .xtensa.info   0x00000000        0x0 build/debug/app_app.a(stdout.o)
 .xtensa.info   0x00000000        0x0 build/debug/app_app.a(hw_timer.o)
 .xtensa.info   0x00000000        0x0 c:/espressif/xtensa-lx106-elf/bin/../lib/gcc/xtensa-lx106-elf/5.1.0\libgcc.a(_udivsi3.o)
 .xtensa.info   0x00000000        0x0 c:/espressif/xtensa-lx106-elf/bin/../lib/gcc/xtensa-lx106-elf/5.1.0\libgcc.a(_umodsi3.o)
 .xtensa.info   0x00000000        0x0 c:/espressif/xtensa-lx106-elf/bin/../lib/gcc/xtensa-lx106-elf/5.1.0\libgcc.a(_muldi3.o)
 .xtensa.info   0x00000000        0x0 c:/espressif/xtensa-lx106-elf/bin/../lib/gcc/xtensa-lx106-elf/5.1.0\libgcc.a(_umulsidi3.o)
 .xtensa.info   0x00000000        0x0 c:/espressif/xtensa-lx106-elf/bin/../lib/gcc/xtensa-lx106-elf/5.1.0/../../../../xtensa-lx106-elf/lib\libhal.a(int_asm--set_intclear.o)
 .xtensa.info   0x00000000        0x0 c:/Espressif/ESP8266_SDK_151/lib\libphy.a(phy.o)
 .xtensa.info   0x00000000        0x0 c:/Espressif/ESP8266_SDK_151/lib\libphy.a(phy_chip_v6_ana.o)
 .xtensa.info   0x00000000        0x0 c:/Espressif/ESP8266_SDK_151/lib\libphy.a(phy_chip_v6.o)
 .xtensa.info   0x00000000        0x0 c:/Espressif/ESP8266_SDK_151/lib\libphy.a(phy_chip_v6_cal.o)
 .xtensa.info   0x00000000        0x0 c:/Espressif/ESP8266_SDK_151/lib\libphy.a(phy_chip_v6_unused.o)
 .xtensa.info   0x00000000        0x0 c:/Espressif/ESP8266_SDK_151/lib\libphy.a(phy_sleep.o)
 .xtensa.info   0x00000000        0x0 c:/Espressif/ESP8266_SDK_151/lib\libpp.a(if_hwctrl.o)
 .xtensa.info   0x00000000        0x0 c:/Espressif/ESP8266_SDK_151/lib\libpp.a(lmac.o)
 .xtensa.info   0x00000000        0x0 c:/Espressif/ESP8266_SDK_151/lib\libpp.a(pm.o)
 .xtensa.info   0x00000000        0x0 c:/Espressif/ESP8266_SDK_151/lib\libpp.a(pm_for_bcn_only_mode.o)
 .xtensa.info   0x00000000        0x0 c:/Espressif/ESP8266_SDK_151/lib\libpp.a(pp.o)
 .xtensa.info   0x00000000        0x0 c:/Espressif/ESP8266_SDK_151/lib\libpp.a(rate_control.o)
 .xtensa.info   0x00000000        0x0 c:/Espressif/ESP8266_SDK_151/lib\libpp.a(trc.o)
 .xtensa.info   0x00000000        0x0 c:/Espressif/ESP8266_SDK_151/lib\libpp.a(wdev.o)
 .xtensa.info   0x00000000        0x0 c:/Espressif/ESP8266_SDK_151/lib\libpp.a(esf_buf.o)
 .xtensa.info   0x00000000        0x0 c:/Espressif/ESP8266_SDK_151/lib\libnet80211.a(ieee80211.o)
 .xtensa.info   0x00000000        0x0 c:/Espressif/ESP8266_SDK_151/lib\libnet80211.a(ieee80211_crypto.o)
 .xtensa.info   0x00000000        0x0 c:/Espressif/ESP8266_SDK_151/lib\libnet80211.a(ieee80211_ets.o)
 .xtensa.info   0x00000000        0x0 c:/Espressif/ESP8266_SDK_151/lib\libnet80211.a(ieee80211_hostap.o)
 .xtensa.info   0x00000000        0x0 c:/Espressif/ESP8266_SDK_151/lib\libnet80211.a(ieee80211_ht.o)
 .xtensa.info   0x00000000        0x0 c:/Espressif/ESP8266_SDK_151/lib\libnet80211.a(ieee80211_input.o)
 .xtensa.info   0x00000000        0x0 c:/Espressif/ESP8266_SDK_151/lib\libnet80211.a(ieee80211_mesh_quick.o)
 .xtensa.info   0x00000000        0x0 c:/Espressif/ESP8266_SDK_151/lib\libnet80211.a(ieee80211_output.o)
 .xtensa.info   0x00000000        0x0 c:/Espressif/ESP8266_SDK_151/lib\libnet80211.a(ieee80211_phy.o)
 .xtensa.info   0x00000000        0x0 c:/Espressif/ESP8266_SDK_151/lib\libnet80211.a(ieee80211_power.o)
 .xtensa.info   0x00000000        0x0 c:/Espressif/ESP8266_SDK_151/lib\libnet80211.a(ieee80211_proto.o)
 .xtensa.info   0x00000000        0x0 c:/Espressif/ESP8266_SDK_151/lib\libnet80211.a(ieee80211_rfid.o)
 .xtensa.info   0x00000000        0x0 c:/Espressif/ESP8266_SDK_151/lib\libnet80211.a(ieee80211_scan.o)
 .xtensa.info   0x00000000        0x0 c:/Espressif/ESP8266_SDK_151/lib\libnet80211.a(ieee80211_sta.o)
 .xtensa.info   0x00000000        0x0 c:/Espressif/ESP8266_SDK_151/lib\libnet80211.a(wl_chm.o)
 .xtensa.info   0x00000000        0x0 c:/Espressif/ESP8266_SDK_151/lib\libnet80211.a(wl_cnx.o)
 .xtensa.info   0x00000000        0x0 c:/Espressif/ESP8266_SDK_151/lib\libnet80211.a(ieee80211_action.o)
 .xtensa.info   0x00000000        0x0 c:/Espressif/ESP8266_SDK_151/lib\libnet80211.a(ieee80211_action_vendor.o)
 .xtensa.info   0x00000000        0x0 c:/Espressif/ESP8266_SDK_151/lib\libnet80211.a(ieee80211_crypto_ccmp.o)
 .xtensa.info   0x00000000        0x0 c:/Espressif/ESP8266_SDK_151/lib\libnet80211.a(ieee80211_ie_vendor.o)
 .xtensa.info   0x00000000        0x0 c:/Espressif/ESP8266_SDK_151/lib\liblwip.a(dhcp.o)
 .xtensa.info   0x00000000        0x0 c:/Espressif/ESP8266_SDK_151/lib\liblwip.a(dhcpserver.o)
 .xtensa.info   0x00000000        0x0 c:/Espressif/ESP8266_SDK_151/lib\liblwip.a(dns.o)
 .xtensa.info   0x00000000        0x0 c:/Espressif/ESP8266_SDK_151/lib\liblwip.a(espconn_tcp.o)
 .xtensa.info   0x00000000        0x0 c:/Espressif/ESP8266_SDK_151/lib\liblwip.a(etharp.o)
 .xtensa.info   0x00000000        0x0 c:/Espressif/ESP8266_SDK_151/lib\liblwip.a(init.o)
 .xtensa.info   0x00000000        0x0 c:/Espressif/ESP8266_SDK_151/lib\liblwip.a(ip_addr.o)
 .xtensa.info   0x00000000        0x0 c:/Espressif/ESP8266_SDK_151/lib\liblwip.a(ip.o)
 .xtensa.info   0x00000000        0x0 c:/Espressif/ESP8266_SDK_151/lib\liblwip.a(memp.o)
 .xtensa.info   0x00000000        0x0 c:/Espressif/ESP8266_SDK_151/lib\liblwip.a(netif.o)
 .xtensa.info   0x00000000        0x0 c:/Espressif/ESP8266_SDK_151/lib\liblwip.a(pbuf.o)
 .xtensa.info   0x00000000        0x0 c:/Espressif/ESP8266_SDK_151/lib\liblwip.a(raw.o)
 .xtensa.info   0x00000000        0x0 c:/Espressif/ESP8266_SDK_151/lib\liblwip.a(tcp_in.o)
 .xtensa.info   0x00000000        0x0 c:/Espressif/ESP8266_SDK_151/lib\liblwip.a(tcp.o)
 .xtensa.info   0x00000000        0x0 c:/Espressif/ESP8266_SDK_151/lib\liblwip.a(tcp_out.o)
 .xtensa.info   0x00000000        0x0 c:/Espressif/ESP8266_SDK_151/lib\liblwip.a(timers.o)
 .xtensa.info   0x00000000        0x0 c:/Espressif/ESP8266_SDK_151/lib\liblwip.a(udp.o)
 .xtensa.info   0x00000000        0x0 c:/Espressif/ESP8266_SDK_151/lib\liblwip.a(espconn.o)
 .xtensa.info   0x00000000        0x0 c:/Espressif/ESP8266_SDK_151/lib\liblwip.a(espconn_udp.o)
 .xtensa.info   0x00000000        0x0 c:/Espressif/ESP8266_SDK_151/lib\liblwip.a(icmp.o)
 .xtensa.info   0x00000000        0x0 c:/Espressif/ESP8266_SDK_151/lib\liblwip.a(igmp.o)
 .xtensa.info   0x00000000        0x0 c:/Espressif/ESP8266_SDK_151/lib\liblwip.a(inet_chksum.o)
 .xtensa.info   0x00000000        0x0 c:/Espressif/ESP8266_SDK_151/lib\libwpa.a(ap_config.o)
 .xtensa.info   0x00000000        0x0 c:/Espressif/ESP8266_SDK_151/lib\libwpa.a(common.o)
 .xtensa.info   0x00000000        0x0 c:/Espressif/ESP8266_SDK_151/lib\libwpa.a(os_xtensa.o)
 .xtensa.info   0x00000000        0x0 c:/Espressif/ESP8266_SDK_151/lib\libwpa.a(wpa_auth.o)
 .xtensa.info   0x00000000        0x0 c:/Espressif/ESP8266_SDK_151/lib\libwpa.a(wpa_auth_ie.o)
 .xtensa.info   0x00000000        0x0 c:/Espressif/ESP8266_SDK_151/lib\libwpa.a(wpa.o)
 .xtensa.info   0x00000000        0x0 c:/Espressif/ESP8266_SDK_151/lib\libwpa.a(wpa_common.o)
 .xtensa.info   0x00000000        0x0 c:/Espressif/ESP8266_SDK_151/lib\libwpa.a(wpa_debug.o)
 .xtensa.info   0x00000000        0x0 c:/Espressif/ESP8266_SDK_151/lib\libwpa.a(wpa_ie.o)
 .xtensa.info   0x00000000        0x0 c:/Espressif/ESP8266_SDK_151/lib\libwpa.a(wpa_main.o)
 .xtensa.info   0x00000000        0x0 c:/Espressif/ESP8266_SDK_151/lib\libwpa.a(wpas_glue.o)
 .xtensa.info   0x00000000        0x0 c:/Espressif/ESP8266_SDK_151/lib\libcrypto.a(aes-wrap.o)
 .xtensa.info   0x00000000        0x0 c:/Espressif/ESP8266_SDK_151/lib\libcrypto.a(aes-internal-enc.o)
 .xtensa.info   0x00000000        0x0 c:/Espressif/ESP8266_SDK_151/lib\libcrypto.a(aes-internal.o)
 .xtensa.info   0x00000000        0x0 c:/espressif/xtensa-lx106-elf/bin/../lib/gcc/xtensa-lx106-elf/5.1.0\libgcc.a(_divsi3.o)
 .xtensa.info   0x00000000        0x0 c:/espressif/xtensa-lx106-elf/bin/../lib/gcc/xtensa-lx106-elf/5.1.0\libgcc.a(_modsi3.o)
 .xtensa.info   0x00000000        0x0 c:/espressif/xtensa-lx106-elf/bin/../lib/gcc/xtensa-lx106-elf/5.1.0\libgcc.a(_ashrdi3.o)
 .xtensa.info   0x00000000        0x0 c:/espressif/xtensa-lx106-elf/bin/../lib/gcc/xtensa-lx106-elf/5.1.0\libgcc.a(_addsubsf3.o)
 .xtensa.info   0x00000000        0x0 c:/espressif/xtensa-lx106-elf/bin/../lib/gcc/xtensa-lx106-elf/5.1.0\libgcc.a(_mulsf3.o)
 .xtensa.info   0x00000000        0x0 c:/espressif/xtensa-lx106-elf/bin/../lib/gcc/xtensa-lx106-elf/5.1.0\libgcc.a(_divsf3.o)
 .xtensa.info   0x00000000        0x0 c:/espressif/xtensa-lx106-elf/bin/../lib/gcc/xtensa-lx106-elf/5.1.0\libgcc.a(_fixsfsi.o)
 .xtensa.info   0x00000000        0x0 c:/espressif/xtensa-lx106-elf/bin/../lib/gcc/xtensa-lx106-elf/5.1.0\libgcc.a(_fixunssfsi.o)
 .xtensa.info   0x00000000        0x0 c:/espressif/xtensa-lx106-elf/bin/../lib/gcc/xtensa-lx106-elf/5.1.0\libgcc.a(_floatsisf.o)
 .xtensa.info   0x00000000        0x0 c:/espressif/xtensa-lx106-elf/bin/../lib/gcc/xtensa-lx106-elf/5.1.0\libgcc.a(_muldf3.o)
 .xtensa.info   0x00000000        0x0 c:/espressif/xtensa-lx106-elf/bin/../lib/gcc/xtensa-lx106-elf/5.1.0\libgcc.a(_divdf3.o)
 .xtensa.info   0x00000000        0x0 c:/espressif/xtensa-lx106-elf/bin/../lib/gcc/xtensa-lx106-elf/5.1.0\libgcc.a(_fixdfsi.o)
 .xtensa.info   0x00000000        0x0 c:/espressif/xtensa-lx106-elf/bin/../lib/gcc/xtensa-lx106-elf/5.1.0\libgcc.a(_floatsidf.o)
 .xtensa.info   0x00000000        0x0 c:/espressif/xtensa-lx106-elf/bin/../lib/gcc/xtensa-lx106-elf/5.1.0\libgcc.a(_truncdfsf2.o)
 .xtensa.info   0x00000000        0x0 c:/espressif/xtensa-lx106-elf/bin/../lib/gcc/xtensa-lx106-elf/5.1.0\libgcc.a(_divdi3.o)
 .xtensa.info   0x00000000        0x0 c:/espressif/xtensa-lx106-elf/bin/../lib/gcc/xtensa-lx106-elf/5.1.0\libgcc.a(_umoddi3.o)
 .xtensa.info   0x00000000        0x0 c:/Espressif/ESP8266_SDK_151/lib\libnet80211.a(ieee80211_crypto_tkip.o)
 .xtensa.info   0x00000000        0x0 c:/Espressif/ESP8266_SDK_151/lib\libnet80211.a(ieee80211_crypto_wep.o)

.xt.prop        0x00000000    0x271d4
 .xt.prop       0x00000000       0x18 c:/Espressif/ESP8266_SDK_151/lib\libmain.a(debug-vector.o)
 .xt.prop       0x00000018       0x18 c:/Espressif/ESP8266_SDK_151/lib\libmain.a(double-vector.o)
 .xt.prop       0x00000030       0x18 c:/Espressif/ESP8266_SDK_151/lib\libmain.a(kernel-vector.o)
 .xt.prop       0x00000048       0x30 c:/Espressif/ESP8266_SDK_151/lib\libmain.a(nmi-vector.o)
                                 0x3c (size before relaxing)
 .xt.prop       0x00000078       0x30 c:/Espressif/ESP8266_SDK_151/lib\libmain.a(user-vector.o)
                                 0x3c (size before relaxing)
 .xt.prop       0x000000a8       0x18 c:/Espressif/ESP8266_SDK_151/lib\libmain.a(vector.o)
 .xt.prop       0x000000c0      0xd68 c:/Espressif/ESP8266_SDK_151/lib\libmain.a(app_main.o)
                                0xdd4 (size before relaxing)
 .xt.prop       0x00000e28      0x42c c:/Espressif/ESP8266_SDK_151/lib\libmain.a(ets_timer.o)
                                0x45c (size before relaxing)
 .xt.prop       0x00001254      0x3e4 c:/Espressif/ESP8266_SDK_151/lib\libmain.a(mem_manager.o)
                                0x474 (size before relaxing)
 .xt.prop       0x00001638      0x270 c:/Espressif/ESP8266_SDK_151/lib\libmain.a(spi_flash.o)
                                0x27c (size before relaxing)
 .xt.prop       0x000018a8     0x3558 c:/Espressif/ESP8266_SDK_151/lib\libmain.a(user_interface.o)
                               0x36e4 (size before relaxing)
 .xt.prop       0x00004e00      0x858 c:/Espressif/ESP8266_SDK_151/lib\libmain.a(eagle_lib.o)
 .xt.prop       0x00005658      0x264 c:/Espressif/ESP8266_SDK_151/lib\libmain.a(eagle_lwip_if.o)
                                0x294 (size before relaxing)
 .xt.prop       0x000058bc      0x174 build/debug/app_app.a(user_main.o)
                                0x1f8 (size before relaxing)
 .xt.prop       0x00005a30      0x468 build/debug/app_app.a(easygpio.o)
 .xt.prop       0x00005e98       0x60 build/debug/app_app.a(stdout.o)
 .xt.prop       0x00005ef8       0xf0 build/debug/app_app.a(hw_timer.o)
                                 0xfc (size before relaxing)
 .xt.prop       0x00005fe8       0x9c c:/espressif/xtensa-lx106-elf/bin/../lib/gcc/xtensa-lx106-elf/5.1.0\libgcc.a(_udivsi3.o)
 .xt.prop       0x00006084       0x78 c:/espressif/xtensa-lx106-elf/bin/../lib/gcc/xtensa-lx106-elf/5.1.0\libgcc.a(_umodsi3.o)
 .xt.prop       0x000060fc       0x24 c:/espressif/xtensa-lx106-elf/bin/../lib/gcc/xtensa-lx106-elf/5.1.0\libgcc.a(_muldi3.o)
                                 0x30 (size before relaxing)
 .xt.prop       0x00006120       0x3c c:/espressif/xtensa-lx106-elf/bin/../lib/gcc/xtensa-lx106-elf/5.1.0\libgcc.a(_umulsidi3.o)
 .xt.prop       0x0000615c       0x24 c:/espressif/xtensa-lx106-elf/bin/../lib/gcc/xtensa-lx106-elf/5.1.0/../../../../xtensa-lx106-elf/lib\libhal.a(int_asm--set_intclear.o)
 .xt.prop       0x00006180      0x1d4 c:/Espressif/ESP8266_SDK_151/lib\libphy.a(phy.o)
                                0x1e0 (size before relaxing)
 .xt.prop       0x00006354      0xcd8 c:/Espressif/ESP8266_SDK_151/lib\libphy.a(phy_chip_v6_ana.o)
                                0xcf0 (size before relaxing)
 .xt.prop       0x0000702c     0x1fa4 c:/Espressif/ESP8266_SDK_151/lib\libphy.a(phy_chip_v6.o)
                               0x216c (size before relaxing)
 .xt.prop       0x00008fd0      0xfb4 c:/Espressif/ESP8266_SDK_151/lib\libphy.a(phy_chip_v6_cal.o)
                               0x1014 (size before relaxing)
 .xt.prop       0x00009f84       0x60 c:/Espressif/ESP8266_SDK_151/lib\libphy.a(phy_chip_v6_unused.o)
                                 0x6c (size before relaxing)
 .xt.prop       0x00009fe4      0x87c c:/Espressif/ESP8266_SDK_151/lib\libphy.a(phy_sleep.o)
                                0x8d0 (size before relaxing)
 .xt.prop       0x0000a860      0x4ec c:/Espressif/ESP8266_SDK_151/lib\libpp.a(if_hwctrl.o)
                                0x51c (size before relaxing)
 .xt.prop       0x0000ad4c     0x14f4 c:/Espressif/ESP8266_SDK_151/lib\libpp.a(lmac.o)
                               0x1548 (size before relaxing)
 .xt.prop       0x0000c240     0x1338 c:/Espressif/ESP8266_SDK_151/lib\libpp.a(pm.o)
                               0x1410 (size before relaxing)
 .xt.prop       0x0000d578      0x954 c:/Espressif/ESP8266_SDK_151/lib\libpp.a(pm_for_bcn_only_mode.o)
                                0x978 (size before relaxing)
 .xt.prop       0x0000decc     0x1950 c:/Espressif/ESP8266_SDK_151/lib\libpp.a(pp.o)
                               0x1b00 (size before relaxing)
 .xt.prop       0x0000f81c      0x1bc c:/Espressif/ESP8266_SDK_151/lib\libpp.a(rate_control.o)
                                0x1d4 (size before relaxing)
 .xt.prop       0x0000f9d8     0x1140 c:/Espressif/ESP8266_SDK_151/lib\libpp.a(trc.o)
                               0x11a0 (size before relaxing)
 .xt.prop       0x00010b18     0x1284 c:/Espressif/ESP8266_SDK_151/lib\libpp.a(wdev.o)
                               0x135c (size before relaxing)
 .xt.prop       0x00011d9c      0x264 c:/Espressif/ESP8266_SDK_151/lib\libpp.a(esf_buf.o)
                                0x2e8 (size before relaxing)
 .xt.prop       0x00012000      0x4a4 c:/Espressif/ESP8266_SDK_151/lib\libnet80211.a(ieee80211.o)
                                0x4c8 (size before relaxing)
 .xt.prop       0x000124a4      0x15c c:/Espressif/ESP8266_SDK_151/lib\libnet80211.a(ieee80211_crypto.o)
 .xt.prop       0x00012600       0x48 c:/Espressif/ESP8266_SDK_151/lib\libnet80211.a(ieee80211_ets.o)
 .xt.prop       0x00012648      0xe7c c:/Espressif/ESP8266_SDK_151/lib\libnet80211.a(ieee80211_hostap.o)
                                0xf84 (size before relaxing)
 .xt.prop       0x000134c4      0x684 c:/Espressif/ESP8266_SDK_151/lib\libnet80211.a(ieee80211_ht.o)
                                0x690 (size before relaxing)
 .xt.prop       0x00013b48      0x8d0 c:/Espressif/ESP8266_SDK_151/lib\libnet80211.a(ieee80211_input.o)
                                0x8dc (size before relaxing)
 .xt.prop       0x00014418      0x468 c:/Espressif/ESP8266_SDK_151/lib\libnet80211.a(ieee80211_mesh_quick.o)
 .xt.prop       0x00014880     0x1188 c:/Espressif/ESP8266_SDK_151/lib\libnet80211.a(ieee80211_output.o)
                               0x11a0 (size before relaxing)
 .xt.prop       0x00015a08      0x108 c:/Espressif/ESP8266_SDK_151/lib\libnet80211.a(ieee80211_phy.o)
 .xt.prop       0x00015b10      0x1bc c:/Espressif/ESP8266_SDK_151/lib\libnet80211.a(ieee80211_power.o)
 .xt.prop       0x00015ccc      0x114 c:/Espressif/ESP8266_SDK_151/lib\libnet80211.a(ieee80211_proto.o)
                                0x120 (size before relaxing)
 .xt.prop       0x00015de0      0x12c c:/Espressif/ESP8266_SDK_151/lib\libnet80211.a(ieee80211_rfid.o)
 .xt.prop       0x00015f0c      0xc60 c:/Espressif/ESP8266_SDK_151/lib\libnet80211.a(ieee80211_scan.o)
                                0xcfc (size before relaxing)
 .xt.prop       0x00016b6c      0xa8c c:/Espressif/ESP8266_SDK_151/lib\libnet80211.a(ieee80211_sta.o)
                                0xab0 (size before relaxing)
 .xt.prop       0x000175f8      0x2d0 c:/Espressif/ESP8266_SDK_151/lib\libnet80211.a(wl_chm.o)
                                0x2dc (size before relaxing)
 .xt.prop       0x000178c8     0x117c c:/Espressif/ESP8266_SDK_151/lib\libnet80211.a(wl_cnx.o)
                               0x11d0 (size before relaxing)
 .xt.prop       0x00018a44      0x33c c:/Espressif/ESP8266_SDK_151/lib\libnet80211.a(ieee80211_action.o)
 .xt.prop       0x00018d80      0x354 c:/Espressif/ESP8266_SDK_151/lib\libnet80211.a(ieee80211_action_vendor.o)
                                0x384 (size before relaxing)
 .xt.prop       0x000190d4       0xcc c:/Espressif/ESP8266_SDK_151/lib\libnet80211.a(ieee80211_crypto_ccmp.o)
                                 0xd8 (size before relaxing)
 .xt.prop       0x000191a0      0x114 c:/Espressif/ESP8266_SDK_151/lib\libnet80211.a(ieee80211_ie_vendor.o)
 .xt.prop       0x000192b4      0xd98 c:/Espressif/ESP8266_SDK_151/lib\liblwip.a(dhcp.o)
                                0xdbc (size before relaxing)
 .xt.prop       0x0001a04c      0x8f4 c:/Espressif/ESP8266_SDK_151/lib\liblwip.a(dhcpserver.o)
                                0x96c (size before relaxing)
 .xt.prop       0x0001a940      0x414 c:/Espressif/ESP8266_SDK_151/lib\liblwip.a(dns.o)
                                0x480 (size before relaxing)
 .xt.prop       0x0001ad54      0xd68 c:/Espressif/ESP8266_SDK_151/lib\liblwip.a(espconn_tcp.o)
                                0xd74 (size before relaxing)
 .xt.prop       0x0001babc      0x708 c:/Espressif/ESP8266_SDK_151/lib\liblwip.a(etharp.o)
                                0x750 (size before relaxing)
 .xt.prop       0x0001c1c4       0x24 c:/Espressif/ESP8266_SDK_151/lib\liblwip.a(init.o)
 .xt.prop       0x0001c1e8      0x324 c:/Espressif/ESP8266_SDK_151/lib\liblwip.a(ip_addr.o)
                                0x330 (size before relaxing)
 .xt.prop       0x0001c50c      0x438 c:/Espressif/ESP8266_SDK_151/lib\liblwip.a(ip.o)
                                0x480 (size before relaxing)
 .xt.prop       0x0001c944        0x0 c:/Espressif/ESP8266_SDK_151/lib\liblwip.a(memp.o)
                                 0x18 (size before relaxing)
 .xt.prop       0x0001c944      0x330 c:/Espressif/ESP8266_SDK_151/lib\liblwip.a(netif.o)
                                0x354 (size before relaxing)
 .xt.prop       0x0001cc74      0x7a4 c:/Espressif/ESP8266_SDK_151/lib\liblwip.a(pbuf.o)
                                0x7b0 (size before relaxing)
 .xt.prop       0x0001d418      0x294 c:/Espressif/ESP8266_SDK_151/lib\liblwip.a(raw.o)
                                0x2ac (size before relaxing)
 .xt.prop       0x0001d6ac      0xc6c c:/Espressif/ESP8266_SDK_151/lib\liblwip.a(tcp_in.o)
                                0xcfc (size before relaxing)
 .xt.prop       0x0001e318      0xcfc c:/Espressif/ESP8266_SDK_151/lib\liblwip.a(tcp.o)
                                0xd68 (size before relaxing)
 .xt.prop       0x0001f014      0x96c c:/Espressif/ESP8266_SDK_151/lib\liblwip.a(tcp_out.o)
                                0x978 (size before relaxing)
 .xt.prop       0x0001f980      0x354 c:/Espressif/ESP8266_SDK_151/lib\liblwip.a(timers.o)
                                0x384 (size before relaxing)
 .xt.prop       0x0001fcd4      0x5a0 c:/Espressif/ESP8266_SDK_151/lib\liblwip.a(udp.o)
                                0x5b8 (size before relaxing)
 .xt.prop       0x00020274      0xf24 c:/Espressif/ESP8266_SDK_151/lib\liblwip.a(espconn.o)
                                0xf84 (size before relaxing)
 .xt.prop       0x00021198      0x330 c:/Espressif/ESP8266_SDK_151/lib\liblwip.a(espconn_udp.o)
                                0x33c (size before relaxing)
 .xt.prop       0x000214c8      0x114 c:/Espressif/ESP8266_SDK_151/lib\liblwip.a(icmp.o)
 .xt.prop       0x000215dc      0x618 c:/Espressif/ESP8266_SDK_151/lib\liblwip.a(igmp.o)
                                0x648 (size before relaxing)
 .xt.prop       0x00021bf4      0x168 c:/Espressif/ESP8266_SDK_151/lib\liblwip.a(inet_chksum.o)
 .xt.prop       0x00021d5c      0x2e8 c:/Espressif/ESP8266_SDK_151/lib\libwpa.a(ap_config.o)
                                0x2f4 (size before relaxing)
 .xt.prop       0x00022044      0x21c c:/Espressif/ESP8266_SDK_151/lib\libwpa.a(common.o)
                                0x228 (size before relaxing)
 .xt.prop       0x00022260       0xf0 c:/Espressif/ESP8266_SDK_151/lib\libwpa.a(os_xtensa.o)
                                 0xfc (size before relaxing)
 .xt.prop       0x00022350     0x1668 c:/Espressif/ESP8266_SDK_151/lib\libwpa.a(wpa_auth.o)
 .xt.prop       0x000239b8      0x480 c:/Espressif/ESP8266_SDK_151/lib\libwpa.a(wpa_auth_ie.o)
                                0x48c (size before relaxing)
 .xt.prop       0x00023e38      0xd8c c:/Espressif/ESP8266_SDK_151/lib\libwpa.a(wpa.o)
                                0xdb0 (size before relaxing)
 .xt.prop       0x00024bc4      0x7a4 c:/Espressif/ESP8266_SDK_151/lib\libwpa.a(wpa_common.o)
 .xt.prop       0x00025368       0xc0 c:/Espressif/ESP8266_SDK_151/lib\libwpa.a(wpa_debug.o)
 .xt.prop       0x00025428      0x378 c:/Espressif/ESP8266_SDK_151/lib\libwpa.a(wpa_ie.o)
 .xt.prop       0x000257a0      0x330 c:/Espressif/ESP8266_SDK_151/lib\libwpa.a(wpa_main.o)
                                0x33c (size before relaxing)
 .xt.prop       0x00025ad0      0x12c c:/Espressif/ESP8266_SDK_151/lib\libwpa.a(wpas_glue.o)
 .xt.prop       0x00025bfc       0x6c c:/Espressif/ESP8266_SDK_151/lib\libcrypto.a(aes-wrap.o)
 .xt.prop       0x00025c68       0xd8 c:/Espressif/ESP8266_SDK_151/lib\libcrypto.a(aes-internal-enc.o)
                                 0xe4 (size before relaxing)
 .xt.prop       0x00025d40       0xb4 c:/Espressif/ESP8266_SDK_151/lib\libcrypto.a(aes-internal.o)
 .xt.prop       0x00025df4       0x9c c:/espressif/xtensa-lx106-elf/bin/../lib/gcc/xtensa-lx106-elf/5.1.0\libgcc.a(_divsi3.o)
 .xt.prop       0x00025e90       0x84 c:/espressif/xtensa-lx106-elf/bin/../lib/gcc/xtensa-lx106-elf/5.1.0\libgcc.a(_modsi3.o)
 .xt.prop       0x00025f14       0x3c c:/espressif/xtensa-lx106-elf/bin/../lib/gcc/xtensa-lx106-elf/5.1.0\libgcc.a(_ashrdi3.o)
 .xt.prop       0x00025f50      0x2e8 c:/espressif/xtensa-lx106-elf/bin/../lib/gcc/xtensa-lx106-elf/5.1.0\libgcc.a(_addsubsf3.o)
 .xt.prop       0x00026238      0x15c c:/espressif/xtensa-lx106-elf/bin/../lib/gcc/xtensa-lx106-elf/5.1.0\libgcc.a(_mulsf3.o)
                                0x168 (size before relaxing)
 .xt.prop       0x00026394      0x15c c:/espressif/xtensa-lx106-elf/bin/../lib/gcc/xtensa-lx106-elf/5.1.0\libgcc.a(_divsf3.o)
                                0x168 (size before relaxing)
 .xt.prop       0x000264f0       0x60 c:/espressif/xtensa-lx106-elf/bin/../lib/gcc/xtensa-lx106-elf/5.1.0\libgcc.a(_fixsfsi.o)
                                 0x6c (size before relaxing)
 .xt.prop       0x00026550       0x9c c:/espressif/xtensa-lx106-elf/bin/../lib/gcc/xtensa-lx106-elf/5.1.0\libgcc.a(_fixunssfsi.o)
                                 0xa8 (size before relaxing)
 .xt.prop       0x000265ec       0x60 c:/espressif/xtensa-lx106-elf/bin/../lib/gcc/xtensa-lx106-elf/5.1.0\libgcc.a(_floatsisf.o)
 .xt.prop       0x0002664c      0x294 c:/espressif/xtensa-lx106-elf/bin/../lib/gcc/xtensa-lx106-elf/5.1.0\libgcc.a(_muldf3.o)
 .xt.prop       0x000268e0      0x258 c:/espressif/xtensa-lx106-elf/bin/../lib/gcc/xtensa-lx106-elf/5.1.0\libgcc.a(_divdf3.o)
                                0x264 (size before relaxing)
 .xt.prop       0x00026b38       0x60 c:/espressif/xtensa-lx106-elf/bin/../lib/gcc/xtensa-lx106-elf/5.1.0\libgcc.a(_fixdfsi.o)
                                 0x6c (size before relaxing)
 .xt.prop       0x00026b98       0x54 c:/espressif/xtensa-lx106-elf/bin/../lib/gcc/xtensa-lx106-elf/5.1.0\libgcc.a(_floatsidf.o)
 .xt.prop       0x00026bec       0xb4 c:/espressif/xtensa-lx106-elf/bin/../lib/gcc/xtensa-lx106-elf/5.1.0\libgcc.a(_truncdfsf2.o)
 .xt.prop       0x00026ca0      0x288 c:/espressif/xtensa-lx106-elf/bin/../lib/gcc/xtensa-lx106-elf/5.1.0\libgcc.a(_divdi3.o)
                                0x294 (size before relaxing)
 .xt.prop       0x00026f28      0x15c c:/espressif/xtensa-lx106-elf/bin/../lib/gcc/xtensa-lx106-elf/5.1.0\libgcc.a(_umoddi3.o)
                                0x168 (size before relaxing)
 .xt.prop       0x00027084       0xe4 c:/Espressif/ESP8266_SDK_151/lib\libnet80211.a(ieee80211_crypto_tkip.o)
                                 0xfc (size before relaxing)
 .xt.prop       0x00027168       0x6c c:/Espressif/ESP8266_SDK_151/lib\libnet80211.a(ieee80211_crypto_wep.o)
                                 0x78 (size before relaxing)

.xt.lit         0x00000000     0x1230
 .xt.lit        0x00000000        0x8 c:/Espressif/ESP8266_SDK_151/lib\libmain.a(nmi-vector.o)
                                 0x10 (size before relaxing)
 .xt.lit        0x00000008        0x8 c:/Espressif/ESP8266_SDK_151/lib\libmain.a(user-vector.o)
                                 0x10 (size before relaxing)
 .xt.lit        0x00000010        0x8 c:/Espressif/ESP8266_SDK_151/lib\libmain.a(vector.o)
 .xt.lit        0x00000018       0x98 c:/Espressif/ESP8266_SDK_151/lib\libmain.a(app_main.o)
                                 0xa0 (size before relaxing)
 .xt.lit        0x000000b0       0x40 c:/Espressif/ESP8266_SDK_151/lib\libmain.a(ets_timer.o)
                                 0x48 (size before relaxing)
 .xt.lit        0x000000f0       0x40 c:/Espressif/ESP8266_SDK_151/lib\libmain.a(mem_manager.o)
                                 0x60 (size before relaxing)
 .xt.lit        0x00000130       0x48 c:/Espressif/ESP8266_SDK_151/lib\libmain.a(spi_flash.o)
 .xt.lit        0x00000178      0x1d0 c:/Espressif/ESP8266_SDK_151/lib\libmain.a(user_interface.o)
                                0x490 (size before relaxing)
 .xt.lit        0x00000348       0x18 c:/Espressif/ESP8266_SDK_151/lib\libmain.a(eagle_lib.o)
 .xt.lit        0x00000360        0x8 c:/Espressif/ESP8266_SDK_151/lib\libmain.a(eagle_lwip_if.o)
                                 0x28 (size before relaxing)
 .xt.lit        0x00000368       0x20 build/debug/app_app.a(user_main.o)
 .xt.lit        0x00000388       0x38 build/debug/app_app.a(easygpio.o)
                                 0x40 (size before relaxing)
 .xt.lit        0x000003c0       0x10 build/debug/app_app.a(stdout.o)
 .xt.lit        0x000003d0       0x10 build/debug/app_app.a(hw_timer.o)
                                 0x20 (size before relaxing)
 .xt.lit        0x000003e0        0x0 c:/espressif/xtensa-lx106-elf/bin/../lib/gcc/xtensa-lx106-elf/5.1.0\libgcc.a(_muldi3.o)
                                  0x8 (size before relaxing)
 .xt.lit        0x000003e0       0x10 c:/Espressif/ESP8266_SDK_151/lib\libphy.a(phy.o)
                                 0x68 (size before relaxing)
 .xt.lit        0x000003f0       0x90 c:/Espressif/ESP8266_SDK_151/lib\libphy.a(phy_chip_v6_ana.o)
                                 0xc0 (size before relaxing)
 .xt.lit        0x00000480      0x150 c:/Espressif/ESP8266_SDK_151/lib\libphy.a(phy_chip_v6.o)
                                0x220 (size before relaxing)
 .xt.lit        0x000005d0       0x80 c:/Espressif/ESP8266_SDK_151/lib\libphy.a(phy_chip_v6_cal.o)
                                 0xe8 (size before relaxing)
 .xt.lit        0x00000650       0x78 c:/Espressif/ESP8266_SDK_151/lib\libphy.a(phy_sleep.o)
                                 0xd8 (size before relaxing)
 .xt.lit        0x000006c8       0x30 c:/Espressif/ESP8266_SDK_151/lib\libpp.a(if_hwctrl.o)
                                 0xa0 (size before relaxing)
 .xt.lit        0x000006f8       0x70 c:/Espressif/ESP8266_SDK_151/lib\libpp.a(lmac.o)
                                0x130 (size before relaxing)
 .xt.lit        0x00000768       0xd8 c:/Espressif/ESP8266_SDK_151/lib\libpp.a(pm.o)
                                0x190 (size before relaxing)
 .xt.lit        0x00000840       0x60 c:/Espressif/ESP8266_SDK_151/lib\libpp.a(pm_for_bcn_only_mode.o)
                                 0x98 (size before relaxing)
 .xt.lit        0x000008a0       0xd8 c:/Espressif/ESP8266_SDK_151/lib\libpp.a(pp.o)
                                0x1b0 (size before relaxing)
 .xt.lit        0x00000978       0x18 c:/Espressif/ESP8266_SDK_151/lib\libpp.a(rate_control.o)
                                 0x38 (size before relaxing)
 .xt.lit        0x00000990       0x68 c:/Espressif/ESP8266_SDK_151/lib\libpp.a(trc.o)
                                 0xa8 (size before relaxing)
 .xt.lit        0x000009f8       0xd8 c:/Espressif/ESP8266_SDK_151/lib\libpp.a(wdev.o)
                                0x198 (size before relaxing)
 .xt.lit        0x00000ad0       0x18 c:/Espressif/ESP8266_SDK_151/lib\libpp.a(esf_buf.o)
                                 0x20 (size before relaxing)
 .xt.lit        0x00000ae8       0x28 c:/Espressif/ESP8266_SDK_151/lib\libnet80211.a(ieee80211.o)
                                 0x50 (size before relaxing)
 .xt.lit        0x00000b10        0x0 c:/Espressif/ESP8266_SDK_151/lib\libnet80211.a(ieee80211_crypto.o)
                                 0x10 (size before relaxing)
 .xt.lit        0x00000b10        0x8 c:/Espressif/ESP8266_SDK_151/lib\libnet80211.a(ieee80211_ets.o)
 .xt.lit        0x00000b18       0x68 c:/Espressif/ESP8266_SDK_151/lib\libnet80211.a(ieee80211_hostap.o)
                                 0x78 (size before relaxing)
 .xt.lit        0x00000b80       0x48 c:/Espressif/ESP8266_SDK_151/lib\libnet80211.a(ieee80211_ht.o)
                                 0x70 (size before relaxing)
 .xt.lit        0x00000bc8       0x38 c:/Espressif/ESP8266_SDK_151/lib\libnet80211.a(ieee80211_input.o)
                                 0x60 (size before relaxing)
 .xt.lit        0x00000c00       0x18 c:/Espressif/ESP8266_SDK_151/lib\libnet80211.a(ieee80211_mesh_quick.o)
                                 0x28 (size before relaxing)
 .xt.lit        0x00000c18       0x38 c:/Espressif/ESP8266_SDK_151/lib\libnet80211.a(ieee80211_output.o)
                                 0xa8 (size before relaxing)
 .xt.lit        0x00000c50        0x8 c:/Espressif/ESP8266_SDK_151/lib\libnet80211.a(ieee80211_phy.o)
                                 0x18 (size before relaxing)
 .xt.lit        0x00000c58        0x8 c:/Espressif/ESP8266_SDK_151/lib\libnet80211.a(ieee80211_power.o)
                                 0x20 (size before relaxing)
 .xt.lit        0x00000c60       0x18 c:/Espressif/ESP8266_SDK_151/lib\libnet80211.a(ieee80211_proto.o)
 .xt.lit        0x00000c78        0x0 c:/Espressif/ESP8266_SDK_151/lib\libnet80211.a(ieee80211_rfid.o)
                                 0x30 (size before relaxing)
 .xt.lit        0x00000c78       0x50 c:/Espressif/ESP8266_SDK_151/lib\libnet80211.a(ieee80211_scan.o)
                                 0xd8 (size before relaxing)
 .xt.lit        0x00000cc8       0x30 c:/Espressif/ESP8266_SDK_151/lib\libnet80211.a(ieee80211_sta.o)
                                 0x60 (size before relaxing)
 .xt.lit        0x00000cf8       0x20 c:/Espressif/ESP8266_SDK_151/lib\libnet80211.a(wl_chm.o)
                                 0x60 (size before relaxing)
 .xt.lit        0x00000d18       0x90 c:/Espressif/ESP8266_SDK_151/lib\libnet80211.a(wl_cnx.o)
                                0x138 (size before relaxing)
 .xt.lit        0x00000da8       0x20 c:/Espressif/ESP8266_SDK_151/lib\libnet80211.a(ieee80211_action.o)
                                 0x30 (size before relaxing)
 .xt.lit        0x00000dc8       0x20 c:/Espressif/ESP8266_SDK_151/lib\libnet80211.a(ieee80211_action_vendor.o)
                                 0x50 (size before relaxing)
 .xt.lit        0x00000de8        0x0 c:/Espressif/ESP8266_SDK_151/lib\libnet80211.a(ieee80211_crypto_ccmp.o)
                                 0x10 (size before relaxing)
 .xt.lit        0x00000de8        0x8 c:/Espressif/ESP8266_SDK_151/lib\libnet80211.a(ieee80211_ie_vendor.o)
                                 0x38 (size before relaxing)
 .xt.lit        0x00000df0       0x50 c:/Espressif/ESP8266_SDK_151/lib\liblwip.a(dhcp.o)
                                 0xc0 (size before relaxing)
 .xt.lit        0x00000e40       0x28 c:/Espressif/ESP8266_SDK_151/lib\liblwip.a(dhcpserver.o)
                                 0x98 (size before relaxing)
 .xt.lit        0x00000e68       0x20 c:/Espressif/ESP8266_SDK_151/lib\liblwip.a(dns.o)
                                 0x48 (size before relaxing)
 .xt.lit        0x00000e88       0x80 c:/Espressif/ESP8266_SDK_151/lib\liblwip.a(espconn_tcp.o)
                                 0xc0 (size before relaxing)
 .xt.lit        0x00000f08       0x30 c:/Espressif/ESP8266_SDK_151/lib\liblwip.a(etharp.o)
                                 0x78 (size before relaxing)
 .xt.lit        0x00000f38        0x8 c:/Espressif/ESP8266_SDK_151/lib\liblwip.a(init.o)
 .xt.lit        0x00000f40        0x8 c:/Espressif/ESP8266_SDK_151/lib\liblwip.a(ip_addr.o)
                                 0x20 (size before relaxing)
 .xt.lit        0x00000f48       0x10 c:/Espressif/ESP8266_SDK_151/lib\liblwip.a(ip.o)
                                 0x20 (size before relaxing)
 .xt.lit        0x00000f58       0x10 c:/Espressif/ESP8266_SDK_151/lib\liblwip.a(netif.o)
                                 0x40 (size before relaxing)
 .xt.lit        0x00000f68       0x10 c:/Espressif/ESP8266_SDK_151/lib\liblwip.a(pbuf.o)
                                 0x48 (size before relaxing)
 .xt.lit        0x00000f78       0x10 c:/Espressif/ESP8266_SDK_151/lib\liblwip.a(raw.o)
                                 0x20 (size before relaxing)
 .xt.lit        0x00000f88       0x18 c:/Espressif/ESP8266_SDK_151/lib\liblwip.a(tcp_in.o)
                                 0x38 (size before relaxing)
 .xt.lit        0x00000fa0       0x50 c:/Espressif/ESP8266_SDK_151/lib\liblwip.a(tcp.o)
                                 0xb8 (size before relaxing)
 .xt.lit        0x00000ff0       0x28 c:/Espressif/ESP8266_SDK_151/lib\liblwip.a(tcp_out.o)
                                 0x68 (size before relaxing)
 .xt.lit        0x00001018       0x48 c:/Espressif/ESP8266_SDK_151/lib\liblwip.a(timers.o)
                                 0x68 (size before relaxing)
 .xt.lit        0x00001060       0x18 c:/Espressif/ESP8266_SDK_151/lib\liblwip.a(udp.o)
                                 0x38 (size before relaxing)
 .xt.lit        0x00001078       0x18 c:/Espressif/ESP8266_SDK_151/lib\liblwip.a(espconn.o)
                                 0xe8 (size before relaxing)
 .xt.lit        0x00001090       0x18 c:/Espressif/ESP8266_SDK_151/lib\liblwip.a(espconn_udp.o)
                                 0x38 (size before relaxing)
 .xt.lit        0x000010a8        0x8 c:/Espressif/ESP8266_SDK_151/lib\liblwip.a(icmp.o)
                                 0x10 (size before relaxing)
 .xt.lit        0x000010b0       0x18 c:/Espressif/ESP8266_SDK_151/lib\liblwip.a(igmp.o)
                                 0x70 (size before relaxing)
 .xt.lit        0x000010c8       0x18 c:/Espressif/ESP8266_SDK_151/lib\libwpa.a(ap_config.o)
                                 0x40 (size before relaxing)
 .xt.lit        0x000010e0       0x10 c:/Espressif/ESP8266_SDK_151/lib\libwpa.a(common.o)
                                 0x18 (size before relaxing)
 .xt.lit        0x000010f0        0x8 c:/Espressif/ESP8266_SDK_151/lib\libwpa.a(os_xtensa.o)
                                 0x10 (size before relaxing)
 .xt.lit        0x000010f8       0x70 c:/Espressif/ESP8266_SDK_151/lib\libwpa.a(wpa_auth.o)
                                0x100 (size before relaxing)
 .xt.lit        0x00001168       0x10 c:/Espressif/ESP8266_SDK_151/lib\libwpa.a(wpa_auth_ie.o)
                                 0x38 (size before relaxing)
 .xt.lit        0x00001178       0x38 c:/Espressif/ESP8266_SDK_151/lib\libwpa.a(wpa.o)
                                0x110 (size before relaxing)
 .xt.lit        0x000011b0       0x28 c:/Espressif/ESP8266_SDK_151/lib\libwpa.a(wpa_common.o)
                                 0x58 (size before relaxing)
 .xt.lit        0x000011d8        0x8 c:/Espressif/ESP8266_SDK_151/lib\libwpa.a(wpa_debug.o)
 .xt.lit        0x000011e0        0x0 c:/Espressif/ESP8266_SDK_151/lib\libwpa.a(wpa_ie.o)
                                 0x18 (size before relaxing)
 .xt.lit        0x000011e0       0x18 c:/Espressif/ESP8266_SDK_151/lib\libwpa.a(wpa_main.o)
                                 0x48 (size before relaxing)
 .xt.lit        0x000011f8        0x0 c:/Espressif/ESP8266_SDK_151/lib\libwpa.a(wpas_glue.o)
                                 0x10 (size before relaxing)
 .xt.lit        0x000011f8        0x0 c:/Espressif/ESP8266_SDK_151/lib\libcrypto.a(aes-wrap.o)
                                  0x8 (size before relaxing)
 .xt.lit        0x000011f8       0x10 c:/Espressif/ESP8266_SDK_151/lib\libcrypto.a(aes-internal-enc.o)
                                 0x18 (size before relaxing)
 .xt.lit        0x00001208        0x8 c:/Espressif/ESP8266_SDK_151/lib\libcrypto.a(aes-internal.o)
 .xt.lit        0x00001210        0x8 c:/espressif/xtensa-lx106-elf/bin/../lib/gcc/xtensa-lx106-elf/5.1.0\libgcc.a(_addsubsf3.o)
 .xt.lit        0x00001218        0x0 c:/espressif/xtensa-lx106-elf/bin/../lib/gcc/xtensa-lx106-elf/5.1.0\libgcc.a(_mulsf3.o)
                                  0x8 (size before relaxing)
 .xt.lit        0x00001218        0x0 c:/espressif/xtensa-lx106-elf/bin/../lib/gcc/xtensa-lx106-elf/5.1.0\libgcc.a(_divsf3.o)
                                  0x8 (size before relaxing)
 .xt.lit        0x00001218        0x0 c:/espressif/xtensa-lx106-elf/bin/../lib/gcc/xtensa-lx106-elf/5.1.0\libgcc.a(_fixsfsi.o)
                                  0x8 (size before relaxing)
 .xt.lit        0x00001218        0x0 c:/espressif/xtensa-lx106-elf/bin/../lib/gcc/xtensa-lx106-elf/5.1.0\libgcc.a(_fixunssfsi.o)
                                  0x8 (size before relaxing)
 .xt.lit        0x00001218        0x8 c:/espressif/xtensa-lx106-elf/bin/../lib/gcc/xtensa-lx106-elf/5.1.0\libgcc.a(_muldf3.o)
 .xt.lit        0x00001220        0x0 c:/espressif/xtensa-lx106-elf/bin/../lib/gcc/xtensa-lx106-elf/5.1.0\libgcc.a(_divdf3.o)
                                  0x8 (size before relaxing)
 .xt.lit        0x00001220        0x0 c:/espressif/xtensa-lx106-elf/bin/../lib/gcc/xtensa-lx106-elf/5.1.0\libgcc.a(_fixdfsi.o)
                                  0x8 (size before relaxing)
 .xt.lit        0x00001220        0x8 c:/espressif/xtensa-lx106-elf/bin/../lib/gcc/xtensa-lx106-elf/5.1.0\libgcc.a(_truncdfsf2.o)
 .xt.lit        0x00001228        0x0 c:/espressif/xtensa-lx106-elf/bin/../lib/gcc/xtensa-lx106-elf/5.1.0\libgcc.a(_divdi3.o)
                                  0x8 (size before relaxing)
 .xt.lit        0x00001228        0x0 c:/espressif/xtensa-lx106-elf/bin/../lib/gcc/xtensa-lx106-elf/5.1.0\libgcc.a(_umoddi3.o)
                                  0x8 (size before relaxing)
 .xt.lit        0x00001228        0x8 c:/Espressif/ESP8266_SDK_151/lib\libnet80211.a(ieee80211_crypto_tkip.o)
                                 0x10 (size before relaxing)
 .xt.lit        0x00001230        0x0 c:/Espressif/ESP8266_SDK_151/lib\libnet80211.a(ieee80211_crypto_wep.o)
                                  0x8 (size before relaxing)

.comment        0x00000000     0x1adc
 .comment       0x00000000       0x55 c:/Espressif/ESP8266_SDK_151/lib\libmain.a(app_main.o)
                                 0x56 (size before relaxing)
 .comment       0x00000055       0x56 c:/Espressif/ESP8266_SDK_151/lib\libmain.a(ets_timer.o)
                                 0x57 (size before relaxing)
 .comment       0x000000ab       0x58 c:/Espressif/ESP8266_SDK_151/lib\libmain.a(mem_manager.o)
                                 0x59 (size before relaxing)
 .comment       0x00000103       0x56 c:/Espressif/ESP8266_SDK_151/lib\libmain.a(spi_flash.o)
                                 0x57 (size before relaxing)
 .comment       0x00000159       0x5b c:/Espressif/ESP8266_SDK_151/lib\libmain.a(user_interface.o)
                                 0x5c (size before relaxing)
 .comment       0x000001b4       0x56 c:/Espressif/ESP8266_SDK_151/lib\libmain.a(eagle_lib.o)
                                 0x57 (size before relaxing)
 .comment       0x0000020a       0x5a c:/Espressif/ESP8266_SDK_151/lib\libmain.a(eagle_lwip_if.o)
                                 0x5b (size before relaxing)
 .comment       0x00000264       0x11 build/debug/app_app.a(user_main.o)
                                 0x12 (size before relaxing)
 .comment       0x00000000       0x12 build/debug/app_app.a(easygpio.o)
 .comment       0x00000000       0x12 build/debug/app_app.a(stdout.o)
 .comment       0x00000000       0x12 build/debug/app_app.a(hw_timer.o)
 .comment       0x00000000       0x12 c:/espressif/xtensa-lx106-elf/bin/../lib/gcc/xtensa-lx106-elf/5.1.0\libgcc.a(_muldi3.o)
 .comment       0x00000275       0x41 c:/Espressif/ESP8266_SDK_151/lib\libphy.a(phy.o)
 .comment       0x000002b6       0x4d c:/Espressif/ESP8266_SDK_151/lib\libphy.a(phy_chip_v6_ana.o)
 .comment       0x00000303       0x49 c:/Espressif/ESP8266_SDK_151/lib\libphy.a(phy_chip_v6.o)
 .comment       0x0000034c       0x4d c:/Espressif/ESP8266_SDK_151/lib\libphy.a(phy_chip_v6_cal.o)
 .comment       0x00000399       0x50 c:/Espressif/ESP8266_SDK_151/lib\libphy.a(phy_chip_v6_unused.o)
 .comment       0x000003e9       0x47 c:/Espressif/ESP8266_SDK_151/lib\libphy.a(phy_sleep.o)
 .comment       0x00000430       0x56 c:/Espressif/ESP8266_SDK_151/lib\libpp.a(if_hwctrl.o)
                                 0x57 (size before relaxing)
 .comment       0x00000486       0x51 c:/Espressif/ESP8266_SDK_151/lib\libpp.a(lmac.o)
                                 0x52 (size before relaxing)
 .comment       0x000004d7       0x4f c:/Espressif/ESP8266_SDK_151/lib\libpp.a(pm.o)
                                 0x50 (size before relaxing)
 .comment       0x00000526       0x61 c:/Espressif/ESP8266_SDK_151/lib\libpp.a(pm_for_bcn_only_mode.o)
                                 0x62 (size before relaxing)
 .comment       0x00000587       0x4f c:/Espressif/ESP8266_SDK_151/lib\libpp.a(pp.o)
                                 0x50 (size before relaxing)
 .comment       0x000005d6       0x59 c:/Espressif/ESP8266_SDK_151/lib\libpp.a(rate_control.o)
                                 0x5a (size before relaxing)
 .comment       0x0000062f       0x50 c:/Espressif/ESP8266_SDK_151/lib\libpp.a(trc.o)
                                 0x51 (size before relaxing)
 .comment       0x0000067f       0x51 c:/Espressif/ESP8266_SDK_151/lib\libpp.a(wdev.o)
                                 0x52 (size before relaxing)
 .comment       0x000006d0       0x54 c:/Espressif/ESP8266_SDK_151/lib\libpp.a(esf_buf.o)
                                 0x55 (size before relaxing)
 .comment       0x00000724       0x56 c:/Espressif/ESP8266_SDK_151/lib\libnet80211.a(ieee80211.o)
                                 0x57 (size before relaxing)
 .comment       0x0000077a       0x5d c:/Espressif/ESP8266_SDK_151/lib\libnet80211.a(ieee80211_crypto.o)
                                 0x5e (size before relaxing)
 .comment       0x000007d7       0x5a c:/Espressif/ESP8266_SDK_151/lib\libnet80211.a(ieee80211_ets.o)
                                 0x5b (size before relaxing)
 .comment       0x00000831       0x5d c:/Espressif/ESP8266_SDK_151/lib\libnet80211.a(ieee80211_hostap.o)
                                 0x5e (size before relaxing)
 .comment       0x0000088e       0x59 c:/Espressif/ESP8266_SDK_151/lib\libnet80211.a(ieee80211_ht.o)
                                 0x5a (size before relaxing)
 .comment       0x000008e7       0x5c c:/Espressif/ESP8266_SDK_151/lib\libnet80211.a(ieee80211_input.o)
                                 0x5d (size before relaxing)
 .comment       0x00000943       0x61 c:/Espressif/ESP8266_SDK_151/lib\libnet80211.a(ieee80211_mesh_quick.o)
                                 0x62 (size before relaxing)
 .comment       0x000009a4       0x5d c:/Espressif/ESP8266_SDK_151/lib\libnet80211.a(ieee80211_output.o)
                                 0x5e (size before relaxing)
 .comment       0x00000a01       0x5a c:/Espressif/ESP8266_SDK_151/lib\libnet80211.a(ieee80211_phy.o)
                                 0x5b (size before relaxing)
 .comment       0x00000a5b       0x5c c:/Espressif/ESP8266_SDK_151/lib\libnet80211.a(ieee80211_power.o)
                                 0x5d (size before relaxing)
 .comment       0x00000ab7       0x5c c:/Espressif/ESP8266_SDK_151/lib\libnet80211.a(ieee80211_proto.o)
                                 0x5d (size before relaxing)
 .comment       0x00000b13       0x5b c:/Espressif/ESP8266_SDK_151/lib\libnet80211.a(ieee80211_rfid.o)
                                 0x5c (size before relaxing)
 .comment       0x00000b6e       0x5b c:/Espressif/ESP8266_SDK_151/lib\libnet80211.a(ieee80211_scan.o)
                                 0x5c (size before relaxing)
 .comment       0x00000bc9       0x5a c:/Espressif/ESP8266_SDK_151/lib\libnet80211.a(ieee80211_sta.o)
                                 0x5b (size before relaxing)
 .comment       0x00000c23       0x53 c:/Espressif/ESP8266_SDK_151/lib\libnet80211.a(wl_chm.o)
                                 0x54 (size before relaxing)
 .comment       0x00000c76       0x53 c:/Espressif/ESP8266_SDK_151/lib\libnet80211.a(wl_cnx.o)
                                 0x54 (size before relaxing)
 .comment       0x00000cc9       0x5d c:/Espressif/ESP8266_SDK_151/lib\libnet80211.a(ieee80211_action.o)
                                 0x5e (size before relaxing)
 .comment       0x00000d26       0x64 c:/Espressif/ESP8266_SDK_151/lib\libnet80211.a(ieee80211_action_vendor.o)
                                 0x65 (size before relaxing)
 .comment       0x00000d8a       0x62 c:/Espressif/ESP8266_SDK_151/lib\libnet80211.a(ieee80211_crypto_ccmp.o)
                                 0x63 (size before relaxing)
 .comment       0x00000dec       0x60 c:/Espressif/ESP8266_SDK_151/lib\libnet80211.a(ieee80211_ie_vendor.o)
                                 0x61 (size before relaxing)
 .comment       0x00000e4c       0x51 c:/Espressif/ESP8266_SDK_151/lib\liblwip.a(dhcp.o)
                                 0x52 (size before relaxing)
 .comment       0x00000e9d       0x57 c:/Espressif/ESP8266_SDK_151/lib\liblwip.a(dhcpserver.o)
                                 0x58 (size before relaxing)
 .comment       0x00000ef4       0x50 c:/Espressif/ESP8266_SDK_151/lib\liblwip.a(dns.o)
                                 0x51 (size before relaxing)
 .comment       0x00000f44       0x58 c:/Espressif/ESP8266_SDK_151/lib\liblwip.a(espconn_tcp.o)
                                 0x59 (size before relaxing)
 .comment       0x00000f9c       0x53 c:/Espressif/ESP8266_SDK_151/lib\liblwip.a(etharp.o)
                                 0x54 (size before relaxing)
 .comment       0x00000fef       0x51 c:/Espressif/ESP8266_SDK_151/lib\liblwip.a(init.o)
                                 0x52 (size before relaxing)
 .comment       0x00001040       0x54 c:/Espressif/ESP8266_SDK_151/lib\liblwip.a(ip_addr.o)
                                 0x55 (size before relaxing)
 .comment       0x00001094       0x4f c:/Espressif/ESP8266_SDK_151/lib\liblwip.a(ip.o)
                                 0x50 (size before relaxing)
 .comment       0x000010e3       0x51 c:/Espressif/ESP8266_SDK_151/lib\liblwip.a(memp.o)
                                 0x52 (size before relaxing)
 .comment       0x00001134       0x52 c:/Espressif/ESP8266_SDK_151/lib\liblwip.a(netif.o)
                                 0x53 (size before relaxing)
 .comment       0x00001186       0x51 c:/Espressif/ESP8266_SDK_151/lib\liblwip.a(pbuf.o)
                                 0x52 (size before relaxing)
 .comment       0x000011d7       0x50 c:/Espressif/ESP8266_SDK_151/lib\liblwip.a(raw.o)
                                 0x51 (size before relaxing)
 .comment       0x00001227       0x53 c:/Espressif/ESP8266_SDK_151/lib\liblwip.a(tcp_in.o)
                                 0x54 (size before relaxing)
 .comment       0x0000127a       0x50 c:/Espressif/ESP8266_SDK_151/lib\liblwip.a(tcp.o)
                                 0x51 (size before relaxing)
 .comment       0x000012ca       0x54 c:/Espressif/ESP8266_SDK_151/lib\liblwip.a(tcp_out.o)
                                 0x55 (size before relaxing)
 .comment       0x0000131e       0x53 c:/Espressif/ESP8266_SDK_151/lib\liblwip.a(timers.o)
                                 0x54 (size before relaxing)
 .comment       0x00001371       0x50 c:/Espressif/ESP8266_SDK_151/lib\liblwip.a(udp.o)
                                 0x51 (size before relaxing)
 .comment       0x000013c1       0x54 c:/Espressif/ESP8266_SDK_151/lib\liblwip.a(espconn.o)
                                 0x55 (size before relaxing)
 .comment       0x00001415       0x58 c:/Espressif/ESP8266_SDK_151/lib\liblwip.a(espconn_udp.o)
                                 0x59 (size before relaxing)
 .comment       0x0000146d       0x51 c:/Espressif/ESP8266_SDK_151/lib\liblwip.a(icmp.o)
                                 0x52 (size before relaxing)
 .comment       0x000014be       0x51 c:/Espressif/ESP8266_SDK_151/lib\liblwip.a(igmp.o)
                                 0x52 (size before relaxing)
 .comment       0x0000150f       0x58 c:/Espressif/ESP8266_SDK_151/lib\liblwip.a(inet_chksum.o)
                                 0x59 (size before relaxing)
 .comment       0x00001567       0x56 c:/Espressif/ESP8266_SDK_151/lib\libwpa.a(ap_config.o)
                                 0x57 (size before relaxing)
 .comment       0x000015bd       0x53 c:/Espressif/ESP8266_SDK_151/lib\libwpa.a(common.o)
                                 0x54 (size before relaxing)
 .comment       0x00001610       0x56 c:/Espressif/ESP8266_SDK_151/lib\libwpa.a(os_xtensa.o)
                                 0x57 (size before relaxing)
 .comment       0x00001666       0x55 c:/Espressif/ESP8266_SDK_151/lib\libwpa.a(wpa_auth.o)
                                 0x56 (size before relaxing)
 .comment       0x000016bb       0x58 c:/Espressif/ESP8266_SDK_151/lib\libwpa.a(wpa_auth_ie.o)
                                 0x59 (size before relaxing)
 .comment       0x00001713       0x50 c:/Espressif/ESP8266_SDK_151/lib\libwpa.a(wpa.o)
                                 0x51 (size before relaxing)
 .comment       0x00001763       0x57 c:/Espressif/ESP8266_SDK_151/lib\libwpa.a(wpa_common.o)
                                 0x58 (size before relaxing)
 .comment       0x000017ba       0x56 c:/Espressif/ESP8266_SDK_151/lib\libwpa.a(wpa_debug.o)
                                 0x57 (size before relaxing)
 .comment       0x00001810       0x53 c:/Espressif/ESP8266_SDK_151/lib\libwpa.a(wpa_ie.o)
                                 0x54 (size before relaxing)
 .comment       0x00001863       0x55 c:/Espressif/ESP8266_SDK_151/lib\libwpa.a(wpa_main.o)
                                 0x56 (size before relaxing)
 .comment       0x000018b8       0x56 c:/Espressif/ESP8266_SDK_151/lib\libwpa.a(wpas_glue.o)
                                 0x57 (size before relaxing)
 .comment       0x0000190e       0x55 c:/Espressif/ESP8266_SDK_151/lib\libcrypto.a(aes-wrap.o)
                                 0x56 (size before relaxing)
 .comment       0x00001963       0x5d c:/Espressif/ESP8266_SDK_151/lib\libcrypto.a(aes-internal-enc.o)
                                 0x5e (size before relaxing)
 .comment       0x000019c0       0x59 c:/Espressif/ESP8266_SDK_151/lib\libcrypto.a(aes-internal.o)
                                 0x5a (size before relaxing)
 .comment       0x00000000       0x12 c:/espressif/xtensa-lx106-elf/bin/../lib/gcc/xtensa-lx106-elf/5.1.0\libgcc.a(_divdi3.o)
 .comment       0x00000000       0x12 c:/espressif/xtensa-lx106-elf/bin/../lib/gcc/xtensa-lx106-elf/5.1.0\libgcc.a(_umoddi3.o)
 .comment       0x00001a19       0x62 c:/Espressif/ESP8266_SDK_151/lib\libnet80211.a(ieee80211_crypto_tkip.o)
                                 0x63 (size before relaxing)
 .comment       0x00001a7b       0x61 c:/Espressif/ESP8266_SDK_151/lib\libnet80211.a(ieee80211_crypto_wep.o)
                                 0x62 (size before relaxing)

.debug_frame    0x00000000      0x350
 .debug_frame   0x00000000       0x9c build/debug/app_app.a(user_main.o)
 .debug_frame   0x0000009c      0x144 build/debug/app_app.a(easygpio.o)
 .debug_frame   0x000001e0       0x40 build/debug/app_app.a(stdout.o)
 .debug_frame   0x00000220       0x80 build/debug/app_app.a(hw_timer.o)
 .debug_frame   0x000002a0       0x3c c:/espressif/xtensa-lx106-elf/bin/../lib/gcc/xtensa-lx106-elf/5.1.0\libgcc.a(_muldi3.o)
 .debug_frame   0x000002dc       0x38 c:/espressif/xtensa-lx106-elf/bin/../lib/gcc/xtensa-lx106-elf/5.1.0\libgcc.a(_divdi3.o)
 .debug_frame   0x00000314       0x3c c:/espressif/xtensa-lx106-elf/bin/../lib/gcc/xtensa-lx106-elf/5.1.0\libgcc.a(_umoddi3.o)

.debug_info     0x00000000     0x2cb3
 .debug_info    0x00000000      0x793 build/debug/app_app.a(user_main.o)
 .debug_info    0x00000793      0x858 build/debug/app_app.a(easygpio.o)
 .debug_info    0x00000feb      0x230 build/debug/app_app.a(stdout.o)
 .debug_info    0x0000121b      0x268 build/debug/app_app.a(hw_timer.o)
 .debug_info    0x00001483       0x9e c:/espressif/xtensa-lx106-elf/bin/../lib/gcc/xtensa-lx106-elf/5.1.0\libgcc.a(_udivsi3.o)
 .debug_info    0x00001521       0x9e c:/espressif/xtensa-lx106-elf/bin/../lib/gcc/xtensa-lx106-elf/5.1.0\libgcc.a(_umodsi3.o)
 .debug_info    0x000015bf      0x17b c:/espressif/xtensa-lx106-elf/bin/../lib/gcc/xtensa-lx106-elf/5.1.0\libgcc.a(_muldi3.o)
 .debug_info    0x0000173a       0x9e c:/espressif/xtensa-lx106-elf/bin/../lib/gcc/xtensa-lx106-elf/5.1.0\libgcc.a(_umulsidi3.o)
 .debug_info    0x000017d8       0x9e c:/espressif/xtensa-lx106-elf/bin/../lib/gcc/xtensa-lx106-elf/5.1.0\libgcc.a(_divsi3.o)
 .debug_info    0x00001876       0x9e c:/espressif/xtensa-lx106-elf/bin/../lib/gcc/xtensa-lx106-elf/5.1.0\libgcc.a(_modsi3.o)
 .debug_info    0x00001914       0x9e c:/espressif/xtensa-lx106-elf/bin/../lib/gcc/xtensa-lx106-elf/5.1.0\libgcc.a(_ashrdi3.o)
 .debug_info    0x000019b2       0x9f c:/espressif/xtensa-lx106-elf/bin/../lib/gcc/xtensa-lx106-elf/5.1.0\libgcc.a(_addsubsf3.o)
 .debug_info    0x00001a51       0x9f c:/espressif/xtensa-lx106-elf/bin/../lib/gcc/xtensa-lx106-elf/5.1.0\libgcc.a(_mulsf3.o)
 .debug_info    0x00001af0       0x9f c:/espressif/xtensa-lx106-elf/bin/../lib/gcc/xtensa-lx106-elf/5.1.0\libgcc.a(_divsf3.o)
 .debug_info    0x00001b8f       0x9f c:/espressif/xtensa-lx106-elf/bin/../lib/gcc/xtensa-lx106-elf/5.1.0\libgcc.a(_fixsfsi.o)
 .debug_info    0x00001c2e       0x9f c:/espressif/xtensa-lx106-elf/bin/../lib/gcc/xtensa-lx106-elf/5.1.0\libgcc.a(_fixunssfsi.o)
 .debug_info    0x00001ccd       0x9f c:/espressif/xtensa-lx106-elf/bin/../lib/gcc/xtensa-lx106-elf/5.1.0\libgcc.a(_floatsisf.o)
 .debug_info    0x00001d6c       0x9f c:/espressif/xtensa-lx106-elf/bin/../lib/gcc/xtensa-lx106-elf/5.1.0\libgcc.a(_muldf3.o)
 .debug_info    0x00001e0b       0x9f c:/espressif/xtensa-lx106-elf/bin/../lib/gcc/xtensa-lx106-elf/5.1.0\libgcc.a(_divdf3.o)
 .debug_info    0x00001eaa       0x9f c:/espressif/xtensa-lx106-elf/bin/../lib/gcc/xtensa-lx106-elf/5.1.0\libgcc.a(_fixdfsi.o)
 .debug_info    0x00001f49       0x9f c:/espressif/xtensa-lx106-elf/bin/../lib/gcc/xtensa-lx106-elf/5.1.0\libgcc.a(_floatsidf.o)
 .debug_info    0x00001fe8       0x9f c:/espressif/xtensa-lx106-elf/bin/../lib/gcc/xtensa-lx106-elf/5.1.0\libgcc.a(_truncdfsf2.o)
 .debug_info    0x00002087      0x5fc c:/espressif/xtensa-lx106-elf/bin/../lib/gcc/xtensa-lx106-elf/5.1.0\libgcc.a(_divdi3.o)
 .debug_info    0x00002683      0x630 c:/espressif/xtensa-lx106-elf/bin/../lib/gcc/xtensa-lx106-elf/5.1.0\libgcc.a(_umoddi3.o)

.debug_abbrev   0x00000000      0xcd3
 .debug_abbrev  0x00000000      0x279 build/debug/app_app.a(user_main.o)
 .debug_abbrev  0x00000279      0x252 build/debug/app_app.a(easygpio.o)
 .debug_abbrev  0x000004cb      0x13d build/debug/app_app.a(stdout.o)
 .debug_abbrev  0x00000608      0x13d build/debug/app_app.a(hw_timer.o)
 .debug_abbrev  0x00000745       0x14 c:/espressif/xtensa-lx106-elf/bin/../lib/gcc/xtensa-lx106-elf/5.1.0\libgcc.a(_udivsi3.o)
 .debug_abbrev  0x00000759       0x14 c:/espressif/xtensa-lx106-elf/bin/../lib/gcc/xtensa-lx106-elf/5.1.0\libgcc.a(_umodsi3.o)
 .debug_abbrev  0x0000076d       0xfd c:/espressif/xtensa-lx106-elf/bin/../lib/gcc/xtensa-lx106-elf/5.1.0\libgcc.a(_muldi3.o)
 .debug_abbrev  0x0000086a       0x14 c:/espressif/xtensa-lx106-elf/bin/../lib/gcc/xtensa-lx106-elf/5.1.0\libgcc.a(_umulsidi3.o)
 .debug_abbrev  0x0000087e       0x14 c:/espressif/xtensa-lx106-elf/bin/../lib/gcc/xtensa-lx106-elf/5.1.0\libgcc.a(_divsi3.o)
 .debug_abbrev  0x00000892       0x14 c:/espressif/xtensa-lx106-elf/bin/../lib/gcc/xtensa-lx106-elf/5.1.0\libgcc.a(_modsi3.o)
 .debug_abbrev  0x000008a6       0x14 c:/espressif/xtensa-lx106-elf/bin/../lib/gcc/xtensa-lx106-elf/5.1.0\libgcc.a(_ashrdi3.o)
 .debug_abbrev  0x000008ba       0x14 c:/espressif/xtensa-lx106-elf/bin/../lib/gcc/xtensa-lx106-elf/5.1.0\libgcc.a(_addsubsf3.o)
 .debug_abbrev  0x000008ce       0x14 c:/espressif/xtensa-lx106-elf/bin/../lib/gcc/xtensa-lx106-elf/5.1.0\libgcc.a(_mulsf3.o)
 .debug_abbrev  0x000008e2       0x14 c:/espressif/xtensa-lx106-elf/bin/../lib/gcc/xtensa-lx106-elf/5.1.0\libgcc.a(_divsf3.o)
 .debug_abbrev  0x000008f6       0x14 c:/espressif/xtensa-lx106-elf/bin/../lib/gcc/xtensa-lx106-elf/5.1.0\libgcc.a(_fixsfsi.o)
 .debug_abbrev  0x0000090a       0x14 c:/espressif/xtensa-lx106-elf/bin/../lib/gcc/xtensa-lx106-elf/5.1.0\libgcc.a(_fixunssfsi.o)
 .debug_abbrev  0x0000091e       0x14 c:/espressif/xtensa-lx106-elf/bin/../lib/gcc/xtensa-lx106-elf/5.1.0\libgcc.a(_floatsisf.o)
 .debug_abbrev  0x00000932       0x14 c:/espressif/xtensa-lx106-elf/bin/../lib/gcc/xtensa-lx106-elf/5.1.0\libgcc.a(_muldf3.o)
 .debug_abbrev  0x00000946       0x14 c:/espressif/xtensa-lx106-elf/bin/../lib/gcc/xtensa-lx106-elf/5.1.0\libgcc.a(_divdf3.o)
 .debug_abbrev  0x0000095a       0x14 c:/espressif/xtensa-lx106-elf/bin/../lib/gcc/xtensa-lx106-elf/5.1.0\libgcc.a(_fixdfsi.o)
 .debug_abbrev  0x0000096e       0x14 c:/espressif/xtensa-lx106-elf/bin/../lib/gcc/xtensa-lx106-elf/5.1.0\libgcc.a(_floatsidf.o)
 .debug_abbrev  0x00000982       0x14 c:/espressif/xtensa-lx106-elf/bin/../lib/gcc/xtensa-lx106-elf/5.1.0\libgcc.a(_truncdfsf2.o)
 .debug_abbrev  0x00000996      0x1a1 c:/espressif/xtensa-lx106-elf/bin/../lib/gcc/xtensa-lx106-elf/5.1.0\libgcc.a(_divdi3.o)
 .debug_abbrev  0x00000b37      0x19c c:/espressif/xtensa-lx106-elf/bin/../lib/gcc/xtensa-lx106-elf/5.1.0\libgcc.a(_umoddi3.o)

.debug_loc      0x00000000     0x1c3f
 .debug_loc     0x00000000       0xb6 build/debug/app_app.a(user_main.o)
 .debug_loc     0x000000b6      0x5d2 build/debug/app_app.a(easygpio.o)
 .debug_loc     0x00000688       0x95 build/debug/app_app.a(hw_timer.o)
 .debug_loc     0x0000071d       0x50 c:/espressif/xtensa-lx106-elf/bin/../lib/gcc/xtensa-lx106-elf/5.1.0\libgcc.a(_muldi3.o)
 .debug_loc     0x0000076d      0xa47 c:/espressif/xtensa-lx106-elf/bin/../lib/gcc/xtensa-lx106-elf/5.1.0\libgcc.a(_divdi3.o)
 .debug_loc     0x000011b4      0xa8b c:/espressif/xtensa-lx106-elf/bin/../lib/gcc/xtensa-lx106-elf/5.1.0\libgcc.a(_umoddi3.o)

.debug_aranges  0x00000000      0x368
 .debug_aranges
                0x00000000       0x38 build/debug/app_app.a(user_main.o)
 .debug_aranges
                0x00000038       0x60 build/debug/app_app.a(easygpio.o)
 .debug_aranges
                0x00000098       0x28 build/debug/app_app.a(stdout.o)
 .debug_aranges
                0x000000c0       0x28 build/debug/app_app.a(hw_timer.o)
 .debug_aranges
                0x000000e8       0x20 c:/espressif/xtensa-lx106-elf/bin/../lib/gcc/xtensa-lx106-elf/5.1.0\libgcc.a(_udivsi3.o)
 .debug_aranges
                0x00000108       0x20 c:/espressif/xtensa-lx106-elf/bin/../lib/gcc/xtensa-lx106-elf/5.1.0\libgcc.a(_umodsi3.o)
 .debug_aranges
                0x00000128       0x20 c:/espressif/xtensa-lx106-elf/bin/../lib/gcc/xtensa-lx106-elf/5.1.0\libgcc.a(_muldi3.o)
 .debug_aranges
                0x00000148       0x20 c:/espressif/xtensa-lx106-elf/bin/../lib/gcc/xtensa-lx106-elf/5.1.0\libgcc.a(_umulsidi3.o)
 .debug_aranges
                0x00000168       0x20 c:/espressif/xtensa-lx106-elf/bin/../lib/gcc/xtensa-lx106-elf/5.1.0\libgcc.a(_divsi3.o)
 .debug_aranges
                0x00000188       0x20 c:/espressif/xtensa-lx106-elf/bin/../lib/gcc/xtensa-lx106-elf/5.1.0\libgcc.a(_modsi3.o)
 .debug_aranges
                0x000001a8       0x20 c:/espressif/xtensa-lx106-elf/bin/../lib/gcc/xtensa-lx106-elf/5.1.0\libgcc.a(_ashrdi3.o)
 .debug_aranges
                0x000001c8       0x20 c:/espressif/xtensa-lx106-elf/bin/../lib/gcc/xtensa-lx106-elf/5.1.0\libgcc.a(_addsubsf3.o)
 .debug_aranges
                0x000001e8       0x20 c:/espressif/xtensa-lx106-elf/bin/../lib/gcc/xtensa-lx106-elf/5.1.0\libgcc.a(_mulsf3.o)
 .debug_aranges
                0x00000208       0x20 c:/espressif/xtensa-lx106-elf/bin/../lib/gcc/xtensa-lx106-elf/5.1.0\libgcc.a(_divsf3.o)
 .debug_aranges
                0x00000228       0x20 c:/espressif/xtensa-lx106-elf/bin/../lib/gcc/xtensa-lx106-elf/5.1.0\libgcc.a(_fixsfsi.o)
 .debug_aranges
                0x00000248       0x20 c:/espressif/xtensa-lx106-elf/bin/../lib/gcc/xtensa-lx106-elf/5.1.0\libgcc.a(_fixunssfsi.o)
 .debug_aranges
                0x00000268       0x20 c:/espressif/xtensa-lx106-elf/bin/../lib/gcc/xtensa-lx106-elf/5.1.0\libgcc.a(_floatsisf.o)
 .debug_aranges
                0x00000288       0x20 c:/espressif/xtensa-lx106-elf/bin/../lib/gcc/xtensa-lx106-elf/5.1.0\libgcc.a(_muldf3.o)
 .debug_aranges
                0x000002a8       0x20 c:/espressif/xtensa-lx106-elf/bin/../lib/gcc/xtensa-lx106-elf/5.1.0\libgcc.a(_divdf3.o)
 .debug_aranges
                0x000002c8       0x20 c:/espressif/xtensa-lx106-elf/bin/../lib/gcc/xtensa-lx106-elf/5.1.0\libgcc.a(_fixdfsi.o)
 .debug_aranges
                0x000002e8       0x20 c:/espressif/xtensa-lx106-elf/bin/../lib/gcc/xtensa-lx106-elf/5.1.0\libgcc.a(_floatsidf.o)
 .debug_aranges
                0x00000308       0x20 c:/espressif/xtensa-lx106-elf/bin/../lib/gcc/xtensa-lx106-elf/5.1.0\libgcc.a(_truncdfsf2.o)
 .debug_aranges
                0x00000328       0x20 c:/espressif/xtensa-lx106-elf/bin/../lib/gcc/xtensa-lx106-elf/5.1.0\libgcc.a(_divdi3.o)
 .debug_aranges
                0x00000348       0x20 c:/espressif/xtensa-lx106-elf/bin/../lib/gcc/xtensa-lx106-elf/5.1.0\libgcc.a(_umoddi3.o)

.debug_ranges   0x00000000      0x208
 .debug_ranges  0x00000000       0x68 build/debug/app_app.a(user_main.o)
 .debug_ranges  0x00000068       0x88 build/debug/app_app.a(easygpio.o)
 .debug_ranges  0x000000f0       0x18 build/debug/app_app.a(stdout.o)
 .debug_ranges  0x00000108       0x18 build/debug/app_app.a(hw_timer.o)
 .debug_ranges  0x00000120       0x68 c:/espressif/xtensa-lx106-elf/bin/../lib/gcc/xtensa-lx106-elf/5.1.0\libgcc.a(_divdi3.o)
 .debug_ranges  0x00000188       0x80 c:/espressif/xtensa-lx106-elf/bin/../lib/gcc/xtensa-lx106-elf/5.1.0\libgcc.a(_umoddi3.o)

.debug_line     0x00000000     0x2f29
 .debug_line    0x00000000      0x2e6 build/debug/app_app.a(user_main.o)
 .debug_line    0x000002e6      0x478 build/debug/app_app.a(easygpio.o)
 .debug_line    0x0000075e      0x11d build/debug/app_app.a(stdout.o)
 .debug_line    0x0000087b      0x183 build/debug/app_app.a(hw_timer.o)
 .debug_line    0x000009fe       0xf7 c:/espressif/xtensa-lx106-elf/bin/../lib/gcc/xtensa-lx106-elf/5.1.0\libgcc.a(_udivsi3.o)
 .debug_line    0x00000af5       0xc7 c:/espressif/xtensa-lx106-elf/bin/../lib/gcc/xtensa-lx106-elf/5.1.0\libgcc.a(_umodsi3.o)
 .debug_line    0x00000bbc       0x96 c:/espressif/xtensa-lx106-elf/bin/../lib/gcc/xtensa-lx106-elf/5.1.0\libgcc.a(_muldi3.o)
 .debug_line    0x00000c52      0x103 c:/espressif/xtensa-lx106-elf/bin/../lib/gcc/xtensa-lx106-elf/5.1.0\libgcc.a(_umulsidi3.o)
 .debug_line    0x00000d55      0x127 c:/espressif/xtensa-lx106-elf/bin/../lib/gcc/xtensa-lx106-elf/5.1.0\libgcc.a(_divsi3.o)
 .debug_line    0x00000e7c       0xe5 c:/espressif/xtensa-lx106-elf/bin/../lib/gcc/xtensa-lx106-elf/5.1.0\libgcc.a(_modsi3.o)
 .debug_line    0x00000f61       0x85 c:/espressif/xtensa-lx106-elf/bin/../lib/gcc/xtensa-lx106-elf/5.1.0\libgcc.a(_ashrdi3.o)
 .debug_line    0x00000fe6      0x488 c:/espressif/xtensa-lx106-elf/bin/../lib/gcc/xtensa-lx106-elf/5.1.0\libgcc.a(_addsubsf3.o)
 .debug_line    0x0000146e      0x34a c:/espressif/xtensa-lx106-elf/bin/../lib/gcc/xtensa-lx106-elf/5.1.0\libgcc.a(_mulsf3.o)
 .debug_line    0x000017b8      0x2e4 c:/espressif/xtensa-lx106-elf/bin/../lib/gcc/xtensa-lx106-elf/5.1.0\libgcc.a(_divsf3.o)
 .debug_line    0x00001a9c       0xe0 c:/espressif/xtensa-lx106-elf/bin/../lib/gcc/xtensa-lx106-elf/5.1.0\libgcc.a(_fixsfsi.o)
 .debug_line    0x00001b7c      0x110 c:/espressif/xtensa-lx106-elf/bin/../lib/gcc/xtensa-lx106-elf/5.1.0\libgcc.a(_fixunssfsi.o)
 .debug_line    0x00001c8c       0xec c:/espressif/xtensa-lx106-elf/bin/../lib/gcc/xtensa-lx106-elf/5.1.0\libgcc.a(_floatsisf.o)
 .debug_line    0x00001d78      0x5f8 c:/espressif/xtensa-lx106-elf/bin/../lib/gcc/xtensa-lx106-elf/5.1.0\libgcc.a(_muldf3.o)
 .debug_line    0x00002370      0x4a0 c:/espressif/xtensa-lx106-elf/bin/../lib/gcc/xtensa-lx106-elf/5.1.0\libgcc.a(_divdf3.o)
 .debug_line    0x00002810       0xf2 c:/espressif/xtensa-lx106-elf/bin/../lib/gcc/xtensa-lx106-elf/5.1.0\libgcc.a(_fixdfsi.o)
 .debug_line    0x00002902       0xce c:/espressif/xtensa-lx106-elf/bin/../lib/gcc/xtensa-lx106-elf/5.1.0\libgcc.a(_floatsidf.o)
 .debug_line    0x000029d0      0x1a0 c:/espressif/xtensa-lx106-elf/bin/../lib/gcc/xtensa-lx106-elf/5.1.0\libgcc.a(_truncdfsf2.o)
 .debug_line    0x00002b70      0x1d1 c:/espressif/xtensa-lx106-elf/bin/../lib/gcc/xtensa-lx106-elf/5.1.0\libgcc.a(_divdi3.o)
 .debug_line    0x00002d41      0x1e8 c:/espressif/xtensa-lx106-elf/bin/../lib/gcc/xtensa-lx106-elf/5.1.0\libgcc.a(_umoddi3.o)

.debug_str      0x00000000      0xa63
 .debug_str     0x00000000      0x3f7 build/debug/app_app.a(user_main.o)
                                0x449 (size before relaxing)
 .debug_str     0x000003f7      0x259 build/debug/app_app.a(easygpio.o)
                                0x460 (size before relaxing)
 .debug_str     0x00000650      0x155 build/debug/app_app.a(stdout.o)
                                0x28d (size before relaxing)
 .debug_str     0x000007a5       0xa9 build/debug/app_app.a(hw_timer.o)
                                0x24e (size before relaxing)
 .debug_str     0x0000084e      0x142 c:/espressif/xtensa-lx106-elf/bin/../lib/gcc/xtensa-lx106-elf/5.1.0\libgcc.a(_muldi3.o)
                                0x1c6 (size before relaxing)
 .debug_str     0x00000990       0xc9 c:/espressif/xtensa-lx106-elf/bin/../lib/gcc/xtensa-lx106-elf/5.1.0\libgcc.a(_divdi3.o)
                                0x21c (size before relaxing)
 .debug_str     0x00000a59        0xa c:/espressif/xtensa-lx106-elf/bin/../lib/gcc/xtensa-lx106-elf/5.1.0\libgcc.a(_umoddi3.o)
                                0x21d (size before relaxing)
