Archive member included because of file (symbol)

c:/Espressif/ESP8266_SDK_210/lib\libmain.a(debug-vector.o)
                              (_DebugExceptionVector)
c:/Espressif/ESP8266_SDK_210/lib\libmain.a(double-vector.o)
                              (_DoubleExceptionVector)
c:/Espressif/ESP8266_SDK_210/lib\libmain.a(kernel-vector.o)
                              (_KernelExceptionVector)
c:/Espressif/ESP8266_SDK_210/lib\libmain.a(nmi-vector.o)
                              (_NMIExceptionVector)
c:/Espressif/ESP8266_SDK_210/lib\libmain.a(user-vector.o)
                              (_UserExceptionVector)
c:/Espressif/ESP8266_SDK_210/lib\libmain.a(vector.o)
                              (call_user_start)
c:/Espressif/ESP8266_SDK_210/lib\libmain.a(app_main.o)
                              c:/Espressif/ESP8266_SDK_210/lib\libmain.a(nmi-vector.o) (NMI_Handler)
c:/Espressif/ESP8266_SDK_210/lib\libmain.a(ets_timer.o)
                              c:/Espressif/ESP8266_SDK_210/lib\libmain.a(app_main.o) (ets_timer_setfn)
c:/Espressif/ESP8266_SDK_210/lib\libmain.a(mem_manager.o)
                              c:/Espressif/ESP8266_SDK_210/lib\libmain.a(app_main.o) (vPortFree)
c:/Espressif/ESP8266_SDK_210/lib\libmain.a(user_interface.o)
                              c:/Espressif/ESP8266_SDK_210/lib\libmain.a(app_main.o) (done_cb)
c:/Espressif/ESP8266_SDK_210/lib\libmain.a(spi_flash.o)
                              c:/Espressif/ESP8266_SDK_210/lib\libmain.a(user_interface.o) (spi_flash_erase_sector)
c:/Espressif/ESP8266_SDK_210/lib\libmain.a(eagle_lib.o)
                              c:/Espressif/ESP8266_SDK_210/lib\libmain.a(user_interface.o) (ets_sprintf)
c:/Espressif/ESP8266_SDK_210/lib\libmain.a(eagle_lwip_if.o)
                              c:/Espressif/ESP8266_SDK_210/lib\libmain.a(user_interface.o) (hostname)
build/debug/app_app.a(user_main.o)
                              c:/Espressif/ESP8266_SDK_210/lib\libmain.a(app_main.o) (user_rf_cal_sector_set)
build/debug/app_app.a(hw_timer.o)
                              build/debug/app_app.a(user_main.o) (hw_timer_set_func)
build/debug/app_app.a(easygpio.o)
                              build/debug/app_app.a(user_main.o) (easygpio_pinMode)
build/debug/app_app.a(stdout.o)
                              build/debug/app_app.a(user_main.o) (stdout_init)
c:/espressif/xtensa-lx106-elf/bin/../lib/gcc/xtensa-lx106-elf/5.1.0/../../../../xtensa-lx106-elf/lib\libhal.a(int_asm--set_intclear.o)
                              c:/Espressif/ESP8266_SDK_210/lib\libmain.a(app_main.o) (xthal_set_intclear)
c:/Espressif/ESP8266_SDK_210/lib\libphy.a(phy.o)
                              c:/Espressif/ESP8266_SDK_210/lib\libmain.a(app_main.o) (phy_enable_agc)
c:/Espressif/ESP8266_SDK_210/lib\libphy.a(phy_chip_v6_ana.o)
                              c:/Espressif/ESP8266_SDK_210/lib\libmain.a(app_main.o) (chip_v6_set_chan_offset)
c:/Espressif/ESP8266_SDK_210/lib\libphy.a(phy_chip_v6.o)
                              c:/Espressif/ESP8266_SDK_210/lib\libphy.a(phy_chip_v6_ana.o) (g_phyFuns)
c:/Espressif/ESP8266_SDK_210/lib\libphy.a(phy_chip_v6_cal.o)
                              c:/Espressif/ESP8266_SDK_210/lib\libphy.a(phy_chip_v6.o) (phy_tx_pwr_error)
c:/Espressif/ESP8266_SDK_210/lib\libphy.a(phy_chip_v6_unused.o)
                              c:/Espressif/ESP8266_SDK_210/lib\libphy.a(phy_chip_v6.o) (chip_v6_set_sense)
c:/Espressif/ESP8266_SDK_210/lib\libphy.a(phy_sleep.o)
                              c:/Espressif/ESP8266_SDK_210/lib\libmain.a(user_interface.o) (pm_usec2rtc_64)
c:/Espressif/ESP8266_SDK_210/lib\libpp.a(if_hwctrl.o)
                              c:/Espressif/ESP8266_SDK_210/lib\libmain.a(user_interface.o) (ic_set_vif)
c:/Espressif/ESP8266_SDK_210/lib\libpp.a(lmac.o)
                              c:/Espressif/ESP8266_SDK_210/lib\libmain.a(app_main.o) (lmacInit)
c:/Espressif/ESP8266_SDK_210/lib\libpp.a(pm.o)
                              c:/Espressif/ESP8266_SDK_210/lib\libmain.a(user_interface.o) (pm_set_gpio_wakeup_pin)
c:/Espressif/ESP8266_SDK_210/lib\libpp.a(pm_for_bcn_only_mode.o)
                              c:/Espressif/ESP8266_SDK_210/lib\libpp.a(pm.o) (fpm_is_open)
c:/Espressif/ESP8266_SDK_210/lib\libpp.a(pp.o)
                              c:/Espressif/ESP8266_SDK_210/lib\libpp.a(pm.o) (pend_flag_noise_check)
c:/Espressif/ESP8266_SDK_210/lib\libpp.a(rate_control.o)
                              c:/Espressif/ESP8266_SDK_210/lib\libpp.a(lmac.o) (RC_SetBasicRate)
c:/Espressif/ESP8266_SDK_210/lib\libpp.a(trc.o)
                              c:/Espressif/ESP8266_SDK_210/lib\libmain.a(user_interface.o) (rc_set_rate_limit_id)
c:/Espressif/ESP8266_SDK_210/lib\libpp.a(wdev.o)
                              c:/Espressif/ESP8266_SDK_210/lib\libpp.a(pp.o) (wDevCtrl)
c:/Espressif/ESP8266_SDK_210/lib\libpp.a(esf_buf.o)
                              c:/Espressif/ESP8266_SDK_210/lib\libpp.a(wdev.o) (esf_rx_buf_alloc)
c:/Espressif/ESP8266_SDK_210/lib\libnet80211.a(ieee80211.o)
                              c:/Espressif/ESP8266_SDK_210/lib\libmain.a(app_main.o) (g_ic)
c:/Espressif/ESP8266_SDK_210/lib\libnet80211.a(ieee80211_crypto.o)
                              c:/Espressif/ESP8266_SDK_210/lib\libnet80211.a(ieee80211.o) (ieee80211_crypto_attach)
c:/Espressif/ESP8266_SDK_210/lib\libnet80211.a(ieee80211_ets.o)
                              c:/Espressif/ESP8266_SDK_210/lib\libpp.a(pm.o) (ieee80211_getmgtframe)
c:/Espressif/ESP8266_SDK_210/lib\libnet80211.a(ieee80211_hostap.o)
                              c:/Espressif/ESP8266_SDK_210/lib\libmain.a(user_interface.o) (BcnEb_update)
c:/Espressif/ESP8266_SDK_210/lib\libnet80211.a(ieee80211_ht.o)
                              c:/Espressif/ESP8266_SDK_210/lib\libmain.a(user_interface.o) (ieee80211_ht_attach)
c:/Espressif/ESP8266_SDK_210/lib\libnet80211.a(ieee80211_input.o)
                              c:/Espressif/ESP8266_SDK_210/lib\libnet80211.a(ieee80211_hostap.o) (ieee80211_decap)
c:/Espressif/ESP8266_SDK_210/lib\libnet80211.a(ieee80211_mesh_quick.o)
                              c:/Espressif/ESP8266_SDK_210/lib\libnet80211.a(ieee80211_hostap.o) (ieee80211_mesh_quick_get)
c:/Espressif/ESP8266_SDK_210/lib\libnet80211.a(ieee80211_output.o)
                              c:/Espressif/ESP8266_SDK_210/lib\libmain.a(eagle_lwip_if.o) (ieee80211_output_pbuf)
c:/Espressif/ESP8266_SDK_210/lib\libnet80211.a(ieee80211_phy.o)
                              c:/Espressif/ESP8266_SDK_210/lib\libmain.a(app_main.o) (ieee80211_phy_init)
c:/Espressif/ESP8266_SDK_210/lib\libnet80211.a(ieee80211_power.o)
                              c:/Espressif/ESP8266_SDK_210/lib\libnet80211.a(ieee80211_hostap.o) (ieee80211_psq_init)
c:/Espressif/ESP8266_SDK_210/lib\libnet80211.a(ieee80211_proto.o)
                              c:/Espressif/ESP8266_SDK_210/lib\libnet80211.a(ieee80211.o) (ieee80211_proto_attach)
c:/Espressif/ESP8266_SDK_210/lib\libnet80211.a(ieee80211_regdomain.o)
                              c:/Espressif/ESP8266_SDK_210/lib\libnet80211.a(ieee80211_output.o) (ieee80211_alloc_countryie)
c:/Espressif/ESP8266_SDK_210/lib\libnet80211.a(ieee80211_rfid.o)
                              c:/Espressif/ESP8266_SDK_210/lib\libmain.a(user_interface.o) (ieee80211_rfid_locp_recv_open)
c:/Espressif/ESP8266_SDK_210/lib\libnet80211.a(ieee80211_scan.o)
                              c:/Espressif/ESP8266_SDK_210/lib\libpp.a(pp.o) (gScanStruct)
c:/Espressif/ESP8266_SDK_210/lib\libnet80211.a(ieee80211_sta.o)
                              c:/Espressif/ESP8266_SDK_210/lib\libmain.a(user_interface.o) (ieee80211_sta_new_state)
c:/Espressif/ESP8266_SDK_210/lib\libnet80211.a(wl_chm.o)
                              c:/Espressif/ESP8266_SDK_210/lib\libnet80211.a(ieee80211.o) (chm_init)
c:/Espressif/ESP8266_SDK_210/lib\libnet80211.a(wl_cnx.o)
                              c:/Espressif/ESP8266_SDK_210/lib\libmain.a(user_interface.o) (sta_con_timer)
c:/Espressif/ESP8266_SDK_210/lib\libnet80211.a(ieee80211_action.o)
                              c:/Espressif/ESP8266_SDK_210/lib\libnet80211.a(ieee80211_ht.o) (ieee80211_send_action_register)
c:/Espressif/ESP8266_SDK_210/lib\libnet80211.a(ieee80211_action_vendor.o)
                              c:/Espressif/ESP8266_SDK_210/lib\libnet80211.a(ieee80211.o) (ieee80211_action_vendor_spec_attach)
c:/Espressif/ESP8266_SDK_210/lib\libnet80211.a(ieee80211_crypto_ccmp.o)
                              c:/Espressif/ESP8266_SDK_210/lib\libnet80211.a(ieee80211_input.o) (ccmp)
c:/Espressif/ESP8266_SDK_210/lib\libnet80211.a(ieee80211_ie_vendor.o)
                              c:/Espressif/ESP8266_SDK_210/lib\libnet80211.a(ieee80211_mesh_quick.o) (ieee80211_add_ie_vendor_esp_mesh_assoc)
c:/Espressif/ESP8266_SDK_210/lib\liblwip.a(dhcp.o)
                              c:/Espressif/ESP8266_SDK_210/lib\libnet80211.a(wl_cnx.o) (dhcp_release)
c:/Espressif/ESP8266_SDK_210/lib\liblwip.a(dhcpserver.o)
                              c:/Espressif/ESP8266_SDK_210/lib\libmain.a(user_interface.o) (dhcps_start)
c:/Espressif/ESP8266_SDK_210/lib\liblwip.a(dns.o)
                              c:/Espressif/ESP8266_SDK_210/lib\liblwip.a(dhcp.o) (dns_setserver)
c:/Espressif/ESP8266_SDK_210/lib\liblwip.a(espconn_tcp.o)
                              c:/Espressif/ESP8266_SDK_210/lib\libmain.a(app_main.o) (espconn_init)
c:/Espressif/ESP8266_SDK_210/lib\liblwip.a(etharp.o)
                              c:/Espressif/ESP8266_SDK_210/lib\libpp.a(wdev.o) (ethbroadcast)
c:/Espressif/ESP8266_SDK_210/lib\liblwip.a(init.o)
                              c:/Espressif/ESP8266_SDK_210/lib\libmain.a(app_main.o) (lwip_init)
c:/Espressif/ESP8266_SDK_210/lib\liblwip.a(ip_addr.o)
                              c:/Espressif/ESP8266_SDK_210/lib\liblwip.a(dhcp.o) (ip_addr_any)
c:/Espressif/ESP8266_SDK_210/lib\liblwip.a(ip.o)
                              c:/Espressif/ESP8266_SDK_210/lib\liblwip.a(etharp.o) (ip_input)
c:/Espressif/ESP8266_SDK_210/lib\liblwip.a(memp.o)
                              c:/Espressif/ESP8266_SDK_210/lib\liblwip.a(etharp.o) (memp_sizes)
c:/Espressif/ESP8266_SDK_210/lib\liblwip.a(netif.o)
                              c:/Espressif/ESP8266_SDK_210/lib\liblwip.a(dhcp.o) (netif_list)
c:/Espressif/ESP8266_SDK_210/lib\liblwip.a(pbuf.o)
                              c:/Espressif/ESP8266_SDK_210/lib\libnet80211.a(ieee80211_hostap.o) (pbuf_alloc)
c:/Espressif/ESP8266_SDK_210/lib\liblwip.a(raw.o)
                              c:/Espressif/ESP8266_SDK_210/lib\liblwip.a(ip.o) (raw_input)
c:/Espressif/ESP8266_SDK_210/lib\liblwip.a(tcp_in.o)
                              c:/Espressif/ESP8266_SDK_210/lib\liblwip.a(ip.o) (tcp_input)
c:/Espressif/ESP8266_SDK_210/lib\liblwip.a(tcp.o)
                              c:/Espressif/ESP8266_SDK_210/lib\liblwip.a(espconn_tcp.o) (tcp_active_pcbs)
c:/Espressif/ESP8266_SDK_210/lib\liblwip.a(tcp_out.o)
                              c:/Espressif/ESP8266_SDK_210/lib\liblwip.a(tcp.o) (tcp_send_fin)
c:/Espressif/ESP8266_SDK_210/lib\liblwip.a(timers.o)
                              c:/Espressif/ESP8266_SDK_210/lib\liblwip.a(tcp_in.o) (tcp_timer_needed)
c:/Espressif/ESP8266_SDK_210/lib\liblwip.a(udp.o)
                              c:/Espressif/ESP8266_SDK_210/lib\liblwip.a(ip.o) (udp_input)
c:/Espressif/ESP8266_SDK_210/lib\liblwip.a(espconn_buf.o)
                              c:/Espressif/ESP8266_SDK_210/lib\liblwip.a(espconn_tcp.o) (ringbuf_new)
c:/Espressif/ESP8266_SDK_210/lib\liblwip.a(espconn.o)
                              c:/Espressif/ESP8266_SDK_210/lib\liblwip.a(espconn_tcp.o) (plink_active)
c:/Espressif/ESP8266_SDK_210/lib\liblwip.a(espconn_udp.o)
                              c:/Espressif/ESP8266_SDK_210/lib\liblwip.a(espconn.o) (espconn_udp_sent)
c:/Espressif/ESP8266_SDK_210/lib\liblwip.a(icmp.o)
                              c:/Espressif/ESP8266_SDK_210/lib\liblwip.a(ip.o) (icmp_input)
c:/Espressif/ESP8266_SDK_210/lib\liblwip.a(igmp.o)
                              c:/Espressif/ESP8266_SDK_210/lib\liblwip.a(init.o) (igmp_init)
c:/Espressif/ESP8266_SDK_210/lib\liblwip.a(inet_chksum.o)
                              c:/Espressif/ESP8266_SDK_210/lib\liblwip.a(tcp_in.o) (inet_chksum_pseudo)
c:/Espressif/ESP8266_SDK_210/lib\libwpa.a(ap_config.o)
                              c:/Espressif/ESP8266_SDK_210/lib\libnet80211.a(ieee80211_hostap.o) (hostapd_setup_wpa_psk)
c:/Espressif/ESP8266_SDK_210/lib\libwpa.a(common.o)
                              c:/Espressif/ESP8266_SDK_210/lib\libmain.a(user_interface.o) (hexstr2bin)
c:/Espressif/ESP8266_SDK_210/lib\libwpa.a(os_xtensa.o)
                              c:/Espressif/ESP8266_SDK_210/lib\libwpa.a(common.o) (os_get_time)
c:/Espressif/ESP8266_SDK_210/lib\libwpa.a(wpa_auth.o)
                              c:/Espressif/ESP8266_SDK_210/lib\libnet80211.a(ieee80211_hostap.o) (wpa_init)
c:/Espressif/ESP8266_SDK_210/lib\libwpa.a(wpa_auth_ie.o)
                              c:/Espressif/ESP8266_SDK_210/lib\libwpa.a(wpa_auth.o) (wpa_auth_gen_wpa_ie)
c:/Espressif/ESP8266_SDK_210/lib\libwpa.a(wpa.o)
                              c:/Espressif/ESP8266_SDK_210/lib\libnet80211.a(ieee80211_sta.o) (wpa_sm_rx_eapol)
c:/Espressif/ESP8266_SDK_210/lib\libwpa.a(wpa_common.o)
                              c:/Espressif/ESP8266_SDK_210/lib\libwpa.a(wpa_auth_ie.o) (wpa_parse_wpa_ie_rsn)
c:/Espressif/ESP8266_SDK_210/lib\libwpa.a(wpa_debug.o)
                              c:/Espressif/ESP8266_SDK_210/lib\libwpa.a(wpa_auth.o) (eloop_cancel_timeout)
c:/Espressif/ESP8266_SDK_210/lib\libwpa.a(wpa_ie.o)
                              c:/Espressif/ESP8266_SDK_210/lib\libnet80211.a(ieee80211_scan.o) (wpa_parse_wpa_ie)
c:/Espressif/ESP8266_SDK_210/lib\libwpa.a(wpa_main.o)
                              c:/Espressif/ESP8266_SDK_210/lib\libnet80211.a(wl_cnx.o) (ppInstallKey)
c:/Espressif/ESP8266_SDK_210/lib\libwpa.a(wpas_glue.o)
                              c:/Espressif/ESP8266_SDK_210/lib\libwpa.a(wpa.o) (wpa_sm_alloc_eapol)
c:/Espressif/ESP8266_SDK_210/lib\libcrypto.a(aes-wrap.o)
                              c:/Espressif/ESP8266_SDK_210/lib\libwpa.a(wpa_auth.o) (aes_wrap)
c:/Espressif/ESP8266_SDK_210/lib\libcrypto.a(aes-internal-enc.o)
                              c:/Espressif/ESP8266_SDK_210/lib\libcrypto.a(aes-wrap.o) (aes_encrypt_init)
c:/Espressif/ESP8266_SDK_210/lib\libcrypto.a(aes-internal.o)
                              c:/Espressif/ESP8266_SDK_210/lib\libcrypto.a(aes-internal-enc.o) (rijndaelKeySetupEnc)
c:/Espressif/ESP8266_SDK_210/lib\libc.a(lib_a-memchr.o)
                              c:/Espressif/ESP8266_SDK_210/lib\liblwip.a(espconn_buf.o) (memchr)
c:/Espressif/ESP8266_SDK_210/lib\libgcc.a(_modsi3.o)
                              c:/Espressif/ESP8266_SDK_210/lib\libphy.a(phy_chip_v6.o) (__modsi3)
c:/Espressif/ESP8266_SDK_210/lib\libgcc.a(_ashrdi3.o)
                              c:/Espressif/ESP8266_SDK_210/lib\libphy.a(phy_chip_v6.o) (__ashrdi3)
c:/Espressif/ESP8266_SDK_210/lib\libgcc.a(_divsf3.o)
                              c:/Espressif/ESP8266_SDK_210/lib\libphy.a(phy_chip_v6_ana.o) (__divsf3)
c:/Espressif/ESP8266_SDK_210/lib\libgcc.a(_fixsfsi.o)
                              c:/Espressif/ESP8266_SDK_210/lib\libphy.a(phy_chip_v6.o) (__fixsfsi)
c:/Espressif/ESP8266_SDK_210/lib\libnet80211.a(ieee80211_crypto_tkip.o)
                              c:/Espressif/ESP8266_SDK_210/lib\libwpa.a(wpa_auth.o) (tkip)
c:/Espressif/ESP8266_SDK_210/lib\libnet80211.a(ieee80211_crypto_wep.o)
                              c:/Espressif/ESP8266_SDK_210/lib\libwpa.a(wpa_auth.o) (wep)

Memory Configuration

Name             Origin             Length             Attributes
dport0_0_seg     0x3ff00000         0x00000010
dram0_0_seg      0x3ffe8000         0x00014000
iram1_0_seg      0x40100000         0x00008000
irom0_0_seg      0x40210000         0x0005c000
*default*        0x00000000         0xffffffff

Linker script and memory map

START GROUP
LOAD c:/Espressif/ESP8266_SDK_210/lib\libc.a
LOAD c:/Espressif/ESP8266_SDK_210/lib\libgcc.a
LOAD c:/espressif/xtensa-lx106-elf/bin/../lib/gcc/xtensa-lx106-elf/5.1.0/../../../../xtensa-lx106-elf/lib\libhal.a
LOAD c:/Espressif/ESP8266_SDK_210/lib\libphy.a
LOAD c:/Espressif/ESP8266_SDK_210/lib\libpp.a
LOAD c:/Espressif/ESP8266_SDK_210/lib\libnet80211.a
LOAD c:/Espressif/ESP8266_SDK_210/lib\liblwip.a
LOAD c:/Espressif/ESP8266_SDK_210/lib\libwpa.a
LOAD c:/Espressif/ESP8266_SDK_210/lib\libmain.a
LOAD c:/Espressif/ESP8266_SDK_210/lib\libupgrade.a
LOAD c:/Espressif/ESP8266_SDK_210/lib\libssl.a
LOAD c:/Espressif/ESP8266_SDK_210/lib\libsmartconfig.a
LOAD c:/Espressif/ESP8266_SDK_210/lib\libcrypto.a
LOAD build/debug/app_app.a
END GROUP
                0x40000000                PROVIDE (_memmap_vecbase_reset, 0x40000000)
                0x00000110                _memmap_cacheattr_wb_base = 0x110
                0x00000110                _memmap_cacheattr_wt_base = 0x110
                0x00000220                _memmap_cacheattr_bp_base = 0x220
                0xfffff00f                _memmap_cacheattr_unused_mask = 0xfffff00f
                0x2222211f                _memmap_cacheattr_wb_trapnull = 0x2222211f
                0x2222211f                _memmap_cacheattr_wba_trapnull = 0x2222211f
                0x2222211f                _memmap_cacheattr_wbna_trapnull = 0x2222211f
                0x2222211f                _memmap_cacheattr_wt_trapnull = 0x2222211f
                0x2222222f                _memmap_cacheattr_bp_trapnull = 0x2222222f
                0xfffff11f                _memmap_cacheattr_wb_strict = 0xfffff11f
                0xfffff11f                _memmap_cacheattr_wt_strict = 0xfffff11f
                0xfffff22f                _memmap_cacheattr_bp_strict = 0xfffff22f
                0x22222112                _memmap_cacheattr_wb_allvalid = 0x22222112
                0x22222112                _memmap_cacheattr_wt_allvalid = 0x22222112
                0x22222222                _memmap_cacheattr_bp_allvalid = 0x22222222
                0x2222211f                PROVIDE (_memmap_cacheattr_reset, _memmap_cacheattr_wb_trapnull)

.dport0.rodata  0x3ff00000        0x0
                0x3ff00000                _dport0_rodata_start = ABSOLUTE (.)
 *(.dport0.rodata)
 *(.dport.rodata)
                0x3ff00000                _dport0_rodata_end = ABSOLUTE (.)

.dport0.literal
                0x3ff00000        0x0
                0x3ff00000                _dport0_literal_start = ABSOLUTE (.)
 *(.dport0.literal)
 *(.dport.literal)
                0x3ff00000                _dport0_literal_end = ABSOLUTE (.)

.dport0.data    0x3ff00000        0x0
                0x3ff00000                _dport0_data_start = ABSOLUTE (.)
 *(.dport0.data)
 *(.dport.data)
                0x3ff00000                _dport0_data_end = ABSOLUTE (.)

.data           0x3ffe8000      0x374
                0x3ffe8000                _data_start = ABSOLUTE (.)
 *(.data)
 .data          0x3ffe8000        0x0 c:/Espressif/ESP8266_SDK_210/lib\libmain.a(debug-vector.o)
 .data          0x3ffe8000        0x0 c:/Espressif/ESP8266_SDK_210/lib\libmain.a(double-vector.o)
 .data          0x3ffe8000        0x0 c:/Espressif/ESP8266_SDK_210/lib\libmain.a(kernel-vector.o)
 .data          0x3ffe8000        0x4 c:/Espressif/ESP8266_SDK_210/lib\libmain.a(nmi-vector.o)
                0x3ffe8000                _Pri_3_HandlerAddress
 .data          0x3ffe8004        0x0 c:/Espressif/ESP8266_SDK_210/lib\libmain.a(user-vector.o)
 .data          0x3ffe8004        0x0 c:/Espressif/ESP8266_SDK_210/lib\libmain.a(vector.o)
 .data          0x3ffe8004        0x1 c:/Espressif/ESP8266_SDK_210/lib\libmain.a(app_main.o)
 .data          0x3ffe8005        0x0 c:/Espressif/ESP8266_SDK_210/lib\libmain.a(ets_timer.o)
 .data          0x3ffe8005        0x0 c:/Espressif/ESP8266_SDK_210/lib\libmain.a(mem_manager.o)
 *fill*         0x3ffe8005        0x3 
 .data          0x3ffe8008        0xd c:/Espressif/ESP8266_SDK_210/lib\libmain.a(user_interface.o)
                0x3ffe800c                bin_sum_len
                0x3ffe8010                timer2_ms_flag
                0x3ffe8011                dhcps_flag
                0x3ffe8012                dhcpc_flag
                0x3ffe8014                reconnect_internal
 .data          0x3ffe8015        0x0 c:/Espressif/ESP8266_SDK_210/lib\libmain.a(spi_flash.o)
 .data          0x3ffe8015        0x0 c:/Espressif/ESP8266_SDK_210/lib\libmain.a(eagle_lib.o)
 *fill*         0x3ffe8015        0x3 
 .data          0x3ffe8018        0x1 c:/Espressif/ESP8266_SDK_210/lib\libmain.a(eagle_lwip_if.o)
                0x3ffe8018                default_hostname
 *fill*         0x3ffe8019        0x3 
 .data          0x3ffe801c        0x4 build/debug/app_app.a(user_main.o)
                0x3ffe801c                version
 .data          0x3ffe8020        0x0 build/debug/app_app.a(hw_timer.o)
 .data          0x3ffe8020        0x0 build/debug/app_app.a(easygpio.o)
 .data          0x3ffe8020        0x0 build/debug/app_app.a(stdout.o)
 .data          0x3ffe8020        0x0 c:/espressif/xtensa-lx106-elf/bin/../lib/gcc/xtensa-lx106-elf/5.1.0/../../../../xtensa-lx106-elf/lib\libhal.a(int_asm--set_intclear.o)
 .data          0x3ffe8020        0x0 c:/Espressif/ESP8266_SDK_210/lib\libphy.a(phy.o)
 .data          0x3ffe8020        0x0 c:/Espressif/ESP8266_SDK_210/lib\libphy.a(phy_chip_v6_ana.o)
 .data          0x3ffe8020       0x53 c:/Espressif/ESP8266_SDK_210/lib\libphy.a(phy_chip_v6.o)
                0x3ffe8022                tx_rf_ana_gain
                0x3ffe8050                rx_gain_swp
                0x3ffe8070                test_rffreq_txcap
 *fill*         0x3ffe8073        0x1 
 .data          0x3ffe8074        0x1 c:/Espressif/ESP8266_SDK_210/lib\libphy.a(phy_chip_v6_cal.o)
                0x3ffe8074                rfcal_bb_atten_init
 .data          0x3ffe8075        0x0 c:/Espressif/ESP8266_SDK_210/lib\libphy.a(phy_chip_v6_unused.o)
 *fill*         0x3ffe8075        0x3 
 .data          0x3ffe8078        0x4 c:/Espressif/ESP8266_SDK_210/lib\libphy.a(phy_sleep.o)
                0x3ffe8078                chip_version
 .data          0x3ffe807c        0x0 c:/Espressif/ESP8266_SDK_210/lib\libpp.a(if_hwctrl.o)
 .data          0x3ffe807c        0x0 c:/Espressif/ESP8266_SDK_210/lib\libpp.a(lmac.o)
 .data          0x3ffe807c        0x1 c:/Espressif/ESP8266_SDK_210/lib\libpp.a(pm.o)
 *fill*         0x3ffe807d        0x3 
 .data          0x3ffe8080        0x1 c:/Espressif/ESP8266_SDK_210/lib\libpp.a(pm_for_bcn_only_mode.o)
 *fill*         0x3ffe8081        0x3 
 .data          0x3ffe8084       0x1c c:/Espressif/ESP8266_SDK_210/lib\libpp.a(pp.o)
                0x3ffe8084                soft_wdt_interval
                0x3ffe8088                NoiseTimerInterval
                0x3ffe8090                sleep_start_wait_time
                0x3ffe8098                CanDoFreqCal
                0x3ffe8099                test_freq_val_first
                0x3ffe809c                tcb
 .data          0x3ffe80a0       0x40 c:/Espressif/ESP8266_SDK_210/lib\libpp.a(rate_control.o)
 .data          0x3ffe80e0      0x24c c:/Espressif/ESP8266_SDK_210/lib\libpp.a(trc.o)
 .data          0x3ffe832c        0x8 c:/Espressif/ESP8266_SDK_210/lib\libpp.a(wdev.o)
 .data          0x3ffe8334        0x0 c:/Espressif/ESP8266_SDK_210/lib\libpp.a(esf_buf.o)
 .data          0x3ffe8334        0x0 c:/Espressif/ESP8266_SDK_210/lib\libnet80211.a(ieee80211.o)
 .data          0x3ffe8334        0x0 c:/Espressif/ESP8266_SDK_210/lib\libnet80211.a(ieee80211_crypto.o)
 .data          0x3ffe8334        0x0 c:/Espressif/ESP8266_SDK_210/lib\libnet80211.a(ieee80211_ets.o)
 .data          0x3ffe8334        0x1 c:/Espressif/ESP8266_SDK_210/lib\libnet80211.a(ieee80211_hostap.o)
                0x3ffe8334                TmpSTAAPCloseAP
 .data          0x3ffe8335        0x0 c:/Espressif/ESP8266_SDK_210/lib\libnet80211.a(ieee80211_ht.o)
 .data          0x3ffe8335        0x0 c:/Espressif/ESP8266_SDK_210/lib\libnet80211.a(ieee80211_input.o)
 .data          0x3ffe8335        0x0 c:/Espressif/ESP8266_SDK_210/lib\libnet80211.a(ieee80211_mesh_quick.o)
 .data          0x3ffe8335        0x0 c:/Espressif/ESP8266_SDK_210/lib\libnet80211.a(ieee80211_output.o)
 .data          0x3ffe8335        0x0 c:/Espressif/ESP8266_SDK_210/lib\libnet80211.a(ieee80211_phy.o)
 .data          0x3ffe8335        0x0 c:/Espressif/ESP8266_SDK_210/lib\libnet80211.a(ieee80211_power.o)
 .data          0x3ffe8335        0x0 c:/Espressif/ESP8266_SDK_210/lib\libnet80211.a(ieee80211_proto.o)
 .data          0x3ffe8335        0x0 c:/Espressif/ESP8266_SDK_210/lib\libnet80211.a(ieee80211_regdomain.o)
 .data          0x3ffe8335        0x0 c:/Espressif/ESP8266_SDK_210/lib\libnet80211.a(ieee80211_rfid.o)
 *fill*         0x3ffe8335        0x3 
 .data          0x3ffe8338        0x1 c:/Espressif/ESP8266_SDK_210/lib\libnet80211.a(ieee80211_scan.o)
                0x3ffe8338                TestStaFreqCalValOK
 .data          0x3ffe8339        0x0 c:/Espressif/ESP8266_SDK_210/lib\libnet80211.a(ieee80211_sta.o)
 .data          0x3ffe8339        0x0 c:/Espressif/ESP8266_SDK_210/lib\libnet80211.a(wl_chm.o)
 *fill*         0x3ffe8339        0x3 
 .data          0x3ffe833c        0x1 c:/Espressif/ESP8266_SDK_210/lib\libnet80211.a(wl_cnx.o)
 *fill*         0x3ffe833d        0x3 
 .data          0x3ffe8340       0x1c c:/Espressif/ESP8266_SDK_210/lib\libnet80211.a(ieee80211_action.o)
 .data          0x3ffe835c        0x0 c:/Espressif/ESP8266_SDK_210/lib\libnet80211.a(ieee80211_action_vendor.o)
 .data          0x3ffe835c        0x0 c:/Espressif/ESP8266_SDK_210/lib\libnet80211.a(ieee80211_crypto_ccmp.o)
 .data          0x3ffe835c        0x0 c:/Espressif/ESP8266_SDK_210/lib\libnet80211.a(ieee80211_ie_vendor.o)
 .data          0x3ffe835c        0x4 c:/Espressif/ESP8266_SDK_210/lib\liblwip.a(dhcp.o)
 .data          0x3ffe8360        0x5 c:/Espressif/ESP8266_SDK_210/lib\liblwip.a(dhcpserver.o)
                0x3ffe8360                dhcps_lease_time
 .data          0x3ffe8365        0x0 c:/Espressif/ESP8266_SDK_210/lib\liblwip.a(dns.o)
 .data          0x3ffe8365        0x0 c:/Espressif/ESP8266_SDK_210/lib\liblwip.a(espconn_tcp.o)
 .data          0x3ffe8365        0x0 c:/Espressif/ESP8266_SDK_210/lib\liblwip.a(etharp.o)
 .data          0x3ffe8365        0x0 c:/Espressif/ESP8266_SDK_210/lib\liblwip.a(init.o)
 .data          0x3ffe8365        0x0 c:/Espressif/ESP8266_SDK_210/lib\liblwip.a(ip_addr.o)
 .data          0x3ffe8365        0x0 c:/Espressif/ESP8266_SDK_210/lib\liblwip.a(ip.o)
 *fill*         0x3ffe8365        0x3 
 .data          0x3ffe8368        0x2 c:/Espressif/ESP8266_SDK_210/lib\liblwip.a(memp.o)
                0x3ffe8368                memp_sizes_test
 .data          0x3ffe836a        0x0 c:/Espressif/ESP8266_SDK_210/lib\liblwip.a(netif.o)
 .data          0x3ffe836a        0x0 c:/Espressif/ESP8266_SDK_210/lib\liblwip.a(pbuf.o)
 .data          0x3ffe836a        0x0 c:/Espressif/ESP8266_SDK_210/lib\liblwip.a(raw.o)
 .data          0x3ffe836a        0x0 c:/Espressif/ESP8266_SDK_210/lib\liblwip.a(tcp_in.o)
 *fill*         0x3ffe836a        0x2 
 .data          0x3ffe836c        0x8 c:/Espressif/ESP8266_SDK_210/lib\liblwip.a(tcp.o)
 .data          0x3ffe8374        0x0 c:/Espressif/ESP8266_SDK_210/lib\liblwip.a(tcp_out.o)
 .data          0x3ffe8374        0x0 c:/Espressif/ESP8266_SDK_210/lib\liblwip.a(timers.o)
 .data          0x3ffe8374        0x0 c:/Espressif/ESP8266_SDK_210/lib\liblwip.a(udp.o)
 .data          0x3ffe8374        0x0 c:/Espressif/ESP8266_SDK_210/lib\liblwip.a(espconn_buf.o)
 .data          0x3ffe8374        0x0 c:/Espressif/ESP8266_SDK_210/lib\liblwip.a(espconn.o)
 .data          0x3ffe8374        0x0 c:/Espressif/ESP8266_SDK_210/lib\liblwip.a(espconn_udp.o)
 .data          0x3ffe8374        0x0 c:/Espressif/ESP8266_SDK_210/lib\liblwip.a(icmp.o)
 .data          0x3ffe8374        0x0 c:/Espressif/ESP8266_SDK_210/lib\liblwip.a(igmp.o)
 .data          0x3ffe8374        0x0 c:/Espressif/ESP8266_SDK_210/lib\liblwip.a(inet_chksum.o)
 .data          0x3ffe8374        0x0 c:/Espressif/ESP8266_SDK_210/lib\libwpa.a(ap_config.o)
 .data          0x3ffe8374        0x0 c:/Espressif/ESP8266_SDK_210/lib\libwpa.a(common.o)
 .data          0x3ffe8374        0x0 c:/Espressif/ESP8266_SDK_210/lib\libwpa.a(os_xtensa.o)
 .data          0x3ffe8374        0x0 c:/Espressif/ESP8266_SDK_210/lib\libwpa.a(wpa_auth.o)
 .data          0x3ffe8374        0x0 c:/Espressif/ESP8266_SDK_210/lib\libwpa.a(wpa_auth_ie.o)
 .data          0x3ffe8374        0x0 c:/Espressif/ESP8266_SDK_210/lib\libwpa.a(wpa.o)
 .data          0x3ffe8374        0x0 c:/Espressif/ESP8266_SDK_210/lib\libwpa.a(wpa_common.o)
 .data          0x3ffe8374        0x0 c:/Espressif/ESP8266_SDK_210/lib\libwpa.a(wpa_debug.o)
 .data          0x3ffe8374        0x0 c:/Espressif/ESP8266_SDK_210/lib\libwpa.a(wpa_ie.o)
 .data          0x3ffe8374        0x0 c:/Espressif/ESP8266_SDK_210/lib\libwpa.a(wpa_main.o)
 .data          0x3ffe8374        0x0 c:/Espressif/ESP8266_SDK_210/lib\libwpa.a(wpas_glue.o)
 .data          0x3ffe8374        0x0 c:/Espressif/ESP8266_SDK_210/lib\libcrypto.a(aes-wrap.o)
 .data          0x3ffe8374        0x0 c:/Espressif/ESP8266_SDK_210/lib\libcrypto.a(aes-internal-enc.o)
 .data          0x3ffe8374        0x0 c:/Espressif/ESP8266_SDK_210/lib\libcrypto.a(aes-internal.o)
 .data          0x3ffe8374        0x0 c:/Espressif/ESP8266_SDK_210/lib\libc.a(lib_a-memchr.o)
 .data          0x3ffe8374        0x0 c:/Espressif/ESP8266_SDK_210/lib\libgcc.a(_modsi3.o)
 .data          0x3ffe8374        0x0 c:/Espressif/ESP8266_SDK_210/lib\libgcc.a(_ashrdi3.o)
 .data          0x3ffe8374        0x0 c:/Espressif/ESP8266_SDK_210/lib\libgcc.a(_divsf3.o)
 .data          0x3ffe8374        0x0 c:/Espressif/ESP8266_SDK_210/lib\libgcc.a(_fixsfsi.o)
 .data          0x3ffe8374        0x0 c:/Espressif/ESP8266_SDK_210/lib\libnet80211.a(ieee80211_crypto_tkip.o)
 .data          0x3ffe8374        0x0 c:/Espressif/ESP8266_SDK_210/lib\libnet80211.a(ieee80211_crypto_wep.o)
 *(.data.*)
 *(.gnu.linkonce.d.*)
 *(.data1)
 *(.sdata)
 *(.sdata.*)
 *(.gnu.linkonce.s.*)
 *(.sdata2)
 *(.sdata2.*)
 *(.gnu.linkonce.s2.*)
 *(.jcr)
                0x3ffe8374                _data_end = ABSOLUTE (.)

.rodata         0x3ffe8380      0x2bc
                0x3ffe8380                _rodata_start = ABSOLUTE (.)
 *(.sdk.version)
 .sdk.version   0x3ffe8380        0xf c:/Espressif/ESP8266_SDK_210/lib\libmain.a(app_main.o)
                0x3ffe8380                SDK_VERSION
 *(.rodata)
 *fill*         0x3ffe838f        0x1 
 .rodata        0x3ffe8390       0x1c build/debug/app_app.a(user_main.o)
 .rodata        0x3ffe83ac       0x40 build/debug/app_app.a(easygpio.o)
 .rodata        0x3ffe83ec        0x8 c:/Espressif/ESP8266_SDK_210/lib\libphy.a(phy_chip_v6_ana.o)
 .rodata        0x3ffe83f4        0x8 c:/Espressif/ESP8266_SDK_210/lib\libphy.a(phy_chip_v6.o)
 .rodata        0x3ffe83fc        0x8 c:/Espressif/ESP8266_SDK_210/lib\libpp.a(pp.o)
 .rodata        0x3ffe8404        0x8 c:/Espressif/ESP8266_SDK_210/lib\libnet80211.a(ieee80211_hostap.o)
 .rodata        0x3ffe840c        0x9 c:/Espressif/ESP8266_SDK_210/lib\libnet80211.a(ieee80211_output.o)
 *fill*         0x3ffe8415        0x3 
 .rodata        0x3ffe8418        0x6 c:/Espressif/ESP8266_SDK_210/lib\liblwip.a(etharp.o)
                0x3ffe8418                ethbroadcast
 *fill*         0x3ffe841e        0x2 
 .rodata        0x3ffe8420       0x74 c:/Espressif/ESP8266_SDK_210/lib\liblwip.a(espconn_buf.o)
 *(.rodata.*)
 .rodata.str1.4
                0x3ffe8494        0xc c:/Espressif/ESP8266_SDK_210/lib\libmain.a(app_main.o)
 .rodata.str1.4
                0x3ffe84a0        0x4 c:/Espressif/ESP8266_SDK_210/lib\libmain.a(ets_timer.o)
                                  0xc (size before relaxing)
 .rodata.str1.4
                0x3ffe84a4       0x1a c:/Espressif/ESP8266_SDK_210/lib\libmain.a(mem_manager.o)
 *fill*         0x3ffe84be        0x2 
 .rodata.str1.4
                0x3ffe84c0       0x68 build/debug/app_app.a(user_main.o)
 .rodata.str1.4
                0x3ffe8528       0xd8 build/debug/app_app.a(easygpio.o)
 .rodata.str1.4
                0x3ffe8600        0x4 c:/Espressif/ESP8266_SDK_210/lib\libpp.a(lmac.o)
                                  0xc (size before relaxing)
 .rodata.str1.4
                0x3ffe8604        0x3 c:/Espressif/ESP8266_SDK_210/lib\libpp.a(pm.o)
                                  0xb (size before relaxing)
 *fill*         0x3ffe8607        0x1 
 .rodata.str1.4
                0x3ffe8608        0x4 c:/Espressif/ESP8266_SDK_210/lib\libpp.a(pm_for_bcn_only_mode.o)
                                  0xc (size before relaxing)
 .rodata.str1.4
                0x3ffe860c        0x8 c:/Espressif/ESP8266_SDK_210/lib\libpp.a(pp.o)
                                 0x10 (size before relaxing)
 .rodata.str1.4
                0x3ffe8614        0x4 c:/Espressif/ESP8266_SDK_210/lib\libpp.a(wdev.o)
                                  0xc (size before relaxing)
 .rodata.str1.4
                0x3ffe8618        0x3 c:/Espressif/ESP8266_SDK_210/lib\libnet80211.a(ieee80211_hostap.o)
                                  0x8 (size before relaxing)
 *fill*         0x3ffe861b        0x1 
 .rodata.str1.4
                0x3ffe861c        0x7 c:/Espressif/ESP8266_SDK_210/lib\libnet80211.a(ieee80211_mesh_quick.o)
 .rodata.str1.4
                0x00000000        0x4 c:/Espressif/ESP8266_SDK_210/lib\libnet80211.a(ieee80211_sta.o)
 .rodata.str1.4
                0x00000000        0x4 c:/Espressif/ESP8266_SDK_210/lib\libnet80211.a(ieee80211_action_vendor.o)
 .rodata.str1.4
                0x00000000        0x4 c:/Espressif/ESP8266_SDK_210/lib\libnet80211.a(ieee80211_ie_vendor.o)
 .rodata.str1.4
                0x00000000        0x7 c:/Espressif/ESP8266_SDK_210/lib\liblwip.a(espconn_tcp.o)
                                  0x1 (size before relaxing)
 *fill*         0x3ffe8623        0x1 
 .rodata.str1.4
                0x3ffe8624       0x10 c:/Espressif/ESP8266_SDK_210/lib\libwpa.a(wpa_debug.o)
                                  0xd (size before relaxing)
 *(.gnu.linkonce.r.*)
 *(.rodata1)
                0x3ffe8634                __XT_EXCEPTION_TABLE__ = ABSOLUTE (.)
 *(.xt_except_table)
 *(.gcc_except_table)
 *(.gnu.linkonce.e.*)
 *(.gnu.version_r)
 *(.eh_frame)
 *crtbegin.o(.ctors)
 *(EXCLUDE_FILE(*crtend.o) .ctors)
 *(SORT(.ctors.*))
 *(.ctors)
 *crtbegin.o(.dtors)
 *(EXCLUDE_FILE(*crtend.o) .dtors)
 *(SORT(.dtors.*))
 *(.dtors)
                0x3ffe8634                __XT_EXCEPTION_DESCS__ = ABSOLUTE (.)
 *(.xt_except_desc)
 *(.gnu.linkonce.h.*)
                0x3ffe8634                __XT_EXCEPTION_DESCS_END__ = ABSOLUTE (.)
 *(.xt_except_desc_end)
 *(.dynamic)
 *(.gnu.version_d)
                0x3ffe8634                . = ALIGN (0x4)
                0x3ffe8634                _bss_table_start = ABSOLUTE (.)
                0x3ffe8634        0x4 LONG 0x3ffe8640 _bss_start
                0x3ffe8638        0x4 LONG 0x3ffee958 _bss_end
                0x3ffe863c                _bss_table_end = ABSOLUTE (.)
                0x3ffe863c                _rodata_end = ABSOLUTE (.)

.bss            0x3ffe8640     0x6318
                0x3ffe8640                . = ALIGN (0x8)
                0x3ffe8640                _bss_start = ABSOLUTE (.)
 *(.dynsbss)
 *(.sbss)
 *(.sbss.*)
 *(.gnu.linkonce.sb.*)
 *(.scommon)
 *(.sbss2)
 *(.sbss2.*)
 *(.gnu.linkonce.sb2.*)
 *(.dynbss)
 *(.bss)
 .bss           0x3ffe8640        0x0 c:/Espressif/ESP8266_SDK_210/lib\libmain.a(debug-vector.o)
 .bss           0x3ffe8640        0x0 c:/Espressif/ESP8266_SDK_210/lib\libmain.a(double-vector.o)
 .bss           0x3ffe8640        0x0 c:/Espressif/ESP8266_SDK_210/lib\libmain.a(kernel-vector.o)
 .bss           0x3ffe8640      0x1c0 c:/Espressif/ESP8266_SDK_210/lib\libmain.a(nmi-vector.o)
 .bss           0x3ffe8800        0x0 c:/Espressif/ESP8266_SDK_210/lib\libmain.a(user-vector.o)
 .bss           0x3ffe8800        0x0 c:/Espressif/ESP8266_SDK_210/lib\libmain.a(vector.o)
 .bss           0x3ffe8800       0x45 c:/Espressif/ESP8266_SDK_210/lib\libmain.a(app_main.o)
                0x3ffe8804                info
                0x3ffe8828                freq_trace_enable
                0x3ffe882a                lwip_timer_interval
                0x3ffe882c                check_timeouts_timer
                0x3ffe8840                rf_cal_sec
                0x3ffe8844                user_init_flag
 *fill*         0x3ffe8845        0xb 
 .bss           0x3ffe8850       0x30 c:/Espressif/ESP8266_SDK_210/lib\libmain.a(ets_timer.o)
                0x3ffe8850                dbg_timer_flag
                0x3ffe8854                timer_list
                0x3ffe8858                debug_timer
                0x3ffe885c                debug_timerfn
 .bss           0x3ffe8880       0x3c c:/Espressif/ESP8266_SDK_210/lib\libmain.a(mem_manager.o)
 *fill*         0x3ffe88bc        0x4 
 .bss           0x3ffe88c0      0x252 c:/Espressif/ESP8266_SDK_210/lib\libmain.a(user_interface.o)
                0x3ffe89b6                protect_flag
                0x3ffe89c0                deep_sleep_flag
                0x3ffe89c1                cpu_overclock
                0x3ffe89c4                event_cb
                0x3ffe89c8                status_led_output_level
                0x3ffe89cc                done_cb
                0x3ffe89d0                rst_if
                0x3ffe89ec                default_interface
                0x3ffe89ed                OpmodChgIsOnGoing
                0x3ffe89f0                promiscuous_cb
                0x3ffe8a10                event_TaskQueue
 *fill*         0x3ffe8b12        0x2 
 .bss           0x3ffe8b14        0x4 c:/Espressif/ESP8266_SDK_210/lib\libmain.a(spi_flash.o)
                0x3ffe8b14                flash_read
 .bss           0x3ffe8b18        0x0 c:/Espressif/ESP8266_SDK_210/lib\libmain.a(eagle_lib.o)
 .bss           0x3ffe8b18        0xc c:/Espressif/ESP8266_SDK_210/lib\libmain.a(eagle_lwip_if.o)
                0x3ffe8b18                hostname
 .bss           0x3ffe8b24       0x2c build/debug/app_app.a(user_main.o)
                0x3ffe8b24                wordBitCount
 .bss           0x3ffe8b50        0x4 build/debug/app_app.a(hw_timer.o)
 .bss           0x3ffe8b54        0x0 build/debug/app_app.a(easygpio.o)
 .bss           0x3ffe8b54        0x0 build/debug/app_app.a(stdout.o)
 .bss           0x3ffe8b54        0x0 c:/espressif/xtensa-lx106-elf/bin/../lib/gcc/xtensa-lx106-elf/5.1.0/../../../../xtensa-lx106-elf/lib\libhal.a(int_asm--set_intclear.o)
 .bss           0x3ffe8b54        0x4 c:/Espressif/ESP8266_SDK_210/lib\libphy.a(phy.o)
 .bss           0x3ffe8b58        0x2 c:/Espressif/ESP8266_SDK_210/lib\libphy.a(phy_chip_v6_ana.o)
                0x3ffe8b58                tout_dis_txpwr_track
                0x3ffe8b59                sleep_mode_flag
 *fill*         0x3ffe8b5a        0x6 
 .bss           0x3ffe8b60      0x153 c:/Espressif/ESP8266_SDK_210/lib\libphy.a(phy_chip_v6.o)
                0x3ffe8b60                g_phyFuns
                0x3ffe8b64                rxiq_compute_num
                0x3ffe8b68                rx_table_renew_en
                0x3ffe8b6c                check_result
                0x3ffe8b70                chip6_sleep_params
                0x3ffe8c04                chip6_phy_init_ctrl
                0x3ffe8c78                phy_freq_offset
                0x3ffe8c7a                do_pwctrl_flag
                0x3ffe8c7b                txbk_dpdby_flag
                0x3ffe8c7d                sw_scan_mode
                0x3ffe8c7e                rxmax_ext_level
                0x3ffe8c80                phy_rx_gain_dc_table
                0x3ffe8c84                tx_data1
                0x3ffe8c88                tx_data2
                0x3ffe8c8c                tx_data3
                0x3ffe8c90                tx_data4
                0x3ffe8c94                periodic_cal_flag
                0x3ffe8c95                bbpll_cal_flag
                0x3ffe8c96                phy_in_most_power
                0x3ffe8c97                init_rf_no_cal
                0x3ffe8c98                test_print_time
                0x3ffe8c9c                phy_in_vdd33_offset
                0x3ffe8c9d                phy_set_most_tpw_disbg
                0x3ffe8c9e                phy_set_most_tpw_index
                0x3ffe8ca0                adc_rand_noise
                0x3ffe8ca4                phy_rx_gain_dc_flag
                0x3ffe8ca5                dpd_bypass_original
                0x3ffe8ca6                phy_txpwr_diff_flash
                0x3ffe8ca8                noise_array
 *fill*         0x3ffe8cb3        0x1 
 .bss           0x3ffe8cb4        0x9 c:/Espressif/ESP8266_SDK_210/lib\libphy.a(phy_chip_v6_cal.o)
                0x3ffe8cb4                phy_tx_power_out
                0x3ffe8cb6                phy_tx_pwr_error
                0x3ffe8cb8                tx_pwctrl_track_num
                0x3ffe8cb9                rxiq_cover_fail_num
                0x3ffe8cba                phy_meas_freq_offset
                0x3ffe8cbc                tx_pwctrl_pk_num
 .bss           0x3ffe8cbd        0x0 c:/Espressif/ESP8266_SDK_210/lib\libphy.a(phy_chip_v6_unused.o)
 *fill*         0x3ffe8cbd        0x3 
 .bss           0x3ffe8cc0        0x7 c:/Espressif/ESP8266_SDK_210/lib\libphy.a(phy_sleep.o)
                0x3ffe8cc0                periodic_cal_sat
                0x3ffe8cc2                lslp_mem_opt_8266
                0x3ffe8cc4                software_slp_reject
                0x3ffe8cc5                SDIO_slp_reject
                0x3ffe8cc6                hardware_reject
 *fill*         0x3ffe8cc7        0x9 
 .bss           0x3ffe8cd0       0x40 c:/Espressif/ESP8266_SDK_210/lib\libpp.a(if_hwctrl.o)
                0x3ffe8cd0                interface_mask
                0x3ffe8cf0                if_ctrl
 .bss           0x3ffe8d10      0x150 c:/Espressif/ESP8266_SDK_210/lib\libpp.a(lmac.o)
                0x3ffe8d14                lmacConfMib
                0x3ffe8d38                our_tx_eb
 .bss           0x3ffe8e60      0x12a c:/Espressif/ESP8266_SDK_210/lib\libpp.a(pm.o)
                0x3ffe8e60                pmc
 *fill*         0x3ffe8f8a        0x2 
 .bss           0x3ffe8f8c       0x38 c:/Espressif/ESP8266_SDK_210/lib\libpp.a(pm_for_bcn_only_mode.o)
 *fill*         0x3ffe8fc4        0xc 
 .bss           0x3ffe8fd0      0x342 c:/Espressif/ESP8266_SDK_210/lib\libpp.a(pp.o)
                0x3ffe8fe8                pend_flag_noise_check
                0x3ffe8ff0                pend_flag_periodic_cal
                0x3ffe9008                idle_timer_reopen_flag
                0x3ffe900a                dbg_stop_sw_wdt
                0x3ffe900b                dbg_stop_hw_wdt
                0x3ffe900d                total_buffed_eb_num
                0x3ffe9010                freq_change_sta_scan
                0x3ffe9024                test_freq_val_force_flag
                0x3ffe9026                TestStaFreqCalValFilter
                0x3ffe9028                PktsNumInOneChk
                0x3ffe902c                AllFreqOffsetInOneChk
                0x3ffe9030                AvgFreqOffsetInOneChk
                0x3ffe9032                HighestFreqOffsetInOneChk
                0x3ffe9034                LowestFreqOffsetInOneChk
                0x3ffe9036                pktnum_sta_freqcal
                0x3ffe9038                all_freqoffset_sta_freqcal
                0x3ffe903a                avg_freqoffset_sta_freqcal
                0x3ffe903c                DefFreqCalTimer
                0x3ffe9050                PktNumInOneChk
                0x3ffe91d0                buffed_eb_arr
 *fill*         0x3ffe9312        0xe 
 .bss           0x3ffe9320      0x100 c:/Espressif/ESP8266_SDK_210/lib\libpp.a(rate_control.o)
 .bss           0x3ffe9420      0x46c c:/Espressif/ESP8266_SDK_210/lib\libpp.a(trc.o)
 *fill*         0x3ffe988c        0x4 
 .bss           0x3ffe9890     0x2f88 c:/Espressif/ESP8266_SDK_210/lib\libpp.a(wdev.o)
                0x3ffe9890                wDevCtrl
                0x3ffe9a38                WdevTimOffSet
 *fill*         0x3ffec818        0x8 
 .bss           0x3ffec820      0xaa4 c:/Espressif/ESP8266_SDK_210/lib\libpp.a(esf_buf.o)
 .bss           0x3ffed2c4      0x6b0 c:/Espressif/ESP8266_SDK_210/lib\libnet80211.a(ieee80211.o)
                0x3ffed2c4                g_ic
 .bss           0x3ffed974        0x0 c:/Espressif/ESP8266_SDK_210/lib\libnet80211.a(ieee80211_crypto.o)
 .bss           0x3ffed974        0x0 c:/Espressif/ESP8266_SDK_210/lib\libnet80211.a(ieee80211_ets.o)
 *fill*         0x3ffed974        0x4 
 .bss           0x3ffed978       0x55 c:/Espressif/ESP8266_SDK_210/lib\libnet80211.a(ieee80211_hostap.o)
                0x3ffed978                BcnEb_update
                0x3ffed985                BcnWithMcastSendStart
                0x3ffed986                BcnWithMcastSendCnt
                0x3ffed9a0                PendFreeBcnEb
                0x3ffed9a2                ap_freq_force_to_scan
                0x3ffed9a4                ApFreqCalTimer
                0x3ffed9b8                APRecvBcnStartTick
 .bss           0x3ffed9cd        0x0 c:/Espressif/ESP8266_SDK_210/lib\libnet80211.a(ieee80211_ht.o)
 .bss           0x3ffed9cd        0x0 c:/Espressif/ESP8266_SDK_210/lib\libnet80211.a(ieee80211_input.o)
 .bss           0x3ffed9cd        0x0 c:/Espressif/ESP8266_SDK_210/lib\libnet80211.a(ieee80211_mesh_quick.o)
 .bss           0x3ffed9cd        0x0 c:/Espressif/ESP8266_SDK_210/lib\libnet80211.a(ieee80211_output.o)
 .bss           0x3ffed9cd        0x0 c:/Espressif/ESP8266_SDK_210/lib\libnet80211.a(ieee80211_phy.o)
 .bss           0x3ffed9cd        0x0 c:/Espressif/ESP8266_SDK_210/lib\libnet80211.a(ieee80211_power.o)
 .bss           0x3ffed9cd        0x0 c:/Espressif/ESP8266_SDK_210/lib\libnet80211.a(ieee80211_proto.o)
 .bss           0x3ffed9cd        0x0 c:/Espressif/ESP8266_SDK_210/lib\libnet80211.a(ieee80211_regdomain.o)
 .bss           0x3ffed9cd        0x0 c:/Espressif/ESP8266_SDK_210/lib\libnet80211.a(ieee80211_rfid.o)
 *fill*         0x3ffed9cd        0x3 
 .bss           0x3ffed9d0       0xcc c:/Espressif/ESP8266_SDK_210/lib\libnet80211.a(ieee80211_scan.o)
                0x3ffed9d0                gScanStruct
                0x3ffeda7c                freq_change_check_softap_link_enable
                0x3ffeda7d                FreqCalCntForScan
                0x3ffeda7e                TestStaFreqCalValInput
                0x3ffeda80                TestStaFreqCalValDev
                0x3ffeda82                connect_scan_flag
                0x3ffeda83                auth_type
                0x3ffeda84                scannum
 *fill*         0x3ffeda9c        0x4 
 .bss           0x3ffedaa0       0x28 c:/Espressif/ESP8266_SDK_210/lib\libnet80211.a(ieee80211_sta.o)
 .bss           0x3ffedac8       0x3c c:/Espressif/ESP8266_SDK_210/lib\libnet80211.a(wl_chm.o)
 *fill*         0x3ffedb04        0x4 
 .bss           0x3ffedb08      0x394 c:/Espressif/ESP8266_SDK_210/lib\libnet80211.a(wl_cnx.o)
                0x3ffede68                sta_con_timer
                0x3ffede7c                backup_ni_connect_status
                0x3ffede80                g_cnx_probe_rc_list_cb
                0x3ffede84                reconnect_flag
                0x3ffede85                no_ap_found_index
 .bss           0x3ffede9c        0x0 c:/Espressif/ESP8266_SDK_210/lib\libnet80211.a(ieee80211_action.o)
 *fill*         0x3ffede9c        0x4 
 .bss           0x3ffedea0       0x18 c:/Espressif/ESP8266_SDK_210/lib\libnet80211.a(ieee80211_action_vendor.o)
 .bss           0x3ffedeb8        0x0 c:/Espressif/ESP8266_SDK_210/lib\libnet80211.a(ieee80211_crypto_ccmp.o)
 .bss           0x3ffedeb8        0x0 c:/Espressif/ESP8266_SDK_210/lib\libnet80211.a(ieee80211_ie_vendor.o)
 *fill*         0x3ffedeb8        0x8 
 .bss           0x3ffedec0       0x48 c:/Espressif/ESP8266_SDK_210/lib\liblwip.a(dhcp.o)
                0x3ffedec0                manual_set_flag
                0x3ffeded0                dhcp_rx_options_given
                0x3ffedee0                dhcp_rx_options_val
 .bss           0x3ffedf08       0x24 c:/Espressif/ESP8266_SDK_210/lib\liblwip.a(dhcpserver.o)
 *fill*         0x3ffedf2c        0x4 
 .bss           0x3ffedf30      0x480 c:/Espressif/ESP8266_SDK_210/lib\liblwip.a(dns.o)
 .bss           0x3ffee3b0       0x78 c:/Espressif/ESP8266_SDK_210/lib\liblwip.a(espconn_tcp.o)
                0x3ffee3b0                espconn_TaskQueue
 *fill*         0x3ffee428        0x8 
 .bss           0x3ffee430      0x100 c:/Espressif/ESP8266_SDK_210/lib\liblwip.a(etharp.o)
                0x3ffee434                ethzero
 .bss           0x3ffee530        0x0 c:/Espressif/ESP8266_SDK_210/lib\liblwip.a(init.o)
 .bss           0x3ffee530       0x10 c:/Espressif/ESP8266_SDK_210/lib\liblwip.a(ip_addr.o)
 .bss           0x3ffee540       0x12 c:/Espressif/ESP8266_SDK_210/lib\liblwip.a(ip.o)
                0x3ffee540                current_iphdr_dest
                0x3ffee544                current_iphdr_src
                0x3ffee548                current_netif
                0x3ffee54c                current_header
 .bss           0x3ffee552        0x0 c:/Espressif/ESP8266_SDK_210/lib\liblwip.a(memp.o)
 *fill*         0x3ffee552        0x2 
 .bss           0x3ffee554        0x9 c:/Espressif/ESP8266_SDK_210/lib\liblwip.a(netif.o)
                0x3ffee554                netif_list
                0x3ffee558                netif_default
 .bss           0x3ffee55d        0x0 c:/Espressif/ESP8266_SDK_210/lib\liblwip.a(pbuf.o)
 *fill*         0x3ffee55d        0x3 
 .bss           0x3ffee560        0x4 c:/Espressif/ESP8266_SDK_210/lib\liblwip.a(raw.o)
 .bss           0x3ffee564       0x34 c:/Espressif/ESP8266_SDK_210/lib\liblwip.a(tcp_in.o)
                0x3ffee594                tcp_input_pcb
 .bss           0x3ffee598       0x1c c:/Espressif/ESP8266_SDK_210/lib\liblwip.a(tcp.o)
                0x3ffee59c                tcp_active_pcbs
                0x3ffee5a0                tcp_tmp_pcb
                0x3ffee5a4                tcp_tw_pcbs
                0x3ffee5a8                tcp_bound_pcbs
                0x3ffee5ac                tcp_listen_pcbs
                0x3ffee5b0                tcp_ticks
 .bss           0x3ffee5b4        0x0 c:/Espressif/ESP8266_SDK_210/lib\liblwip.a(tcp_out.o)
 .bss           0x3ffee5b4        0xc c:/Espressif/ESP8266_SDK_210/lib\liblwip.a(timers.o)
 .bss           0x3ffee5c0        0x4 c:/Espressif/ESP8266_SDK_210/lib\liblwip.a(udp.o)
                0x3ffee5c0                udp_pcbs
 .bss           0x3ffee5c4        0x0 c:/Espressif/ESP8266_SDK_210/lib\liblwip.a(espconn_buf.o)
 *fill*         0x3ffee5c4        0xc 
 .bss           0x3ffee5d0      0x104 c:/Espressif/ESP8266_SDK_210/lib\liblwip.a(espconn.o)
                0x3ffee5d0                plink_active
                0x3ffee5d4                pserver_list
                0x3ffee5e0                premot
                0x3ffee6a0                pktinfo
 .bss           0x3ffee6d4        0x0 c:/Espressif/ESP8266_SDK_210/lib\liblwip.a(espconn_udp.o)
 .bss           0x3ffee6d4        0x0 c:/Espressif/ESP8266_SDK_210/lib\liblwip.a(icmp.o)
 .bss           0x3ffee6d4        0xc c:/Espressif/ESP8266_SDK_210/lib\liblwip.a(igmp.o)
 .bss           0x3ffee6e0        0x0 c:/Espressif/ESP8266_SDK_210/lib\liblwip.a(inet_chksum.o)
 .bss           0x3ffee6e0        0x0 c:/Espressif/ESP8266_SDK_210/lib\libwpa.a(ap_config.o)
 .bss           0x3ffee6e0        0x0 c:/Espressif/ESP8266_SDK_210/lib\libwpa.a(common.o)
 .bss           0x3ffee6e0        0x0 c:/Espressif/ESP8266_SDK_210/lib\libwpa.a(os_xtensa.o)
 .bss           0x3ffee6e0        0x0 c:/Espressif/ESP8266_SDK_210/lib\libwpa.a(wpa_auth.o)
 .bss           0x3ffee6e0        0x0 c:/Espressif/ESP8266_SDK_210/lib\libwpa.a(wpa_auth_ie.o)
 .bss           0x3ffee6e0      0x26a c:/Espressif/ESP8266_SDK_210/lib\libwpa.a(wpa.o)
 .bss           0x3ffee94a        0x0 c:/Espressif/ESP8266_SDK_210/lib\libwpa.a(wpa_common.o)
 .bss           0x3ffee94a        0x0 c:/Espressif/ESP8266_SDK_210/lib\libwpa.a(wpa_debug.o)
 .bss           0x3ffee94a        0x0 c:/Espressif/ESP8266_SDK_210/lib\libwpa.a(wpa_ie.o)
 .bss           0x3ffee94a        0x0 c:/Espressif/ESP8266_SDK_210/lib\libwpa.a(wpa_main.o)
 .bss           0x3ffee94a        0x0 c:/Espressif/ESP8266_SDK_210/lib\libwpa.a(wpas_glue.o)
 .bss           0x3ffee94a        0x0 c:/Espressif/ESP8266_SDK_210/lib\libcrypto.a(aes-wrap.o)
 .bss           0x3ffee94a        0x0 c:/Espressif/ESP8266_SDK_210/lib\libcrypto.a(aes-internal-enc.o)
 .bss           0x3ffee94a        0x0 c:/Espressif/ESP8266_SDK_210/lib\libcrypto.a(aes-internal.o)
 .bss           0x3ffee94a        0x0 c:/Espressif/ESP8266_SDK_210/lib\libc.a(lib_a-memchr.o)
 .bss           0x3ffee94a        0x0 c:/Espressif/ESP8266_SDK_210/lib\libgcc.a(_modsi3.o)
 .bss           0x3ffee94a        0x0 c:/Espressif/ESP8266_SDK_210/lib\libgcc.a(_ashrdi3.o)
 .bss           0x3ffee94a        0x0 c:/Espressif/ESP8266_SDK_210/lib\libgcc.a(_divsf3.o)
 .bss           0x3ffee94a        0x0 c:/Espressif/ESP8266_SDK_210/lib\libgcc.a(_fixsfsi.o)
 *fill*         0x3ffee94a        0x6 
 .bss           0x3ffee950        0x8 c:/Espressif/ESP8266_SDK_210/lib\libnet80211.a(ieee80211_crypto_tkip.o)
 .bss           0x3ffee958        0x0 c:/Espressif/ESP8266_SDK_210/lib\libnet80211.a(ieee80211_crypto_wep.o)
 *(.bss.*)
 *(.gnu.linkonce.b.*)
 *(COMMON)
                0x3ffee958                . = ALIGN (0x8)
                0x3ffee958                _bss_end = ABSOLUTE (.)
                0x3ffee958                _heap_start = ABSOLUTE (.)

.irom0.text     0x40210000    0x31b14
                0x40210000                _irom0_text_start = ABSOLUTE (.)
 *libat.a:(.literal.* .text.*)
 *libcrypto.a:(.literal.* .text.*)
 .text.aes_wrap
                0x40210000       0xe7 c:/Espressif/ESP8266_SDK_210/lib\libcrypto.a(aes-wrap.o)
                                0x103 (size before relaxing)
                0x40210008                aes_wrap
 *fill*         0x402100e7        0x1 
 .text.rijndaelEncrypt
                0x402100e8      0x426 c:/Espressif/ESP8266_SDK_210/lib\libcrypto.a(aes-internal-enc.o)
                0x402100f8                rijndaelEncrypt
 *fill*         0x4021050e        0x2 
 .text.aes_encrypt_init
                0x40210510       0x5f c:/Espressif/ESP8266_SDK_210/lib\libcrypto.a(aes-internal-enc.o)
                                 0x67 (size before relaxing)
                0x4021051c                aes_encrypt_init
 *fill*         0x4021056f        0x1 
 .text.aes_encrypt
                0x40210570       0x19 c:/Espressif/ESP8266_SDK_210/lib\libcrypto.a(aes-internal-enc.o)
                                 0x1d (size before relaxing)
                0x40210570                aes_encrypt
 *fill*         0x40210589        0x3 
 .text.aes_encrypt_deinit
                0x4021058c       0x2b c:/Espressif/ESP8266_SDK_210/lib\libcrypto.a(aes-internal-enc.o)
                                 0x37 (size before relaxing)
                0x4021058c                aes_encrypt_deinit
 *fill*         0x402105b7        0x1 
 .text.rijndaelKeySetupEnc
                0x402105b8      0x304 c:/Espressif/ESP8266_SDK_210/lib\libcrypto.a(aes-internal.o)
                                0x31c (size before relaxing)
                0x402105bc                rijndaelKeySetupEnc
 .literal.aes_wrap
                0x402108bc        0x0 c:/Espressif/ESP8266_SDK_210/lib\libcrypto.a(aes-wrap.o)
 *fill*         0x402108bc        0x0 
 .literal.rijndaelEncrypt
                0x402108bc        0x0 c:/Espressif/ESP8266_SDK_210/lib\libcrypto.a(aes-internal-enc.o)
 .literal.aes_encrypt_init
                0x402108bc        0x0 c:/Espressif/ESP8266_SDK_210/lib\libcrypto.a(aes-internal-enc.o)
 .literal.aes_encrypt
                0x402108bc        0x0 c:/Espressif/ESP8266_SDK_210/lib\libcrypto.a(aes-internal-enc.o)
 .literal.aes_encrypt_deinit
                0x402108bc        0x0 c:/Espressif/ESP8266_SDK_210/lib\libcrypto.a(aes-internal-enc.o)
 *fill*         0x402108bc        0x0 
 *fill*         0x402108bc        0x0 
 *fill*         0x402108bc        0x0 
 *fill*         0x402108bc        0x0 
 .literal.rijndaelKeySetupEnc
                0x402108bc        0x0 c:/Espressif/ESP8266_SDK_210/lib\libcrypto.a(aes-internal.o)
 *libespnow.a:(.literal.* .text.*)
 *libjson.a:(.literal.* .text.*)
 *liblwip.a:(.literal.* .text.*)
 .text.dhcp_handle_nak
                0x402108bc       0x43 c:/Espressif/ESP8266_SDK_210/lib\liblwip.a(dhcp.o)
                                 0x73 (size before relaxing)
 *fill*         0x402108ff        0x1 
 .text.dhcp_check
                0x40210900       0x38 c:/Espressif/ESP8266_SDK_210/lib\liblwip.a(dhcp.o)
                                 0x44 (size before relaxing)
 .text.dhcp_handle_offer
                0x40210938       0x65 c:/Espressif/ESP8266_SDK_210/lib\liblwip.a(dhcp.o)
                                 0x6d (size before relaxing)
 *fill*         0x4021099d        0x3 
 .text.dhcp_select
                0x402109a0      0x1a2 c:/Espressif/ESP8266_SDK_210/lib\liblwip.a(dhcp.o)
                                0x262 (size before relaxing)
 *fill*         0x40210b42        0x2 
 .text.dhcp_coarse_tmr
                0x40210b44       0x51 c:/Espressif/ESP8266_SDK_210/lib\liblwip.a(dhcp.o)
                                 0x59 (size before relaxing)
                0x40210b48                dhcp_coarse_tmr
 *fill*         0x40210b95        0x3 
 .text.dhcp_fine_tmr
                0x40210b98       0x79 c:/Espressif/ESP8266_SDK_210/lib\liblwip.a(dhcp.o)
                                 0x81 (size before relaxing)
                0x40210ba4                dhcp_fine_tmr
 *fill*         0x40210c11        0x3 
 .text.dhcp_timeout
                0x40210c14       0xbc c:/Espressif/ESP8266_SDK_210/lib\liblwip.a(dhcp.o)
                                 0xf7 (size before relaxing)
 *fill*         0x40210cd0        0x0 
 .text.dhcp_t1_timeout
                0x40210cd0       0x1d c:/Espressif/ESP8266_SDK_210/lib\liblwip.a(dhcp.o)
                                 0x24 (size before relaxing)
 *fill*         0x40210ced        0x3 
 .text.dhcp_t2_timeout
                0x40210cf0       0x1d c:/Espressif/ESP8266_SDK_210/lib\liblwip.a(dhcp.o)
                                 0x24 (size before relaxing)
 *fill*         0x40210d0d        0x3 
 .text.dhcp_handle_ack
                0x40210d10      0x112 c:/Espressif/ESP8266_SDK_210/lib\liblwip.a(dhcp.o)
                                0x122 (size before relaxing)
 *fill*         0x40210e22        0x2 
 .text.dhcp_set_struct
                0x40210e24       0x24 c:/Espressif/ESP8266_SDK_210/lib\liblwip.a(dhcp.o)
                                 0x28 (size before relaxing)
                0x40210e24                dhcp_set_struct
 .text.dhcp_cleanup
                0x40210e48       0x2a c:/Espressif/ESP8266_SDK_210/lib\liblwip.a(dhcp.o)
                                 0x2e (size before relaxing)
                0x40210e4c                dhcp_cleanup
 *fill*         0x40210e72        0x2 
 .text.dhcp_start
                0x40210e74       0xb8 c:/Espressif/ESP8266_SDK_210/lib\liblwip.a(dhcp.o)
                                 0xfc (size before relaxing)
                0x40210e78                dhcp_start
 .text.dhcp_inform
                0x40210f2c       0xa8 c:/Espressif/ESP8266_SDK_210/lib\liblwip.a(dhcp.o)
                                 0xfc (size before relaxing)
                0x40210f2c                dhcp_inform
 .text.dhcp_network_changed
                0x40210fd4       0x49 c:/Espressif/ESP8266_SDK_210/lib\liblwip.a(dhcp.o)
                                 0x59 (size before relaxing)
                0x40210fd4                dhcp_network_changed
 *fill*         0x4021101d        0x3 
 .text.dhcp_arp_reply
                0x40211020       0x25 c:/Espressif/ESP8266_SDK_210/lib\liblwip.a(dhcp.o)
                                 0x29 (size before relaxing)
                0x40211020                dhcp_arp_reply
 *fill*         0x40211045        0x3 
 .text.dhcp_decline
                0x40211048       0x97 c:/Espressif/ESP8266_SDK_210/lib\liblwip.a(dhcp.o)
                                 0xd7 (size before relaxing)
 *fill*         0x402110df        0x1 
 .text.dhcp_discover
                0x402110e0      0x134 c:/Espressif/ESP8266_SDK_210/lib\liblwip.a(dhcp.o)
                                0x1e4 (size before relaxing)
 .text.dhcp_bind
                0x40211214      0x10d c:/Espressif/ESP8266_SDK_210/lib\liblwip.a(dhcp.o)
                                0x139 (size before relaxing)
 *fill*         0x40211321        0x3 
 .text.dhcp_renew
                0x40211324      0x136 c:/Espressif/ESP8266_SDK_210/lib\liblwip.a(dhcp.o)
                                0x1a2 (size before relaxing)
                0x40211328                dhcp_renew
 *fill*         0x4021145a        0x2 
 .text.dhcp_rebind
                0x4021145c      0x136 c:/Espressif/ESP8266_SDK_210/lib\liblwip.a(dhcp.o)
                                0x1a6 (size before relaxing)
 *fill*         0x40211592        0x2 
 .text.dhcp_reboot
                0x40211594       0xca c:/Espressif/ESP8266_SDK_210/lib\liblwip.a(dhcp.o)
                                0x11e (size before relaxing)
 *fill*         0x4021165e        0x2 
 .text.dhcp_release
                0x40211660       0xc0 c:/Espressif/ESP8266_SDK_210/lib\liblwip.a(dhcp.o)
                                0x110 (size before relaxing)
                0x40211660                dhcp_release
 .text.dhcp_stop
                0x40211720       0x36 c:/Espressif/ESP8266_SDK_210/lib\liblwip.a(dhcp.o)
                                 0x42 (size before relaxing)
                0x40211720                dhcp_stop
 *fill*         0x40211756        0x2 
 .text.dhcp_parse_reply
                0x40211758      0x250 c:/Espressif/ESP8266_SDK_210/lib\liblwip.a(dhcp.o)
                                0x270 (size before relaxing)
 .text.dhcp_recv
                0x402119a8      0x11e c:/Espressif/ESP8266_SDK_210/lib\liblwip.a(dhcp.o)
                                0x14d (size before relaxing)
 *fill*         0x40211ac6        0x2 
 .text.dhcp_create_msg
                0x40211ac8      0x1b4 c:/Espressif/ESP8266_SDK_210/lib\liblwip.a(dhcp.o)
                                0x1c8 (size before relaxing)
 .text.dhcp_delete_msg
                0x40211c7c       0x24 c:/Espressif/ESP8266_SDK_210/lib\liblwip.a(dhcp.o)
                                 0x28 (size before relaxing)
 .text.add_offer_options
                0x40211ca0      0x14a c:/Espressif/ESP8266_SDK_210/lib\liblwip.a(dhcpserver.o)
                                0x14e (size before relaxing)
 *fill*         0x40211dea        0x2 
 .text.create_msg
                0x40211dec       0xa8 c:/Espressif/ESP8266_SDK_210/lib\liblwip.a(dhcpserver.o)
                                 0xd0 (size before relaxing)
 .text.send_offer
                0x40211e94       0x82 c:/Espressif/ESP8266_SDK_210/lib\liblwip.a(dhcpserver.o)
                                 0xb2 (size before relaxing)
 *fill*         0x40211f16        0x2 
 .text.send_nak
                0x40211f18       0x7c c:/Espressif/ESP8266_SDK_210/lib\liblwip.a(dhcpserver.o)
                                 0xa8 (size before relaxing)
 .text.send_ack
                0x40211f94       0x82 c:/Espressif/ESP8266_SDK_210/lib\liblwip.a(dhcpserver.o)
                                 0xb2 (size before relaxing)
 *fill*         0x40212016        0x2 
 .text.parse_options
                0x40212018       0xb5 c:/Espressif/ESP8266_SDK_210/lib\liblwip.a(dhcpserver.o)
                                 0xbd (size before relaxing)
 *fill*         0x402120cd        0x3 
 .text.parse_msg
                0x402120d0       0x7b c:/Espressif/ESP8266_SDK_210/lib\liblwip.a(dhcpserver.o)
                                 0x9f (size before relaxing)
 *fill*         0x4021214b        0x1 
 .text.handle_dhcp
                0x4021214c       0xd2 c:/Espressif/ESP8266_SDK_210/lib\liblwip.a(dhcpserver.o)
                                 0xfd (size before relaxing)
 *fill*         0x4021221e        0x2 
 .text.wifi_softap_init_dhcps_lease
                0x40212220      0x144 c:/Espressif/ESP8266_SDK_210/lib\liblwip.a(dhcpserver.o)
                                0x154 (size before relaxing)
 .text.dhcps_start
                0x40212364       0x68 c:/Espressif/ESP8266_SDK_210/lib\liblwip.a(dhcpserver.o)
                                 0x9c (size before relaxing)
                0x4021236c                dhcps_start
 .text.dhcps_stop
                0x402123cc       0x84 c:/Espressif/ESP8266_SDK_210/lib\liblwip.a(dhcpserver.o)
                                 0xb8 (size before relaxing)
                0x402123d0                dhcps_stop
 .text.wifi_softap_set_dhcps_lease
                0x40212450       0xe9 c:/Espressif/ESP8266_SDK_210/lib\liblwip.a(dhcpserver.o)
                                0x111 (size before relaxing)
                0x40212450                wifi_softap_set_dhcps_lease
 *fill*         0x40212539        0x3 
 .text.wifi_softap_get_dhcps_lease
                0x4021253c       0x3d c:/Espressif/ESP8266_SDK_210/lib\liblwip.a(dhcpserver.o)
                                 0x51 (size before relaxing)
                0x4021253c                wifi_softap_get_dhcps_lease
 *fill*         0x40212579        0x3 
 .text.kill_oldest_dhcps_pool
                0x4021257c       0x60 c:/Espressif/ESP8266_SDK_210/lib\liblwip.a(dhcpserver.o)
                                 0x74 (size before relaxing)
 .text.dhcps_coarse_tmr
                0x402125dc       0x78 c:/Espressif/ESP8266_SDK_210/lib\liblwip.a(dhcpserver.o)
                                 0x98 (size before relaxing)
                0x402125dc                dhcps_coarse_tmr
 .text.wifi_softap_set_dhcps_offer_option
                0x40212654       0x43 c:/Espressif/ESP8266_SDK_210/lib\liblwip.a(dhcpserver.o)
                                 0x4b (size before relaxing)
                0x40212654                wifi_softap_set_dhcps_offer_option
 *fill*         0x40212697        0x1 
 .text.wifi_softap_set_dhcps_lease_time
                0x40212698       0x30 c:/Espressif/ESP8266_SDK_210/lib\liblwip.a(dhcpserver.o)
                                 0x40 (size before relaxing)
                0x40212698                wifi_softap_set_dhcps_lease_time
 .text.wifi_softap_reset_dhcps_lease_time
                0x402126c8       0x2b c:/Espressif/ESP8266_SDK_210/lib\liblwip.a(dhcpserver.o)
                                 0x3b (size before relaxing)
                0x402126c8                wifi_softap_reset_dhcps_lease_time
 *fill*         0x402126f3        0x1 
 .text.wifi_softap_get_dhcps_lease_time
                0x402126f4        0x7 c:/Espressif/ESP8266_SDK_210/lib\liblwip.a(dhcpserver.o)
                                  0xb (size before relaxing)
                0x402126f4                wifi_softap_get_dhcps_lease_time
 *fill*         0x402126fb        0x1 
 .text.wifi_softap_dhcps_client_leave
                0x402126fc       0xab c:/Espressif/ESP8266_SDK_210/lib\liblwip.a(dhcpserver.o)
                                 0xdb (size before relaxing)
                0x402126fc                wifi_softap_dhcps_client_leave
 *fill*         0x402127a7        0x1 
 .text.wifi_softap_dhcps_client_update
                0x402127a8      0x28a c:/Espressif/ESP8266_SDK_210/lib\liblwip.a(dhcpserver.o)
                                0x31e (size before relaxing)
                0x402127a8                wifi_softap_dhcps_client_update
 *fill*         0x40212a32        0x2 
 .text.dns_init
                0x40212a34       0x4a c:/Espressif/ESP8266_SDK_210/lib\liblwip.a(dns.o)
                                 0x72 (size before relaxing)
                0x40212a40                dns_init
 *fill*         0x40212a7e        0x2 
 .text.dns_setserver
                0x40212a80       0x1a c:/Espressif/ESP8266_SDK_210/lib\liblwip.a(dns.o)
                                 0x1e (size before relaxing)
                0x40212a80                dns_setserver
 *fill*         0x40212a9a        0x2 
 .text.dns_getserver
                0x40212a9c       0x17 c:/Espressif/ESP8266_SDK_210/lib\liblwip.a(dns.o)
                                 0x1b (size before relaxing)
                0x40212aa0                dns_getserver
 *fill*         0x40212ab3        0x1 
 .text.dns_tmr  0x40212ab4       0x19 c:/Espressif/ESP8266_SDK_210/lib\liblwip.a(dns.o)
                                 0x21 (size before relaxing)
                0x40212ab4                dns_tmr
 *fill*         0x40212acd        0x3 
 .text.dns_send
                0x40212ad0       0xfc c:/Espressif/ESP8266_SDK_210/lib\liblwip.a(dns.o)
                                0x140 (size before relaxing)
 .text.dns_check_entry
                0x40212bcc       0xd0 c:/Espressif/ESP8266_SDK_210/lib\liblwip.a(dns.o)
                                 0xdb (size before relaxing)
 *fill*         0x40212c9c        0x0 
 .text.dns_check_entries
                0x40212c9c       0x22 c:/Espressif/ESP8266_SDK_210/lib\liblwip.a(dns.o)
                                 0x26 (size before relaxing)
 *fill*         0x40212cbe        0x2 
 .text.dns_recv
                0x40212cc0      0x1de c:/Espressif/ESP8266_SDK_210/lib\liblwip.a(dns.o)
                                0x222 (size before relaxing)
 *fill*         0x40212e9e        0x2 
 .text.dns_enqueue
                0x40212ea0       0xbf c:/Espressif/ESP8266_SDK_210/lib\liblwip.a(dns.o)
                                 0xd3 (size before relaxing)
 *fill*         0x40212f5f        0x1 
 .text.dns_gethostbyname
                0x40212f60       0x5a c:/Espressif/ESP8266_SDK_210/lib\liblwip.a(dns.o)
                                 0x6a (size before relaxing)
                0x40212f60                dns_gethostbyname
 *fill*         0x40212fba        0x2 
 .text.espconn_kill_oldest
                0x40212fbc       0xe1 c:/Espressif/ESP8266_SDK_210/lib\liblwip.a(espconn_tcp.o)
                                0x101 (size before relaxing)
 *fill*         0x4021309d        0x3 
 .text.espconn_kill_oldest_pcb
                0x402130a0       0x89 c:/Espressif/ESP8266_SDK_210/lib\liblwip.a(espconn_tcp.o)
                                 0x95 (size before relaxing)
                0x402130a4                espconn_kill_oldest_pcb
 *fill*         0x40213129        0x3 
 .text.espconn_kill_pcb
                0x4021312c       0x7c c:/Espressif/ESP8266_SDK_210/lib\liblwip.a(espconn_tcp.o)
                                 0x8c (size before relaxing)
                0x4021312c                espconn_kill_pcb
 .text.espconn_find_current_pcb
                0x402131a8       0x9a c:/Espressif/ESP8266_SDK_210/lib\liblwip.a(espconn_tcp.o)
                                 0xa2 (size before relaxing)
                0x402131a8                espconn_find_current_pcb
 *fill*         0x40213242        0x2 
 .text.espconn_tcp_memp_free
                0x40213244       0x63 c:/Espressif/ESP8266_SDK_210/lib\liblwip.a(espconn_tcp.o)
                                 0x7f (size before relaxing)
                0x40213244                espconn_tcp_memp_free
 *fill*         0x402132a7        0x1 
 .text.espconn_tcp_reconnect
                0x402132a8       0xa7 c:/Espressif/ESP8266_SDK_210/lib\liblwip.a(espconn_tcp.o)
                                 0xcb (size before relaxing)
 *fill*         0x4021334f        0x1 
 .text.espconn_tcp_disconnect_successful
                0x40213350      0x115 c:/Espressif/ESP8266_SDK_210/lib\liblwip.a(espconn_tcp.o)
                                0x161 (size before relaxing)
 *fill*         0x40213465        0x3 
 .text.espconn_Task
                0x40213468       0x6b c:/Espressif/ESP8266_SDK_210/lib\liblwip.a(espconn_tcp.o)
                                 0x83 (size before relaxing)
 *fill*         0x402134d3        0x1 
 .text.espconn_tcp_sent
                0x402134d4       0xc8 c:/Espressif/ESP8266_SDK_210/lib\liblwip.a(espconn_tcp.o)
                                 0xd4 (size before relaxing)
                0x402134d8                espconn_tcp_sent
 .text.espconn_tcp_disconnect
                0x4021359c       0x23 c:/Espressif/ESP8266_SDK_210/lib\liblwip.a(espconn_tcp.o)
                                 0x2e (size before relaxing)
                0x4021359c                espconn_tcp_disconnect
 *fill*         0x402135bf        0x1 
 .text.espconn_client_close
                0x402135c0       0x81 c:/Espressif/ESP8266_SDK_210/lib\liblwip.a(espconn_tcp.o)
                                 0xb5 (size before relaxing)
 *fill*         0x40213641        0x3 
 .text.espconn_recv_hold
                0x40213644       0x44 c:/Espressif/ESP8266_SDK_210/lib\liblwip.a(espconn_tcp.o)
                                 0x4c (size before relaxing)
                0x40213648                espconn_recv_hold
 .text.espconn_recv_unhold
                0x40213688       0x59 c:/Espressif/ESP8266_SDK_210/lib\liblwip.a(espconn_tcp.o)
                                 0x65 (size before relaxing)
                0x4021368c                espconn_recv_unhold
 *fill*         0x402136e1        0x3 
 .text.espconn_lock_recv
                0x402136e4       0x49 c:/Espressif/ESP8266_SDK_210/lib\liblwip.a(espconn_tcp.o)
                                 0x58 (size before relaxing)
                0x402136e4                espconn_lock_recv
 *fill*         0x4021372d        0x3 
 .text.espconn_unlock_recv
                0x40213730       0x26 c:/Espressif/ESP8266_SDK_210/lib\liblwip.a(espconn_tcp.o)
                                 0x2a (size before relaxing)
                0x40213730                espconn_unlock_recv
 *fill*         0x40213756        0x2 
 .text.espconn_client_recv
                0x40213758       0xe2 c:/Espressif/ESP8266_SDK_210/lib\liblwip.a(espconn_tcp.o)
                                0x126 (size before relaxing)
 *fill*         0x4021383a        0x2 
 .text.espconn_tcp_write
                0x4021383c       0x57 c:/Espressif/ESP8266_SDK_210/lib\liblwip.a(espconn_tcp.o)
                                 0x5b (size before relaxing)
                0x4021383c                espconn_tcp_write
 *fill*         0x40213893        0x1 
 .text.espconn_tcp_finish
                0x40213894       0x74 c:/Espressif/ESP8266_SDK_210/lib\liblwip.a(espconn_tcp.o)
                                 0x88 (size before relaxing)
 .text.espconn_client_sent
                0x40213908       0x23 c:/Espressif/ESP8266_SDK_210/lib\liblwip.a(espconn_tcp.o)
                                 0x27 (size before relaxing)
 *fill*         0x4021392b        0x1 
 .text.espconn_client_err
                0x4021392c       0x7e c:/Espressif/ESP8266_SDK_210/lib\liblwip.a(espconn_tcp.o)
                                 0x86 (size before relaxing)
 *fill*         0x402139aa        0x2 
 .text.espconn_client_connect
                0x402139ac       0xb9 c:/Espressif/ESP8266_SDK_210/lib\liblwip.a(espconn_tcp.o)
                                 0xdd (size before relaxing)
 *fill*         0x40213a65        0x3 
 .text.espconn_tcp_client
                0x40213a68       0xe6 c:/Espressif/ESP8266_SDK_210/lib\liblwip.a(espconn_tcp.o)
                                0x13e (size before relaxing)
                0x40213a70                espconn_tcp_client
 *fill*         0x40213b4e        0x2 
 .text.espconn_server_close
                0x40213b50       0x91 c:/Espressif/ESP8266_SDK_210/lib\liblwip.a(espconn_tcp.o)
                                 0xd5 (size before relaxing)
 *fill*         0x40213be1        0x3 
 .text.espconn_server_recv
                0x40213be4       0xe6 c:/Espressif/ESP8266_SDK_210/lib\liblwip.a(espconn_tcp.o)
                                0x12a (size before relaxing)
 *fill*         0x40213cca        0x2 
 .text.espconn_server_sent
                0x40213ccc       0x27 c:/Espressif/ESP8266_SDK_210/lib\liblwip.a(espconn_tcp.o)
                                 0x2b (size before relaxing)
 *fill*         0x40213cf3        0x1 
 .text.espconn_server_poll
                0x40213cf4       0x8e c:/Espressif/ESP8266_SDK_210/lib\liblwip.a(espconn_tcp.o)
                                 0xa6 (size before relaxing)
 *fill*         0x40213d82        0x2 
 .text.esponn_server_err
                0x40213d84       0x80 c:/Espressif/ESP8266_SDK_210/lib\liblwip.a(espconn_tcp.o)
                                 0x88 (size before relaxing)
 .text.espconn_tcp_accept
                0x40213e04      0x146 c:/Espressif/ESP8266_SDK_210/lib\liblwip.a(espconn_tcp.o)
                                0x1b6 (size before relaxing)
 *fill*         0x40213f4a        0x2 
 .text.espconn_tcp_server
                0x40213f4c       0xbb c:/Espressif/ESP8266_SDK_210/lib\liblwip.a(espconn_tcp.o)
                                0x107 (size before relaxing)
                0x40213f50                espconn_tcp_server
 *fill*         0x40214007        0x1 
 .text.espconn_tcp_delete
                0x40214008       0x86 c:/Espressif/ESP8266_SDK_210/lib\liblwip.a(espconn_tcp.o)
                                 0xae (size before relaxing)
                0x4021400c                espconn_tcp_delete
 *fill*         0x4021408e        0x2 
 .text.espconn_init
                0x40214090       0x28 c:/Espressif/ESP8266_SDK_210/lib\liblwip.a(espconn_tcp.o)
                0x4021409c                espconn_init
 .text.free_etharp_q
                0x402140b8       0x3f c:/Espressif/ESP8266_SDK_210/lib\liblwip.a(etharp.o)
                                 0x47 (size before relaxing)
 *fill*         0x402140f7        0x1 
 .text.free_entry
                0x402140f8       0x30 c:/Espressif/ESP8266_SDK_210/lib\liblwip.a(etharp.o)
                                 0x34 (size before relaxing)
 .text.etharp_tmr
                0x40214128       0x5a c:/Espressif/ESP8266_SDK_210/lib\liblwip.a(etharp.o)
                                 0x62 (size before relaxing)
                0x40214128                etharp_tmr
 *fill*         0x40214182        0x2 
 .text.find_entry
                0x40214184       0xdc c:/Espressif/ESP8266_SDK_210/lib\liblwip.a(etharp.o)
                                 0xe4 (size before relaxing)
 .text.etharp_send_ip
                0x40214260       0x49 c:/Espressif/ESP8266_SDK_210/lib\liblwip.a(etharp.o)
                                 0x51 (size before relaxing)
 *fill*         0x402142a9        0x3 
 .text.update_arp_entry
                0x402142ac       0xa8 c:/Espressif/ESP8266_SDK_210/lib\liblwip.a(etharp.o)
                                 0xcc (size before relaxing)
 .text.etharp_cleanup_netif
                0x40214354       0x3f c:/Espressif/ESP8266_SDK_210/lib\liblwip.a(etharp.o)
                                 0x47 (size before relaxing)
                0x40214354                etharp_cleanup_netif
 *fill*         0x40214393        0x1 
 .text.etharp_find_addr
                0x40214394       0x3d c:/Espressif/ESP8266_SDK_210/lib\liblwip.a(etharp.o)
                                 0x45 (size before relaxing)
                0x40214394                etharp_find_addr
 *fill*         0x402143d1        0x3 
 .text.etharp_ip_input
                0x402143d4       0x49 c:/Espressif/ESP8266_SDK_210/lib\liblwip.a(etharp.o)
                                 0x4d (size before relaxing)
 *fill*         0x4021441d        0x3 
 .text.etharp_arp_input
                0x40214420      0x17c c:/Espressif/ESP8266_SDK_210/lib\liblwip.a(etharp.o)
                                0x1c4 (size before relaxing)
 .text.etharp_output_to_arp_index
                0x4021459c       0x4c c:/Espressif/ESP8266_SDK_210/lib\liblwip.a(etharp.o)
                                 0x5c (size before relaxing)
 .text.etharp_output
                0x402145e8      0x11f c:/Espressif/ESP8266_SDK_210/lib\liblwip.a(etharp.o)
                                0x13b (size before relaxing)
                0x402145f0                etharp_output
 *fill*         0x40214707        0x1 
 .text.etharp_query
                0x40214708      0x15f c:/Espressif/ESP8266_SDK_210/lib\liblwip.a(etharp.o)
                                0x19f (size before relaxing)
                0x40214710                etharp_query
 *fill*         0x40214867        0x1 
 .text.etharp_raw
                0x40214868       0xd9 c:/Espressif/ESP8266_SDK_210/lib\liblwip.a(etharp.o)
                                 0xf9 (size before relaxing)
 *fill*         0x40214941        0x3 
 .text.etharp_request
                0x40214944       0x29 c:/Espressif/ESP8266_SDK_210/lib\liblwip.a(etharp.o)
                                 0x31 (size before relaxing)
                0x40214948                etharp_request
 *fill*         0x4021496d        0x3 
 .text.ethernet_input
                0x40214970       0x79 c:/Espressif/ESP8266_SDK_210/lib\liblwip.a(etharp.o)
                                 0x95 (size before relaxing)
                0x40214970                ethernet_input
 *fill*         0x402149e9        0x3 
 .text.lwip_init
                0x402149ec       0x40 c:/Espressif/ESP8266_SDK_210/lib\liblwip.a(init.o)
                                 0x60 (size before relaxing)
                0x402149f0                lwip_init
 .text.ip4_addr_netmask_valid
                0x40214a2c       0x44 c:/Espressif/ESP8266_SDK_210/lib\liblwip.a(ip_addr.o)
                                 0x48 (size before relaxing)
                0x40214a30                ip4_addr_netmask_valid
 .text.ipaddr_addr
                0x40214a70       0x1d c:/Espressif/ESP8266_SDK_210/lib\liblwip.a(ip_addr.o)
                                 0x21 (size before relaxing)
                0x40214a70                ipaddr_addr
 *fill*         0x40214a8d        0x3 
 .text.ipaddr_aton
                0x40214a90      0x219 c:/Espressif/ESP8266_SDK_210/lib\liblwip.a(ip_addr.o)
                                0x22d (size before relaxing)
                0x40214a94                ipaddr_aton
 *fill*         0x40214ca9        0x3 
 .text.ipaddr_ntoa
                0x40214cac       0x1b c:/Espressif/ESP8266_SDK_210/lib\liblwip.a(ip_addr.o)
                                 0x1f (size before relaxing)
                0x40214cb0                ipaddr_ntoa
 *fill*         0x40214cc7        0x1 
 .text.ipaddr_ntoa_r
                0x40214cc8       0xc2 c:/Espressif/ESP8266_SDK_210/lib\liblwip.a(ip_addr.o)
                                 0xca (size before relaxing)
                0x40214cc8                ipaddr_ntoa_r
 *fill*         0x40214d8a        0x2 
 .text.ip_route
                0x40214d8c       0x79 c:/Espressif/ESP8266_SDK_210/lib\liblwip.a(ip.o)
                                 0x89 (size before relaxing)
                0x40214d90                ip_route
 *fill*         0x40214e05        0x3 
 .text.ip_router
                0x40214e08       0x76 c:/Espressif/ESP8266_SDK_210/lib\liblwip.a(ip.o)
                                 0x86 (size before relaxing)
                0x40214e0c                ip_router
 *fill*         0x40214e7e        0x2 
 .text.ip_input
                0x40214e80      0x25d c:/Espressif/ESP8266_SDK_210/lib\liblwip.a(ip.o)
                                0x2cc (size before relaxing)
                0x40214e88                ip_input
 *fill*         0x402150dd        0x3 
 .text.ip_output_if
                0x402150e0       0x1c c:/Espressif/ESP8266_SDK_210/lib\liblwip.a(ip.o)
                                 0x20 (size before relaxing)
                0x402150e0                ip_output_if
 .text.ip_output_if_opt
                0x402150fc      0x1f1 c:/Espressif/ESP8266_SDK_210/lib\liblwip.a(ip.o)
                                0x205 (size before relaxing)
                0x40215104                ip_output_if_opt
 *fill*         0x402152ed        0x3 
 .text.ip_output
                0x402152f0       0x3f c:/Espressif/ESP8266_SDK_210/lib\liblwip.a(ip.o)
                                 0x47 (size before relaxing)
                0x402152f0                ip_output
 *fill*         0x4021532f        0x1 
 .text.netif_add
                0x40215330       0x6d c:/Espressif/ESP8266_SDK_210/lib\liblwip.a(netif.o)
                                 0x79 (size before relaxing)
                0x40215334                netif_add
 *fill*         0x4021539d        0x3 
 .text.netif_set_addr
                0x402153a0       0x28 c:/Espressif/ESP8266_SDK_210/lib\liblwip.a(netif.o)
                                 0x3c (size before relaxing)
                0x402153a0                netif_set_addr
 .text.netif_remove
                0x402153c8       0x5c c:/Espressif/ESP8266_SDK_210/lib\liblwip.a(netif.o)
                                 0x70 (size before relaxing)
                0x402153c8                netif_remove
 .text.netif_find
                0x40215424       0x37 c:/Espressif/ESP8266_SDK_210/lib\liblwip.a(netif.o)
                                 0x3b (size before relaxing)
                0x40215424                netif_find
 *fill*         0x4021545b        0x1 
 .text.netif_set_ipaddr
                0x4021545c       0x69 c:/Espressif/ESP8266_SDK_210/lib\liblwip.a(netif.o)
                                 0x71 (size before relaxing)
                0x40215460                netif_set_ipaddr
 *fill*         0x402154c5        0x3 
 .text.netif_set_default
                0x402154c8        0x7 c:/Espressif/ESP8266_SDK_210/lib\liblwip.a(netif.o)
                                  0xb (size before relaxing)
                0x402154c8                netif_set_default
 *fill*         0x402154cf        0x1 
 .text.netif_set_up
                0x402154d0       0x3a c:/Espressif/ESP8266_SDK_210/lib\liblwip.a(netif.o)
                                 0x46 (size before relaxing)
                0x402154d0                netif_set_up
 *fill*         0x4021550a        0x2 
 .text.netif_set_down
                0x4021550c       0x26 c:/Espressif/ESP8266_SDK_210/lib\liblwip.a(netif.o)
                                 0x2a (size before relaxing)
                0x4021550c                netif_set_down
 *fill*         0x40215532        0x2 
 .text.netif_set_link_up
                0x40215534       0x49 c:/Espressif/ESP8266_SDK_210/lib\liblwip.a(netif.o)
                                 0x59 (size before relaxing)
                0x40215534                netif_set_link_up
 *fill*         0x4021557d        0x3 
 .text.pbuf_free_ooseq_new
                0x40215580       0x52 c:/Espressif/ESP8266_SDK_210/lib\liblwip.a(pbuf.o)
                                 0x61 (size before relaxing)
                0x40215580                pbuf_free_ooseq_new
 *fill*         0x402155d2        0x2 
 .text.pbuf_alloc
                0x402155d4      0x162 c:/Espressif/ESP8266_SDK_210/lib\liblwip.a(pbuf.o)
                                0x185 (size before relaxing)
                0x402155d8                pbuf_alloc
 *fill*         0x40215736        0x2 
 .text.pbuf_realloc
                0x40215738       0x4b c:/Espressif/ESP8266_SDK_210/lib\liblwip.a(pbuf.o)
                                 0x4f (size before relaxing)
                0x40215738                pbuf_realloc
 *fill*         0x40215783        0x1 
 .text.pbuf_free
                0x40215784       0x8b c:/Espressif/ESP8266_SDK_210/lib\liblwip.a(pbuf.o)
                                 0xa7 (size before relaxing)
                0x40215784                pbuf_free
 *fill*         0x4021580f        0x1 
 .text.pbuf_chain
                0x40215810       0x1c c:/Espressif/ESP8266_SDK_210/lib\liblwip.a(pbuf.o)
                                 0x28 (size before relaxing)
                0x40215810                pbuf_chain
 .text.pbuf_dechain
                0x4021582c       0x3d c:/Espressif/ESP8266_SDK_210/lib\liblwip.a(pbuf.o)
                                 0x41 (size before relaxing)
                0x4021582c                pbuf_dechain
 *fill*         0x40215869        0x3 
 .text.pbuf_copy
                0x4021586c       0xa4 c:/Espressif/ESP8266_SDK_210/lib\liblwip.a(pbuf.o)
                                 0xa8 (size before relaxing)
                0x4021586c                pbuf_copy
 .text.pbuf_copy_partial
                0x40215910       0x7f c:/Espressif/ESP8266_SDK_210/lib\liblwip.a(pbuf.o)
                                 0x83 (size before relaxing)
                0x40215910                pbuf_copy_partial
 *fill*         0x4021598f        0x1 
 .text.pbuf_take
                0x40215990       0x60 c:/Espressif/ESP8266_SDK_210/lib\liblwip.a(pbuf.o)
                                 0x64 (size before relaxing)
                0x40215990                pbuf_take
 .text.pbuf_coalesce
                0x402159f0       0x33 c:/Espressif/ESP8266_SDK_210/lib\liblwip.a(pbuf.o)
                                 0x47 (size before relaxing)
                0x402159f0                pbuf_coalesce
 *fill*         0x40215a23        0x1 
 .text.pbuf_memcmp
                0x40215a24       0x70 c:/Espressif/ESP8266_SDK_210/lib\liblwip.a(pbuf.o)
                                 0x78 (size before relaxing)
                0x40215a24                pbuf_memcmp
 .text.pbuf_memfind
                0x40215a94       0x54 c:/Espressif/ESP8266_SDK_210/lib\liblwip.a(pbuf.o)
                                 0x5c (size before relaxing)
                0x40215a94                pbuf_memfind
 .text.pbuf_strstr
                0x40215ae8       0x51 c:/Espressif/ESP8266_SDK_210/lib\liblwip.a(pbuf.o)
                                 0x61 (size before relaxing)
                0x40215aec                pbuf_strstr
 *fill*         0x40215b39        0x3 
 .text.raw_input
                0x40215b3c       0x90 c:/Espressif/ESP8266_SDK_210/lib\liblwip.a(raw.o)
                                 0x9c (size before relaxing)
                0x40215b44                raw_input
 .text.raw_sendto
                0x40215bcc       0x9a c:/Espressif/ESP8266_SDK_210/lib\liblwip.a(raw.o)
                                 0xca (size before relaxing)
                0x40215bcc                raw_sendto
 *fill*         0x40215c66        0x2 
 .text.raw_send
                0x40215c68       0x14 c:/Espressif/ESP8266_SDK_210/lib\liblwip.a(raw.o)
                                 0x18 (size before relaxing)
                0x40215c68                raw_send
 .text.raw_remove
                0x40215c7c       0x3d c:/Espressif/ESP8266_SDK_210/lib\liblwip.a(raw.o)
                                 0x45 (size before relaxing)
                0x40215c80                raw_remove
 *fill*         0x40215cb9        0x3 
 .text.raw_new  0x40215cbc       0x49 c:/Espressif/ESP8266_SDK_210/lib\liblwip.a(raw.o)
                                 0x5d (size before relaxing)
                0x40215cbc                raw_new
 *fill*         0x40215d05        0x3 
 .text.tcp_input
                0x40215d08      0x4d0 c:/Espressif/ESP8266_SDK_210/lib\liblwip.a(tcp_in.o)
                                0x594 (size before relaxing)
                0x40215d10                tcp_input
 .text.tcp_listen_input
                0x402161d8      0x12d c:/Espressif/ESP8266_SDK_210/lib\liblwip.a(tcp_in.o)
                                0x180 (size before relaxing)
 *fill*         0x40216305        0x3 
 .text.tcp_timewait_input
                0x40216308       0x7d c:/Espressif/ESP8266_SDK_210/lib\liblwip.a(tcp_in.o)
                                 0x98 (size before relaxing)
 *fill*         0x40216385        0x3 
 .text.tcp_process
                0x40216388      0x491 c:/Espressif/ESP8266_SDK_210/lib\liblwip.a(tcp_in.o)
                                0x529 (size before relaxing)
 *fill*         0x40216819        0x3 
 .text.tcp_oos_insert_segment
                0x4021681c       0xf1 c:/Espressif/ESP8266_SDK_210/lib\liblwip.a(tcp_in.o)
                                0x101 (size before relaxing)
 *fill*         0x4021690d        0x3 
 .text.tcp_receive
                0x40216910      0x912 c:/Espressif/ESP8266_SDK_210/lib\liblwip.a(tcp_in.o)
                                0x9ca (size before relaxing)
 *fill*         0x40217222        0x2 
 .text.tcp_parseopt
                0x40217224       0x74 c:/Espressif/ESP8266_SDK_210/lib\liblwip.a(tcp_in.o)
                                 0x78 (size before relaxing)
 .text.tcp_tmr  0x40217298       0x26 c:/Espressif/ESP8266_SDK_210/lib\liblwip.a(tcp.o)
                                 0x32 (size before relaxing)
                0x4021729c                tcp_tmr
 *fill*         0x402172be        0x2 
 .text.tcp_close_shutdown
                0x402172c0      0x16a c:/Espressif/ESP8266_SDK_210/lib\liblwip.a(tcp.o)
                                0x1b6 (size before relaxing)
 *fill*         0x4021742a        0x2 
 .text.tcp_close
                0x4021742c       0x24 c:/Espressif/ESP8266_SDK_210/lib\liblwip.a(tcp.o)
                                 0x28 (size before relaxing)
                0x4021742c                tcp_close
 .text.tcp_shutdown
                0x40217450       0x56 c:/Espressif/ESP8266_SDK_210/lib\liblwip.a(tcp.o)
                                 0x61 (size before relaxing)
                0x40217450                tcp_shutdown
 *fill*         0x402174a6        0x2 
 .text.tcp_abandon
                0x402174a8       0xae c:/Espressif/ESP8266_SDK_210/lib\liblwip.a(tcp.o)
                                 0xe6 (size before relaxing)
                0x402174a8                tcp_abandon
 *fill*         0x40217556        0x2 
 .text.tcp_abort
                0x40217558       0x14 c:/Espressif/ESP8266_SDK_210/lib\liblwip.a(tcp.o)
                                 0x18 (size before relaxing)
                0x40217558                tcp_abort
 .text.tcp_bind
                0x4021756c       0x77 c:/Espressif/ESP8266_SDK_210/lib\liblwip.a(tcp.o)
                                 0x87 (size before relaxing)
                0x4021756c                tcp_bind
 *fill*         0x402175e3        0x1 
 .text.tcp_listen_with_backlog
                0x402175e4       0xc4 c:/Espressif/ESP8266_SDK_210/lib\liblwip.a(tcp.o)
                                 0xe4 (size before relaxing)
                0x402175e8                tcp_listen_with_backlog
 .text.tcp_update_rcv_ann_wnd
                0x402176a8       0x42 c:/Espressif/ESP8266_SDK_210/lib\liblwip.a(tcp.o)
                                 0x46 (size before relaxing)
                0x402176a8                tcp_update_rcv_ann_wnd
 *fill*         0x402176ea        0x2 
 .text.tcp_recved
                0x402176ec       0x59 c:/Espressif/ESP8266_SDK_210/lib\liblwip.a(tcp.o)
                                 0x69 (size before relaxing)
                0x402176ec                tcp_recved
 *fill*         0x40217745        0x3 
 .text.tcp_new_port
                0x40217748       0x61 c:/Espressif/ESP8266_SDK_210/lib\liblwip.a(tcp.o)
                                 0x6d (size before relaxing)
 *fill*         0x402177a9        0x3 
 .text.tcp_connect
                0x402177ac       0xfc c:/Espressif/ESP8266_SDK_210/lib\liblwip.a(tcp.o)
                                0x130 (size before relaxing)
                0x402177ac                tcp_connect
 .text.tcp_slowtmr
                0x402178a8      0x2b0 c:/Espressif/ESP8266_SDK_210/lib\liblwip.a(tcp.o)
                                0x308 (size before relaxing)
                0x402178ac                tcp_slowtmr
 .text.tcp_fasttmr
                0x40217b58       0x7c c:/Espressif/ESP8266_SDK_210/lib\liblwip.a(tcp.o)
                                 0x88 (size before relaxing)
                0x40217b58                tcp_fasttmr
 .text.tcp_segs_free
                0x40217bd4       0x1f c:/Espressif/ESP8266_SDK_210/lib\liblwip.a(tcp.o)
                                 0x23 (size before relaxing)
                0x40217bd4                tcp_segs_free
 *fill*         0x40217bf3        0x1 
 .text.tcp_seg_free
                0x40217bf4       0x2c c:/Espressif/ESP8266_SDK_210/lib\liblwip.a(tcp.o)
                                 0x38 (size before relaxing)
                0x40217bf4                tcp_seg_free
 .text.tcp_seg_copy
                0x40217c20       0x42 c:/Espressif/ESP8266_SDK_210/lib\liblwip.a(tcp.o)
                                 0x56 (size before relaxing)
                0x40217c20                tcp_seg_copy
 *fill*         0x40217c62        0x2 
 .text.tcp_recv_null
                0x40217c64       0x30 c:/Espressif/ESP8266_SDK_210/lib\liblwip.a(tcp.o)
                                 0x43 (size before relaxing)
                0x40217c64                tcp_recv_null
 *fill*         0x40217c94        0x0 
 .text.tcp_kill_prio
                0x40217c94       0x44 c:/Espressif/ESP8266_SDK_210/lib\liblwip.a(tcp.o)
                                 0x4f (size before relaxing)
 *fill*         0x40217cd8        0x0 
 .text.tcp_kill_timewait
                0x40217cd8       0x34 c:/Espressif/ESP8266_SDK_210/lib\liblwip.a(tcp.o)
                                 0x3f (size before relaxing)
 *fill*         0x40217d0c        0x0 
 .text.tcp_alloc
                0x40217d0c       0xf8 c:/Espressif/ESP8266_SDK_210/lib\liblwip.a(tcp.o)
                                0x13c (size before relaxing)
                0x40217d18                tcp_alloc
 .text.tcp_new  0x40217e04       0x14 c:/Espressif/ESP8266_SDK_210/lib\liblwip.a(tcp.o)
                                 0x18 (size before relaxing)
                0x40217e04                tcp_new
 .text.tcp_pcb_purge
                0x40217e18       0x55 c:/Espressif/ESP8266_SDK_210/lib\liblwip.a(tcp.o)
                                 0x6d (size before relaxing)
                0x40217e18                tcp_pcb_purge
 *fill*         0x40217e6d        0x3 
 .text.tcp_pcb_remove
                0x40217e70       0x62 c:/Espressif/ESP8266_SDK_210/lib\liblwip.a(tcp.o)
                                 0x72 (size before relaxing)
                0x40217e70                tcp_pcb_remove
 *fill*         0x40217ed2        0x2 
 .text.tcp_next_iss
                0x40217ed4       0x17 c:/Espressif/ESP8266_SDK_210/lib\liblwip.a(tcp.o)
                                 0x1b (size before relaxing)
                0x40217ed8                tcp_next_iss
 *fill*         0x40217eeb        0x1 
 .text.tcp_eff_send_mss
                0x40217eec       0x33 c:/Espressif/ESP8266_SDK_210/lib\liblwip.a(tcp.o)
                                 0x37 (size before relaxing)
                0x40217eec                tcp_eff_send_mss
 *fill*         0x40217f1f        0x1 
 .text.tcp_output_alloc_header
                0x40217f20       0xf6 c:/Espressif/ESP8266_SDK_210/lib\liblwip.a(tcp_out.o)
                                 0xfe (size before relaxing)
 *fill*         0x40218016        0x2 
 .text.tcp_send_fin
                0x40218018       0x48 c:/Espressif/ESP8266_SDK_210/lib\liblwip.a(tcp_out.o)
                                 0x4f (size before relaxing)
                0x40218018                tcp_send_fin
 *fill*         0x40218060        0x0 
 .text.tcp_create_segment
                0x40218060      0x125 c:/Espressif/ESP8266_SDK_210/lib\liblwip.a(tcp_out.o)
                                0x141 (size before relaxing)
 *fill*         0x40218185        0x3 
 .text.tcp_pbuf_prealloc
                0x40218188       0x35 c:/Espressif/ESP8266_SDK_210/lib\liblwip.a(tcp_out.o)
                                 0x39 (size before relaxing)
 *fill*         0x402181bd        0x3 
 .text.tcp_write_checks
                0x402181c0       0x3e c:/Espressif/ESP8266_SDK_210/lib\liblwip.a(tcp_out.o)
                                 0x42 (size before relaxing)
 *fill*         0x402181fe        0x2 
 .text.tcp_write
                0x40218200      0x349 c:/Espressif/ESP8266_SDK_210/lib\liblwip.a(tcp_out.o)
                                0x3a8 (size before relaxing)
                0x40218204                tcp_write
 *fill*         0x40218549        0x3 
 .text.tcp_enqueue_flags
                0x4021854c       0xe2 c:/Espressif/ESP8266_SDK_210/lib\liblwip.a(tcp_out.o)
                                 0xf6 (size before relaxing)
                0x4021854c                tcp_enqueue_flags
 *fill*         0x4021862e        0x2 
 .text.tcp_send_empty_ack
                0x40218630       0x8c c:/Espressif/ESP8266_SDK_210/lib\liblwip.a(tcp_out.o)
                                 0xa8 (size before relaxing)
                0x40218630                tcp_send_empty_ack
 .text.tcp_output
                0x402186bc      0x312 c:/Espressif/ESP8266_SDK_210/lib\liblwip.a(tcp_out.o)
                                0x325 (size before relaxing)
                0x402186c4                tcp_output
 *fill*         0x402189ce        0x2 
 .text.tcp_output_segment
                0x402189d0      0x145 c:/Espressif/ESP8266_SDK_210/lib\liblwip.a(tcp_out.o)
                                0x161 (size before relaxing)
 *fill*         0x40218b15        0x3 
 .text.tcp_rst  0x40218b18      0x143 c:/Espressif/ESP8266_SDK_210/lib\liblwip.a(tcp_out.o)
                                0x167 (size before relaxing)
                0x40218b1c                tcp_rst
 *fill*         0x40218c5b        0x1 
 .text.tcp_rexmit_rto
                0x40218c5c       0x77 c:/Espressif/ESP8266_SDK_210/lib\liblwip.a(tcp_out.o)
                                 0x7b (size before relaxing)
                0x40218c5c                tcp_rexmit_rto
 *fill*         0x40218cd3        0x1 
 .text.tcp_rexmit
                0x40218cd4       0xaa c:/Espressif/ESP8266_SDK_210/lib\liblwip.a(tcp_out.o)
                                 0xae (size before relaxing)
                0x40218cd4                tcp_rexmit
 *fill*         0x40218d7e        0x2 
 .text.tcp_rexmit_fast
                0x40218d80       0x5a c:/Espressif/ESP8266_SDK_210/lib\liblwip.a(tcp_out.o)
                                 0x5e (size before relaxing)
                0x40218d80                tcp_rexmit_fast
 *fill*         0x40218dda        0x2 
 .text.tcp_keepalive
                0x40218ddc       0x76 c:/Espressif/ESP8266_SDK_210/lib\liblwip.a(tcp_out.o)
                                 0x96 (size before relaxing)
                0x40218ddc                tcp_keepalive
 *fill*         0x40218e52        0x2 
 .text.tcp_zero_window_probe
                0x40218e54      0x14f c:/Espressif/ESP8266_SDK_210/lib\liblwip.a(tcp_out.o)
                                0x16f (size before relaxing)
                0x40218e5c                tcp_zero_window_probe
 *fill*         0x40218fa3        0x1 
 .text.tcpip_tcp_timer
                0x40218fa4       0x3d c:/Espressif/ESP8266_SDK_210/lib\liblwip.a(timers.o)
                                 0x50 (size before relaxing)
 *fill*         0x40218fe1        0x3 
 .text.tcp_timer_needed
                0x40218fe4       0x33 c:/Espressif/ESP8266_SDK_210/lib\liblwip.a(timers.o)
                                 0x47 (size before relaxing)
                0x40218fe4                tcp_timer_needed
 *fill*         0x40219017        0x1 
 .text.tcp_timer_coarse
                0x40219018       0x20 c:/Espressif/ESP8266_SDK_210/lib\liblwip.a(timers.o)
                                 0x2c (size before relaxing)
 .text.arp_timer
                0x40219038       0x24 c:/Espressif/ESP8266_SDK_210/lib\liblwip.a(timers.o)
                                 0x30 (size before relaxing)
 .text.dhcp_timer_coarse
                0x4021905c       0x22 c:/Espressif/ESP8266_SDK_210/lib\liblwip.a(timers.o)
                                 0x3a (size before relaxing)
 *fill*         0x4021907e        0x2 
 .text.dhcp_timer_fine
                0x40219080       0x20 c:/Espressif/ESP8266_SDK_210/lib\liblwip.a(timers.o)
                                 0x2c (size before relaxing)
 .text.igmp_timer
                0x402190a0       0x20 c:/Espressif/ESP8266_SDK_210/lib\liblwip.a(timers.o)
                                 0x2c (size before relaxing)
 .text.dns_timer
                0x402190c0       0x20 c:/Espressif/ESP8266_SDK_210/lib\liblwip.a(timers.o)
                                 0x2c (size before relaxing)
 .text.sys_timeouts_init
                0x402190e0       0x6a c:/Espressif/ESP8266_SDK_210/lib\liblwip.a(timers.o)
                                 0xba (size before relaxing)
                0x402190e4                sys_timeouts_init
 *fill*         0x4021914a        0x2 
 .text.sys_timeout
                0x4021914c       0x7d c:/Espressif/ESP8266_SDK_210/lib\liblwip.a(timers.o)
                                 0x89 (size before relaxing)
                0x40219150                sys_timeout
 *fill*         0x402191c9        0x3 
 .text.sys_untimeout
                0x402191cc       0x50 c:/Espressif/ESP8266_SDK_210/lib\liblwip.a(timers.o)
                                 0x5c (size before relaxing)
                0x402191cc                sys_untimeout
 .text.sys_check_timeouts
                0x4021921c       0xbe c:/Espressif/ESP8266_SDK_210/lib\liblwip.a(timers.o)
                                 0xe6 (size before relaxing)
                0x40219220                sys_check_timeouts
 *fill*         0x402192da        0x2 
 .text.sys_restart_timeouts
                0x402192dc        0xf c:/Espressif/ESP8266_SDK_210/lib\liblwip.a(timers.o)
                                 0x17 (size before relaxing)
                0x402192dc                sys_restart_timeouts
 *fill*         0x402192eb        0x1 
 .text.udp_input
                0x402192ec      0x25c c:/Espressif/ESP8266_SDK_210/lib\liblwip.a(udp.o)
                                0x2c0 (size before relaxing)
                0x402192f0                udp_input
 .text.udp_send
                0x40219548       0x17 c:/Espressif/ESP8266_SDK_210/lib\liblwip.a(udp.o)
                                 0x1b (size before relaxing)
                0x40219548                udp_send
 *fill*         0x4021955f        0x1 
 .text.udp_sendto
                0x40219560       0x4f c:/Espressif/ESP8266_SDK_210/lib\liblwip.a(udp.o)
                                 0x57 (size before relaxing)
                0x40219560                udp_sendto
 *fill*         0x402195af        0x1 
 .text.udp_sendto_if
                0x402195b0      0x13c c:/Espressif/ESP8266_SDK_210/lib\liblwip.a(udp.o)
                                0x170 (size before relaxing)
                0x402195b0                udp_sendto_if
 .text.udp_bind
                0x402196ec       0x7b c:/Espressif/ESP8266_SDK_210/lib\liblwip.a(udp.o)
                                 0x8b (size before relaxing)
                0x402196ec                udp_bind
 *fill*         0x40219767        0x1 
 .text.udp_connect
                0x40219768       0x5d c:/Espressif/ESP8266_SDK_210/lib\liblwip.a(udp.o)
                                 0x65 (size before relaxing)
                0x40219768                udp_connect
 *fill*         0x402197c5        0x3 
 .text.udp_remove
                0x402197c8       0x3d c:/Espressif/ESP8266_SDK_210/lib\liblwip.a(udp.o)
                                 0x45 (size before relaxing)
                0x402197cc                udp_remove
 *fill*         0x40219805        0x3 
 .text.udp_new  0x40219808       0x37 c:/Espressif/ESP8266_SDK_210/lib\liblwip.a(udp.o)
                                 0x47 (size before relaxing)
                0x40219808                udp_new
 *fill*         0x4021983f        0x1 
 .text.ringbuf_new
                0x40219840       0x5a c:/Espressif/ESP8266_SDK_210/lib\liblwip.a(espconn_buf.o)
                                 0x72 (size before relaxing)
                0x40219844                ringbuf_new
 *fill*         0x4021989a        0x2 
 .text.ringbuf_free
                0x4021989c       0x4f c:/Espressif/ESP8266_SDK_210/lib\liblwip.a(espconn_buf.o)
                                 0x63 (size before relaxing)
                0x402198a4                ringbuf_free
 *fill*         0x402198eb        0x1 
 .text.ringbuf_capacity
                0x402198ec       0x14 c:/Espressif/ESP8266_SDK_210/lib\liblwip.a(espconn_buf.o)
                                 0x18 (size before relaxing)
                0x402198ec                ringbuf_capacity
 .text.ringbuf_end
                0x40219900       0x1c c:/Espressif/ESP8266_SDK_210/lib\liblwip.a(espconn_buf.o)
                                 0x20 (size before relaxing)
 .text.ringbuf_bytes_free
                0x4021991c       0x32 c:/Espressif/ESP8266_SDK_210/lib\liblwip.a(espconn_buf.o)
                                 0x36 (size before relaxing)
                0x4021991c                ringbuf_bytes_free
 *fill*         0x4021994e        0x2 
 .text.ringbuf_bytes_used
                0x40219950       0x23 c:/Espressif/ESP8266_SDK_210/lib\liblwip.a(espconn_buf.o)
                                 0x2f (size before relaxing)
                0x40219950                ringbuf_bytes_used
 *fill*         0x40219973        0x1 
 .text.ringbuf_is_full
                0x40219974       0x1b c:/Espressif/ESP8266_SDK_210/lib\liblwip.a(espconn_buf.o)
                                 0x1f (size before relaxing)
                0x40219974                ringbuf_is_full
 *fill*         0x4021998f        0x1 
 .text.ringbuf_is_empty
                0x40219990       0x2a c:/Espressif/ESP8266_SDK_210/lib\liblwip.a(espconn_buf.o)
                                 0x36 (size before relaxing)
                0x40219990                ringbuf_is_empty
 *fill*         0x402199ba        0x2 
 .text.ringbuf_nextp
                0x402199bc       0x55 c:/Espressif/ESP8266_SDK_210/lib\liblwip.a(espconn_buf.o)
                                 0x69 (size before relaxing)
 *fill*         0x40219a11        0x3 
 .text.ringbuf_findchr
                0x40219a14       0xa5 c:/Espressif/ESP8266_SDK_210/lib\liblwip.a(espconn_buf.o)
                                 0xbd (size before relaxing)
                0x40219a20                ringbuf_findchr
 *fill*         0x40219ab9        0x3 
 .text.ringbuf_memset
                0x40219abc       0xce c:/Espressif/ESP8266_SDK_210/lib\liblwip.a(espconn_buf.o)
                                0x102 (size before relaxing)
                0x40219ac8                ringbuf_memset
 *fill*         0x40219b8a        0x2 
 .text.ringbuf_memcpy_into
                0x40219b8c       0xbc c:/Espressif/ESP8266_SDK_210/lib\liblwip.a(espconn_buf.o)
                                 0xe4 (size before relaxing)
                0x40219b98                ringbuf_memcpy_into
 .text.ringbuf_memcpy_from
                0x40219c48       0xbb c:/Espressif/ESP8266_SDK_210/lib\liblwip.a(espconn_buf.o)
                                 0xd7 (size before relaxing)
                0x40219c54                ringbuf_memcpy_from
 *fill*         0x40219d03        0x1 
 .text.espconn_copy_partial
                0x40219d04       0x90 c:/Espressif/ESP8266_SDK_210/lib\liblwip.a(espconn.o)
                                 0xa0 (size before relaxing)
                0x40219d04                espconn_copy_partial
 .text.espconn_find_connection
                0x40219d94       0x91 c:/Espressif/ESP8266_SDK_210/lib\liblwip.a(espconn.o)
                                 0x95 (size before relaxing)
                0x40219d94                espconn_find_connection
 *fill*         0x40219e25        0x3 
 .text.espconn_get_acticve_num
                0x40219e28       0x26 c:/Espressif/ESP8266_SDK_210/lib\liblwip.a(espconn.o)
                                 0x2a (size before relaxing)
 *fill*         0x40219e4e        0x2 
 .text.espconn_connect
                0x40219e50       0xe2 c:/Espressif/ESP8266_SDK_210/lib\liblwip.a(espconn.o)
                                0x12e (size before relaxing)
                0x40219e50                espconn_connect
 *fill*         0x40219f32        0x2 
 .text.espconn_create
                0x40219f34       0x44 c:/Espressif/ESP8266_SDK_210/lib\liblwip.a(espconn.o)
                                 0x4c (size before relaxing)
                0x40219f34                espconn_create
 .text.espconn_sent
                0x40219f78       0xcd c:/Espressif/ESP8266_SDK_210/lib\liblwip.a(espconn.o)
                                 0xe9 (size before relaxing)
                0x40219f7c                espconn_send
                0x40219f7c                espconn_sent
 *fill*         0x4021a045        0x3 
 .text.espconn_recv
                0x4021a048       0x6f c:/Espressif/ESP8266_SDK_210/lib\liblwip.a(espconn.o)
                                 0x87 (size before relaxing)
                0x4021a048                espconn_recv
 *fill*         0x4021a0b7        0x1 
 .text.espconn_sendto
                0x4021a0b8       0x45 c:/Espressif/ESP8266_SDK_210/lib\liblwip.a(espconn.o)
                                 0x51 (size before relaxing)
                0x4021a0b8                espconn_sendto
 *fill*         0x4021a0fd        0x3 
 .text.espconn_tcp_get_wnd
                0x4021a100       0x21 c:/Espressif/ESP8266_SDK_210/lib\liblwip.a(espconn.o)
                                 0x29 (size before relaxing)
                0x4021a100                espconn_tcp_get_wnd
 *fill*         0x4021a121        0x3 
 .text.espconn_tcp_set_wnd
                0x4021a124       0x1c c:/Espressif/ESP8266_SDK_210/lib\liblwip.a(espconn.o)
                                 0x20 (size before relaxing)
                0x4021a124                espconn_tcp_set_wnd
 .text.espconn_tcp_get_max_con
                0x4021a140        0xe c:/Espressif/ESP8266_SDK_210/lib\liblwip.a(espconn.o)
                                 0x12 (size before relaxing)
                0x4021a140                espconn_tcp_get_max_con
 *fill*         0x4021a14e        0x2 
 .text.espconn_tcp_set_max_con
                0x4021a150       0x16 c:/Espressif/ESP8266_SDK_210/lib\liblwip.a(espconn.o)
                                 0x1a (size before relaxing)
                0x4021a150                espconn_tcp_set_max_con
 *fill*         0x4021a166        0x2 
 .text.espconn_tcp_get_max_retran
                0x4021a168        0xe c:/Espressif/ESP8266_SDK_210/lib\liblwip.a(espconn.o)
                                 0x12 (size before relaxing)
                0x4021a168                espconn_tcp_get_max_retran
 *fill*         0x4021a176        0x2 
 .text.espconn_tcp_set_max_retran
                0x4021a178       0x18 c:/Espressif/ESP8266_SDK_210/lib\liblwip.a(espconn.o)
                                 0x1c (size before relaxing)
                0x4021a178                espconn_tcp_set_max_retran
 .text.espconn_tcp_get_max_syn
                0x4021a190        0xe c:/Espressif/ESP8266_SDK_210/lib\liblwip.a(espconn.o)
                                 0x12 (size before relaxing)
                0x4021a190                espconn_tcp_get_max_syn
 *fill*         0x4021a19e        0x2 
 .text.espconn_tcp_set_max_syn
                0x4021a1a0       0x18 c:/Espressif/ESP8266_SDK_210/lib\liblwip.a(espconn.o)
                                 0x1c (size before relaxing)
                0x4021a1a0                espconn_tcp_set_max_syn
 .text.espconn_tcp_get_max_con_allow
                0x4021a1b8       0x28 c:/Espressif/ESP8266_SDK_210/lib\liblwip.a(espconn.o)
                                 0x2c (size before relaxing)
                0x4021a1b8                espconn_tcp_get_max_con_allow
 .text.espconn_tcp_set_max_con_allow
                0x4021a1e0       0x30 c:/Espressif/ESP8266_SDK_210/lib\liblwip.a(espconn.o)
                                 0x38 (size before relaxing)
                0x4021a1e0                espconn_tcp_set_max_con_allow
 .text.espconn_tcp_set_buf_count
                0x4021a210       0x2b c:/Espressif/ESP8266_SDK_210/lib\liblwip.a(espconn.o)
                                 0x2f (size before relaxing)
                0x4021a210                espconn_tcp_set_buf_count
 *fill*         0x4021a23b        0x1 
 .text.espconn_get_connection_info
                0x4021a23c       0xc9 c:/Espressif/ESP8266_SDK_210/lib\liblwip.a(espconn.o)
                                 0xe5 (size before relaxing)
                0x4021a240                espconn_get_connection_info
 *fill*         0x4021a305        0x3 
 .text.espconn_accept
                0x4021a308       0x44 c:/Espressif/ESP8266_SDK_210/lib\liblwip.a(espconn.o)
                                 0x4c (size before relaxing)
                0x4021a308                espconn_accept
 .text.espconn_regist_time
                0x4021a34c       0x43 c:/Espressif/ESP8266_SDK_210/lib\liblwip.a(espconn.o)
                                 0x4b (size before relaxing)
                0x4021a34c                espconn_regist_time
 *fill*         0x4021a38f        0x1 
 .text.espconn_disconnect
                0x4021a390       0x46 c:/Espressif/ESP8266_SDK_210/lib\liblwip.a(espconn.o)
                                 0x4e (size before relaxing)
                0x4021a390                espconn_disconnect
 *fill*         0x4021a3d6        0x2 
 .text.espconn_abort
                0x4021a3d8       0x40 c:/Espressif/ESP8266_SDK_210/lib\liblwip.a(espconn.o)
                                 0x48 (size before relaxing)
                0x4021a3d8                espconn_abort
 .text.espconn_get_packet_info
                0x4021a418       0x93 c:/Espressif/ESP8266_SDK_210/lib\liblwip.a(espconn.o)
                                 0xab (size before relaxing)
                0x4021a418                espconn_get_packet_info
 *fill*         0x4021a4ab        0x1 
 .text.espconn_set_opt
                0x4021a4ac       0x5a c:/Espressif/ESP8266_SDK_210/lib\liblwip.a(espconn.o)
                                 0x5e (size before relaxing)
                0x4021a4ac                espconn_set_opt
 *fill*         0x4021a506        0x2 
 .text.espconn_clear_opt
                0x4021a508       0x61 c:/Espressif/ESP8266_SDK_210/lib\liblwip.a(espconn.o)
                                 0x65 (size before relaxing)
                0x4021a508                espconn_clear_opt
 *fill*         0x4021a569        0x3 
 .text.espconn_set_keepalive
                0x4021a56c       0x6f c:/Espressif/ESP8266_SDK_210/lib\liblwip.a(espconn.o)
                                 0x73 (size before relaxing)
                0x4021a56c                espconn_set_keepalive
 *fill*         0x4021a5db        0x1 
 .text.espconn_get_keepalive
                0x4021a5dc       0x71 c:/Espressif/ESP8266_SDK_210/lib\liblwip.a(espconn.o)
                                 0x7d (size before relaxing)
                0x4021a5dc                espconn_get_keepalive
 *fill*         0x4021a64d        0x3 
 .text.espconn_delete
                0x4021a650       0x3d c:/Espressif/ESP8266_SDK_210/lib\liblwip.a(espconn.o)
                                 0x4c (size before relaxing)
                0x4021a650                espconn_delete
 *fill*         0x4021a68d        0x3 
 .text.espconn_port
                0x4021a690       0x3e c:/Espressif/ESP8266_SDK_210/lib\liblwip.a(espconn.o)
                                 0x46 (size before relaxing)
                0x4021a698                espconn_port
 *fill*         0x4021a6ce        0x2 
 .text.espconn_gethostbyname
                0x4021a6d0       0x1c c:/Espressif/ESP8266_SDK_210/lib\liblwip.a(espconn.o)
                                 0x20 (size before relaxing)
                0x4021a6d0                espconn_gethostbyname
 .text.espconn_dns_setserver
                0x4021a6ec       0x39 c:/Espressif/ESP8266_SDK_210/lib\liblwip.a(espconn.o)
                                 0x58 (size before relaxing)
                0x4021a6ec                espconn_dns_setserver
 *fill*         0x4021a725        0x3 
 .text.espconn_dns_getserver
                0x4021a728       0x12 c:/Espressif/ESP8266_SDK_210/lib\liblwip.a(espconn.o)
                                 0x16 (size before relaxing)
                0x4021a728                espconn_dns_getserver
 *fill*         0x4021a73a        0x2 
 .text.espconn_data_sent
                0x4021a73c       0x3d c:/Espressif/ESP8266_SDK_210/lib\liblwip.a(espconn_udp.o)
                                 0x49 (size before relaxing)
 *fill*         0x4021a779        0x3 
 .text.espconn_udp_sent
                0x4021a77c      0x16a c:/Espressif/ESP8266_SDK_210/lib\liblwip.a(espconn_udp.o)
                                0x1d5 (size before relaxing)
                0x4021a780                espconn_udp_sent
 *fill*         0x4021a8e6        0x2 
 .text.espconn_udp_sendto
                0x4021a8e8      0x16d c:/Espressif/ESP8266_SDK_210/lib\liblwip.a(espconn_udp.o)
                                0x1dc (size before relaxing)
                0x4021a8e8                espconn_udp_sendto
 *fill*         0x4021aa55        0x3 
 .text.espconn_udp_recv
                0x4021aa58       0xe7 c:/Espressif/ESP8266_SDK_210/lib\liblwip.a(espconn_udp.o)
                                0x11b (size before relaxing)
 *fill*         0x4021ab3f        0x1 
 .text.espconn_udp_disconnect
                0x4021ab40       0x37 c:/Espressif/ESP8266_SDK_210/lib\liblwip.a(espconn_udp.o)
                                 0x57 (size before relaxing)
                0x4021ab40                espconn_udp_disconnect
 *fill*         0x4021ab77        0x1 
 .text.espconn_udp_server
                0x4021ab78       0x6c c:/Espressif/ESP8266_SDK_210/lib\liblwip.a(espconn_udp.o)
                                 0x9c (size before relaxing)
                0x4021ab7c                espconn_udp_server
 .text.espconn_igmp_leave
                0x4021abe4       0x1b c:/Espressif/ESP8266_SDK_210/lib\liblwip.a(espconn_udp.o)
                                 0x1f (size before relaxing)
                0x4021abe4                espconn_igmp_leave
 *fill*         0x4021abff        0x1 
 .text.espconn_igmp_join
                0x4021ac00       0x1b c:/Espressif/ESP8266_SDK_210/lib\liblwip.a(espconn_udp.o)
                                 0x1f (size before relaxing)
                0x4021ac00                espconn_igmp_join
 *fill*         0x4021ac1b        0x1 
 .text.icmp_input
                0x4021ac1c      0x1cc c:/Espressif/ESP8266_SDK_210/lib\liblwip.a(icmp.o)
                                0x24c (size before relaxing)
                0x4021ac20                icmp_input
 .text.icmp_dest_unreach
                0x4021ade8       0x17 c:/Espressif/ESP8266_SDK_210/lib\liblwip.a(icmp.o)
                                 0x1b (size before relaxing)
                0x4021ade8                icmp_dest_unreach
 *fill*         0x4021adff        0x1 
 .text.icmp_send_response
                0x4021ae00       0xaa c:/Espressif/ESP8266_SDK_210/lib\liblwip.a(icmp.o)
                                 0xca (size before relaxing)
 *fill*         0x4021aeaa        0x2 
 .text.igmp_init
                0x4021aeac       0x1b c:/Espressif/ESP8266_SDK_210/lib\liblwip.a(igmp.o)
                0x4021aeb8                igmp_init
 *fill*         0x4021aec7        0x1 
 .text.igmp_start
                0x4021aec8       0x40 c:/Espressif/ESP8266_SDK_210/lib\liblwip.a(igmp.o)
                                 0x4c (size before relaxing)
                0x4021aec8                igmp_start
 .text.igmp_stop
                0x4021af08       0x68 c:/Espressif/ESP8266_SDK_210/lib\liblwip.a(igmp.o)
                                 0x74 (size before relaxing)
                0x4021af0c                igmp_stop
 .text.igmp_report_groups
                0x4021af70       0x31 c:/Espressif/ESP8266_SDK_210/lib\liblwip.a(igmp.o)
                                 0x39 (size before relaxing)
                0x4021af70                igmp_report_groups
 *fill*         0x4021afa1        0x3 
 .text.igmp_lookfor_group
                0x4021afa4       0x20 c:/Espressif/ESP8266_SDK_210/lib\liblwip.a(igmp.o)
                                 0x24 (size before relaxing)
                0x4021afa4                igmp_lookfor_group
 .text.igmp_lookup_group
                0x4021afc4       0x5c c:/Espressif/ESP8266_SDK_210/lib\liblwip.a(igmp.o)
                                 0x70 (size before relaxing)
 .text.igmp_remove_group
                0x4021b020       0x49 c:/Espressif/ESP8266_SDK_210/lib\liblwip.a(igmp.o)
                                 0x55 (size before relaxing)
 *fill*         0x4021b069        0x3 
 .text.igmp_input
                0x4021b06c      0x14b c:/Espressif/ESP8266_SDK_210/lib\liblwip.a(igmp.o)
                                0x18b (size before relaxing)
                0x4021b06c                igmp_input
 *fill*         0x4021b1b7        0x1 
 .text.igmp_joingroup
                0x4021b1b8       0xaa c:/Espressif/ESP8266_SDK_210/lib\liblwip.a(igmp.o)
                                 0xc6 (size before relaxing)
                0x4021b1b8                igmp_joingroup
 *fill*         0x4021b262        0x2 
 .text.igmp_leavegroup
                0x4021b264       0xa9 c:/Espressif/ESP8266_SDK_210/lib\liblwip.a(igmp.o)
                                 0xc1 (size before relaxing)
                0x4021b264                igmp_leavegroup
 *fill*         0x4021b30d        0x3 
 .text.igmp_tmr
                0x4021b310       0x33 c:/Espressif/ESP8266_SDK_210/lib\liblwip.a(igmp.o)
                                 0x3b (size before relaxing)
                0x4021b310                igmp_tmr
 *fill*         0x4021b343        0x1 
 .text.igmp_timeout
                0x4021b344       0x1a c:/Espressif/ESP8266_SDK_210/lib\liblwip.a(igmp.o)
                                 0x1e (size before relaxing)
 *fill*         0x4021b35e        0x2 
 .text.igmp_start_timer
                0x4021b360       0x3b c:/Espressif/ESP8266_SDK_210/lib\liblwip.a(igmp.o)
                                 0x43 (size before relaxing)
 *fill*         0x4021b39b        0x1 
 .text.igmp_delaying_member
                0x4021b39c       0x33 c:/Espressif/ESP8266_SDK_210/lib\liblwip.a(igmp.o)
                                 0x37 (size before relaxing)
 *fill*         0x4021b3cf        0x1 
 .text.igmp_ip_output_if
                0x4021b3d0       0x2c c:/Espressif/ESP8266_SDK_210/lib\liblwip.a(igmp.o)
                                 0x30 (size before relaxing)
 .text.igmp_send
                0x4021b3fc       0xc9 c:/Espressif/ESP8266_SDK_210/lib\liblwip.a(igmp.o)
                                 0xe1 (size before relaxing)
 *fill*         0x4021b4c5        0x3 
 .text.inet_chksum_pseudo
                0x4021b4c8       0xc2 c:/Espressif/ESP8266_SDK_210/lib\liblwip.a(inet_chksum.o)
                                 0xc6 (size before relaxing)
                0x4021b4c8                inet_chksum_pseudo
 *fill*         0x4021b58a        0x2 
 .text.inet_chksum_pseudo_partial
                0x4021b58c       0xdc c:/Espressif/ESP8266_SDK_210/lib\liblwip.a(inet_chksum.o)
                                 0xe0 (size before relaxing)
                0x4021b58c                inet_chksum_pseudo_partial
 .text.inet_chksum
                0x4021b668       0x1a c:/Espressif/ESP8266_SDK_210/lib\liblwip.a(inet_chksum.o)
                                 0x1e (size before relaxing)
                0x4021b668                inet_chksum
 *fill*         0x4021b682        0x2 
 .text.inet_chksum_pbuf
                0x4021b684       0x6f c:/Espressif/ESP8266_SDK_210/lib\liblwip.a(inet_chksum.o)
                                 0x73 (size before relaxing)
                0x4021b684                inet_chksum_pbuf
 *fill*         0x4021b6f3        0x1 
 .literal.dhcp_handle_nak
                0x4021b6f4        0x0 c:/Espressif/ESP8266_SDK_210/lib\liblwip.a(dhcp.o)
 .literal.dhcp_check
                0x4021b6f4        0x0 c:/Espressif/ESP8266_SDK_210/lib\liblwip.a(dhcp.o)
 .literal.dhcp_handle_offer
                0x4021b6f4        0x0 c:/Espressif/ESP8266_SDK_210/lib\liblwip.a(dhcp.o)
 .literal.dhcp_select
                0x4021b6f4        0x0 c:/Espressif/ESP8266_SDK_210/lib\liblwip.a(dhcp.o)
 .literal.dhcp_coarse_tmr
                0x4021b6f4        0x0 c:/Espressif/ESP8266_SDK_210/lib\liblwip.a(dhcp.o)
 .literal.dhcp_fine_tmr
                0x4021b6f4        0x0 c:/Espressif/ESP8266_SDK_210/lib\liblwip.a(dhcp.o)
 .literal.dhcp_timeout
                0x4021b6f4        0x0 c:/Espressif/ESP8266_SDK_210/lib\liblwip.a(dhcp.o)
 .literal.dhcp_t1_timeout
                0x4021b6f4        0x0 c:/Espressif/ESP8266_SDK_210/lib\liblwip.a(dhcp.o)
 .literal.dhcp_t2_timeout
                0x4021b6f4        0x0 c:/Espressif/ESP8266_SDK_210/lib\liblwip.a(dhcp.o)
 .literal.dhcp_handle_ack
                0x4021b6f4        0x0 c:/Espressif/ESP8266_SDK_210/lib\liblwip.a(dhcp.o)
 .literal.dhcp_set_struct
                0x4021b6f4        0x0 c:/Espressif/ESP8266_SDK_210/lib\liblwip.a(dhcp.o)
 .literal.dhcp_cleanup
                0x4021b6f4        0x0 c:/Espressif/ESP8266_SDK_210/lib\liblwip.a(dhcp.o)
 .literal.dhcp_start
                0x4021b6f4        0x0 c:/Espressif/ESP8266_SDK_210/lib\liblwip.a(dhcp.o)
 .literal.dhcp_inform
                0x4021b6f4        0x0 c:/Espressif/ESP8266_SDK_210/lib\liblwip.a(dhcp.o)
 .literal.dhcp_network_changed
                0x4021b6f4        0x0 c:/Espressif/ESP8266_SDK_210/lib\liblwip.a(dhcp.o)
 .literal.dhcp_arp_reply
                0x4021b6f4        0x0 c:/Espressif/ESP8266_SDK_210/lib\liblwip.a(dhcp.o)
 .literal.dhcp_decline
                0x4021b6f4        0x0 c:/Espressif/ESP8266_SDK_210/lib\liblwip.a(dhcp.o)
 .literal.dhcp_discover
                0x4021b6f4        0x0 c:/Espressif/ESP8266_SDK_210/lib\liblwip.a(dhcp.o)
 .literal.dhcp_bind
                0x4021b6f4        0x0 c:/Espressif/ESP8266_SDK_210/lib\liblwip.a(dhcp.o)
 .literal.dhcp_renew
                0x4021b6f4        0x0 c:/Espressif/ESP8266_SDK_210/lib\liblwip.a(dhcp.o)
 .literal.dhcp_rebind
                0x4021b6f4        0x0 c:/Espressif/ESP8266_SDK_210/lib\liblwip.a(dhcp.o)
 .literal.dhcp_reboot
                0x4021b6f4        0x0 c:/Espressif/ESP8266_SDK_210/lib\liblwip.a(dhcp.o)
 .literal.dhcp_release
                0x4021b6f4        0x0 c:/Espressif/ESP8266_SDK_210/lib\liblwip.a(dhcp.o)
 .literal.dhcp_stop
                0x4021b6f4        0x0 c:/Espressif/ESP8266_SDK_210/lib\liblwip.a(dhcp.o)
 .literal.dhcp_set_state
                0x4021b6f4        0x0 c:/Espressif/ESP8266_SDK_210/lib\liblwip.a(dhcp.o)
 .literal.dhcp_option
                0x4021b6f4        0x0 c:/Espressif/ESP8266_SDK_210/lib\liblwip.a(dhcp.o)
 .literal.dhcp_option_byte
                0x4021b6f4        0x0 c:/Espressif/ESP8266_SDK_210/lib\liblwip.a(dhcp.o)
 .literal.dhcp_option_short
                0x4021b6f4        0x0 c:/Espressif/ESP8266_SDK_210/lib\liblwip.a(dhcp.o)
 .literal.dhcp_option_long
                0x4021b6f4        0x0 c:/Espressif/ESP8266_SDK_210/lib\liblwip.a(dhcp.o)
 .literal.dhcp_parse_reply
                0x4021b6f4        0x0 c:/Espressif/ESP8266_SDK_210/lib\liblwip.a(dhcp.o)
 .literal.dhcp_recv
                0x4021b6f4        0x0 c:/Espressif/ESP8266_SDK_210/lib\liblwip.a(dhcp.o)
 .literal.dhcp_create_msg
                0x4021b6f4        0x0 c:/Espressif/ESP8266_SDK_210/lib\liblwip.a(dhcp.o)
 .literal.dhcp_delete_msg
                0x4021b6f4        0x0 c:/Espressif/ESP8266_SDK_210/lib\liblwip.a(dhcp.o)
 .literal.dhcp_option_trailer
                0x4021b6f4        0x0 c:/Espressif/ESP8266_SDK_210/lib\liblwip.a(dhcp.o)
 *fill*         0x4021b6f4        0x0 
 *fill*         0x4021b6f4        0x0 
 *fill*         0x4021b6f4        0x0 
 *fill*         0x4021b6f4        0x0 
 *fill*         0x4021b6f4        0x0 
 *fill*         0x4021b6f4        0x0 
 *fill*         0x4021b6f4        0x0 
 *fill*         0x4021b6f4        0x0 
 *fill*         0x4021b6f4        0x0 
 *fill*         0x4021b6f4        0x0 
 *fill*         0x4021b6f4        0x0 
 *fill*         0x4021b6f4        0x0 
 *fill*         0x4021b6f4        0x0 
 *fill*         0x4021b6f4        0x0 
 *fill*         0x4021b6f4        0x0 
 *fill*         0x4021b6f4        0x0 
 .text.dhcp_set_state
                0x4021b6f4       0x13 c:/Espressif/ESP8266_SDK_210/lib\liblwip.a(dhcp.o)
 *fill*         0x4021b707        0x1 
 .text.dhcp_option
                0x4021b708       0x20 c:/Espressif/ESP8266_SDK_210/lib\liblwip.a(dhcp.o)
 .text.dhcp_option_byte
                0x4021b728       0x11 c:/Espressif/ESP8266_SDK_210/lib\liblwip.a(dhcp.o)
 *fill*         0x4021b739        0x3 
 .text.dhcp_option_short
                0x4021b73c       0x23 c:/Espressif/ESP8266_SDK_210/lib\liblwip.a(dhcp.o)
 *fill*         0x4021b75f        0x1 
 .text.dhcp_option_long
                0x4021b760       0x47 c:/Espressif/ESP8266_SDK_210/lib\liblwip.a(dhcp.o)
 *fill*         0x4021b7a7        0x0 
 *fill*         0x4021b7a7        0x1 
 .text.dhcp_option_trailer
                0x4021b7a8       0x36 c:/Espressif/ESP8266_SDK_210/lib\liblwip.a(dhcp.o)
 *fill*         0x4021b7de        0x2 
 .literal.node_insert_to_list
                0x4021b7e0        0x0 c:/Espressif/ESP8266_SDK_210/lib\liblwip.a(dhcpserver.o)
 .literal.node_remove_from_list
                0x4021b7e0        0x0 c:/Espressif/ESP8266_SDK_210/lib\liblwip.a(dhcpserver.o)
 .literal.add_msg_type
                0x4021b7e0        0x0 c:/Espressif/ESP8266_SDK_210/lib\liblwip.a(dhcpserver.o)
 .literal.add_offer_options
                0x4021b7e0        0x0 c:/Espressif/ESP8266_SDK_210/lib\liblwip.a(dhcpserver.o)
 .literal.add_end
                0x4021b7e0        0x0 c:/Espressif/ESP8266_SDK_210/lib\liblwip.a(dhcpserver.o)
 .literal.create_msg
                0x4021b7e0        0x0 c:/Espressif/ESP8266_SDK_210/lib\liblwip.a(dhcpserver.o)
 .literal.send_offer
                0x4021b7e0        0x0 c:/Espressif/ESP8266_SDK_210/lib\liblwip.a(dhcpserver.o)
 .literal.send_nak
                0x4021b7e0        0x0 c:/Espressif/ESP8266_SDK_210/lib\liblwip.a(dhcpserver.o)
 .literal.send_ack
                0x4021b7e0        0x0 c:/Espressif/ESP8266_SDK_210/lib\liblwip.a(dhcpserver.o)
 .literal.parse_options
                0x4021b7e0        0x0 c:/Espressif/ESP8266_SDK_210/lib\liblwip.a(dhcpserver.o)
 .literal.parse_msg
                0x4021b7e0        0x0 c:/Espressif/ESP8266_SDK_210/lib\liblwip.a(dhcpserver.o)
 .literal.handle_dhcp
                0x4021b7e0        0x0 c:/Espressif/ESP8266_SDK_210/lib\liblwip.a(dhcpserver.o)
 .literal.wifi_softap_init_dhcps_lease
                0x4021b7e0        0x0 c:/Espressif/ESP8266_SDK_210/lib\liblwip.a(dhcpserver.o)
 .literal.dhcps_start
                0x4021b7e0        0x0 c:/Espressif/ESP8266_SDK_210/lib\liblwip.a(dhcpserver.o)
 .literal.dhcps_stop
                0x4021b7e0        0x0 c:/Espressif/ESP8266_SDK_210/lib\liblwip.a(dhcpserver.o)
 .literal.wifi_softap_set_dhcps_lease
                0x4021b7e0        0x0 c:/Espressif/ESP8266_SDK_210/lib\liblwip.a(dhcpserver.o)
 .literal.wifi_softap_get_dhcps_lease
                0x4021b7e0        0x0 c:/Espressif/ESP8266_SDK_210/lib\liblwip.a(dhcpserver.o)
 .literal.kill_oldest_dhcps_pool
                0x4021b7e0        0x0 c:/Espressif/ESP8266_SDK_210/lib\liblwip.a(dhcpserver.o)
 .literal.dhcps_coarse_tmr
                0x4021b7e0        0x0 c:/Espressif/ESP8266_SDK_210/lib\liblwip.a(dhcpserver.o)
 .literal.wifi_softap_set_dhcps_offer_option
                0x4021b7e0        0x0 c:/Espressif/ESP8266_SDK_210/lib\liblwip.a(dhcpserver.o)
 .literal.wifi_softap_set_dhcps_lease_time
                0x4021b7e0        0x0 c:/Espressif/ESP8266_SDK_210/lib\liblwip.a(dhcpserver.o)
 .literal.wifi_softap_reset_dhcps_lease_time
                0x4021b7e0        0x0 c:/Espressif/ESP8266_SDK_210/lib\liblwip.a(dhcpserver.o)
 .literal.wifi_softap_get_dhcps_lease_time
                0x4021b7e0        0x0 c:/Espressif/ESP8266_SDK_210/lib\liblwip.a(dhcpserver.o)
 .literal.wifi_softap_dhcps_client_leave
                0x4021b7e0        0x0 c:/Espressif/ESP8266_SDK_210/lib\liblwip.a(dhcpserver.o)
 .literal.wifi_softap_dhcps_client_update
                0x4021b7e0        0x0 c:/Espressif/ESP8266_SDK_210/lib\liblwip.a(dhcpserver.o)
 .text.node_insert_to_list
                0x4021b7e0       0x35 c:/Espressif/ESP8266_SDK_210/lib\liblwip.a(dhcpserver.o)
                0x4021b7e0                node_insert_to_list
 *fill*         0x4021b815        0x3 
 .text.node_remove_from_list
                0x4021b818       0x29 c:/Espressif/ESP8266_SDK_210/lib\liblwip.a(dhcpserver.o)
                0x4021b818                node_remove_from_list
 *fill*         0x4021b841        0x3 
 .text.add_msg_type
                0x4021b844       0x11 c:/Espressif/ESP8266_SDK_210/lib\liblwip.a(dhcpserver.o)
 *fill*         0x4021b855        0x0 
 *fill*         0x4021b855        0x3 
 .text.add_end  0x4021b858        0x9 c:/Espressif/ESP8266_SDK_210/lib\liblwip.a(dhcpserver.o)
 *fill*         0x4021b861        0x0 
 *fill*         0x4021b861        0x0 
 *fill*         0x4021b861        0x0 
 *fill*         0x4021b861        0x0 
 *fill*         0x4021b861        0x0 
 *fill*         0x4021b861        0x0 
 *fill*         0x4021b861        0x0 
 *fill*         0x4021b861        0x0 
 *fill*         0x4021b861        0x0 
 *fill*         0x4021b861        0x0 
 *fill*         0x4021b861        0x0 
 *fill*         0x4021b861        0x0 
 *fill*         0x4021b861        0x3 
 .literal.dns_init
                0x4021b864        0x0 c:/Espressif/ESP8266_SDK_210/lib\liblwip.a(dns.o)
 .literal.dns_setserver
                0x4021b864        0x0 c:/Espressif/ESP8266_SDK_210/lib\liblwip.a(dns.o)
 .literal.dns_getserver
                0x4021b864        0x0 c:/Espressif/ESP8266_SDK_210/lib\liblwip.a(dns.o)
 .literal.dns_tmr
                0x4021b864        0x0 c:/Espressif/ESP8266_SDK_210/lib\liblwip.a(dns.o)
 .literal.dns_compare_name
                0x4021b864        0x0 c:/Espressif/ESP8266_SDK_210/lib\liblwip.a(dns.o)
 .literal.dns_parse_name
                0x4021b864        0x0 c:/Espressif/ESP8266_SDK_210/lib\liblwip.a(dns.o)
 .literal.dns_send
                0x4021b864        0x0 c:/Espressif/ESP8266_SDK_210/lib\liblwip.a(dns.o)
 .literal.dns_check_entry
                0x4021b864        0x0 c:/Espressif/ESP8266_SDK_210/lib\liblwip.a(dns.o)
 .literal.dns_check_entries
                0x4021b864        0x0 c:/Espressif/ESP8266_SDK_210/lib\liblwip.a(dns.o)
 .literal.dns_recv
                0x4021b864        0x0 c:/Espressif/ESP8266_SDK_210/lib\liblwip.a(dns.o)
 .literal.dns_enqueue
                0x4021b864        0x0 c:/Espressif/ESP8266_SDK_210/lib\liblwip.a(dns.o)
 .literal.dns_gethostbyname
                0x4021b864        0x0 c:/Espressif/ESP8266_SDK_210/lib\liblwip.a(dns.o)
 *fill*         0x4021b864        0x0 
 *fill*         0x4021b864        0x0 
 *fill*         0x4021b864        0x0 
 *fill*         0x4021b864        0x0 
 .text.dns_compare_name
                0x4021b864       0x34 c:/Espressif/ESP8266_SDK_210/lib\liblwip.a(dns.o)
 .text.dns_parse_name
                0x4021b898       0x23 c:/Espressif/ESP8266_SDK_210/lib\liblwip.a(dns.o)
 *fill*         0x4021b8bb        0x0 
 *fill*         0x4021b8bb        0x0 
 *fill*         0x4021b8bb        0x0 
 *fill*         0x4021b8bb        0x0 
 *fill*         0x4021b8bb        0x0 
 *fill*         0x4021b8bb        0x1 
 .literal.espconn_kill_oldest
                0x4021b8bc        0x0 c:/Espressif/ESP8266_SDK_210/lib\liblwip.a(espconn_tcp.o)
 .literal.espconn_kill_oldest_pcb
                0x4021b8bc        0x0 c:/Espressif/ESP8266_SDK_210/lib\liblwip.a(espconn_tcp.o)
 .literal.espconn_kill_pcb
                0x4021b8bc        0x0 c:/Espressif/ESP8266_SDK_210/lib\liblwip.a(espconn_tcp.o)
 .literal.espconn_find_current_pcb
                0x4021b8bc        0x0 c:/Espressif/ESP8266_SDK_210/lib\liblwip.a(espconn_tcp.o)
 .literal.espconn_tcp_memp_free
                0x4021b8bc        0x0 c:/Espressif/ESP8266_SDK_210/lib\liblwip.a(espconn_tcp.o)
 .literal.espconn_tcp_reconnect
                0x4021b8bc        0x0 c:/Espressif/ESP8266_SDK_210/lib\liblwip.a(espconn_tcp.o)
 .literal.espconn_tcp_disconnect_successful
                0x4021b8bc        0x0 c:/Espressif/ESP8266_SDK_210/lib\liblwip.a(espconn_tcp.o)
 .literal.espconn_Task
                0x4021b8bc        0x0 c:/Espressif/ESP8266_SDK_210/lib\liblwip.a(espconn_tcp.o)
 .literal.espconn_tcp_sent
                0x4021b8bc        0x0 c:/Espressif/ESP8266_SDK_210/lib\liblwip.a(espconn_tcp.o)
 .literal.espconn_tcp_disconnect
                0x4021b8bc        0x0 c:/Espressif/ESP8266_SDK_210/lib\liblwip.a(espconn_tcp.o)
 .literal.espconn_client_close
                0x4021b8bc        0x0 c:/Espressif/ESP8266_SDK_210/lib\liblwip.a(espconn_tcp.o)
 .literal.espconn_recv_hold
                0x4021b8bc        0x0 c:/Espressif/ESP8266_SDK_210/lib\liblwip.a(espconn_tcp.o)
 .literal.espconn_recv_unhold
                0x4021b8bc        0x0 c:/Espressif/ESP8266_SDK_210/lib\liblwip.a(espconn_tcp.o)
 .literal.espconn_lock_recv
                0x4021b8bc        0x0 c:/Espressif/ESP8266_SDK_210/lib\liblwip.a(espconn_tcp.o)
 .literal.espconn_unlock_recv
                0x4021b8bc        0x0 c:/Espressif/ESP8266_SDK_210/lib\liblwip.a(espconn_tcp.o)
 .literal.espconn_client_recv
                0x4021b8bc        0x0 c:/Espressif/ESP8266_SDK_210/lib\liblwip.a(espconn_tcp.o)
 .literal.espconn_tcp_write
                0x4021b8bc        0x0 c:/Espressif/ESP8266_SDK_210/lib\liblwip.a(espconn_tcp.o)
 .literal.espconn_tcp_finish
                0x4021b8bc        0x0 c:/Espressif/ESP8266_SDK_210/lib\liblwip.a(espconn_tcp.o)
 .literal.espconn_client_sent
                0x4021b8bc        0x0 c:/Espressif/ESP8266_SDK_210/lib\liblwip.a(espconn_tcp.o)
 .literal.espconn_client_err
                0x4021b8bc        0x0 c:/Espressif/ESP8266_SDK_210/lib\liblwip.a(espconn_tcp.o)
 .literal.espconn_client_connect
                0x4021b8bc        0x0 c:/Espressif/ESP8266_SDK_210/lib\liblwip.a(espconn_tcp.o)
 .literal.espconn_tcp_client
                0x4021b8bc        0x0 c:/Espressif/ESP8266_SDK_210/lib\liblwip.a(espconn_tcp.o)
 .literal.espconn_server_close
                0x4021b8bc        0x0 c:/Espressif/ESP8266_SDK_210/lib\liblwip.a(espconn_tcp.o)
 .literal.espconn_server_recv
                0x4021b8bc        0x0 c:/Espressif/ESP8266_SDK_210/lib\liblwip.a(espconn_tcp.o)
 .literal.espconn_server_sent
                0x4021b8bc        0x0 c:/Espressif/ESP8266_SDK_210/lib\liblwip.a(espconn_tcp.o)
 .literal.espconn_server_poll
                0x4021b8bc        0x0 c:/Espressif/ESP8266_SDK_210/lib\liblwip.a(espconn_tcp.o)
 .literal.esponn_server_err
                0x4021b8bc        0x0 c:/Espressif/ESP8266_SDK_210/lib\liblwip.a(espconn_tcp.o)
 .literal.espconn_tcp_accept
                0x4021b8bc        0x0 c:/Espressif/ESP8266_SDK_210/lib\liblwip.a(espconn_tcp.o)
 .literal.espconn_tcp_server
                0x4021b8bc        0x0 c:/Espressif/ESP8266_SDK_210/lib\liblwip.a(espconn_tcp.o)
 .literal.espconn_tcp_delete
                0x4021b8bc        0x0 c:/Espressif/ESP8266_SDK_210/lib\liblwip.a(espconn_tcp.o)
 .literal.espconn_init
                0x4021b8bc        0x0 c:/Espressif/ESP8266_SDK_210/lib\liblwip.a(espconn_tcp.o)
 *fill*         0x4021b8bc        0x0 
 *fill*         0x4021b8bc        0x0 
 *fill*         0x4021b8bc        0x0 
 *fill*         0x4021b8bc        0x0 
 *fill*         0x4021b8bc        0x0 
 *fill*         0x4021b8bc        0x0 
 *fill*         0x4021b8bc        0x0 
 *fill*         0x4021b8bc        0x0 
 *fill*         0x4021b8bc        0x0 
 *fill*         0x4021b8bc        0x0 
 *fill*         0x4021b8bc        0x0 
 *fill*         0x4021b8bc        0x0 
 *fill*         0x4021b8bc        0x0 
 *fill*         0x4021b8bc        0x0 
 *fill*         0x4021b8bc        0x0 
 *fill*         0x4021b8bc        0x0 
 *fill*         0x4021b8bc        0x0 
 *fill*         0x4021b8bc        0x0 
 *fill*         0x4021b8bc        0x0 
 *fill*         0x4021b8bc        0x0 
 *fill*         0x4021b8bc        0x0 
 *fill*         0x4021b8bc        0x0 
 *fill*         0x4021b8bc        0x0 
 *fill*         0x4021b8bc        0x0 
 .literal.free_etharp_q
                0x4021b8bc        0x0 c:/Espressif/ESP8266_SDK_210/lib\liblwip.a(etharp.o)
 .literal.free_entry
                0x4021b8bc        0x0 c:/Espressif/ESP8266_SDK_210/lib\liblwip.a(etharp.o)
 .literal.etharp_tmr
                0x4021b8bc        0x0 c:/Espressif/ESP8266_SDK_210/lib\liblwip.a(etharp.o)
 .literal.find_entry
                0x4021b8bc        0x0 c:/Espressif/ESP8266_SDK_210/lib\liblwip.a(etharp.o)
 .literal.etharp_send_ip
                0x4021b8bc        0x0 c:/Espressif/ESP8266_SDK_210/lib\liblwip.a(etharp.o)
 .literal.update_arp_entry
                0x4021b8bc        0x0 c:/Espressif/ESP8266_SDK_210/lib\liblwip.a(etharp.o)
 .literal.etharp_cleanup_netif
                0x4021b8bc        0x0 c:/Espressif/ESP8266_SDK_210/lib\liblwip.a(etharp.o)
 .literal.etharp_find_addr
                0x4021b8bc        0x0 c:/Espressif/ESP8266_SDK_210/lib\liblwip.a(etharp.o)
 .literal.etharp_ip_input
                0x4021b8bc        0x0 c:/Espressif/ESP8266_SDK_210/lib\liblwip.a(etharp.o)
 .literal.etharp_arp_input
                0x4021b8bc        0x0 c:/Espressif/ESP8266_SDK_210/lib\liblwip.a(etharp.o)
 .literal.etharp_output_to_arp_index
                0x4021b8bc        0x0 c:/Espressif/ESP8266_SDK_210/lib\liblwip.a(etharp.o)
 .literal.etharp_output
                0x4021b8bc        0x0 c:/Espressif/ESP8266_SDK_210/lib\liblwip.a(etharp.o)
 .literal.etharp_query
                0x4021b8bc        0x0 c:/Espressif/ESP8266_SDK_210/lib\liblwip.a(etharp.o)
 .literal.etharp_raw
                0x4021b8bc        0x0 c:/Espressif/ESP8266_SDK_210/lib\liblwip.a(etharp.o)
 .literal.etharp_request
                0x4021b8bc        0x0 c:/Espressif/ESP8266_SDK_210/lib\liblwip.a(etharp.o)
 .literal.ethernet_input
                0x4021b8bc        0x0 c:/Espressif/ESP8266_SDK_210/lib\liblwip.a(etharp.o)
 *fill*         0x4021b8bc        0x0 
 *fill*         0x4021b8bc        0x0 
 *fill*         0x4021b8bc        0x0 
 *fill*         0x4021b8bc        0x0 
 *fill*         0x4021b8bc        0x0 
 *fill*         0x4021b8bc        0x0 
 *fill*         0x4021b8bc        0x0 
 *fill*         0x4021b8bc        0x0 
 *fill*         0x4021b8bc        0x0 
 *fill*         0x4021b8bc        0x0 
 *fill*         0x4021b8bc        0x0 
 .literal.lwip_init
                0x4021b8bc        0x0 c:/Espressif/ESP8266_SDK_210/lib\liblwip.a(init.o)
 .literal.ip4_addr_isbroadcast
                0x4021b8bc        0x0 c:/Espressif/ESP8266_SDK_210/lib\liblwip.a(ip_addr.o)
 .literal.ip4_addr_netmask_valid
                0x4021b8bc        0x0 c:/Espressif/ESP8266_SDK_210/lib\liblwip.a(ip_addr.o)
 .literal.ipaddr_addr
                0x4021b8bc        0x0 c:/Espressif/ESP8266_SDK_210/lib\liblwip.a(ip_addr.o)
 .literal.ipaddr_aton
                0x4021b8bc        0x0 c:/Espressif/ESP8266_SDK_210/lib\liblwip.a(ip_addr.o)
 .literal.ipaddr_ntoa
                0x4021b8bc        0x0 c:/Espressif/ESP8266_SDK_210/lib\liblwip.a(ip_addr.o)
 .literal.ipaddr_ntoa_r
                0x4021b8bc        0x0 c:/Espressif/ESP8266_SDK_210/lib\liblwip.a(ip_addr.o)
 .text.ip4_addr_isbroadcast
                0x4021b8bc       0x2b c:/Espressif/ESP8266_SDK_210/lib\liblwip.a(ip_addr.o)
                0x4021b8bc                ip4_addr_isbroadcast
 *fill*         0x4021b8e7        0x0 
 *fill*         0x4021b8e7        0x0 
 *fill*         0x4021b8e7        0x0 
 *fill*         0x4021b8e7        0x0 
 *fill*         0x4021b8e7        0x1 
 .literal.ip_route
                0x4021b8e8        0x0 c:/Espressif/ESP8266_SDK_210/lib\liblwip.a(ip.o)
 .literal.ip_router
                0x4021b8e8        0x0 c:/Espressif/ESP8266_SDK_210/lib\liblwip.a(ip.o)
 .literal.ip_input
                0x4021b8e8        0x0 c:/Espressif/ESP8266_SDK_210/lib\liblwip.a(ip.o)
 .literal.ip_output_if
                0x4021b8e8        0x0 c:/Espressif/ESP8266_SDK_210/lib\liblwip.a(ip.o)
 .literal.ip_output_if_opt
                0x4021b8e8        0x0 c:/Espressif/ESP8266_SDK_210/lib\liblwip.a(ip.o)
 .literal.ip_output
                0x4021b8e8        0x0 c:/Espressif/ESP8266_SDK_210/lib\liblwip.a(ip.o)
 *fill*         0x4021b8e8        0x0 
 *fill*         0x4021b8e8        0x0 
 *fill*         0x4021b8e8        0x0 
 *fill*         0x4021b8e8        0x0 
 .literal.netif_init
                0x4021b8e8        0x0 c:/Espressif/ESP8266_SDK_210/lib\liblwip.a(netif.o)
 .literal.netif_add
                0x4021b8e8        0x0 c:/Espressif/ESP8266_SDK_210/lib\liblwip.a(netif.o)
 .literal.netif_set_addr
                0x4021b8e8        0x0 c:/Espressif/ESP8266_SDK_210/lib\liblwip.a(netif.o)
 .literal.netif_remove
                0x4021b8e8        0x0 c:/Espressif/ESP8266_SDK_210/lib\liblwip.a(netif.o)
 .literal.netif_find
                0x4021b8e8        0x0 c:/Espressif/ESP8266_SDK_210/lib\liblwip.a(netif.o)
 .literal.netif_set_ipaddr
                0x4021b8e8        0x0 c:/Espressif/ESP8266_SDK_210/lib\liblwip.a(netif.o)
 .literal.netif_set_gw
                0x4021b8e8        0x0 c:/Espressif/ESP8266_SDK_210/lib\liblwip.a(netif.o)
 .literal.netif_set_netmask
                0x4021b8e8        0x0 c:/Espressif/ESP8266_SDK_210/lib\liblwip.a(netif.o)
 .literal.netif_set_default
                0x4021b8e8        0x0 c:/Espressif/ESP8266_SDK_210/lib\liblwip.a(netif.o)
 .literal.netif_set_up
                0x4021b8e8        0x0 c:/Espressif/ESP8266_SDK_210/lib\liblwip.a(netif.o)
 .literal.netif_set_down
                0x4021b8e8        0x0 c:/Espressif/ESP8266_SDK_210/lib\liblwip.a(netif.o)
 .literal.netif_set_link_up
                0x4021b8e8        0x0 c:/Espressif/ESP8266_SDK_210/lib\liblwip.a(netif.o)
 .literal.netif_set_link_down
                0x4021b8e8        0x0 c:/Espressif/ESP8266_SDK_210/lib\liblwip.a(netif.o)
 .text.netif_init
                0x4021b8e8        0x2 c:/Espressif/ESP8266_SDK_210/lib\liblwip.a(netif.o)
                0x4021b8e8                netif_init
 *fill*         0x4021b8ea        0x0 
 *fill*         0x4021b8ea        0x0 
 *fill*         0x4021b8ea        0x0 
 *fill*         0x4021b8ea        0x2 
 .text.netif_set_gw
                0x4021b8ec        0xd c:/Espressif/ESP8266_SDK_210/lib\liblwip.a(netif.o)
                0x4021b8ec                netif_set_gw
 *fill*         0x4021b8f9        0x3 
 .text.netif_set_netmask
                0x4021b8fc        0xd c:/Espressif/ESP8266_SDK_210/lib\liblwip.a(netif.o)
                0x4021b8fc                netif_set_netmask
 *fill*         0x4021b909        0x0 
 *fill*         0x4021b909        0x0 
 *fill*         0x4021b909        0x0 
 *fill*         0x4021b909        0x0 
 *fill*         0x4021b909        0x3 
 .text.netif_set_link_down
                0x4021b90c       0x11 c:/Espressif/ESP8266_SDK_210/lib\liblwip.a(netif.o)
                0x4021b90c                netif_set_link_down
 *fill*         0x4021b91d        0x3 
 .literal.pbuf_free_ooseq_new
                0x4021b920        0x0 c:/Espressif/ESP8266_SDK_210/lib\liblwip.a(pbuf.o)
 .literal.pbuf_alloc
                0x4021b920        0x0 c:/Espressif/ESP8266_SDK_210/lib\liblwip.a(pbuf.o)
 .literal.pbuf_realloc
                0x4021b920        0x0 c:/Espressif/ESP8266_SDK_210/lib\liblwip.a(pbuf.o)
 .literal.pbuf_header
                0x4021b920        0x0 c:/Espressif/ESP8266_SDK_210/lib\liblwip.a(pbuf.o)
 .literal.pbuf_free
                0x4021b920        0x0 c:/Espressif/ESP8266_SDK_210/lib\liblwip.a(pbuf.o)
 .literal.pbuf_clen
                0x4021b920        0x0 c:/Espressif/ESP8266_SDK_210/lib\liblwip.a(pbuf.o)
 .literal.pbuf_ref
                0x4021b920        0x0 c:/Espressif/ESP8266_SDK_210/lib\liblwip.a(pbuf.o)
 .literal.pbuf_cat
                0x4021b920        0x0 c:/Espressif/ESP8266_SDK_210/lib\liblwip.a(pbuf.o)
 .literal.pbuf_chain
                0x4021b920        0x0 c:/Espressif/ESP8266_SDK_210/lib\liblwip.a(pbuf.o)
 .literal.pbuf_dechain
                0x4021b920        0x0 c:/Espressif/ESP8266_SDK_210/lib\liblwip.a(pbuf.o)
 .literal.pbuf_copy
                0x4021b920        0x0 c:/Espressif/ESP8266_SDK_210/lib\liblwip.a(pbuf.o)
 .literal.pbuf_copy_partial
                0x4021b920        0x0 c:/Espressif/ESP8266_SDK_210/lib\liblwip.a(pbuf.o)
 .literal.pbuf_take
                0x4021b920        0x0 c:/Espressif/ESP8266_SDK_210/lib\liblwip.a(pbuf.o)
 .literal.pbuf_coalesce
                0x4021b920        0x0 c:/Espressif/ESP8266_SDK_210/lib\liblwip.a(pbuf.o)
 .literal.pbuf_get_at
                0x4021b920        0x0 c:/Espressif/ESP8266_SDK_210/lib\liblwip.a(pbuf.o)
 .literal.pbuf_memcmp
                0x4021b920        0x0 c:/Espressif/ESP8266_SDK_210/lib\liblwip.a(pbuf.o)
 .literal.pbuf_memfind
                0x4021b920        0x0 c:/Espressif/ESP8266_SDK_210/lib\liblwip.a(pbuf.o)
 .literal.pbuf_strstr
                0x4021b920        0x0 c:/Espressif/ESP8266_SDK_210/lib\liblwip.a(pbuf.o)
 *fill*         0x4021b920        0x0 
 *fill*         0x4021b920        0x0 
 *fill*         0x4021b920        0x0 
 .text.pbuf_header
                0x4021b920       0x6a c:/Espressif/ESP8266_SDK_210/lib\liblwip.a(pbuf.o)
                0x4021b920                pbuf_header
 *fill*         0x4021b98a        0x0 
 *fill*         0x4021b98a        0x2 
 .text.pbuf_clen
                0x4021b98c       0x17 c:/Espressif/ESP8266_SDK_210/lib\liblwip.a(pbuf.o)
                0x4021b98c                pbuf_clen
 *fill*         0x4021b9a3        0x1 
 .text.pbuf_ref
                0x4021b9a4        0xc c:/Espressif/ESP8266_SDK_210/lib\liblwip.a(pbuf.o)
                0x4021b9a4                pbuf_ref
 .text.pbuf_cat
                0x4021b9b0       0x29 c:/Espressif/ESP8266_SDK_210/lib\liblwip.a(pbuf.o)
                0x4021b9b0                pbuf_cat
 *fill*         0x4021b9d9        0x0 
 *fill*         0x4021b9d9        0x0 
 *fill*         0x4021b9d9        0x0 
 *fill*         0x4021b9d9        0x3 
 .text.pbuf_get_at
                0x4021b9dc       0x25 c:/Espressif/ESP8266_SDK_210/lib\liblwip.a(pbuf.o)
                0x4021b9dc                pbuf_get_at
 *fill*         0x4021ba01        0x0 
 *fill*         0x4021ba01        0x3 
 .literal.raw_input
                0x4021ba04        0x0 c:/Espressif/ESP8266_SDK_210/lib\liblwip.a(raw.o)
 .literal.raw_bind
                0x4021ba04        0x0 c:/Espressif/ESP8266_SDK_210/lib\liblwip.a(raw.o)
 .literal.raw_connect
                0x4021ba04        0x0 c:/Espressif/ESP8266_SDK_210/lib\liblwip.a(raw.o)
 .literal.raw_recv
                0x4021ba04        0x0 c:/Espressif/ESP8266_SDK_210/lib\liblwip.a(raw.o)
 .literal.raw_sendto
                0x4021ba04        0x0 c:/Espressif/ESP8266_SDK_210/lib\liblwip.a(raw.o)
 .literal.raw_send
                0x4021ba04        0x0 c:/Espressif/ESP8266_SDK_210/lib\liblwip.a(raw.o)
 .literal.raw_remove
                0x4021ba04        0x0 c:/Espressif/ESP8266_SDK_210/lib\liblwip.a(raw.o)
 .literal.raw_new
                0x4021ba04        0x0 c:/Espressif/ESP8266_SDK_210/lib\liblwip.a(raw.o)
 .text.raw_bind
                0x4021ba04        0xf c:/Espressif/ESP8266_SDK_210/lib\liblwip.a(raw.o)
                0x4021ba04                raw_bind
 *fill*         0x4021ba13        0x1 
 .text.raw_connect
                0x4021ba14        0xf c:/Espressif/ESP8266_SDK_210/lib\liblwip.a(raw.o)
                0x4021ba14                raw_connect
 *fill*         0x4021ba23        0x1 
 .text.raw_recv
                0x4021ba24        0x6 c:/Espressif/ESP8266_SDK_210/lib\liblwip.a(raw.o)
                0x4021ba24                raw_recv
 *fill*         0x4021ba2a        0x0 
 *fill*         0x4021ba2a        0x0 
 *fill*         0x4021ba2a        0x0 
 *fill*         0x4021ba2a        0x2 
 .literal.tcp_input
                0x4021ba2c        0x0 c:/Espressif/ESP8266_SDK_210/lib\liblwip.a(tcp_in.o)
 .literal.tcp_listen_input
                0x4021ba2c        0x0 c:/Espressif/ESP8266_SDK_210/lib\liblwip.a(tcp_in.o)
 .literal.tcp_timewait_input
                0x4021ba2c        0x0 c:/Espressif/ESP8266_SDK_210/lib\liblwip.a(tcp_in.o)
 .literal.tcp_process
                0x4021ba2c        0x0 c:/Espressif/ESP8266_SDK_210/lib\liblwip.a(tcp_in.o)
 .literal.tcp_oos_insert_segment
                0x4021ba2c        0x0 c:/Espressif/ESP8266_SDK_210/lib\liblwip.a(tcp_in.o)
 .literal.tcp_receive
                0x4021ba2c        0x0 c:/Espressif/ESP8266_SDK_210/lib\liblwip.a(tcp_in.o)
 .literal.tcp_parseopt
                0x4021ba2c        0x0 c:/Espressif/ESP8266_SDK_210/lib\liblwip.a(tcp_in.o)
 *fill*         0x4021ba2c        0x0 
 *fill*         0x4021ba2c        0x0 
 *fill*         0x4021ba2c        0x0 
 .literal.tcp_tmr
                0x4021ba2c        0x0 c:/Espressif/ESP8266_SDK_210/lib\liblwip.a(tcp.o)
 .literal.tcp_close_shutdown
                0x4021ba2c        0x0 c:/Espressif/ESP8266_SDK_210/lib\liblwip.a(tcp.o)
 .literal.tcp_close
                0x4021ba2c        0x0 c:/Espressif/ESP8266_SDK_210/lib\liblwip.a(tcp.o)
 .literal.tcp_shutdown
                0x4021ba2c        0x0 c:/Espressif/ESP8266_SDK_210/lib\liblwip.a(tcp.o)
 .literal.tcp_abandon
                0x4021ba2c        0x0 c:/Espressif/ESP8266_SDK_210/lib\liblwip.a(tcp.o)
 .literal.tcp_abort
                0x4021ba2c        0x0 c:/Espressif/ESP8266_SDK_210/lib\liblwip.a(tcp.o)
 .literal.tcp_bind
                0x4021ba2c        0x0 c:/Espressif/ESP8266_SDK_210/lib\liblwip.a(tcp.o)
 .literal.tcp_accept_null
                0x4021ba2c        0x0 c:/Espressif/ESP8266_SDK_210/lib\liblwip.a(tcp.o)
 .literal.tcp_listen_with_backlog
                0x4021ba2c        0x0 c:/Espressif/ESP8266_SDK_210/lib\liblwip.a(tcp.o)
 .literal.tcp_update_rcv_ann_wnd
                0x4021ba2c        0x0 c:/Espressif/ESP8266_SDK_210/lib\liblwip.a(tcp.o)
 .literal.tcp_recved
                0x4021ba2c        0x0 c:/Espressif/ESP8266_SDK_210/lib\liblwip.a(tcp.o)
 .literal.tcp_new_port
                0x4021ba2c        0x0 c:/Espressif/ESP8266_SDK_210/lib\liblwip.a(tcp.o)
 .literal.tcp_connect
                0x4021ba2c        0x0 c:/Espressif/ESP8266_SDK_210/lib\liblwip.a(tcp.o)
 .literal.tcp_slowtmr
                0x4021ba2c        0x0 c:/Espressif/ESP8266_SDK_210/lib\liblwip.a(tcp.o)
 .literal.tcp_fasttmr
                0x4021ba2c        0x0 c:/Espressif/ESP8266_SDK_210/lib\liblwip.a(tcp.o)
 .literal.tcp_segs_free
                0x4021ba2c        0x0 c:/Espressif/ESP8266_SDK_210/lib\liblwip.a(tcp.o)
 .literal.tcp_seg_free
                0x4021ba2c        0x0 c:/Espressif/ESP8266_SDK_210/lib\liblwip.a(tcp.o)
 .literal.tcp_setprio
                0x4021ba2c        0x0 c:/Espressif/ESP8266_SDK_210/lib\liblwip.a(tcp.o)
 .literal.tcp_seg_copy
                0x4021ba2c        0x0 c:/Espressif/ESP8266_SDK_210/lib\liblwip.a(tcp.o)
 .literal.tcp_recv_null
                0x4021ba2c        0x0 c:/Espressif/ESP8266_SDK_210/lib\liblwip.a(tcp.o)
 .literal.tcp_kill_prio
                0x4021ba2c        0x0 c:/Espressif/ESP8266_SDK_210/lib\liblwip.a(tcp.o)
 .literal.tcp_kill_timewait
                0x4021ba2c        0x0 c:/Espressif/ESP8266_SDK_210/lib\liblwip.a(tcp.o)
 .literal.tcp_alloc
                0x4021ba2c        0x0 c:/Espressif/ESP8266_SDK_210/lib\liblwip.a(tcp.o)
 .literal.tcp_new
                0x4021ba2c        0x0 c:/Espressif/ESP8266_SDK_210/lib\liblwip.a(tcp.o)
 .literal.tcp_arg
                0x4021ba2c        0x0 c:/Espressif/ESP8266_SDK_210/lib\liblwip.a(tcp.o)
 .literal.tcp_recv
                0x4021ba2c        0x0 c:/Espressif/ESP8266_SDK_210/lib\liblwip.a(tcp.o)
 .literal.tcp_sent
                0x4021ba2c        0x0 c:/Espressif/ESP8266_SDK_210/lib\liblwip.a(tcp.o)
 .literal.tcp_err
                0x4021ba2c        0x0 c:/Espressif/ESP8266_SDK_210/lib\liblwip.a(tcp.o)
 .literal.tcp_accept
                0x4021ba2c        0x0 c:/Espressif/ESP8266_SDK_210/lib\liblwip.a(tcp.o)
 .literal.tcp_poll
                0x4021ba2c        0x0 c:/Espressif/ESP8266_SDK_210/lib\liblwip.a(tcp.o)
 .literal.tcp_pcb_purge
                0x4021ba2c        0x0 c:/Espressif/ESP8266_SDK_210/lib\liblwip.a(tcp.o)
 .literal.tcp_pcb_remove
                0x4021ba2c        0x0 c:/Espressif/ESP8266_SDK_210/lib\liblwip.a(tcp.o)
 .literal.tcp_next_iss
                0x4021ba2c        0x0 c:/Espressif/ESP8266_SDK_210/lib\liblwip.a(tcp.o)
 .literal.tcp_eff_send_mss
                0x4021ba2c        0x0 c:/Espressif/ESP8266_SDK_210/lib\liblwip.a(tcp.o)
 *fill*         0x4021ba2c        0x0 
 *fill*         0x4021ba2c        0x0 
 *fill*         0x4021ba2c        0x0 
 *fill*         0x4021ba2c        0x0 
 *fill*         0x4021ba2c        0x0 
 .text.tcp_accept_null
                0x4021ba2c        0x4 c:/Espressif/ESP8266_SDK_210/lib\liblwip.a(tcp.o)
 *fill*         0x4021ba30        0x0 
 *fill*         0x4021ba30        0x0 
 *fill*         0x4021ba30        0x0 
 *fill*         0x4021ba30        0x0 
 .text.tcp_setprio
                0x4021ba30        0x5 c:/Espressif/ESP8266_SDK_210/lib\liblwip.a(tcp.o)
                0x4021ba30                tcp_setprio
 *fill*         0x4021ba35        0x0 
 *fill*         0x4021ba35        0x0 
 *fill*         0x4021ba35        0x0 
 *fill*         0x4021ba35        0x0 
 *fill*         0x4021ba35        0x3 
 .text.tcp_arg  0x4021ba38        0x4 c:/Espressif/ESP8266_SDK_210/lib\liblwip.a(tcp.o)
                0x4021ba38                tcp_arg
 .text.tcp_recv
                0x4021ba3c        0x5 c:/Espressif/ESP8266_SDK_210/lib\liblwip.a(tcp.o)
                0x4021ba3c                tcp_recv
 *fill*         0x4021ba41        0x3 
 .text.tcp_sent
                0x4021ba44        0x5 c:/Espressif/ESP8266_SDK_210/lib\liblwip.a(tcp.o)
                0x4021ba44                tcp_sent
 *fill*         0x4021ba49        0x3 
 .text.tcp_err  0x4021ba4c        0x5 c:/Espressif/ESP8266_SDK_210/lib\liblwip.a(tcp.o)
                0x4021ba4c                tcp_err
 *fill*         0x4021ba51        0x3 
 .text.tcp_accept
                0x4021ba54        0x4 c:/Espressif/ESP8266_SDK_210/lib\liblwip.a(tcp.o)
                0x4021ba54                tcp_accept
 .text.tcp_poll
                0x4021ba58        0x8 c:/Espressif/ESP8266_SDK_210/lib\liblwip.a(tcp.o)
                0x4021ba58                tcp_poll
 *fill*         0x4021ba60        0x0 
 *fill*         0x4021ba60        0x0 
 *fill*         0x4021ba60        0x0 
 *fill*         0x4021ba60        0x0 
 .literal.tcp_output_alloc_header
                0x4021ba60        0x0 c:/Espressif/ESP8266_SDK_210/lib\liblwip.a(tcp_out.o)
 .literal.tcp_send_fin
                0x4021ba60        0x0 c:/Espressif/ESP8266_SDK_210/lib\liblwip.a(tcp_out.o)
 .literal.tcp_create_segment
                0x4021ba60        0x0 c:/Espressif/ESP8266_SDK_210/lib\liblwip.a(tcp_out.o)
 .literal.tcp_pbuf_prealloc
                0x4021ba60        0x0 c:/Espressif/ESP8266_SDK_210/lib\liblwip.a(tcp_out.o)
 .literal.tcp_write_checks
                0x4021ba60        0x0 c:/Espressif/ESP8266_SDK_210/lib\liblwip.a(tcp_out.o)
 .literal.tcp_write
                0x4021ba60        0x0 c:/Espressif/ESP8266_SDK_210/lib\liblwip.a(tcp_out.o)
 .literal.tcp_enqueue_flags
                0x4021ba60        0x0 c:/Espressif/ESP8266_SDK_210/lib\liblwip.a(tcp_out.o)
 .literal.tcp_send_empty_ack
                0x4021ba60        0x0 c:/Espressif/ESP8266_SDK_210/lib\liblwip.a(tcp_out.o)
 .literal.tcp_output
                0x4021ba60        0x0 c:/Espressif/ESP8266_SDK_210/lib\liblwip.a(tcp_out.o)
 .literal.tcp_output_segment
                0x4021ba60        0x0 c:/Espressif/ESP8266_SDK_210/lib\liblwip.a(tcp_out.o)
 .literal.tcp_rst
                0x4021ba60        0x0 c:/Espressif/ESP8266_SDK_210/lib\liblwip.a(tcp_out.o)
 .literal.tcp_rexmit_rto
                0x4021ba60        0x0 c:/Espressif/ESP8266_SDK_210/lib\liblwip.a(tcp_out.o)
 .literal.tcp_rexmit
                0x4021ba60        0x0 c:/Espressif/ESP8266_SDK_210/lib\liblwip.a(tcp_out.o)
 .literal.tcp_rexmit_fast
                0x4021ba60        0x0 c:/Espressif/ESP8266_SDK_210/lib\liblwip.a(tcp_out.o)
 .literal.tcp_keepalive
                0x4021ba60        0x0 c:/Espressif/ESP8266_SDK_210/lib\liblwip.a(tcp_out.o)
 .literal.tcp_zero_window_probe
                0x4021ba60        0x0 c:/Espressif/ESP8266_SDK_210/lib\liblwip.a(tcp_out.o)
 *fill*         0x4021ba60        0x0 
 *fill*         0x4021ba60        0x0 
 *fill*         0x4021ba60        0x0 
 *fill*         0x4021ba60        0x0 
 *fill*         0x4021ba60        0x0 
 *fill*         0x4021ba60        0x0 
 *fill*         0x4021ba60        0x0 
 *fill*         0x4021ba60        0x0 
 *fill*         0x4021ba60        0x0 
 *fill*         0x4021ba60        0x0 
 *fill*         0x4021ba60        0x0 
 *fill*         0x4021ba60        0x0 
 *fill*         0x4021ba60        0x0 
 *fill*         0x4021ba60        0x0 
 .literal.tcpip_tcp_timer
                0x4021ba60        0x0 c:/Espressif/ESP8266_SDK_210/lib\liblwip.a(timers.o)
 .literal.tcp_timer_needed
                0x4021ba60        0x0 c:/Espressif/ESP8266_SDK_210/lib\liblwip.a(timers.o)
 .literal.tcp_timer_coarse
                0x4021ba60        0x0 c:/Espressif/ESP8266_SDK_210/lib\liblwip.a(timers.o)
 .literal.arp_timer
                0x4021ba60        0x0 c:/Espressif/ESP8266_SDK_210/lib\liblwip.a(timers.o)
 .literal.dhcp_timer_coarse
                0x4021ba60        0x0 c:/Espressif/ESP8266_SDK_210/lib\liblwip.a(timers.o)
 .literal.dhcp_timer_fine
                0x4021ba60        0x0 c:/Espressif/ESP8266_SDK_210/lib\liblwip.a(timers.o)
 .literal.igmp_timer
                0x4021ba60        0x0 c:/Espressif/ESP8266_SDK_210/lib\liblwip.a(timers.o)
 .literal.dns_timer
                0x4021ba60        0x0 c:/Espressif/ESP8266_SDK_210/lib\liblwip.a(timers.o)
 .literal.sys_timeouts_init
                0x4021ba60        0x0 c:/Espressif/ESP8266_SDK_210/lib\liblwip.a(timers.o)
 .literal.sys_timeout
                0x4021ba60        0x0 c:/Espressif/ESP8266_SDK_210/lib\liblwip.a(timers.o)
 .literal.sys_untimeout
                0x4021ba60        0x0 c:/Espressif/ESP8266_SDK_210/lib\liblwip.a(timers.o)
 .literal.sys_check_timeouts
                0x4021ba60        0x0 c:/Espressif/ESP8266_SDK_210/lib\liblwip.a(timers.o)
 .literal.sys_restart_timeouts
                0x4021ba60        0x0 c:/Espressif/ESP8266_SDK_210/lib\liblwip.a(timers.o)
 *fill*         0x4021ba60        0x0 
 *fill*         0x4021ba60        0x0 
 *fill*         0x4021ba60        0x0 
 *fill*         0x4021ba60        0x0 
 *fill*         0x4021ba60        0x0 
 *fill*         0x4021ba60        0x0 
 .literal.udp_input
                0x4021ba60        0x0 c:/Espressif/ESP8266_SDK_210/lib\liblwip.a(udp.o)
 .literal.udp_send
                0x4021ba60        0x0 c:/Espressif/ESP8266_SDK_210/lib\liblwip.a(udp.o)
 .literal.udp_sendto
                0x4021ba60        0x0 c:/Espressif/ESP8266_SDK_210/lib\liblwip.a(udp.o)
 .literal.udp_sendto_if
                0x4021ba60        0x0 c:/Espressif/ESP8266_SDK_210/lib\liblwip.a(udp.o)
 .literal.udp_bind
                0x4021ba60        0x0 c:/Espressif/ESP8266_SDK_210/lib\liblwip.a(udp.o)
 .literal.udp_connect
                0x4021ba60        0x0 c:/Espressif/ESP8266_SDK_210/lib\liblwip.a(udp.o)
 .literal.udp_disconnect
                0x4021ba60        0x0 c:/Espressif/ESP8266_SDK_210/lib\liblwip.a(udp.o)
 .literal.udp_recv
                0x4021ba60        0x0 c:/Espressif/ESP8266_SDK_210/lib\liblwip.a(udp.o)
 .literal.udp_remove
                0x4021ba60        0x0 c:/Espressif/ESP8266_SDK_210/lib\liblwip.a(udp.o)
 .literal.udp_new
                0x4021ba60        0x0 c:/Espressif/ESP8266_SDK_210/lib\liblwip.a(udp.o)
 *fill*         0x4021ba60        0x0 
 *fill*         0x4021ba60        0x0 
 *fill*         0x4021ba60        0x0 
 *fill*         0x4021ba60        0x0 
 .text.udp_disconnect
                0x4021ba60       0x15 c:/Espressif/ESP8266_SDK_210/lib\liblwip.a(udp.o)
                0x4021ba60                udp_disconnect
 *fill*         0x4021ba75        0x3 
 .text.udp_recv
                0x4021ba78        0x6 c:/Espressif/ESP8266_SDK_210/lib\liblwip.a(udp.o)
                0x4021ba78                udp_recv
 *fill*         0x4021ba7e        0x0 
 *fill*         0x4021ba7e        0x0 
 *fill*         0x4021ba7e        0x2 
 .literal.ringbuf_new
                0x4021ba80        0x0 c:/Espressif/ESP8266_SDK_210/lib\liblwip.a(espconn_buf.o)
 .literal.ringbuf_buffer_size
                0x4021ba80        0x0 c:/Espressif/ESP8266_SDK_210/lib\liblwip.a(espconn_buf.o)
 .literal.ringbuf_reset
                0x4021ba80        0x0 c:/Espressif/ESP8266_SDK_210/lib\liblwip.a(espconn_buf.o)
 .literal.ringbuf_free
                0x4021ba80        0x0 c:/Espressif/ESP8266_SDK_210/lib\liblwip.a(espconn_buf.o)
 .literal.ringbuf_capacity
                0x4021ba80        0x0 c:/Espressif/ESP8266_SDK_210/lib\liblwip.a(espconn_buf.o)
 .literal.ringbuf_end
                0x4021ba80        0x0 c:/Espressif/ESP8266_SDK_210/lib\liblwip.a(espconn_buf.o)
 .literal.ringbuf_bytes_free
                0x4021ba80        0x0 c:/Espressif/ESP8266_SDK_210/lib\liblwip.a(espconn_buf.o)
 .literal.ringbuf_bytes_used
                0x4021ba80        0x0 c:/Espressif/ESP8266_SDK_210/lib\liblwip.a(espconn_buf.o)
 .literal.ringbuf_is_full
                0x4021ba80        0x0 c:/Espressif/ESP8266_SDK_210/lib\liblwip.a(espconn_buf.o)
 .literal.ringbuf_is_empty
                0x4021ba80        0x0 c:/Espressif/ESP8266_SDK_210/lib\liblwip.a(espconn_buf.o)
 .literal.ringbuf_tail
                0x4021ba80        0x0 c:/Espressif/ESP8266_SDK_210/lib\liblwip.a(espconn_buf.o)
 .literal.ringbuf_head
                0x4021ba80        0x0 c:/Espressif/ESP8266_SDK_210/lib\liblwip.a(espconn_buf.o)
 .literal.ringbuf_nextp
                0x4021ba80        0x0 c:/Espressif/ESP8266_SDK_210/lib\liblwip.a(espconn_buf.o)
 .literal.ringbuf_findchr
                0x4021ba80        0x0 c:/Espressif/ESP8266_SDK_210/lib\liblwip.a(espconn_buf.o)
 .literal.ringbuf_memset
                0x4021ba80        0x0 c:/Espressif/ESP8266_SDK_210/lib\liblwip.a(espconn_buf.o)
 .literal.ringbuf_memcpy_into
                0x4021ba80        0x0 c:/Espressif/ESP8266_SDK_210/lib\liblwip.a(espconn_buf.o)
 .literal.ringbuf_memcpy_from
                0x4021ba80        0x0 c:/Espressif/ESP8266_SDK_210/lib\liblwip.a(espconn_buf.o)
 *fill*         0x4021ba80        0x0 
 .text.ringbuf_buffer_size
                0x4021ba80        0x4 c:/Espressif/ESP8266_SDK_210/lib\liblwip.a(espconn_buf.o)
                0x4021ba80                ringbuf_buffer_size
 .text.ringbuf_reset
                0x4021ba84        0x8 c:/Espressif/ESP8266_SDK_210/lib\liblwip.a(espconn_buf.o)
                0x4021ba84                ringbuf_reset
 *fill*         0x4021ba8c        0x0 
 *fill*         0x4021ba8c        0x0 
 *fill*         0x4021ba8c        0x0 
 *fill*         0x4021ba8c        0x0 
 *fill*         0x4021ba8c        0x0 
 .text.ringbuf_tail
                0x4021ba8c        0x4 c:/Espressif/ESP8266_SDK_210/lib\liblwip.a(espconn_buf.o)
                0x4021ba8c                ringbuf_tail
 .text.ringbuf_head
                0x4021ba90        0x4 c:/Espressif/ESP8266_SDK_210/lib\liblwip.a(espconn_buf.o)
                0x4021ba90                ringbuf_head
 *fill*         0x4021ba94        0x0 
 *fill*         0x4021ba94        0x0 
 *fill*         0x4021ba94        0x0 
 *fill*         0x4021ba94        0x0 
 .literal.espconn_copy_partial
                0x4021ba94        0x0 c:/Espressif/ESP8266_SDK_210/lib\liblwip.a(espconn.o)
 .literal.espconn_list_creat
                0x4021ba94        0x0 c:/Espressif/ESP8266_SDK_210/lib\liblwip.a(espconn.o)
 .literal.espconn_list_delete
                0x4021ba94        0x0 c:/Espressif/ESP8266_SDK_210/lib\liblwip.a(espconn.o)
 .literal.espconn_pbuf_create
                0x4021ba94        0x0 c:/Espressif/ESP8266_SDK_210/lib\liblwip.a(espconn.o)
 .literal.espconn_pbuf_delete
                0x4021ba94        0x0 c:/Espressif/ESP8266_SDK_210/lib\liblwip.a(espconn.o)
 .literal.espconn_find_connection
                0x4021ba94        0x0 c:/Espressif/ESP8266_SDK_210/lib\liblwip.a(espconn.o)
 .literal.espconn_get_acticve_num
                0x4021ba94        0x0 c:/Espressif/ESP8266_SDK_210/lib\liblwip.a(espconn.o)
 .literal.espconn_connect
                0x4021ba94        0x0 c:/Espressif/ESP8266_SDK_210/lib\liblwip.a(espconn.o)
 .literal.espconn_create
                0x4021ba94        0x0 c:/Espressif/ESP8266_SDK_210/lib\liblwip.a(espconn.o)
 .literal.espconn_sent
                0x4021ba94        0x0 c:/Espressif/ESP8266_SDK_210/lib\liblwip.a(espconn.o)
 .literal.espconn_recv
                0x4021ba94        0x0 c:/Espressif/ESP8266_SDK_210/lib\liblwip.a(espconn.o)
 .literal.espconn_sendto
                0x4021ba94        0x0 c:/Espressif/ESP8266_SDK_210/lib\liblwip.a(espconn.o)
 .literal.espconn_tcp_get_wnd
                0x4021ba94        0x0 c:/Espressif/ESP8266_SDK_210/lib\liblwip.a(espconn.o)
 .literal.espconn_tcp_set_wnd
                0x4021ba94        0x0 c:/Espressif/ESP8266_SDK_210/lib\liblwip.a(espconn.o)
 .literal.espconn_tcp_get_mss
                0x4021ba94        0x0 c:/Espressif/ESP8266_SDK_210/lib\liblwip.a(espconn.o)
 .literal.espconn_tcp_get_max_con
                0x4021ba94        0x0 c:/Espressif/ESP8266_SDK_210/lib\liblwip.a(espconn.o)
 .literal.espconn_tcp_set_max_con
                0x4021ba94        0x0 c:/Espressif/ESP8266_SDK_210/lib\liblwip.a(espconn.o)
 .literal.espconn_tcp_get_max_retran
                0x4021ba94        0x0 c:/Espressif/ESP8266_SDK_210/lib\liblwip.a(espconn.o)
 .literal.espconn_tcp_set_max_retran
                0x4021ba94        0x0 c:/Espressif/ESP8266_SDK_210/lib\liblwip.a(espconn.o)
 .literal.espconn_tcp_get_max_syn
                0x4021ba94        0x0 c:/Espressif/ESP8266_SDK_210/lib\liblwip.a(espconn.o)
 .literal.espconn_tcp_set_max_syn
                0x4021ba94        0x0 c:/Espressif/ESP8266_SDK_210/lib\liblwip.a(espconn.o)
 .literal.espconn_tcp_get_max_con_allow
                0x4021ba94        0x0 c:/Espressif/ESP8266_SDK_210/lib\liblwip.a(espconn.o)
 .literal.espconn_tcp_set_max_con_allow
                0x4021ba94        0x0 c:/Espressif/ESP8266_SDK_210/lib\liblwip.a(espconn.o)
 .literal.espconn_tcp_set_buf_count
                0x4021ba94        0x0 c:/Espressif/ESP8266_SDK_210/lib\liblwip.a(espconn.o)
 .literal.espconn_tcp_get_buf_count
                0x4021ba94        0x0 c:/Espressif/ESP8266_SDK_210/lib\liblwip.a(espconn.o)
 .literal.espconn_regist_sentcb
                0x4021ba94        0x0 c:/Espressif/ESP8266_SDK_210/lib\liblwip.a(espconn.o)
 .literal.espconn_regist_write_finish
                0x4021ba94        0x0 c:/Espressif/ESP8266_SDK_210/lib\liblwip.a(espconn.o)
 .literal.espconn_regist_connectcb
                0x4021ba94        0x0 c:/Espressif/ESP8266_SDK_210/lib\liblwip.a(espconn.o)
 .literal.espconn_regist_recvcb
                0x4021ba94        0x0 c:/Espressif/ESP8266_SDK_210/lib\liblwip.a(espconn.o)
 .literal.espconn_regist_reconcb
                0x4021ba94        0x0 c:/Espressif/ESP8266_SDK_210/lib\liblwip.a(espconn.o)
 .literal.espconn_regist_disconcb
                0x4021ba94        0x0 c:/Espressif/ESP8266_SDK_210/lib\liblwip.a(espconn.o)
 .literal.espconn_get_connection_info
                0x4021ba94        0x0 c:/Espressif/ESP8266_SDK_210/lib\liblwip.a(espconn.o)
 .literal.espconn_accept
                0x4021ba94        0x0 c:/Espressif/ESP8266_SDK_210/lib\liblwip.a(espconn.o)
 .literal.espconn_regist_time
                0x4021ba94        0x0 c:/Espressif/ESP8266_SDK_210/lib\liblwip.a(espconn.o)
 .literal.espconn_disconnect
                0x4021ba94        0x0 c:/Espressif/ESP8266_SDK_210/lib\liblwip.a(espconn.o)
 .literal.espconn_abort
                0x4021ba94        0x0 c:/Espressif/ESP8266_SDK_210/lib\liblwip.a(espconn.o)
 .literal.espconn_get_packet_info
                0x4021ba94        0x0 c:/Espressif/ESP8266_SDK_210/lib\liblwip.a(espconn.o)
 .literal.espconn_set_opt
                0x4021ba94        0x0 c:/Espressif/ESP8266_SDK_210/lib\liblwip.a(espconn.o)
 .literal.espconn_clear_opt
                0x4021ba94        0x0 c:/Espressif/ESP8266_SDK_210/lib\liblwip.a(espconn.o)
 .literal.espconn_set_keepalive
                0x4021ba94        0x0 c:/Espressif/ESP8266_SDK_210/lib\liblwip.a(espconn.o)
 .literal.espconn_get_keepalive
                0x4021ba94        0x0 c:/Espressif/ESP8266_SDK_210/lib\liblwip.a(espconn.o)
 .literal.espconn_delete
                0x4021ba94        0x0 c:/Espressif/ESP8266_SDK_210/lib\liblwip.a(espconn.o)
 .literal.espconn_port
                0x4021ba94        0x0 c:/Espressif/ESP8266_SDK_210/lib\liblwip.a(espconn.o)
 .literal.espconn_gethostbyname
                0x4021ba94        0x0 c:/Espressif/ESP8266_SDK_210/lib\liblwip.a(espconn.o)
 .literal.espconn_dns_setserver
                0x4021ba94        0x0 c:/Espressif/ESP8266_SDK_210/lib\liblwip.a(espconn.o)
 .literal.espconn_dns_getserver
                0x4021ba94        0x0 c:/Espressif/ESP8266_SDK_210/lib\liblwip.a(espconn.o)
 .text.espconn_list_creat
                0x4021ba94       0x20 c:/Espressif/ESP8266_SDK_210/lib\liblwip.a(espconn.o)
                0x4021ba94                espconn_list_creat
 .text.espconn_list_delete
                0x4021bab4       0x26 c:/Espressif/ESP8266_SDK_210/lib\liblwip.a(espconn.o)
                0x4021bab4                espconn_list_delete
 *fill*         0x4021bada        0x2 
 .text.espconn_pbuf_create
                0x4021badc       0x1c c:/Espressif/ESP8266_SDK_210/lib\liblwip.a(espconn.o)
                0x4021badc                espconn_pbuf_create
 .text.espconn_pbuf_delete
                0x4021baf8       0x22 c:/Espressif/ESP8266_SDK_210/lib\liblwip.a(espconn.o)
                0x4021baf8                espconn_pbuf_delete
 *fill*         0x4021bb1a        0x0 
 *fill*         0x4021bb1a        0x0 
 *fill*         0x4021bb1a        0x0 
 *fill*         0x4021bb1a        0x0 
 *fill*         0x4021bb1a        0x0 
 *fill*         0x4021bb1a        0x0 
 *fill*         0x4021bb1a        0x0 
 *fill*         0x4021bb1a        0x2 
 .text.espconn_tcp_get_mss
                0x4021bb1c        0x5 c:/Espressif/ESP8266_SDK_210/lib\liblwip.a(espconn.o)
                0x4021bb1c                espconn_tcp_get_mss
 *fill*         0x4021bb21        0x0 
 *fill*         0x4021bb21        0x0 
 *fill*         0x4021bb21        0x0 
 *fill*         0x4021bb21        0x0 
 *fill*         0x4021bb21        0x0 
 *fill*         0x4021bb21        0x3 
 .text.espconn_tcp_get_buf_count
                0x4021bb24       0x17 c:/Espressif/ESP8266_SDK_210/lib\liblwip.a(espconn.o)
 *fill*         0x4021bb3b        0x1 
 .text.espconn_regist_sentcb
                0x4021bb3c        0xc c:/Espressif/ESP8266_SDK_210/lib\liblwip.a(espconn.o)
                0x4021bb3c                espconn_regist_sentcb
 .text.espconn_regist_write_finish
                0x4021bb48       0x15 c:/Espressif/ESP8266_SDK_210/lib\liblwip.a(espconn.o)
                0x4021bb48                espconn_regist_write_finish
 *fill*         0x4021bb5d        0x3 
 .text.espconn_regist_connectcb
                0x4021bb60        0xe c:/Espressif/ESP8266_SDK_210/lib\liblwip.a(espconn.o)
                0x4021bb60                espconn_regist_connectcb
 *fill*         0x4021bb6e        0x2 
 .text.espconn_regist_recvcb
                0x4021bb70        0xc c:/Espressif/ESP8266_SDK_210/lib\liblwip.a(espconn.o)
                0x4021bb70                espconn_regist_recvcb
 .text.espconn_regist_reconcb
                0x4021bb7c        0xe c:/Espressif/ESP8266_SDK_210/lib\liblwip.a(espconn.o)
                0x4021bb7c                espconn_regist_reconcb
 *fill*         0x4021bb8a        0x2 
 .text.espconn_regist_disconcb
                0x4021bb8c        0xe c:/Espressif/ESP8266_SDK_210/lib\liblwip.a(espconn.o)
                0x4021bb8c                espconn_regist_disconcb
 *fill*         0x4021bb9a        0x0 
 *fill*         0x4021bb9a        0x0 
 *fill*         0x4021bb9a        0x0 
 *fill*         0x4021bb9a        0x0 
 *fill*         0x4021bb9a        0x0 
 *fill*         0x4021bb9a        0x0 
 *fill*         0x4021bb9a        0x0 
 *fill*         0x4021bb9a        0x0 
 *fill*         0x4021bb9a        0x0 
 *fill*         0x4021bb9a        0x0 
 *fill*         0x4021bb9a        0x2 
 .literal.espconn_data_sentcb
                0x4021bb9c        0x0 c:/Espressif/ESP8266_SDK_210/lib\liblwip.a(espconn_udp.o)
 .literal.espconn_data_sent
                0x4021bb9c        0x0 c:/Espressif/ESP8266_SDK_210/lib\liblwip.a(espconn_udp.o)
 .literal.espconn_udp_sent
                0x4021bb9c        0x0 c:/Espressif/ESP8266_SDK_210/lib\liblwip.a(espconn_udp.o)
 .literal.espconn_udp_sendto
                0x4021bb9c        0x0 c:/Espressif/ESP8266_SDK_210/lib\liblwip.a(espconn_udp.o)
 .literal.espconn_udp_recv
                0x4021bb9c        0x0 c:/Espressif/ESP8266_SDK_210/lib\liblwip.a(espconn_udp.o)
 .literal.espconn_udp_disconnect
                0x4021bb9c        0x0 c:/Espressif/ESP8266_SDK_210/lib\liblwip.a(espconn_udp.o)
 .literal.espconn_udp_server
                0x4021bb9c        0x0 c:/Espressif/ESP8266_SDK_210/lib\liblwip.a(espconn_udp.o)
 .literal.espconn_igmp_leave
                0x4021bb9c        0x0 c:/Espressif/ESP8266_SDK_210/lib\liblwip.a(espconn_udp.o)
 .literal.espconn_igmp_join
                0x4021bb9c        0x0 c:/Espressif/ESP8266_SDK_210/lib\liblwip.a(espconn_udp.o)
 .text.espconn_data_sentcb
                0x4021bb9c       0x15 c:/Espressif/ESP8266_SDK_210/lib\liblwip.a(espconn_udp.o)
 *fill*         0x4021bbb1        0x0 
 *fill*         0x4021bbb1        0x0 
 *fill*         0x4021bbb1        0x0 
 *fill*         0x4021bbb1        0x0 
 *fill*         0x4021bbb1        0x0 
 *fill*         0x4021bbb1        0x0 
 *fill*         0x4021bbb1        0x3 
 .literal.icmp_input
                0x4021bbb4        0x0 c:/Espressif/ESP8266_SDK_210/lib\liblwip.a(icmp.o)
 .literal.icmp_dest_unreach
                0x4021bbb4        0x0 c:/Espressif/ESP8266_SDK_210/lib\liblwip.a(icmp.o)
 .literal.icmp_send_response
                0x4021bbb4        0x0 c:/Espressif/ESP8266_SDK_210/lib\liblwip.a(icmp.o)
 *fill*         0x4021bbb4        0x0 
 *fill*         0x4021bbb4        0x0 
 .literal.igmp_init
                0x4021bbb4        0x0 c:/Espressif/ESP8266_SDK_210/lib\liblwip.a(igmp.o)
 .literal.igmp_start
                0x4021bbb4        0x0 c:/Espressif/ESP8266_SDK_210/lib\liblwip.a(igmp.o)
 .literal.igmp_stop
                0x4021bbb4        0x0 c:/Espressif/ESP8266_SDK_210/lib\liblwip.a(igmp.o)
 .literal.igmp_report_groups
                0x4021bbb4        0x0 c:/Espressif/ESP8266_SDK_210/lib\liblwip.a(igmp.o)
 .literal.igmp_lookfor_group
                0x4021bbb4        0x0 c:/Espressif/ESP8266_SDK_210/lib\liblwip.a(igmp.o)
 .literal.igmp_lookup_group
                0x4021bbb4        0x0 c:/Espressif/ESP8266_SDK_210/lib\liblwip.a(igmp.o)
 .literal.igmp_remove_group
                0x4021bbb4        0x0 c:/Espressif/ESP8266_SDK_210/lib\liblwip.a(igmp.o)
 .literal.igmp_input
                0x4021bbb4        0x0 c:/Espressif/ESP8266_SDK_210/lib\liblwip.a(igmp.o)
 .literal.igmp_joingroup
                0x4021bbb4        0x0 c:/Espressif/ESP8266_SDK_210/lib\liblwip.a(igmp.o)
 .literal.igmp_leavegroup
                0x4021bbb4        0x0 c:/Espressif/ESP8266_SDK_210/lib\liblwip.a(igmp.o)
 .literal.igmp_tmr
                0x4021bbb4        0x0 c:/Espressif/ESP8266_SDK_210/lib\liblwip.a(igmp.o)
 .literal.igmp_timeout
                0x4021bbb4        0x0 c:/Espressif/ESP8266_SDK_210/lib\liblwip.a(igmp.o)
 .literal.igmp_start_timer
                0x4021bbb4        0x0 c:/Espressif/ESP8266_SDK_210/lib\liblwip.a(igmp.o)
 .literal.igmp_delaying_member
                0x4021bbb4        0x0 c:/Espressif/ESP8266_SDK_210/lib\liblwip.a(igmp.o)
 .literal.igmp_ip_output_if
                0x4021bbb4        0x0 c:/Espressif/ESP8266_SDK_210/lib\liblwip.a(igmp.o)
 .literal.igmp_send
                0x4021bbb4        0x0 c:/Espressif/ESP8266_SDK_210/lib\liblwip.a(igmp.o)
 *fill*         0x4021bbb4        0x0 
 *fill*         0x4021bbb4        0x0 
 *fill*         0x4021bbb4        0x0 
 *fill*         0x4021bbb4        0x0 
 *fill*         0x4021bbb4        0x0 
 *fill*         0x4021bbb4        0x0 
 *fill*         0x4021bbb4        0x0 
 *fill*         0x4021bbb4        0x0 
 *fill*         0x4021bbb4        0x0 
 *fill*         0x4021bbb4        0x0 
 *fill*         0x4021bbb4        0x0 
 .literal.lwip_standard_chksum
                0x4021bbb4        0x0 c:/Espressif/ESP8266_SDK_210/lib\liblwip.a(inet_chksum.o)
 .literal.inet_chksum_pseudo
                0x4021bbb4        0x0 c:/Espressif/ESP8266_SDK_210/lib\liblwip.a(inet_chksum.o)
 .literal.inet_chksum_pseudo_partial
                0x4021bbb4        0x0 c:/Espressif/ESP8266_SDK_210/lib\liblwip.a(inet_chksum.o)
 .literal.inet_chksum
                0x4021bbb4        0x0 c:/Espressif/ESP8266_SDK_210/lib\liblwip.a(inet_chksum.o)
 .literal.inet_chksum_pbuf
                0x4021bbb4        0x0 c:/Espressif/ESP8266_SDK_210/lib\liblwip.a(inet_chksum.o)
 .text.lwip_standard_chksum
                0x4021bbb4       0x75 c:/Espressif/ESP8266_SDK_210/lib\liblwip.a(inet_chksum.o)
 *fill*         0x4021bc29        0x0 
 *fill*         0x4021bc29        0x0 
 *fill*         0x4021bc29        0x0 
 *libmesh.a:(.literal.* .text.*)
 *libnet80211.a:(.literal.* .text.*)
 *fill*         0x4021bc29        0x3 
 .text.ieee80211_chan_init
                0x4021bc2c       0x8b c:/Espressif/ESP8266_SDK_210/lib\libnet80211.a(ieee80211.o)
                                 0x93 (size before relaxing)
 *fill*         0x4021bcb7        0x1 
 .text.ieee80211_rate_ref_init
                0x4021bcb8       0x16 c:/Espressif/ESP8266_SDK_210/lib\libnet80211.a(ieee80211.o)
                0x4021bcbc                ieee80211_rate_ref_init
 *fill*         0x4021bcce        0x2 
 .text.ieee80211_freedom_inside_cb
                0x4021bcd0       0x2e c:/Espressif/ESP8266_SDK_210/lib\libnet80211.a(ieee80211.o)
                0x4021bcd4                ieee80211_freedom_inside_cb
 *fill*         0x4021bcfe        0x2 
 .text.ieee80211_freedom_init
                0x4021bd00       0x28 c:/Espressif/ESP8266_SDK_210/lib\libnet80211.a(ieee80211.o)
                                 0x30 (size before relaxing)
                0x4021bd04                ieee80211_freedom_init
 .text.ieee80211_user_ie_init
                0x4021bd28       0x20 c:/Espressif/ESP8266_SDK_210/lib\libnet80211.a(ieee80211.o)
                0x4021bd2c                ieee80211_user_ie_init
 .text.ieee80211_ifattach
                0x4021bd48       0x63 c:/Espressif/ESP8266_SDK_210/lib\libnet80211.a(ieee80211.o)
                                 0xb7 (size before relaxing)
                0x4021bd48                ieee80211_ifattach
 *fill*         0x4021bdab        0x1 
 .text.ieee80211_mhz2ieee
                0x4021bdac       0x64 c:/Espressif/ESP8266_SDK_210/lib\libnet80211.a(ieee80211.o)
                                 0x74 (size before relaxing)
                0x4021bdb4                ieee80211_mhz2ieee
 .text.ieee80211_chan2ieee
                0x4021be10       0x15 c:/Espressif/ESP8266_SDK_210/lib\libnet80211.a(ieee80211.o)
                                 0x19 (size before relaxing)
                0x4021be10                ieee80211_chan2ieee
 *fill*         0x4021be25        0x3 
 .text.ieee80211_ieee2mhz
                0x4021be28       0x42 c:/Espressif/ESP8266_SDK_210/lib\libnet80211.a(ieee80211.o)
                                 0x46 (size before relaxing)
                0x4021be2c                ieee80211_ieee2mhz
 *fill*         0x4021be6a        0x2 
 .text.wifi_mode_set
                0x4021be6c      0x1fd c:/Espressif/ESP8266_SDK_210/lib\libnet80211.a(ieee80211.o)
                                0x25d (size before relaxing)
                0x4021be94                wifi_mode_set
 *fill*         0x4021c069        0x3 
 .text.ieee80211_crypto_encap
                0x4021c06c       0x58 c:/Espressif/ESP8266_SDK_210/lib\libnet80211.a(ieee80211_crypto.o)
                                 0x5c (size before relaxing)
                0x4021c06c                ieee80211_crypto_encap
 .text.ieee80211_crypto_decap
                0x4021c0c4       0x6b c:/Espressif/ESP8266_SDK_210/lib\libnet80211.a(ieee80211_crypto.o)
                                 0x6f (size before relaxing)
                0x4021c0c4                ieee80211_crypto_decap
 *fill*         0x4021c12f        0x1 
 .text.ieee80211_getmgtframe
                0x4021c130       0x4c c:/Espressif/ESP8266_SDK_210/lib\libnet80211.a(ieee80211_ets.o)
                                 0x50 (size before relaxing)
                0x4021c134                ieee80211_getmgtframe
 .text.ieee80211_hostap_send_beacon
                0x4021c17c      0x34d c:/Espressif/ESP8266_SDK_210/lib\libnet80211.a(ieee80211_hostap.o)
                                0x3cd (size before relaxing)
 *fill*         0x4021c4c9        0x3 
 .text.ieee80211_hostapd_beacon_txcb
                0x4021c4cc      0x102 c:/Espressif/ESP8266_SDK_210/lib\libnet80211.a(ieee80211_hostap.o)
                                0x166 (size before relaxing)
 *fill*         0x4021c5ce        0x2 
 .text.ieee80211_hostap_init
                0x4021c5d0      0x16e c:/Espressif/ESP8266_SDK_210/lib\libnet80211.a(ieee80211_hostap.o)
                                0x1b2 (size before relaxing)
 *fill*         0x4021c73e        0x2 
 .text.ieee80211_hostap_deinit
                0x4021c740       0xca c:/Espressif/ESP8266_SDK_210/lib\libnet80211.a(ieee80211_hostap.o)
                                 0xee (size before relaxing)
 *fill*         0x4021c80a        0x2 
 .text.ieee80211_hostap_attach
                0x4021c80c       0xc8 c:/Espressif/ESP8266_SDK_210/lib\libnet80211.a(ieee80211_hostap.o)
                                0x10e (size before relaxing)
                0x4021c818                ieee80211_hostap_attach
 *fill*         0x4021c8d4        0x0 
 .text.hostap_deliver_data
                0x4021c8d4       0x37 c:/Espressif/ESP8266_SDK_210/lib\libnet80211.a(ieee80211_hostap.o)
                                 0x3f (size before relaxing)
 *fill*         0x4021c90b        0x1 
 .text.hostap_handle_timer
                0x4021c90c       0x93 c:/Espressif/ESP8266_SDK_210/lib\libnet80211.a(ieee80211_hostap.o)
                                 0xc3 (size before relaxing)
                0x4021c914                hostap_handle_timer
 *fill*         0x4021c99f        0x1 
 .text.hostap_input
                0x4021c9a0      0x4b9 c:/Espressif/ESP8266_SDK_210/lib\libnet80211.a(ieee80211_hostap.o)
                                0x569 (size before relaxing)
                0x4021c9a8                hostap_input
 *fill*         0x4021ce59        0x3 
 .text.hostap_auth_open
                0x4021ce5c       0xd4 c:/Espressif/ESP8266_SDK_210/lib\libnet80211.a(ieee80211_hostap.o)
                                0x108 (size before relaxing)
 .text.is11bclient
                0x4021cf30       0x2e c:/Espressif/ESP8266_SDK_210/lib\libnet80211.a(ieee80211_hostap.o)
 *fill*         0x4021cf5e        0x2 
 .text.hostap_recv_mgmt
                0x4021cf60      0x660 c:/Espressif/ESP8266_SDK_210/lib\libnet80211.a(ieee80211_hostap.o)
                                0x708 (size before relaxing)
 .text.hostap_recv_ctl
                0x4021d5c0       0x18 c:/Espressif/ESP8266_SDK_210/lib\libnet80211.a(ieee80211_hostap.o)
                                 0x1f (size before relaxing)
 *fill*         0x4021d5d8        0x0 
 .text.hostap_recv_pspoll
                0x4021d5d8       0xca c:/Espressif/ESP8266_SDK_210/lib\libnet80211.a(ieee80211_hostap.o)
                                 0xf5 (size before relaxing)
 *fill*         0x4021d6a2        0x2 
 .text.freqcal_scan_done
                0x4021d6a4       0x14 c:/Espressif/ESP8266_SDK_210/lib\libnet80211.a(ieee80211_hostap.o)
                                 0x18 (size before relaxing)
                0x4021d6a4                freqcal_scan_done
 .text.ApFreqCalTimerCB
                0x4021d6b8      0x42a c:/Espressif/ESP8266_SDK_210/lib\libnet80211.a(ieee80211_hostap.o)
                                0x536 (size before relaxing)
 *fill*         0x4021dae2        0x2 
 .text.wifi_softap_start
                0x4021dae4      0x187 c:/Espressif/ESP8266_SDK_210/lib\libnet80211.a(ieee80211_hostap.o)
                                0x21b (size before relaxing)
                0x4021daf8                wifi_softap_start
 *fill*         0x4021dc6b        0x1 
 .text.wifi_softap_stop
                0x4021dc6c      0x1ac c:/Espressif/ESP8266_SDK_210/lib\libnet80211.a(ieee80211_hostap.o)
                                0x263 (size before relaxing)
                0x4021dc7c                wifi_softap_stop
 *fill*         0x4021de18        0x0 
 .text.ieee80211_ht_attach
                0x4021de18       0x5a c:/Espressif/ESP8266_SDK_210/lib\libnet80211.a(ieee80211_ht.o)
                                 0x66 (size before relaxing)
                0x4021de28                ieee80211_ht_attach
 *fill*         0x4021de72        0x2 
 .text.ieee80211_ht_node_init
                0x4021de74       0x44 c:/Espressif/ESP8266_SDK_210/lib\libnet80211.a(ieee80211_ht.o)
                                 0x48 (size before relaxing)
                0x4021de78                ieee80211_ht_node_init
 .text.findhtchan
                0x4021deb8       0x24 c:/Espressif/ESP8266_SDK_210/lib\libnet80211.a(ieee80211_ht.o)
                                 0x28 (size before relaxing)
 .text.ieee80211_parse_htcap
                0x4021dedc       0x45 c:/Espressif/ESP8266_SDK_210/lib\libnet80211.a(ieee80211_ht.o)
                                 0x49 (size before relaxing)
                0x4021dedc                ieee80211_parse_htcap
 *fill*         0x4021df21        0x3 
 .text.htinfo_update_chw
                0x4021df24       0x6c c:/Espressif/ESP8266_SDK_210/lib\libnet80211.a(ieee80211_ht.o)
                                 0x88 (size before relaxing)
 .text.ieee80211_ht_updateparams
                0x4021df90      0x130 c:/Espressif/ESP8266_SDK_210/lib\libnet80211.a(ieee80211_ht.o)
                                0x158 (size before relaxing)
                0x4021dfac                ieee80211_ht_updateparams
 .text.ieee80211_setup_htrates
                0x4021e0c0       0xd4 c:/Espressif/ESP8266_SDK_210/lib\libnet80211.a(ieee80211_ht.o)
                                 0xdc (size before relaxing)
                0x4021e0c8                ieee80211_setup_htrates
 .text.ieee80211_setup_basic_htrates
                0x4021e194       0x80 c:/Espressif/ESP8266_SDK_210/lib\libnet80211.a(ieee80211_ht.o)
                                 0x84 (size before relaxing)
                0x4021e194                ieee80211_setup_basic_htrates
 .text.ieee80211_set_mcsset
                0x4021e214      0x157 c:/Espressif/ESP8266_SDK_210/lib\libnet80211.a(ieee80211_ht.o)
                                0x167 (size before relaxing)
 *fill*         0x4021e36b        0x1 
 .text.ieee80211_add_htcap_body
                0x4021e36c      0x164 c:/Espressif/ESP8266_SDK_210/lib\libnet80211.a(ieee80211_ht.o)
                                0x19c (size before relaxing)
 .text.ieee80211_add_htcap
                0x4021e4d0       0x1e c:/Espressif/ESP8266_SDK_210/lib\libnet80211.a(ieee80211_ht.o)
                                 0x22 (size before relaxing)
                0x4021e4d0                ieee80211_add_htcap
 *fill*         0x4021e4ee        0x2 
 .text.ieee80211_add_htcap_vendor
                0x4021e4f0       0x34 c:/Espressif/ESP8266_SDK_210/lib\libnet80211.a(ieee80211_ht.o)
                                 0x38 (size before relaxing)
                0x4021e4f0                ieee80211_add_htcap_vendor
 .text.ieee80211_set_basic_htrates
                0x4021e524       0x66 c:/Espressif/ESP8266_SDK_210/lib\libnet80211.a(ieee80211_ht.o)
                                 0x6a (size before relaxing)
 *fill*         0x4021e58a        0x2 
 .text.ieee80211_add_htinfo_body
                0x4021e58c       0x8a c:/Espressif/ESP8266_SDK_210/lib\libnet80211.a(ieee80211_ht.o)
                                 0x96 (size before relaxing)
 *fill*         0x4021e616        0x2 
 .text.ieee80211_add_htinfo
                0x4021e618       0x1e c:/Espressif/ESP8266_SDK_210/lib\libnet80211.a(ieee80211_ht.o)
                                 0x22 (size before relaxing)
                0x4021e618                ieee80211_add_htinfo
 *fill*         0x4021e636        0x2 
 .text.ieee80211_add_htinfo_vendor
                0x4021e638       0x34 c:/Espressif/ESP8266_SDK_210/lib\libnet80211.a(ieee80211_ht.o)
                                 0x38 (size before relaxing)
                0x4021e638                ieee80211_add_htinfo_vendor
 .text.ht_recv_action_ba_addba_request
                0x4021e66c       0x82 c:/Espressif/ESP8266_SDK_210/lib\libnet80211.a(ieee80211_ht.o)
                                 0x8a (size before relaxing)
 *fill*         0x4021e6ee        0x2 
 .text.ht_send_action_ba_addba
                0x4021e6f0      0x186 c:/Espressif/ESP8266_SDK_210/lib\libnet80211.a(ieee80211_ht.o)
                                0x19e (size before relaxing)
 *fill*         0x4021e876        0x2 
 .text.ieee80211_deliver_data
                0x4021e878       0x48 c:/Espressif/ESP8266_SDK_210/lib\libnet80211.a(ieee80211_input.o)
                                 0x54 (size before relaxing)
                0x4021e878                ieee80211_deliver_data
 .text.ieee80211_decap
                0x4021e8c0      0x10f c:/Espressif/ESP8266_SDK_210/lib\libnet80211.a(ieee80211_input.o)
                                0x12f (size before relaxing)
                0x4021e8cc                ieee80211_decap
 *fill*         0x4021e9cf        0x1 
 .text.ieee80211_setup_rates
                0x4021e9d0       0x6a c:/Espressif/ESP8266_SDK_210/lib\libnet80211.a(ieee80211_input.o)
                                 0x76 (size before relaxing)
                0x4021e9d0                ieee80211_setup_rates
 *fill*         0x4021ea3a        0x2 
 .text.ieee80211_alloc_challenge
                0x4021ea3c       0x30 c:/Espressif/ESP8266_SDK_210/lib\libnet80211.a(ieee80211_input.o)
                                 0x34 (size before relaxing)
                0x4021ea40                ieee80211_alloc_challenge
 .text.ieee80211_parse_beacon
                0x4021ea6c      0x512 c:/Espressif/ESP8266_SDK_210/lib\libnet80211.a(ieee80211_input.o)
                                0x546 (size before relaxing)
                0x4021ea88                ieee80211_parse_beacon
 *fill*         0x4021ef7e        0x2 
 .text.wpa_cipher
                0x4021ef80       0x6a c:/Espressif/ESP8266_SDK_210/lib\libnet80211.a(ieee80211_input.o)
                                 0x76 (size before relaxing)
 *fill*         0x4021efea        0x2 
 .text.wpa_keymgmt
                0x4021efec       0x3c c:/Espressif/ESP8266_SDK_210/lib\libnet80211.a(ieee80211_input.o)
                                 0x48 (size before relaxing)
 .text.rsn_cipher
                0x4021f028       0x84 c:/Espressif/ESP8266_SDK_210/lib\libnet80211.a(ieee80211_input.o)
 .text.rsn_keymgmt
                0x4021f0ac       0x3c c:/Espressif/ESP8266_SDK_210/lib\libnet80211.a(ieee80211_input.o)
                                 0x48 (size before relaxing)
 .text.ieee80211_parse_wpa
                0x4021f0e8      0x11e c:/Espressif/ESP8266_SDK_210/lib\libnet80211.a(ieee80211_input.o)
                                0x132 (size before relaxing)
                0x4021f0ec                ieee80211_parse_wpa
 *fill*         0x4021f206        0x2 
 .text.ieee80211_parse_rsn
                0x4021f208      0x108 c:/Espressif/ESP8266_SDK_210/lib\libnet80211.a(ieee80211_input.o)
                                0x11c (size before relaxing)
                0x4021f208                ieee80211_parse_rsn
 .text.ieee80211_parse_action
                0x4021f310       0x9f c:/Espressif/ESP8266_SDK_210/lib\libnet80211.a(ieee80211_input.o)
                                 0xa3 (size before relaxing)
                0x4021f314                ieee80211_parse_action
 *fill*         0x4021f3af        0x1 
 .text.ieee80211_mesh_quick_init
                0x4021f3b0       0x7b c:/Espressif/ESP8266_SDK_210/lib\libnet80211.a(ieee80211_mesh_quick.o)
                                 0x8f (size before relaxing)
                0x4021f3bc                ieee80211_mesh_quick_init
 *fill*         0x4021f42b        0x1 
 .text.ieee80211_mesh_quick_deinit
                0x4021f42c       0x2c c:/Espressif/ESP8266_SDK_210/lib\libnet80211.a(ieee80211_mesh_quick.o)
                                 0x3c (size before relaxing)
                0x4021f42c                ieee80211_mesh_quick_deinit
 .text.ieee80211_mesh_quick_set
                0x4021f458       0xfc c:/Espressif/ESP8266_SDK_210/lib\libnet80211.a(ieee80211_mesh_quick.o)
                                0x118 (size before relaxing)
                0x4021f45c                ieee80211_mesh_quick_set
 .text.ieee80211_mesh_quick_get
                0x4021f554       0xd0 c:/Espressif/ESP8266_SDK_210/lib\libnet80211.a(ieee80211_mesh_quick.o)
                                 0xe4 (size before relaxing)
                0x4021f558                ieee80211_mesh_quick_get
 .text.ieee80211_mesh_quick_ie_add
                0x4021f624       0x32 c:/Espressif/ESP8266_SDK_210/lib\libnet80211.a(ieee80211_mesh_quick.o)
                                 0x3a (size before relaxing)
                0x4021f624                ieee80211_mesh_quick_ie_add
 *fill*         0x4021f656        0x2 
 .text.ieee80211_output_pbuf
                0x4021f658      0x291 c:/Espressif/ESP8266_SDK_210/lib\libnet80211.a(ieee80211_output.o)
                                0x2e9 (size before relaxing)
                0x4021f670                ieee80211_output_pbuf
 *fill*         0x4021f8e9        0x3 
 .text.ieee80211_send_setup
                0x4021f8ec      0x131 c:/Espressif/ESP8266_SDK_210/lib\libnet80211.a(ieee80211_output.o)
                                0x159 (size before relaxing)
                0x4021f8ec                ieee80211_send_setup
 *fill*         0x4021fa1d        0x3 
 .text.ieee80211_mgmt_output
                0x4021fa20       0xeb c:/Espressif/ESP8266_SDK_210/lib\libnet80211.a(ieee80211_output.o)
                                0x11f (size before relaxing)
                0x4021fa20                ieee80211_mgmt_output
 *fill*         0x4021fb0b        0x1 
 .text.ieee80211_send_nulldata
                0x4021fb0c      0x147 c:/Espressif/ESP8266_SDK_210/lib\libnet80211.a(ieee80211_output.o)
                                0x173 (size before relaxing)
                0x4021fb10                ieee80211_send_nulldata
 *fill*         0x4021fc53        0x1 
 .text.ieee80211_encap_esfbuf
                0x4021fc54      0x2b8 c:/Espressif/ESP8266_SDK_210/lib\libnet80211.a(ieee80211_output.o)
                                0x2e4 (size before relaxing)
 .text.ieee80211_classify_pbuf
                0x4021ff0c       0x75 c:/Espressif/ESP8266_SDK_210/lib\libnet80211.a(ieee80211_output.o)
                                 0x79 (size before relaxing)
 *fill*         0x4021ff81        0x3 
 .text.ieee80211_add_rates
                0x4021ff84       0x4e c:/Espressif/ESP8266_SDK_210/lib\libnet80211.a(ieee80211_output.o)
                                 0x56 (size before relaxing)
                0x4021ff84                ieee80211_add_rates
 *fill*         0x4021ffd2        0x2 
 .text.ieee80211_add_xrates
                0x4021ffd4       0x45 c:/Espressif/ESP8266_SDK_210/lib\libnet80211.a(ieee80211_output.o)
                                 0x4d (size before relaxing)
                0x4021ffd4                ieee80211_add_xrates
 *fill*         0x40220019        0x3 
 .text.ieee80211_add_ssid
                0x4022001c       0x2e c:/Espressif/ESP8266_SDK_210/lib\libnet80211.a(ieee80211_output.o)
                                 0x32 (size before relaxing)
 *fill*         0x4022004a        0x2 
 .text.add_appie
                0x4022004c       0x28 c:/Espressif/ESP8266_SDK_210/lib\libnet80211.a(ieee80211_output.o)
                                 0x2c (size before relaxing)
 .text.ieee80211_add_wme_info
                0x40220074       0x23 c:/Espressif/ESP8266_SDK_210/lib\libnet80211.a(ieee80211_output.o)
                                 0x27 (size before relaxing)
 *fill*         0x40220097        0x1 
 .text.ieee80211_add_csa
                0x40220098       0x22 c:/Espressif/ESP8266_SDK_210/lib\libnet80211.a(ieee80211_output.o)
                                 0x26 (size before relaxing)
 *fill*         0x402200ba        0x2 
 .text.ieee80211_add_countryie
                0x402200bc       0x5d c:/Espressif/ESP8266_SDK_210/lib\libnet80211.a(ieee80211_output.o)
                                 0x6d (size before relaxing)
 *fill*         0x40220119        0x3 
 .text.ieee80211_send_probereq
                0x4022011c      0x274 c:/Espressif/ESP8266_SDK_210/lib\libnet80211.a(ieee80211_output.o)
                                0x2e8 (size before relaxing)
                0x40220124                ieee80211_send_probereq
 .text.ieee80211_getcapinfo
                0x40220390       0x4e c:/Espressif/ESP8266_SDK_210/lib\libnet80211.a(ieee80211_output.o)
                                 0x52 (size before relaxing)
                0x40220390                ieee80211_getcapinfo
 *fill*         0x402203de        0x2 
 .text.ieee80211_send_mgmt
                0x402203e0      0x5a0 c:/Espressif/ESP8266_SDK_210/lib\libnet80211.a(ieee80211_output.o)
                                0x66c (size before relaxing)
                0x402203ec                ieee80211_send_mgmt
 .text.ieee80211_alloc_proberesp
                0x40220980      0x276 c:/Espressif/ESP8266_SDK_210/lib\libnet80211.a(ieee80211_output.o)
                                0x2fa (size before relaxing)
                0x40220990                ieee80211_alloc_proberesp
 *fill*         0x40220bf6        0x2 
 .text.ieee80211_send_proberesp
                0x40220bf8      0x152 c:/Espressif/ESP8266_SDK_210/lib\libnet80211.a(ieee80211_output.o)
                                0x192 (size before relaxing)
                0x40220bfc                ieee80211_send_proberesp
 *fill*         0x40220d4a        0x2 
 .text.ieee80211_alloc_deauth
                0x40220d4c       0x3e c:/Espressif/ESP8266_SDK_210/lib\libnet80211.a(ieee80211_output.o)
                                 0x42 (size before relaxing)
                0x40220d4c                ieee80211_alloc_deauth
 *fill*         0x40220d8a        0x2 
 .text.ieee80211_send_deauth
                0x40220d8c      0x13b c:/Espressif/ESP8266_SDK_210/lib\libnet80211.a(ieee80211_output.o)
                                0x17b (size before relaxing)
                0x40220d8c                ieee80211_send_deauth
 *fill*         0x40220ec7        0x1 
 .text.ieee80211_freedom_output
                0x40220ec8      0x1ea c:/Espressif/ESP8266_SDK_210/lib\libnet80211.a(ieee80211_output.o)
                                0x222 (size before relaxing)
                0x40220ecc                ieee80211_freedom_output
 *fill*         0x402210b2        0x2 
 .text.ieee80211_beacon_construct
                0x402210b4      0x25a c:/Espressif/ESP8266_SDK_210/lib\libnet80211.a(ieee80211_output.o)
                                0x2ee (size before relaxing)
 *fill*         0x4022130e        0x2 
 .text.ieee80211_beacon_alloc
                0x40221310      0x1de c:/Espressif/ESP8266_SDK_210/lib\libnet80211.a(ieee80211_output.o)
                                0x22a (size before relaxing)
                0x40221314                ieee80211_beacon_alloc
 *fill*         0x402214ee        0x2 
 .text.ieee80211_phy_init
                0x402214f0       0x34 c:/Espressif/ESP8266_SDK_210/lib\libnet80211.a(ieee80211_phy.o)
                                 0x3c (size before relaxing)
                0x402214f0                ieee80211_phy_init
 .text.ieee80211_phy_type_get
                0x40221524        0xf c:/Espressif/ESP8266_SDK_210/lib\libnet80211.a(ieee80211_phy.o)
                                 0x13 (size before relaxing)
                0x40221524                ieee80211_phy_type_get
 *fill*         0x40221533        0x1 
 .text.ieee80211_setup_ratetable
                0x40221534       0x9c c:/Espressif/ESP8266_SDK_210/lib\libnet80211.a(ieee80211_phy.o)
                                 0xbc (size before relaxing)
                0x40221540                ieee80211_setup_ratetable
 .text.ieee80211_psq_init
                0x402215d0       0x20 c:/Espressif/ESP8266_SDK_210/lib\libnet80211.a(ieee80211_power.o)
                                 0x24 (size before relaxing)
                0x402215d0                ieee80211_psq_init
 .text.ieee80211_set_tim
                0x402215f0       0x41 c:/Espressif/ESP8266_SDK_210/lib\libnet80211.a(ieee80211_power.o)
                0x402215f4                ieee80211_set_tim
 *fill*         0x40221631        0x3 
 .text.ieee80211_pwrsave
                0x40221634       0x68 c:/Espressif/ESP8266_SDK_210/lib\libnet80211.a(ieee80211_power.o)
                                 0x78 (size before relaxing)
                0x40221634                ieee80211_pwrsave
 .text.pwrsave_flushq
                0x4022169c       0xaf c:/Espressif/ESP8266_SDK_210/lib\libnet80211.a(ieee80211_power.o)
                                 0xdb (size before relaxing)
                0x4022169c                pwrsave_flushq
 *fill*         0x4022174b        0x1 
 .text.ieee80211_node_pwrsave
                0x4022174c       0x38 c:/Espressif/ESP8266_SDK_210/lib\libnet80211.a(ieee80211_power.o)
                                 0x44 (size before relaxing)
                0x4022174c                ieee80211_node_pwrsave
 .text.ieee80211_proto_attach
                0x40221784       0x2b c:/Espressif/ESP8266_SDK_210/lib\libnet80211.a(ieee80211_proto.o)
                                 0x33 (size before relaxing)
                0x40221788                ieee80211_proto_attach
 *fill*         0x402217af        0x1 
 .text.ieee80211_iserp_rateset
                0x402217b0       0x38 c:/Espressif/ESP8266_SDK_210/lib\libnet80211.a(ieee80211_proto.o)
                0x402217b4                ieee80211_iserp_rateset
 .text.ieee80211_mlme_connect_bss
                0x402217e8       0x9d c:/Espressif/ESP8266_SDK_210/lib\libnet80211.a(ieee80211_proto.o)
                                 0xcd (size before relaxing)
                0x402217ec                ieee80211_mlme_connect_bss
 *fill*         0x40221885        0x3 
 .text.ieee80211_regdomain_detach
                0x40221888       0x2b c:/Espressif/ESP8266_SDK_210/lib\libnet80211.a(ieee80211_regdomain.o)
                                 0x2f (size before relaxing)
                0x4022188c                ieee80211_regdomain_detach
 *fill*         0x402218b3        0x1 
 .text.ieee80211_alloc_countryie
                0x402218b4       0xa8 c:/Espressif/ESP8266_SDK_210/lib\libnet80211.a(ieee80211_regdomain.o)
                                 0xb0 (size before relaxing)
                0x402218bc                ieee80211_alloc_countryie
 .text.ieee80211_chan_in_regdomain
                0x4022195c       0x36 c:/Espressif/ESP8266_SDK_210/lib\libnet80211.a(ieee80211_regdomain.o)
                                 0x3a (size before relaxing)
                0x4022195c                ieee80211_chan_in_regdomain
 *fill*         0x40221992        0x2 
 .text.ieee80211_update_regdomain
                0x40221994       0xb4 c:/Espressif/ESP8266_SDK_210/lib\libnet80211.a(ieee80211_regdomain.o)
                                 0xbc (size before relaxing)
                0x402219a0                ieee80211_update_regdomain
 .text.ieee80211_rfid_locp_recv_open
                0x40221a48       0x39 c:/Espressif/ESP8266_SDK_210/lib\libnet80211.a(ieee80211_rfid.o)
                                 0x41 (size before relaxing)
                0x40221a4c                ieee80211_rfid_locp_recv_open
 *fill*         0x40221a81        0x3 
 .text.ieee80211_rfid_locp_recv_close
                0x40221a84       0x1b c:/Espressif/ESP8266_SDK_210/lib\libnet80211.a(ieee80211_rfid.o)
                                 0x1f (size before relaxing)
                0x40221a88                ieee80211_rfid_locp_recv_close
 *fill*         0x40221a9f        0x1 
 .text.ieee80211_rfid_locp_recv_reset
                0x40221aa0       0x1f c:/Espressif/ESP8266_SDK_210/lib\libnet80211.a(ieee80211_rfid.o)
                                 0x2b (size before relaxing)
                0x40221aa0                ieee80211_rfid_locp_recv_reset
 *fill*         0x40221abf        0x1 
 .text.ieee80211_rfid_locp_recv
                0x40221ac0       0x1b c:/Espressif/ESP8266_SDK_210/lib\libnet80211.a(ieee80211_rfid.o)
                                 0x1f (size before relaxing)
                0x40221ac0                ieee80211_rfid_locp_recv
 *fill*         0x40221adb        0x1 
 .text.register_ieee80211_rfid_locp_recv_cb
                0x40221adc       0x13 c:/Espressif/ESP8266_SDK_210/lib\libnet80211.a(ieee80211_rfid.o)
                                 0x17 (size before relaxing)
                0x40221adc                register_ieee80211_rfid_locp_recv_cb
 *fill*         0x40221aef        0x1 
 .text.unregister_ieee80211_rfid_locp_recv_cb
                0x40221af0        0xa c:/Espressif/ESP8266_SDK_210/lib\libnet80211.a(ieee80211_rfid.o)
                                  0xe (size before relaxing)
                0x40221af0                unregister_ieee80211_rfid_locp_recv_cb
 *fill*         0x40221afa        0x2 
 .text.ieee80211_scan_attach
                0x40221afc       0x62 c:/Espressif/ESP8266_SDK_210/lib\libnet80211.a(ieee80211_scan.o)
                                 0x6a (size before relaxing)
                0x40221b0c                ieee80211_scan_attach
 *fill*         0x40221b5e        0x2 
 .text.slp_wk_cpu_scan_wait_timout
                0x40221b60       0x21 c:/Espressif/ESP8266_SDK_210/lib\libnet80211.a(ieee80211_scan.o)
                                 0x29 (size before relaxing)
 *fill*         0x40221b81        0x3 
 .text.freq_changle_enable_softap_link_check
                0x40221b84        0x8 c:/Espressif/ESP8266_SDK_210/lib\libnet80211.a(ieee80211_scan.o)
                                  0xc (size before relaxing)
                0x40221b84                freq_changle_enable_softap_link_check
 .text.freq_changle_scan_start
                0x40221b8c      0x130 c:/Espressif/ESP8266_SDK_210/lib\libnet80211.a(ieee80211_scan.o)
                                0x178 (size before relaxing)
                0x40221b9c                freq_changle_scan_start
 .text.scan_start
                0x40221cbc      0x132 c:/Espressif/ESP8266_SDK_210/lib\libnet80211.a(ieee80211_scan.o)
                                0x1ae (size before relaxing)
                0x40221ccc                scan_start
 *fill*         0x40221dee        0x2 
 .text.scan_pm_channel_op_cb
                0x40221df0       0x2d c:/Espressif/ESP8266_SDK_210/lib\libnet80211.a(ieee80211_scan.o)
                                 0x39 (size before relaxing)
                0x40221df0                scan_pm_channel_op_cb
 *fill*         0x40221e1d        0x3 
 .text.scan_next_channel
                0x40221e20       0x20 c:/Espressif/ESP8266_SDK_210/lib\libnet80211.a(ieee80211_scan.o)
                                 0x33 (size before relaxing)
 *fill*         0x40221e40        0x0 
 .text.scan_perform
                0x40221e40       0x4e c:/Espressif/ESP8266_SDK_210/lib\libnet80211.a(ieee80211_scan.o)
                                 0x5a (size before relaxing)
 *fill*         0x40221e8e        0x2 
 .text.scan_op_start
                0x40221e90       0x36 c:/Espressif/ESP8266_SDK_210/lib\libnet80211.a(ieee80211_scan.o)
                                 0x3e (size before relaxing)
 *fill*         0x40221ec6        0x2 
 .text.scan_op_end
                0x40221ec8       0xd7 c:/Espressif/ESP8266_SDK_210/lib\libnet80211.a(ieee80211_scan.o)
                                0x10e (size before relaxing)
 *fill*         0x40221f9f        0x1 
 .text.scan_cancel
                0x40221fa0       0x32 c:/Espressif/ESP8266_SDK_210/lib\libnet80211.a(ieee80211_scan.o)
                                 0x4a (size before relaxing)
                0x40221fa0                scan_cancel
 *fill*         0x40221fd2        0x2 
 .text.scan_done
                0x40221fd4      0x1a9 c:/Espressif/ESP8266_SDK_210/lib\libnet80211.a(ieee80211_scan.o)
                                0x249 (size before relaxing)
 *fill*         0x4022217d        0x3 
 .text.scan_add_bssid
                0x40222180       0x25 c:/Espressif/ESP8266_SDK_210/lib\libnet80211.a(ieee80211_scan.o)
                                 0x2d (size before relaxing)
                0x40222184                scan_add_bssid
 *fill*         0x402221a5        0x3 
 .text.scan_remove_bssid
                0x402221a8        0xa c:/Espressif/ESP8266_SDK_210/lib\libnet80211.a(ieee80211_scan.o)
                                  0xe (size before relaxing)
                0x402221a8                scan_remove_bssid
 *fill*         0x402221b2        0x2 
 .text.scan_hidden_ssid
                0x402221b4        0x8 c:/Espressif/ESP8266_SDK_210/lib\libnet80211.a(ieee80211_scan.o)
                                  0xc (size before relaxing)
                0x402221b4                scan_hidden_ssid
 .text.scan_add_probe_ssid
                0x402221bc       0x53 c:/Espressif/ESP8266_SDK_210/lib\libnet80211.a(ieee80211_scan.o)
                                 0x63 (size before relaxing)
                0x402221bc                scan_add_probe_ssid
 *fill*         0x4022220f        0x1 
 .text.scan_remove_probe_ssid
                0x40222210       0x18 c:/Espressif/ESP8266_SDK_210/lib\libnet80211.a(ieee80211_scan.o)
                                 0x1c (size before relaxing)
                0x40222210                scan_remove_probe_ssid
 .text.scan_send_probe
                0x40222228       0x8d c:/Espressif/ESP8266_SDK_210/lib\libnet80211.a(ieee80211_scan.o)
                                 0xa1 (size before relaxing)
 *fill*         0x402222b5        0x3 
 .text.scan_get_next_channel
                0x402222b8       0x91 c:/Espressif/ESP8266_SDK_210/lib\libnet80211.a(ieee80211_scan.o)
                                 0xa5 (size before relaxing)
 *fill*         0x40222349        0x3 
 .text.scan_clear_channles
                0x4022234c       0x22 c:/Espressif/ESP8266_SDK_210/lib\libnet80211.a(ieee80211_scan.o)
                                 0x26 (size before relaxing)
                0x4022234c                scan_clear_channles
 *fill*         0x4022236e        0x2 
 .text.scan_enter_oper_channel
                0x40222370       0x12 c:/Espressif/ESP8266_SDK_210/lib\libnet80211.a(ieee80211_scan.o)
                                 0x16 (size before relaxing)
 *fill*         0x40222382        0x2 
 .text.scan_inter_channel_timeout
                0x40222384       0x3f c:/Espressif/ESP8266_SDK_210/lib\libnet80211.a(ieee80211_scan.o)
                                 0x52 (size before relaxing)
 *fill*         0x402223c3        0x1 
 .text.scan_set_desChan
                0x402223c4        0xa c:/Espressif/ESP8266_SDK_210/lib\libnet80211.a(ieee80211_scan.o)
                                  0xe (size before relaxing)
                0x402223c4                scan_set_desChan
 *fill*         0x402223ce        0x2 
 .text.scan_get_type
                0x402223d0        0x7 c:/Espressif/ESP8266_SDK_210/lib\libnet80211.a(ieee80211_scan.o)
                                  0xb (size before relaxing)
                0x402223d0                scan_get_type
 *fill*         0x402223d7        0x1 
 .text.cannel_scan_connect_state
                0x402223d8       0x12 c:/Espressif/ESP8266_SDK_210/lib\libnet80211.a(ieee80211_scan.o)
                                 0x1a (size before relaxing)
                0x402223d8                cannel_scan_connect_state
 *fill*         0x402223ea        0x2 
 .text.scan_connect_state
                0x402223ec       0x49 c:/Espressif/ESP8266_SDK_210/lib\libnet80211.a(ieee80211_scan.o)
                                 0x65 (size before relaxing)
                0x402223f0                scan_connect_state
 *fill*         0x40222435        0x3 
 .text.scan_profile_check
                0x40222438      0x1bf c:/Espressif/ESP8266_SDK_210/lib\libnet80211.a(ieee80211_scan.o)
                                0x213 (size before relaxing)
                0x4022244c                scan_profile_check
 *fill*         0x402225f7        0x1 
 .text.clear_bss_queue
                0x402225f8       0x53 c:/Espressif/ESP8266_SDK_210/lib\libnet80211.a(ieee80211_scan.o)
                                 0x67 (size before relaxing)
 *fill*         0x4022264b        0x1 
 .text.check_bss_queue
                0x4022264c       0x38 c:/Espressif/ESP8266_SDK_210/lib\libnet80211.a(ieee80211_scan.o)
                                 0x40 (size before relaxing)
 .text.scan_add_ssid
                0x40222684      0x16a c:/Espressif/ESP8266_SDK_210/lib\libnet80211.a(ieee80211_scan.o)
                                0x1a6 (size before relaxing)
 *fill*         0x402227ee        0x2 
 .text.scan_parse_beacon
                0x402227f0      0x37d c:/Espressif/ESP8266_SDK_210/lib\libnet80211.a(ieee80211_scan.o)
                                0x469 (size before relaxing)
                0x402227f8                scan_parse_beacon
 *fill*         0x40222b6d        0x3 
 .text.save_rssi
                0x40222b70       0x1c c:/Espressif/ESP8266_SDK_210/lib\libnet80211.a(ieee80211_sta.o)
 .text.max_rssi
                0x40222b8c       0x17 c:/Espressif/ESP8266_SDK_210/lib\libnet80211.a(ieee80211_sta.o)
 *fill*         0x40222ba3        0x1 
 .text.sta_authretry
                0x40222ba4       0x25 c:/Espressif/ESP8266_SDK_210/lib\libnet80211.a(ieee80211_sta.o)
                                 0x29 (size before relaxing)
 *fill*         0x40222bc9        0x3 
 .text.sta_status_set
                0x40222bcc       0x5c c:/Espressif/ESP8266_SDK_210/lib\libnet80211.a(ieee80211_sta.o)
                                 0x60 (size before relaxing)
                0x40222bcc                sta_status_set
 .text.ieee80211_sta_new_state
                0x40222c28      0x396 c:/Espressif/ESP8266_SDK_210/lib\libnet80211.a(ieee80211_sta.o)
                                0x485 (size before relaxing)
                0x40222c38                ieee80211_sta_new_state
 *fill*         0x40222fbe        0x2 
 .text.sta_input
                0x40222fc0      0x390 c:/Espressif/ESP8266_SDK_210/lib\libnet80211.a(ieee80211_sta.o)
                                0x3e0 (size before relaxing)
                0x40222fc8                sta_input
 .text.sta_auth_open
                0x40223350       0xe1 c:/Espressif/ESP8266_SDK_210/lib\libnet80211.a(ieee80211_sta.o)
                                0x135 (size before relaxing)
 *fill*         0x40223431        0x3 
 .text.sta_auth_shared
                0x40223434       0xf9 c:/Espressif/ESP8266_SDK_210/lib\libnet80211.a(ieee80211_sta.o)
                                0x129 (size before relaxing)
 *fill*         0x4022352d        0x3 
 .text.sta_rx_csa
                0x40223530       0x9c c:/Espressif/ESP8266_SDK_210/lib\libnet80211.a(ieee80211_sta.o)
                                 0xb0 (size before relaxing)
 .text.sta_recv_mgmt
                0x402235cc      0x2ae c:/Espressif/ESP8266_SDK_210/lib\libnet80211.a(ieee80211_sta.o)
                                0x32e (size before relaxing)
 *fill*         0x4022387a        0x2 
 .text.sta_recv_assoc
                0x4022387c      0x302 c:/Espressif/ESP8266_SDK_210/lib\libnet80211.a(ieee80211_sta.o)
                                0x386 (size before relaxing)
 *fill*         0x40223b7e        0x2 
 .text.wifi_station_start
                0x40223b80       0x74 c:/Espressif/ESP8266_SDK_210/lib\libnet80211.a(ieee80211_sta.o)
                                 0x98 (size before relaxing)
                0x40223b84                wifi_station_start
 .text.wifi_station_stop
                0x40223bf4       0x45 c:/Espressif/ESP8266_SDK_210/lib\libnet80211.a(ieee80211_sta.o)
                                 0x55 (size before relaxing)
                0x40223bf8                wifi_station_stop
 *fill*         0x40223c39        0x3 
 .text.chm_init
                0x40223c3c       0x7e c:/Espressif/ESP8266_SDK_210/lib\libnet80211.a(wl_chm.o)
                                 0x96 (size before relaxing)
                0x40223c48                chm_init
 *fill*         0x40223cba        0x2 
 .text.chm_acquire_lock
                0x40223cbc       0x46 c:/Espressif/ESP8266_SDK_210/lib\libnet80211.a(wl_chm.o)
                                 0x52 (size before relaxing)
                0x40223cbc                chm_acquire_lock
 *fill*         0x40223d02        0x2 
 .text.chm_release_lock
                0x40223d04       0x11 c:/Espressif/ESP8266_SDK_210/lib\libnet80211.a(wl_chm.o)
                                 0x15 (size before relaxing)
                0x40223d04                chm_release_lock
 *fill*         0x40223d15        0x3 
 .text.chm_start_op
                0x40223d18       0x3d c:/Espressif/ESP8266_SDK_210/lib\libnet80211.a(wl_chm.o)
                                 0x4d (size before relaxing)
                0x40223d18                chm_start_op
 *fill*         0x40223d55        0x3 
 .text.chm_change_channel
                0x40223d58       0x6e c:/Espressif/ESP8266_SDK_210/lib\libnet80211.a(wl_chm.o)
                                 0x8a (size before relaxing)
 *fill*         0x40223dc6        0x2 
 .text.chm_end_op
                0x40223dc8       0x34 c:/Espressif/ESP8266_SDK_210/lib\libnet80211.a(wl_chm.o)
                                 0x40 (size before relaxing)
                0x40223dc8                chm_end_op
 .text.chm_end_op_timeout
                0x40223dfc       0x14 c:/Espressif/ESP8266_SDK_210/lib\libnet80211.a(wl_chm.o)
                                 0x18 (size before relaxing)
 .text.chm_cancel_op
                0x40223e10       0x34 c:/Espressif/ESP8266_SDK_210/lib\libnet80211.a(wl_chm.o)
                                 0x44 (size before relaxing)
                0x40223e10                chm_cancel_op
 .text.chm_return_home_channel
                0x40223e44       0x2d c:/Espressif/ESP8266_SDK_210/lib\libnet80211.a(wl_chm.o)
                                 0x39 (size before relaxing)
                0x40223e44                chm_return_home_channel
 *fill*         0x40223e71        0x3 
 .text.chm_set_current_channel
                0x40223e74       0x34 c:/Espressif/ESP8266_SDK_210/lib\libnet80211.a(wl_chm.o)
                                 0x40 (size before relaxing)
                0x40223e78                chm_set_current_channel
 .text.chm_freq2index
                0x40223ea8       0x26 c:/Espressif/ESP8266_SDK_210/lib\libnet80211.a(wl_chm.o)
                                 0x2a (size before relaxing)
                0x40223ea8                chm_freq2index
 *fill*         0x40223ece        0x2 
 .text.chm_check_same_channel
                0x40223ed0       0x2e c:/Espressif/ESP8266_SDK_210/lib\libnet80211.a(wl_chm.o)
                                 0x42 (size before relaxing)
                0x40223ed0                chm_check_same_channel
 *fill*         0x40223efe        0x2 
 .text.cnx_attach
                0x40223f00       0x49 c:/Espressif/ESP8266_SDK_210/lib\libnet80211.a(wl_cnx.o)
                                 0x55 (size before relaxing)
                0x40223f0c                cnx_attach
 *fill*         0x40223f49        0x3 
 .text.cnx_sta_connect_led_timer_cb
                0x40223f4c       0x49 c:/Espressif/ESP8266_SDK_210/lib\libnet80211.a(wl_cnx.o)
                                 0x59 (size before relaxing)
                0x40223f4c                cnx_sta_connect_led_timer_cb
 *fill*         0x40223f95        0x3 
 .text.cnx_sta_connect_cmd
                0x40223f98       0xeb c:/Espressif/ESP8266_SDK_210/lib\libnet80211.a(wl_cnx.o)
                                0x12b (size before relaxing)
                0x40223fa4                cnx_sta_connect_cmd
 *fill*         0x40224083        0x1 
 .text.cnx_sta_scan_cmd
                0x40224084       0xd8 c:/Espressif/ESP8266_SDK_210/lib\libnet80211.a(wl_cnx.o)
                                0x13c (size before relaxing)
                0x40224084                cnx_sta_scan_cmd
 .text.cnx_start_connect
                0x4022415c       0x73 c:/Espressif/ESP8266_SDK_210/lib\libnet80211.a(wl_cnx.o)
                                 0x8b (size before relaxing)
 *fill*         0x402241cf        0x1 
 .text.cnx_traverse_rc_list
                0x402241d0       0x46 c:/Espressif/ESP8266_SDK_210/lib\libnet80211.a(wl_cnx.o)
                                 0x60 (size before relaxing)
 *fill*         0x40224216        0x2 
 .text.cnx_probe_rc
                0x40224218       0x5d c:/Espressif/ESP8266_SDK_210/lib\libnet80211.a(wl_cnx.o)
                                 0x75 (size before relaxing)
 *fill*         0x40224275        0x3 
 .text.cnx_probe_rc_tx_cb
                0x40224278       0x4c c:/Espressif/ESP8266_SDK_210/lib\libnet80211.a(wl_cnx.o)
                                 0x73 (size before relaxing)
 *fill*         0x402242c4        0x0 
 .text.cnx_traverse_rc_lis_done
                0x402242c4       0x34 c:/Espressif/ESP8266_SDK_210/lib\libnet80211.a(wl_cnx.o)
                                 0x40 (size before relaxing)
 .text.cnx_connect_timeout
                0x402242f8       0x8b c:/Espressif/ESP8266_SDK_210/lib\libnet80211.a(wl_cnx.o)
                                 0xb6 (size before relaxing)
                0x40224304                cnx_connect_timeout
 *fill*         0x40224383        0x1 
 .text.cnx_auth_timeout
                0x40224384       0x20 c:/Espressif/ESP8266_SDK_210/lib\libnet80211.a(wl_cnx.o)
                                 0x38 (size before relaxing)
                0x40224384                cnx_auth_timeout
 .text.cnx_assoc_timeout
                0x402243a4       0x20 c:/Espressif/ESP8266_SDK_210/lib\libnet80211.a(wl_cnx.o)
                                 0x38 (size before relaxing)
                0x402243a4                cnx_assoc_timeout
 .text.cnx_handshake_timeout
                0x402243c4       0x3f c:/Espressif/ESP8266_SDK_210/lib\libnet80211.a(wl_cnx.o)
                                 0x5f (size before relaxing)
                0x402243c4                cnx_handshake_timeout
 *fill*         0x40224403        0x1 
 .text.cnx_start_handoff_cb
                0x40224404       0x11 c:/Espressif/ESP8266_SDK_210/lib\libnet80211.a(wl_cnx.o)
                                 0x18 (size before relaxing)
                0x40224404                cnx_start_handoff_cb
 *fill*         0x40224415        0x3 
 .text.cnx_do_handoff
                0x40224418      0x183 c:/Espressif/ESP8266_SDK_210/lib\libnet80211.a(wl_cnx.o)
                                0x213 (size before relaxing)
 *fill*         0x4022459b        0x1 
 .text.cnx_csa_fn
                0x4022459c       0x9f c:/Espressif/ESP8266_SDK_210/lib\libnet80211.a(wl_cnx.o)
                                 0xd3 (size before relaxing)
                0x402245a0                cnx_csa_fn
 *fill*         0x4022463b        0x1 
 .text.cnx_connect_to_bss
                0x4022463c      0x15e c:/Espressif/ESP8266_SDK_210/lib\libnet80211.a(wl_cnx.o)
                                0x1d6 (size before relaxing)
 *fill*         0x4022479a        0x2 
 .text.cnx_connect_op
                0x4022479c      0x147 c:/Espressif/ESP8266_SDK_210/lib\libnet80211.a(wl_cnx.o)
                                0x1b6 (size before relaxing)
 *fill*         0x402248e3        0x1 
 .text.cnx_choose_rc
                0x402248e4       0x7c c:/Espressif/ESP8266_SDK_210/lib\libnet80211.a(wl_cnx.o)
                                 0x98 (size before relaxing)
 .text.cnx_cal_rc_util
                0x40224960       0x52 c:/Espressif/ESP8266_SDK_210/lib\libnet80211.a(wl_cnx.o)
                                 0x56 (size before relaxing)
 *fill*         0x402249b2        0x2 
 .text.cnx_bss_alloc
                0x402249b4       0xa6 c:/Espressif/ESP8266_SDK_210/lib\libnet80211.a(wl_cnx.o)
                                 0xb2 (size before relaxing)
                0x402249b4                cnx_bss_alloc
 *fill*         0x40224a5a        0x2 
 .text.cnx_rc_search
                0x40224a5c       0x53 c:/Espressif/ESP8266_SDK_210/lib\libnet80211.a(wl_cnx.o)
                                 0x63 (size before relaxing)
                0x40224a5c                cnx_rc_search
 *fill*         0x40224aaf        0x1 
 .text.cnx_get_next_rc
                0x40224ab0       0x2c c:/Espressif/ESP8266_SDK_210/lib\libnet80211.a(wl_cnx.o)
                                 0x34 (size before relaxing)
 .text.cnx_add_rc
                0x40224adc       0x69 c:/Espressif/ESP8266_SDK_210/lib\libnet80211.a(wl_cnx.o)
                                 0x71 (size before relaxing)
                0x40224adc                cnx_add_rc
 *fill*         0x40224b45        0x3 
 .text.cnx_remove_all_rc
                0x40224b48       0x4b c:/Espressif/ESP8266_SDK_210/lib\libnet80211.a(wl_cnx.o)
                                 0x57 (size before relaxing)
                0x40224b48                cnx_remove_all_rc
 *fill*         0x40224b93        0x1 
 .text.cnx_remove_rc
                0x40224b94       0x72 c:/Espressif/ESP8266_SDK_210/lib\libnet80211.a(wl_cnx.o)
                                 0x7e (size before relaxing)
                0x40224b94                cnx_remove_rc
 *fill*         0x40224c06        0x2 
 .text.cnx_remove_rc_except
                0x40224c08       0x5c c:/Espressif/ESP8266_SDK_210/lib\libnet80211.a(wl_cnx.o)
                                 0x68 (size before relaxing)
 .text.cnx_rc_update_rssi
                0x40224c64       0x8b c:/Espressif/ESP8266_SDK_210/lib\libnet80211.a(wl_cnx.o)
                                 0x96 (size before relaxing)
                0x40224c64                cnx_rc_update_rssi
 *fill*         0x40224cef        0x1 
 .text.cnx_rc_update_state_metric
                0x40224cf0       0x6e c:/Espressif/ESP8266_SDK_210/lib\libnet80211.a(wl_cnx.o)
                                 0x7d (size before relaxing)
                0x40224cf0                cnx_rc_update_state_metric
 *fill*         0x40224d5e        0x2 
 .text.cnx_rc_update_age
                0x40224d60       0x26 c:/Espressif/ESP8266_SDK_210/lib\libnet80211.a(wl_cnx.o)
                                 0x2a (size before relaxing)
                0x40224d60                cnx_rc_update_age
 *fill*         0x40224d86        0x2 
 .text.cnx_update_bss
                0x40224d88       0x30 c:/Espressif/ESP8266_SDK_210/lib\libnet80211.a(wl_cnx.o)
                                 0x38 (size before relaxing)
                0x40224d88                cnx_update_bss
 .text.cnx_update_bss_more
                0x40224db8      0x1ef c:/Espressif/ESP8266_SDK_210/lib\libnet80211.a(wl_cnx.o)
                                0x273 (size before relaxing)
                0x40224dbc                cnx_update_bss_more
 *fill*         0x40224fa7        0x1 
 .text.cnx_sta_leave
                0x40224fa8       0xfc c:/Espressif/ESP8266_SDK_210/lib\libnet80211.a(wl_cnx.o)
                                0x158 (size before relaxing)
                0x40224fa8                cnx_sta_leave
 .text.send_ap_probe
                0x402250a4       0x8b c:/Espressif/ESP8266_SDK_210/lib\libnet80211.a(wl_cnx.o)
                                 0xa7 (size before relaxing)
 *fill*         0x4022512f        0x1 
 .text.cnx_beacon_timeout
                0x40225130       0x3b c:/Espressif/ESP8266_SDK_210/lib\libnet80211.a(wl_cnx.o)
                                 0x4b (size before relaxing)
 *fill*         0x4022516b        0x1 
 .text.mgd_probe_send_timeout
                0x4022516c       0xc8 c:/Espressif/ESP8266_SDK_210/lib\libnet80211.a(wl_cnx.o)
                                0x104 (size before relaxing)
 .text.cnx_sta_associated
                0x40225234      0x10d c:/Espressif/ESP8266_SDK_210/lib\libnet80211.a(wl_cnx.o)
                                0x151 (size before relaxing)
                0x40225240                cnx_sta_associated
 *fill*         0x40225341        0x3 
 .text.cnx_node_alloc
                0x40225344       0x72 c:/Espressif/ESP8266_SDK_210/lib\libnet80211.a(wl_cnx.o)
                                 0x86 (size before relaxing)
                0x40225344                cnx_node_alloc
 *fill*         0x402253b6        0x2 
 .text.cnx_node_remove
                0x402253b8       0x8b c:/Espressif/ESP8266_SDK_210/lib\libnet80211.a(wl_cnx.o)
                                 0xbf (size before relaxing)
                0x402253b8                cnx_node_remove
 *fill*         0x40225443        0x1 
 .text.cnx_node_search
                0x40225444       0x71 c:/Espressif/ESP8266_SDK_210/lib\libnet80211.a(wl_cnx.o)
                                 0x81 (size before relaxing)
                0x40225444                cnx_node_search
 *fill*         0x402254b5        0x3 
 .text.cnx_node_leave
                0x402254b8      0x102 c:/Espressif/ESP8266_SDK_210/lib\libnet80211.a(wl_cnx.o)
                                0x146 (size before relaxing)
                0x402254c0                cnx_node_leave
 *fill*         0x402255ba        0x2 
 .text.wifi_softap_staconnected_event_policy
                0x402255bc       0x2b c:/Espressif/ESP8266_SDK_210/lib\libnet80211.a(wl_cnx.o)
                0x402255c0                wifi_softap_staconnected_event_policy
 *fill*         0x402255e7        0x1 
 .text.wifi_softap_toomany_deny
                0x402255e8       0x2f c:/Espressif/ESP8266_SDK_210/lib\libnet80211.a(wl_cnx.o)
                                 0x37 (size before relaxing)
                0x402255e8                wifi_softap_toomany_deny
 *fill*         0x40225617        0x1 
 .text.cnx_node_join
                0x40225618      0x25d c:/Espressif/ESP8266_SDK_210/lib\libnet80211.a(wl_cnx.o)
                                0x319 (size before relaxing)
                0x40225624                cnx_node_join
 *fill*         0x40225875        0x3 
 .text.ieee80211_send_action_register
                0x40225878       0x3c c:/Espressif/ESP8266_SDK_210/lib\libnet80211.a(ieee80211_action.o)
                0x40225884                ieee80211_send_action_register
 .text.ieee80211_send_action_unregister
                0x402258b4       0x19 c:/Espressif/ESP8266_SDK_210/lib\libnet80211.a(ieee80211_action.o)
                                 0x1d (size before relaxing)
                0x402258b8                ieee80211_send_action_unregister
 *fill*         0x402258cd        0x3 
 .text.ieee80211_send_action
                0x402258d0       0x59 c:/Espressif/ESP8266_SDK_210/lib\libnet80211.a(ieee80211_action.o)
                                 0x69 (size before relaxing)
                0x402258d0                ieee80211_send_action
 *fill*         0x40225929        0x3 
 .text.ieee80211_recv_action_register
                0x4022592c       0x3c c:/Espressif/ESP8266_SDK_210/lib\libnet80211.a(ieee80211_action.o)
                0x40225938                ieee80211_recv_action_register
 .text.ieee80211_recv_action_unregister
                0x40225968       0x19 c:/Espressif/ESP8266_SDK_210/lib\libnet80211.a(ieee80211_action.o)
                                 0x1d (size before relaxing)
                0x4022596c                ieee80211_recv_action_unregister
 *fill*         0x40225981        0x3 
 .text.ieee80211_recv_action
                0x40225984       0x63 c:/Espressif/ESP8266_SDK_210/lib\libnet80211.a(ieee80211_action.o)
                                 0x77 (size before relaxing)
                0x40225984                ieee80211_recv_action
 *fill*         0x402259e7        0x1 
 .text.ieee80211_avs_fetch_key_idx
                0x402259e8       0x54 c:/Espressif/ESP8266_SDK_210/lib\libnet80211.a(ieee80211_action_vendor.o)
                                 0x60 (size before relaxing)
                0x402259e8                ieee80211_avs_fetch_key_idx
 .text.ieee80211_avs_clear_key_idx
                0x40225a3c       0x21 c:/Espressif/ESP8266_SDK_210/lib\libnet80211.a(ieee80211_action_vendor.o)
                                 0x25 (size before relaxing)
                0x40225a3c                ieee80211_avs_clear_key_idx
 *fill*         0x40225a5d        0x3 
 .text.get_iav_key
                0x40225a60       0x25 c:/Espressif/ESP8266_SDK_210/lib\libnet80211.a(ieee80211_action_vendor.o)
                0x40225a64                get_iav_key
 *fill*         0x40225a85        0x3 
 .text.register_ieee80211_action_vendor_get_key_cb
                0x40225a88       0x18 c:/Espressif/ESP8266_SDK_210/lib\libnet80211.a(ieee80211_action_vendor.o)
                                 0x1c (size before relaxing)
                0x40225a88                register_ieee80211_action_vendor_get_key_cb
 .text.unregister_ieee80211_action_vendor_get_key_cb
                0x40225aa0        0xc c:/Espressif/ESP8266_SDK_210/lib\libnet80211.a(ieee80211_action_vendor.o)
                                 0x10 (size before relaxing)
                0x40225aa0                unregister_ieee80211_action_vendor_get_key_cb
 .text.ieee80211_add_action_vendor_spec_esp
                0x40225aac       0x50 c:/Espressif/ESP8266_SDK_210/lib\libnet80211.a(ieee80211_action_vendor.o)
                                 0x58 (size before relaxing)
                0x40225ab8                ieee80211_add_action_vendor_spec_esp
 .text.ieee80211_alloc_action_vendor_spec
                0x40225afc       0xf1 c:/Espressif/ESP8266_SDK_210/lib\libnet80211.a(ieee80211_action_vendor.o)
                                 0xfd (size before relaxing)
                0x40225afc                ieee80211_alloc_action_vendor_spec
 *fill*         0x40225bed        0x3 
 .text.ieee80211_send_action_vendor_spec
                0x40225bf0      0x19a c:/Espressif/ESP8266_SDK_210/lib\libnet80211.a(ieee80211_action_vendor.o)
                                0x1d6 (size before relaxing)
                0x40225bf0                ieee80211_send_action_vendor_spec
 *fill*         0x40225d8a        0x2 
 .text.ieee80211_recv_action_vendor_spec
                0x40225d8c      0x16d c:/Espressif/ESP8266_SDK_210/lib\libnet80211.a(ieee80211_action_vendor.o)
                                0x195 (size before relaxing)
                0x40225da4                ieee80211_recv_action_vendor_spec
 *fill*         0x40225ef9        0x3 
 .text.ieee80211_action_vendor_spec_attach
                0x40225efc       0x3f c:/Espressif/ESP8266_SDK_210/lib\libnet80211.a(ieee80211_action_vendor.o)
                                 0x4b (size before relaxing)
                0x40225f04                ieee80211_action_vendor_spec_attach
 *fill*         0x40225f3b        0x1 
 .text.register_ieee80211_action_vendor_spec_cb
                0x40225f3c       0x18 c:/Espressif/ESP8266_SDK_210/lib\libnet80211.a(ieee80211_action_vendor.o)
                                 0x1c (size before relaxing)
                0x40225f3c                register_ieee80211_action_vendor_spec_cb
 .text.unregister_ieee80211_action_vendor_spec_cb
                0x40225f54        0xc c:/Espressif/ESP8266_SDK_210/lib\libnet80211.a(ieee80211_action_vendor.o)
                                 0x10 (size before relaxing)
                0x40225f54                unregister_ieee80211_action_vendor_spec_cb
 .text.ccmp_encap
                0x40225f60       0x79 c:/Espressif/ESP8266_SDK_210/lib\libnet80211.a(ieee80211_crypto_ccmp.o)
                                 0x7d (size before relaxing)
 *fill*         0x40225fd9        0x3 
 .text.ccmp_decap
                0x40225fdc       0xe1 c:/Espressif/ESP8266_SDK_210/lib\libnet80211.a(ieee80211_crypto_ccmp.o)
                                 0xe5 (size before relaxing)
 *fill*         0x402260bd        0x3 
 .text.ieee80211_add_ie_vendor_esp_head
                0x402260c0       0x3c c:/Espressif/ESP8266_SDK_210/lib\libnet80211.a(ieee80211_ie_vendor.o)
                                 0x40 (size before relaxing)
                0x402260c4                ieee80211_add_ie_vendor_esp_head
 .text.ieee80211_add_ie_vendor_esp_mesh_assoc
                0x402260fc       0x87 c:/Espressif/ESP8266_SDK_210/lib\libnet80211.a(ieee80211_ie_vendor.o)
                                 0x8f (size before relaxing)
                0x402260fc                ieee80211_add_ie_vendor_esp_mesh_assoc
 *fill*         0x40226183        0x1 
 .text.ieee80211_add_ie_vendor_esp_mesh_group
                0x40226184       0x35 c:/Espressif/ESP8266_SDK_210/lib\libnet80211.a(ieee80211_ie_vendor.o)
                                 0x3d (size before relaxing)
                0x40226184                ieee80211_add_ie_vendor_esp_mesh_group
 *fill*         0x402261b9        0x3 
 .text.ieee80211_add_ie_vendor_esp_simple_pair
                0x402261bc       0x5e c:/Espressif/ESP8266_SDK_210/lib\libnet80211.a(ieee80211_ie_vendor.o)
                                 0x66 (size before relaxing)
                0x402261bc                ieee80211_add_ie_vendor_esp_simple_pair
 *fill*         0x4022621a        0x2 
 .text.ieee80211_add_ie_vendor_esp_freq_annon
                0x4022621c       0x3b c:/Espressif/ESP8266_SDK_210/lib\libnet80211.a(ieee80211_ie_vendor.o)
                                 0x3f (size before relaxing)
                0x4022621c                ieee80211_add_ie_vendor_esp_freq_annon
 *fill*         0x40226257        0x1 
 .text.ieee80211_add_ie_vendor_esp_now
                0x40226258       0x39 c:/Espressif/ESP8266_SDK_210/lib\libnet80211.a(ieee80211_ie_vendor.o)
                                 0x41 (size before relaxing)
                0x40226258                ieee80211_add_ie_vendor_esp_now
 *fill*         0x40226291        0x3 
 .text.ieee80211_add_ie_vendor_esp_ssid
                0x40226294       0x41 c:/Espressif/ESP8266_SDK_210/lib\libnet80211.a(ieee80211_ie_vendor.o)
                                 0x49 (size before relaxing)
                0x40226294                ieee80211_add_ie_vendor_esp_ssid
 *fill*         0x402262d5        0x3 
 .text.ieee80211_add_ie_vendor_esp_manufacturer
                0x402262d8       0x50 c:/Espressif/ESP8266_SDK_210/lib\libnet80211.a(ieee80211_ie_vendor.o)
                                 0x5c (size before relaxing)
                0x402262d8                ieee80211_add_ie_vendor_esp_manufacturer
 .text.tkip_encap
                0x40226328       0x92 c:/Espressif/ESP8266_SDK_210/lib\libnet80211.a(ieee80211_crypto_tkip.o)
                                 0x96 (size before relaxing)
 *fill*         0x402263ba        0x2 
 .text.tkip_decap
                0x402263bc       0xf7 c:/Espressif/ESP8266_SDK_210/lib\libnet80211.a(ieee80211_crypto_tkip.o)
                                 0xff (size before relaxing)
 *fill*         0x402264b3        0x1 
 .text.wep_encap
                0x402264b4       0x5b c:/Espressif/ESP8266_SDK_210/lib\libnet80211.a(ieee80211_crypto_wep.o)
 *fill*         0x4022650f        0x1 
 .literal.ieee80211_chan_init
                0x40226510        0x0 c:/Espressif/ESP8266_SDK_210/lib\libnet80211.a(ieee80211.o)
 .literal.ieee80211_rate_ref_init
                0x40226510        0x0 c:/Espressif/ESP8266_SDK_210/lib\libnet80211.a(ieee80211.o)
 .literal.ieee80211_freedom_inside_cb
                0x40226510        0x0 c:/Espressif/ESP8266_SDK_210/lib\libnet80211.a(ieee80211.o)
 .literal.ieee80211_freedom_init
                0x40226510        0x0 c:/Espressif/ESP8266_SDK_210/lib\libnet80211.a(ieee80211.o)
 .literal.ieee80211_user_ie_init
                0x40226510        0x0 c:/Espressif/ESP8266_SDK_210/lib\libnet80211.a(ieee80211.o)
 .literal.ieee80211_ifattach
                0x40226510        0x0 c:/Espressif/ESP8266_SDK_210/lib\libnet80211.a(ieee80211.o)
 .literal.ieee80211_mhz2ieee
                0x40226510        0x0 c:/Espressif/ESP8266_SDK_210/lib\libnet80211.a(ieee80211.o)
 .literal.ieee80211_chan2ieee
                0x40226510        0x0 c:/Espressif/ESP8266_SDK_210/lib\libnet80211.a(ieee80211.o)
 .literal.ieee80211_ieee2mhz
                0x40226510        0x0 c:/Espressif/ESP8266_SDK_210/lib\libnet80211.a(ieee80211.o)
 .literal.ieee80211_find_channel
                0x40226510        0x0 c:/Espressif/ESP8266_SDK_210/lib\libnet80211.a(ieee80211.o)
 .literal.ieee80211_find_channel_byieee
                0x40226510        0x0 c:/Espressif/ESP8266_SDK_210/lib\libnet80211.a(ieee80211.o)
 .literal.wifi_mode_set
                0x40226510        0x0 c:/Espressif/ESP8266_SDK_210/lib\libnet80211.a(ieee80211.o)
 *fill*         0x40226510        0x0 
 *fill*         0x40226510        0x0 
 *fill*         0x40226510        0x0 
 *fill*         0x40226510        0x0 
 *fill*         0x40226510        0x0 
 *fill*         0x40226510        0x0 
 .text.ieee80211_find_channel
                0x40226510       0x29 c:/Espressif/ESP8266_SDK_210/lib\libnet80211.a(ieee80211.o)
                0x40226510                ieee80211_find_channel
 *fill*         0x40226539        0x3 
 .text.ieee80211_find_channel_byieee
                0x4022653c       0x29 c:/Espressif/ESP8266_SDK_210/lib\libnet80211.a(ieee80211.o)
                0x4022653c                ieee80211_find_channel_byieee
 *fill*         0x40226565        0x0 
 *fill*         0x40226565        0x3 
 .literal.ieee80211_crypto_attach
                0x40226568        0x0 c:/Espressif/ESP8266_SDK_210/lib\libnet80211.a(ieee80211_crypto.o)
 .literal.ieee80211_crypto_available
                0x40226568        0x0 c:/Espressif/ESP8266_SDK_210/lib\libnet80211.a(ieee80211_crypto.o)
 .literal.ieee80211_crypto_setkey
                0x40226568        0x0 c:/Espressif/ESP8266_SDK_210/lib\libnet80211.a(ieee80211_crypto.o)
 .literal.ieee80211_crypto_encap
                0x40226568        0x0 c:/Espressif/ESP8266_SDK_210/lib\libnet80211.a(ieee80211_crypto.o)
 .literal.ieee80211_crypto_decap
                0x40226568        0x0 c:/Espressif/ESP8266_SDK_210/lib\libnet80211.a(ieee80211_crypto.o)
 .text.ieee80211_crypto_attach
                0x40226568        0x2 c:/Espressif/ESP8266_SDK_210/lib\libnet80211.a(ieee80211_crypto.o)
                0x40226568                ieee80211_crypto_attach
 *fill*         0x4022656a        0x2 
 .text.ieee80211_crypto_available
                0x4022656c        0x4 c:/Espressif/ESP8266_SDK_210/lib\libnet80211.a(ieee80211_crypto.o)
                0x4022656c                ieee80211_crypto_available
 .text.ieee80211_crypto_setkey
                0x40226570        0x4 c:/Espressif/ESP8266_SDK_210/lib\libnet80211.a(ieee80211_crypto.o)
                0x40226570                ieee80211_crypto_setkey
 *fill*         0x40226574        0x0 
 .literal.ieee80211_getmgtframe
                0x40226574        0x0 c:/Espressif/ESP8266_SDK_210/lib\libnet80211.a(ieee80211_ets.o)
 .literal.ieee80211_hdrsize
                0x40226574        0x0 c:/Espressif/ESP8266_SDK_210/lib\libnet80211.a(ieee80211_hostap.o)
 .literal.ieee80211_hostap_send_beacon
                0x40226574        0x0 c:/Espressif/ESP8266_SDK_210/lib\libnet80211.a(ieee80211_hostap.o)
 .literal.ieee80211_hostapd_beacon_txcb
                0x40226574        0x0 c:/Espressif/ESP8266_SDK_210/lib\libnet80211.a(ieee80211_hostap.o)
 .literal.ieee80211_hostap_init
                0x40226574        0x0 c:/Espressif/ESP8266_SDK_210/lib\libnet80211.a(ieee80211_hostap.o)
 .literal.ieee80211_hostap_deinit
                0x40226574        0x0 c:/Espressif/ESP8266_SDK_210/lib\libnet80211.a(ieee80211_hostap.o)
 .literal.ieee80211_hostap_attach
                0x40226574        0x0 c:/Espressif/ESP8266_SDK_210/lib\libnet80211.a(ieee80211_hostap.o)
 .literal.hostap_deliver_data
                0x40226574        0x0 c:/Espressif/ESP8266_SDK_210/lib\libnet80211.a(ieee80211_hostap.o)
 .literal.hostap_handle_timer
                0x40226574        0x0 c:/Espressif/ESP8266_SDK_210/lib\libnet80211.a(ieee80211_hostap.o)
 .literal.hostap_input
                0x40226574        0x0 c:/Espressif/ESP8266_SDK_210/lib\libnet80211.a(ieee80211_hostap.o)
 .literal.hostap_auth_open
                0x40226574        0x0 c:/Espressif/ESP8266_SDK_210/lib\libnet80211.a(ieee80211_hostap.o)
 .literal.is11bclient
                0x40226574        0x0 c:/Espressif/ESP8266_SDK_210/lib\libnet80211.a(ieee80211_hostap.o)
 .literal.hostap_recv_mgmt
                0x40226574        0x0 c:/Espressif/ESP8266_SDK_210/lib\libnet80211.a(ieee80211_hostap.o)
 .literal.hostap_recv_ctl
                0x40226574        0x0 c:/Espressif/ESP8266_SDK_210/lib\libnet80211.a(ieee80211_hostap.o)
 .literal.hostap_recv_pspoll
                0x40226574        0x0 c:/Espressif/ESP8266_SDK_210/lib\libnet80211.a(ieee80211_hostap.o)
 .literal.freqcal_scan_done
                0x40226574        0x0 c:/Espressif/ESP8266_SDK_210/lib\libnet80211.a(ieee80211_hostap.o)
 .literal.ApFreqCalTimerCB
                0x40226574        0x0 c:/Espressif/ESP8266_SDK_210/lib\libnet80211.a(ieee80211_hostap.o)
 .literal.wifi_softap_start
                0x40226574        0x0 c:/Espressif/ESP8266_SDK_210/lib\libnet80211.a(ieee80211_hostap.o)
 .literal.wifi_softap_stop
                0x40226574        0x0 c:/Espressif/ESP8266_SDK_210/lib\libnet80211.a(ieee80211_hostap.o)
 .text.ieee80211_hdrsize
                0x40226574       0x25 c:/Espressif/ESP8266_SDK_210/lib\libnet80211.a(ieee80211_hostap.o)
 *fill*         0x40226599        0x0 
 *fill*         0x40226599        0x0 
 *fill*         0x40226599        0x0 
 *fill*         0x40226599        0x0 
 *fill*         0x40226599        0x0 
 *fill*         0x40226599        0x0 
 *fill*         0x40226599        0x0 
 *fill*         0x40226599        0x0 
 *fill*         0x40226599        0x0 
 *fill*         0x40226599        0x0 
 *fill*         0x40226599        0x0 
 *fill*         0x40226599        0x0 
 *fill*         0x40226599        0x0 
 *fill*         0x40226599        0x0 
 *fill*         0x40226599        0x3 
 .literal.ieee80211_ht_attach
                0x4022659c        0x0 c:/Espressif/ESP8266_SDK_210/lib\libnet80211.a(ieee80211_ht.o)
 .literal.ieee80211_ht_node_init
                0x4022659c        0x0 c:/Espressif/ESP8266_SDK_210/lib\libnet80211.a(ieee80211_ht.o)
 .literal.ieee80211_ht_node_cleanup
                0x4022659c        0x0 c:/Espressif/ESP8266_SDK_210/lib\libnet80211.a(ieee80211_ht.o)
 .literal.findhtchan
                0x4022659c        0x0 c:/Espressif/ESP8266_SDK_210/lib\libnet80211.a(ieee80211_ht.o)
 .literal.ieee80211_parse_htcap
                0x4022659c        0x0 c:/Espressif/ESP8266_SDK_210/lib\libnet80211.a(ieee80211_ht.o)
 .literal.htinfo_parse
                0x4022659c        0x0 c:/Espressif/ESP8266_SDK_210/lib\libnet80211.a(ieee80211_ht.o)
 .literal.htinfo_update_chw
                0x4022659c        0x0 c:/Espressif/ESP8266_SDK_210/lib\libnet80211.a(ieee80211_ht.o)
 .literal.ieee80211_ht_updateparams
                0x4022659c        0x0 c:/Espressif/ESP8266_SDK_210/lib\libnet80211.a(ieee80211_ht.o)
 .literal.ieee80211_setup_htrates
                0x4022659c        0x0 c:/Espressif/ESP8266_SDK_210/lib\libnet80211.a(ieee80211_ht.o)
 .literal.ieee80211_setup_basic_htrates
                0x4022659c        0x0 c:/Espressif/ESP8266_SDK_210/lib\libnet80211.a(ieee80211_ht.o)
 .literal.ieee80211_set_mcsset
                0x4022659c        0x0 c:/Espressif/ESP8266_SDK_210/lib\libnet80211.a(ieee80211_ht.o)
 .literal.ieee80211_add_htcap_body
                0x4022659c        0x0 c:/Espressif/ESP8266_SDK_210/lib\libnet80211.a(ieee80211_ht.o)
 .literal.ieee80211_add_htcap
                0x4022659c        0x0 c:/Espressif/ESP8266_SDK_210/lib\libnet80211.a(ieee80211_ht.o)
 .literal.ieee80211_add_htcap_vendor
                0x4022659c        0x0 c:/Espressif/ESP8266_SDK_210/lib\libnet80211.a(ieee80211_ht.o)
 .literal.ieee80211_set_basic_htrates
                0x4022659c        0x0 c:/Espressif/ESP8266_SDK_210/lib\libnet80211.a(ieee80211_ht.o)
 .literal.ieee80211_add_htinfo_body
                0x4022659c        0x0 c:/Espressif/ESP8266_SDK_210/lib\libnet80211.a(ieee80211_ht.o)
 .literal.ieee80211_add_htinfo
                0x4022659c        0x0 c:/Espressif/ESP8266_SDK_210/lib\libnet80211.a(ieee80211_ht.o)
 .literal.ieee80211_add_htinfo_vendor
                0x4022659c        0x0 c:/Espressif/ESP8266_SDK_210/lib\libnet80211.a(ieee80211_ht.o)
 .literal.ht_recv_action_ba_addba_request
                0x4022659c        0x0 c:/Espressif/ESP8266_SDK_210/lib\libnet80211.a(ieee80211_ht.o)
 .literal.ht_send_action_ba_addba
                0x4022659c        0x0 c:/Espressif/ESP8266_SDK_210/lib\libnet80211.a(ieee80211_ht.o)
 *fill*         0x4022659c        0x0 
 .text.ieee80211_ht_node_cleanup
                0x4022659c       0x13 c:/Espressif/ESP8266_SDK_210/lib\libnet80211.a(ieee80211_ht.o)
                0x4022659c                ieee80211_ht_node_cleanup
 *fill*         0x402265af        0x0 
 *fill*         0x402265af        0x1 
 .text.htinfo_parse
                0x402265b0       0x23 c:/Espressif/ESP8266_SDK_210/lib\libnet80211.a(ieee80211_ht.o)
 *fill*         0x402265d3        0x0 
 *fill*         0x402265d3        0x0 
 *fill*         0x402265d3        0x0 
 *fill*         0x402265d3        0x0 
 *fill*         0x402265d3        0x0 
 *fill*         0x402265d3        0x0 
 *fill*         0x402265d3        0x0 
 *fill*         0x402265d3        0x1 
 .literal.ieee80211_deliver_data
                0x402265d4        0x0 c:/Espressif/ESP8266_SDK_210/lib\libnet80211.a(ieee80211_input.o)
 .literal.ieee80211_decap
                0x402265d4        0x0 c:/Espressif/ESP8266_SDK_210/lib\libnet80211.a(ieee80211_input.o)
 .literal.ieee80211_setup_rates
                0x402265d4        0x0 c:/Espressif/ESP8266_SDK_210/lib\libnet80211.a(ieee80211_input.o)
 .literal.ieee80211_alloc_challenge
                0x402265d4        0x0 c:/Espressif/ESP8266_SDK_210/lib\libnet80211.a(ieee80211_input.o)
 .literal.ieee80211_parse_beacon
                0x402265d4        0x0 c:/Espressif/ESP8266_SDK_210/lib\libnet80211.a(ieee80211_input.o)
 .literal.wpa_cipher
                0x402265d4        0x0 c:/Espressif/ESP8266_SDK_210/lib\libnet80211.a(ieee80211_input.o)
 .literal.wpa_keymgmt
                0x402265d4        0x0 c:/Espressif/ESP8266_SDK_210/lib\libnet80211.a(ieee80211_input.o)
 .literal.rsn_cipher
                0x402265d4        0x0 c:/Espressif/ESP8266_SDK_210/lib\libnet80211.a(ieee80211_input.o)
 .literal.rsn_keymgmt
                0x402265d4        0x0 c:/Espressif/ESP8266_SDK_210/lib\libnet80211.a(ieee80211_input.o)
 .literal.ieee80211_parse_wpa
                0x402265d4        0x0 c:/Espressif/ESP8266_SDK_210/lib\libnet80211.a(ieee80211_input.o)
 .literal.ieee80211_parse_rsn
                0x402265d4        0x0 c:/Espressif/ESP8266_SDK_210/lib\libnet80211.a(ieee80211_input.o)
 .literal.ieee80211_parse_action
                0x402265d4        0x0 c:/Espressif/ESP8266_SDK_210/lib\libnet80211.a(ieee80211_input.o)
 .literal.ieee80211_setup_rateset
                0x402265d4        0x0 c:/Espressif/ESP8266_SDK_210/lib\libnet80211.a(ieee80211_input.o)
 *fill*         0x402265d4        0x0 
 *fill*         0x402265d4        0x0 
 *fill*         0x402265d4        0x0 
 *fill*         0x402265d4        0x0 
 *fill*         0x402265d4        0x0 
 *fill*         0x402265d4        0x0 
 .text.ieee80211_setup_rateset
                0x402265d4        0x4 c:/Espressif/ESP8266_SDK_210/lib\libnet80211.a(ieee80211_input.o)
                0x402265d4                ieee80211_setup_rateset
 .literal.ieee80211_mesh_quick_init
                0x402265d8        0x0 c:/Espressif/ESP8266_SDK_210/lib\libnet80211.a(ieee80211_mesh_quick.o)
 .literal.ieee80211_mesh_quick_deinit
                0x402265d8        0x0 c:/Espressif/ESP8266_SDK_210/lib\libnet80211.a(ieee80211_mesh_quick.o)
 .literal.ieee80211_mesh_quick_set
                0x402265d8        0x0 c:/Espressif/ESP8266_SDK_210/lib\libnet80211.a(ieee80211_mesh_quick.o)
 .literal.ieee80211_mesh_quick_get
                0x402265d8        0x0 c:/Espressif/ESP8266_SDK_210/lib\libnet80211.a(ieee80211_mesh_quick.o)
 .literal.ieee80211_mesh_quick_ie_add
                0x402265d8        0x0 c:/Espressif/ESP8266_SDK_210/lib\libnet80211.a(ieee80211_mesh_quick.o)
 *fill*         0x402265d8        0x0 
 *fill*         0x402265d8        0x0 
 .literal.ieee80211_output_pbuf
                0x402265d8        0x0 c:/Espressif/ESP8266_SDK_210/lib\libnet80211.a(ieee80211_output.o)
 .literal.ieee80211_send_setup
                0x402265d8        0x0 c:/Espressif/ESP8266_SDK_210/lib\libnet80211.a(ieee80211_output.o)
 .literal.ieee80211_mgmt_output
                0x402265d8        0x0 c:/Espressif/ESP8266_SDK_210/lib\libnet80211.a(ieee80211_output.o)
 .literal.ieee80211_tx_mgt_cb
                0x402265d8        0x0 c:/Espressif/ESP8266_SDK_210/lib\libnet80211.a(ieee80211_output.o)
 .literal.ieee80211_send_nulldata
                0x402265d8        0x0 c:/Espressif/ESP8266_SDK_210/lib\libnet80211.a(ieee80211_output.o)
 .literal.ieee80211_encap_esfbuf
                0x402265d8        0x0 c:/Espressif/ESP8266_SDK_210/lib\libnet80211.a(ieee80211_output.o)
 .literal.ieee80211_classify_pbuf
                0x402265d8        0x0 c:/Espressif/ESP8266_SDK_210/lib\libnet80211.a(ieee80211_output.o)
 .literal.ieee80211_add_rates
                0x402265d8        0x0 c:/Espressif/ESP8266_SDK_210/lib\libnet80211.a(ieee80211_output.o)
 .literal.ieee80211_add_xrates
                0x402265d8        0x0 c:/Espressif/ESP8266_SDK_210/lib\libnet80211.a(ieee80211_output.o)
 .literal.ieee80211_add_ssid
                0x402265d8        0x0 c:/Espressif/ESP8266_SDK_210/lib\libnet80211.a(ieee80211_output.o)
 .literal.ieee80211_add_erp
                0x402265d8        0x0 c:/Espressif/ESP8266_SDK_210/lib\libnet80211.a(ieee80211_output.o)
 .literal.add_appie
                0x402265d8        0x0 c:/Espressif/ESP8266_SDK_210/lib\libnet80211.a(ieee80211_output.o)
 .literal.ieee80211_add_wme_info
                0x402265d8        0x0 c:/Espressif/ESP8266_SDK_210/lib\libnet80211.a(ieee80211_output.o)
 .literal.ieee80211_add_csa
                0x402265d8        0x0 c:/Espressif/ESP8266_SDK_210/lib\libnet80211.a(ieee80211_output.o)
 .literal.ieee80211_add_countryie
                0x402265d8        0x0 c:/Espressif/ESP8266_SDK_210/lib\libnet80211.a(ieee80211_output.o)
 .literal.ieee80211_send_probereq
                0x402265d8        0x0 c:/Espressif/ESP8266_SDK_210/lib\libnet80211.a(ieee80211_output.o)
 .literal.ieee80211_getcapinfo
                0x402265d8        0x0 c:/Espressif/ESP8266_SDK_210/lib\libnet80211.a(ieee80211_output.o)
 .literal.ieee80211_send_mgmt
                0x402265d8        0x0 c:/Espressif/ESP8266_SDK_210/lib\libnet80211.a(ieee80211_output.o)
 .literal.ieee80211_is_tx_allowed
                0x402265d8        0x0 c:/Espressif/ESP8266_SDK_210/lib\libnet80211.a(ieee80211_output.o)
 .literal.ieee80211_alloc_proberesp
                0x402265d8        0x0 c:/Espressif/ESP8266_SDK_210/lib\libnet80211.a(ieee80211_output.o)
 .literal.ieee80211_send_proberesp
                0x402265d8        0x0 c:/Espressif/ESP8266_SDK_210/lib\libnet80211.a(ieee80211_output.o)
 .literal.ieee80211_alloc_deauth
                0x402265d8        0x0 c:/Espressif/ESP8266_SDK_210/lib\libnet80211.a(ieee80211_output.o)
 .literal.ieee80211_send_deauth
                0x402265d8        0x0 c:/Espressif/ESP8266_SDK_210/lib\libnet80211.a(ieee80211_output.o)
 .literal.ieee80211_freedom_output
                0x402265d8        0x0 c:/Espressif/ESP8266_SDK_210/lib\libnet80211.a(ieee80211_output.o)
 .literal.ieee80211_beacon_construct
                0x402265d8        0x0 c:/Espressif/ESP8266_SDK_210/lib\libnet80211.a(ieee80211_output.o)
 .literal.ieee80211_beacon_alloc
                0x402265d8        0x0 c:/Espressif/ESP8266_SDK_210/lib\libnet80211.a(ieee80211_output.o)
 *fill*         0x402265d8        0x0 
 *fill*         0x402265d8        0x0 
 *fill*         0x402265d8        0x0 
 .text.ieee80211_tx_mgt_cb
                0x402265d8        0x2 c:/Espressif/ESP8266_SDK_210/lib\libnet80211.a(ieee80211_output.o)
                0x402265d8                ieee80211_tx_mgt_cb
 *fill*         0x402265da        0x0 
 *fill*         0x402265da        0x0 
 *fill*         0x402265da        0x0 
 *fill*         0x402265da        0x0 
 *fill*         0x402265da        0x0 
 *fill*         0x402265da        0x2 
 .text.ieee80211_add_erp
                0x402265dc       0x25 c:/Espressif/ESP8266_SDK_210/lib\libnet80211.a(ieee80211_output.o)
 *fill*         0x40226601        0x0 
 *fill*         0x40226601        0x0 
 *fill*         0x40226601        0x0 
 *fill*         0x40226601        0x0 
 *fill*         0x40226601        0x3 
 .text.ieee80211_is_tx_allowed
                0x40226604       0x12 c:/Espressif/ESP8266_SDK_210/lib\libnet80211.a(ieee80211_output.o)
 *fill*         0x40226616        0x0 
 *fill*         0x40226616        0x0 
 *fill*         0x40226616        0x0 
 *fill*         0x40226616        0x0 
 *fill*         0x40226616        0x0 
 *fill*         0x40226616        0x0 
 *fill*         0x40226616        0x0 
 *fill*         0x40226616        0x2 
 .literal.ieee80211_phy_init
                0x40226618        0x0 c:/Espressif/ESP8266_SDK_210/lib\libnet80211.a(ieee80211_phy.o)
 .literal.ieee80211_phy_type_get
                0x40226618        0x0 c:/Espressif/ESP8266_SDK_210/lib\libnet80211.a(ieee80211_phy.o)
 .literal.ieee80211_setup_ratetable
                0x40226618        0x0 c:/Espressif/ESP8266_SDK_210/lib\libnet80211.a(ieee80211_phy.o)
 *fill*         0x40226618        0x0 
 .literal.ieee80211_psq_init
                0x40226618        0x0 c:/Espressif/ESP8266_SDK_210/lib\libnet80211.a(ieee80211_power.o)
 .literal.ieee80211_psq_cleanup
                0x40226618        0x0 c:/Espressif/ESP8266_SDK_210/lib\libnet80211.a(ieee80211_power.o)
 .literal.ieee80211_set_tim
                0x40226618        0x0 c:/Espressif/ESP8266_SDK_210/lib\libnet80211.a(ieee80211_power.o)
 .literal.ieee80211_pwrsave
                0x40226618        0x0 c:/Espressif/ESP8266_SDK_210/lib\libnet80211.a(ieee80211_power.o)
 .literal.pwrsave_flushq
                0x40226618        0x0 c:/Espressif/ESP8266_SDK_210/lib\libnet80211.a(ieee80211_power.o)
 .literal.ieee80211_node_pwrsave
                0x40226618        0x0 c:/Espressif/ESP8266_SDK_210/lib\libnet80211.a(ieee80211_power.o)
 .text.ieee80211_psq_cleanup
                0x40226618        0x2 c:/Espressif/ESP8266_SDK_210/lib\libnet80211.a(ieee80211_power.o)
                0x40226618                ieee80211_psq_cleanup
 *fill*         0x4022661a        0x0 
 *fill*         0x4022661a        0x0 
 *fill*         0x4022661a        0x2 
 .literal.ieee80211_proto_attach
                0x4022661c        0x0 c:/Espressif/ESP8266_SDK_210/lib\libnet80211.a(ieee80211_proto.o)
 .literal.ieee80211_set_shortslottime
                0x4022661c        0x0 c:/Espressif/ESP8266_SDK_210/lib\libnet80211.a(ieee80211_proto.o)
 .literal.ieee80211_iserp_rateset
                0x4022661c        0x0 c:/Espressif/ESP8266_SDK_210/lib\libnet80211.a(ieee80211_proto.o)
 .literal.ieee80211_wme_initparams
                0x4022661c        0x0 c:/Espressif/ESP8266_SDK_210/lib\libnet80211.a(ieee80211_proto.o)
 .literal.ieee80211_wme_updateparams
                0x4022661c        0x0 c:/Espressif/ESP8266_SDK_210/lib\libnet80211.a(ieee80211_proto.o)
 .literal.ieee80211_mlme_connect_bss
                0x4022661c        0x0 c:/Espressif/ESP8266_SDK_210/lib\libnet80211.a(ieee80211_proto.o)
 *fill*         0x4022661c        0x0 
 .text.ieee80211_set_shortslottime
                0x4022661c       0x15 c:/Espressif/ESP8266_SDK_210/lib\libnet80211.a(ieee80211_proto.o)
                0x4022661c                ieee80211_set_shortslottime
 *fill*         0x40226631        0x3 
 .text.ieee80211_wme_initparams
                0x40226634        0x2 c:/Espressif/ESP8266_SDK_210/lib\libnet80211.a(ieee80211_proto.o)
                0x40226634                ieee80211_wme_initparams
 *fill*         0x40226636        0x2 
 .text.ieee80211_wme_updateparams
                0x40226638        0x2 c:/Espressif/ESP8266_SDK_210/lib\libnet80211.a(ieee80211_proto.o)
                0x40226638                ieee80211_wme_updateparams
 *fill*         0x4022663a        0x0 
 *fill*         0x4022663a        0x2 
 .literal.ieee80211_regdomain_attach
                0x4022663c        0x0 c:/Espressif/ESP8266_SDK_210/lib\libnet80211.a(ieee80211_regdomain.o)
 .literal.ieee80211_regdomain_detach
                0x4022663c        0x0 c:/Espressif/ESP8266_SDK_210/lib\libnet80211.a(ieee80211_regdomain.o)
 .literal.ieee80211_alloc_countryie
                0x4022663c        0x0 c:/Espressif/ESP8266_SDK_210/lib\libnet80211.a(ieee80211_regdomain.o)
 .literal.ieee80211_chan_in_regdomain
                0x4022663c        0x0 c:/Espressif/ESP8266_SDK_210/lib\libnet80211.a(ieee80211_regdomain.o)
 .literal.ieee80211_update_regdomain
                0x4022663c        0x0 c:/Espressif/ESP8266_SDK_210/lib\libnet80211.a(ieee80211_regdomain.o)
 .text.ieee80211_regdomain_attach
                0x4022663c        0x2 c:/Espressif/ESP8266_SDK_210/lib\libnet80211.a(ieee80211_regdomain.o)
                0x4022663c                ieee80211_regdomain_attach
 *fill*         0x4022663e        0x0 
 *fill*         0x4022663e        0x0 
 *fill*         0x4022663e        0x2 
 .literal.ieee80211_rfid_locp_recv_open
                0x40226640        0x0 c:/Espressif/ESP8266_SDK_210/lib\libnet80211.a(ieee80211_rfid.o)
 .literal.ieee80211_rfid_locp_recv_close
                0x40226640        0x0 c:/Espressif/ESP8266_SDK_210/lib\libnet80211.a(ieee80211_rfid.o)
 .literal.ieee80211_rfid_locp_recv_reset
                0x40226640        0x0 c:/Espressif/ESP8266_SDK_210/lib\libnet80211.a(ieee80211_rfid.o)
 .literal.ieee80211_rfid_locp_recv
                0x40226640        0x0 c:/Espressif/ESP8266_SDK_210/lib\libnet80211.a(ieee80211_rfid.o)
 .literal.register_ieee80211_rfid_locp_recv_cb
                0x40226640        0x0 c:/Espressif/ESP8266_SDK_210/lib\libnet80211.a(ieee80211_rfid.o)
 .literal.unregister_ieee80211_rfid_locp_recv_cb
                0x40226640        0x0 c:/Espressif/ESP8266_SDK_210/lib\libnet80211.a(ieee80211_rfid.o)
 *fill*         0x40226640        0x0 
 *fill*         0x40226640        0x0 
 *fill*         0x40226640        0x0 
 *fill*         0x40226640        0x0 
 *fill*         0x40226640        0x0 
 *fill*         0x40226640        0x0 
 .literal.ieee80211_scan_attach
                0x40226640        0x0 c:/Espressif/ESP8266_SDK_210/lib\libnet80211.a(ieee80211_scan.o)
 .literal.slp_wk_cpu_scan_wait_timout
                0x40226640        0x0 c:/Espressif/ESP8266_SDK_210/lib\libnet80211.a(ieee80211_scan.o)
 .literal.freq_changle_enable_softap_link_check
                0x40226640        0x0 c:/Espressif/ESP8266_SDK_210/lib\libnet80211.a(ieee80211_scan.o)
 .literal.freq_changle_scan_start
                0x40226640        0x0 c:/Espressif/ESP8266_SDK_210/lib\libnet80211.a(ieee80211_scan.o)
 .literal.scan_start
                0x40226640        0x0 c:/Espressif/ESP8266_SDK_210/lib\libnet80211.a(ieee80211_scan.o)
 .literal.scan_pm_channel_op_cb
                0x40226640        0x0 c:/Espressif/ESP8266_SDK_210/lib\libnet80211.a(ieee80211_scan.o)
 .literal.scan_next_channel
                0x40226640        0x0 c:/Espressif/ESP8266_SDK_210/lib\libnet80211.a(ieee80211_scan.o)
 .literal.scan_perform
                0x40226640        0x0 c:/Espressif/ESP8266_SDK_210/lib\libnet80211.a(ieee80211_scan.o)
 .literal.scan_op_start
                0x40226640        0x0 c:/Espressif/ESP8266_SDK_210/lib\libnet80211.a(ieee80211_scan.o)
 .literal.scan_op_end
                0x40226640        0x0 c:/Espressif/ESP8266_SDK_210/lib\libnet80211.a(ieee80211_scan.o)
 .literal.scan_cancel
                0x40226640        0x0 c:/Espressif/ESP8266_SDK_210/lib\libnet80211.a(ieee80211_scan.o)
 .literal.scan_done
                0x40226640        0x0 c:/Espressif/ESP8266_SDK_210/lib\libnet80211.a(ieee80211_scan.o)
 .literal.scan_add_bssid
                0x40226640        0x0 c:/Espressif/ESP8266_SDK_210/lib\libnet80211.a(ieee80211_scan.o)
 .literal.scan_remove_bssid
                0x40226640        0x0 c:/Espressif/ESP8266_SDK_210/lib\libnet80211.a(ieee80211_scan.o)
 .literal.scan_hidden_ssid
                0x40226640        0x0 c:/Espressif/ESP8266_SDK_210/lib\libnet80211.a(ieee80211_scan.o)
 .literal.scan_add_probe_ssid
                0x40226640        0x0 c:/Espressif/ESP8266_SDK_210/lib\libnet80211.a(ieee80211_scan.o)
 .literal.scan_remove_probe_ssid
                0x40226640        0x0 c:/Espressif/ESP8266_SDK_210/lib\libnet80211.a(ieee80211_scan.o)
 .literal.scan_send_probe
                0x40226640        0x0 c:/Espressif/ESP8266_SDK_210/lib\libnet80211.a(ieee80211_scan.o)
 .literal.scan_get_next_channel
                0x40226640        0x0 c:/Espressif/ESP8266_SDK_210/lib\libnet80211.a(ieee80211_scan.o)
 .literal.scan_clear_channles
                0x40226640        0x0 c:/Espressif/ESP8266_SDK_210/lib\libnet80211.a(ieee80211_scan.o)
 .literal.scan_enter_oper_channel
                0x40226640        0x0 c:/Espressif/ESP8266_SDK_210/lib\libnet80211.a(ieee80211_scan.o)
 .literal.scan_inter_channel_timeout
                0x40226640        0x0 c:/Espressif/ESP8266_SDK_210/lib\libnet80211.a(ieee80211_scan.o)
 .literal.scan_set_desChan
                0x40226640        0x0 c:/Espressif/ESP8266_SDK_210/lib\libnet80211.a(ieee80211_scan.o)
 .literal.scan_get_type
                0x40226640        0x0 c:/Espressif/ESP8266_SDK_210/lib\libnet80211.a(ieee80211_scan.o)
 .literal.cannel_scan_connect_state
                0x40226640        0x0 c:/Espressif/ESP8266_SDK_210/lib\libnet80211.a(ieee80211_scan.o)
 .literal.scan_connect_state
                0x40226640        0x0 c:/Espressif/ESP8266_SDK_210/lib\libnet80211.a(ieee80211_scan.o)
 .literal.scan_check_hidden
                0x40226640        0x0 c:/Espressif/ESP8266_SDK_210/lib\libnet80211.a(ieee80211_scan.o)
 .literal.scan_profile_check
                0x40226640        0x0 c:/Espressif/ESP8266_SDK_210/lib\libnet80211.a(ieee80211_scan.o)
 .literal.clear_bss_queue
                0x40226640        0x0 c:/Espressif/ESP8266_SDK_210/lib\libnet80211.a(ieee80211_scan.o)
 .literal.check_bss_queue
                0x40226640        0x0 c:/Espressif/ESP8266_SDK_210/lib\libnet80211.a(ieee80211_scan.o)
 .literal.scan_add_ssid
                0x40226640        0x0 c:/Espressif/ESP8266_SDK_210/lib\libnet80211.a(ieee80211_scan.o)
 .literal.scan_parse_beacon
                0x40226640        0x0 c:/Espressif/ESP8266_SDK_210/lib\libnet80211.a(ieee80211_scan.o)
 *fill*         0x40226640        0x0 
 *fill*         0x40226640        0x0 
 *fill*         0x40226640        0x0 
 *fill*         0x40226640        0x0 
 *fill*         0x40226640        0x0 
 *fill*         0x40226640        0x0 
 *fill*         0x40226640        0x0 
 *fill*         0x40226640        0x0 
 *fill*         0x40226640        0x0 
 *fill*         0x40226640        0x0 
 *fill*         0x40226640        0x0 
 *fill*         0x40226640        0x0 
 *fill*         0x40226640        0x0 
 *fill*         0x40226640        0x0 
 *fill*         0x40226640        0x0 
 *fill*         0x40226640        0x0 
 *fill*         0x40226640        0x0 
 *fill*         0x40226640        0x0 
 *fill*         0x40226640        0x0 
 *fill*         0x40226640        0x0 
 *fill*         0x40226640        0x0 
 *fill*         0x40226640        0x0 
 .text.scan_check_hidden
                0x40226640       0x1e c:/Espressif/ESP8266_SDK_210/lib\libnet80211.a(ieee80211_scan.o)
                0x40226640                scan_check_hidden
 *fill*         0x4022665e        0x0 
 *fill*         0x4022665e        0x0 
 *fill*         0x4022665e        0x0 
 *fill*         0x4022665e        0x0 
 *fill*         0x4022665e        0x2 
 .literal.save_rssi
                0x40226660        0x0 c:/Espressif/ESP8266_SDK_210/lib\libnet80211.a(ieee80211_sta.o)
 .literal.max_rssi
                0x40226660        0x0 c:/Espressif/ESP8266_SDK_210/lib\libnet80211.a(ieee80211_sta.o)
 .literal.sta_authretry
                0x40226660        0x0 c:/Espressif/ESP8266_SDK_210/lib\libnet80211.a(ieee80211_sta.o)
 .literal.sta_status_set
                0x40226660        0x0 c:/Espressif/ESP8266_SDK_210/lib\libnet80211.a(ieee80211_sta.o)
 .literal.ieee80211_sta_new_state
                0x40226660        0x0 c:/Espressif/ESP8266_SDK_210/lib\libnet80211.a(ieee80211_sta.o)
 .literal.sta_input
                0x40226660        0x0 c:/Espressif/ESP8266_SDK_210/lib\libnet80211.a(ieee80211_sta.o)
 .literal.sta_auth_open
                0x40226660        0x0 c:/Espressif/ESP8266_SDK_210/lib\libnet80211.a(ieee80211_sta.o)
 .literal.sta_auth_shared
                0x40226660        0x0 c:/Espressif/ESP8266_SDK_210/lib\libnet80211.a(ieee80211_sta.o)
 .literal.ieee80211_parse_wmeparams
                0x40226660        0x0 c:/Espressif/ESP8266_SDK_210/lib\libnet80211.a(ieee80211_sta.o)
 .literal.sta_rx_csa
                0x40226660        0x0 c:/Espressif/ESP8266_SDK_210/lib\libnet80211.a(ieee80211_sta.o)
 .literal.sta_recv_mgmt
                0x40226660        0x0 c:/Espressif/ESP8266_SDK_210/lib\libnet80211.a(ieee80211_sta.o)
 .literal.sta_recv_assoc
                0x40226660        0x0 c:/Espressif/ESP8266_SDK_210/lib\libnet80211.a(ieee80211_sta.o)
 .literal.wifi_station_start
                0x40226660        0x0 c:/Espressif/ESP8266_SDK_210/lib\libnet80211.a(ieee80211_sta.o)
 .literal.wifi_station_stop
                0x40226660        0x0 c:/Espressif/ESP8266_SDK_210/lib\libnet80211.a(ieee80211_sta.o)
 *fill*         0x40226660        0x0 
 *fill*         0x40226660        0x0 
 *fill*         0x40226660        0x0 
 *fill*         0x40226660        0x0 
 *fill*         0x40226660        0x0 
 .text.ieee80211_parse_wmeparams
                0x40226660       0x62 c:/Espressif/ESP8266_SDK_210/lib\libnet80211.a(ieee80211_sta.o)
                0x40226660                ieee80211_parse_wmeparams
 *fill*         0x402266c2        0x0 
 *fill*         0x402266c2        0x0 
 *fill*         0x402266c2        0x0 
 *fill*         0x402266c2        0x2 
 .literal.chm_init
                0x402266c4        0x0 c:/Espressif/ESP8266_SDK_210/lib\libnet80211.a(wl_chm.o)
 .literal.chm_acquire_lock
                0x402266c4        0x0 c:/Espressif/ESP8266_SDK_210/lib\libnet80211.a(wl_chm.o)
 .literal.chm_release_lock
                0x402266c4        0x0 c:/Espressif/ESP8266_SDK_210/lib\libnet80211.a(wl_chm.o)
 .literal.chm_start_op
                0x402266c4        0x0 c:/Espressif/ESP8266_SDK_210/lib\libnet80211.a(wl_chm.o)
 .literal.chm_change_channel
                0x402266c4        0x0 c:/Espressif/ESP8266_SDK_210/lib\libnet80211.a(wl_chm.o)
 .literal.chm_end_op
                0x402266c4        0x0 c:/Espressif/ESP8266_SDK_210/lib\libnet80211.a(wl_chm.o)
 .literal.chm_end_op_timeout
                0x402266c4        0x0 c:/Espressif/ESP8266_SDK_210/lib\libnet80211.a(wl_chm.o)
 .literal.chm_cancel_op
                0x402266c4        0x0 c:/Espressif/ESP8266_SDK_210/lib\libnet80211.a(wl_chm.o)
 .literal.chm_return_home_channel
                0x402266c4        0x0 c:/Espressif/ESP8266_SDK_210/lib\libnet80211.a(wl_chm.o)
 .literal.chm_set_current_channel
                0x402266c4        0x0 c:/Espressif/ESP8266_SDK_210/lib\libnet80211.a(wl_chm.o)
 .literal.chm_freq2index
                0x402266c4        0x0 c:/Espressif/ESP8266_SDK_210/lib\libnet80211.a(wl_chm.o)
 .literal.chm_check_same_channel
                0x402266c4        0x0 c:/Espressif/ESP8266_SDK_210/lib\libnet80211.a(wl_chm.o)
 *fill*         0x402266c4        0x0 
 *fill*         0x402266c4        0x0 
 *fill*         0x402266c4        0x0 
 *fill*         0x402266c4        0x0 
 *fill*         0x402266c4        0x0 
 *fill*         0x402266c4        0x0 
 *fill*         0x402266c4        0x0 
 *fill*         0x402266c4        0x0 
 .literal.cnx_attach
                0x402266c4        0x0 c:/Espressif/ESP8266_SDK_210/lib\libnet80211.a(wl_cnx.o)
 .literal.cnx_sta_connect_led_timer_cb
                0x402266c4        0x0 c:/Espressif/ESP8266_SDK_210/lib\libnet80211.a(wl_cnx.o)
 .literal.cnx_sta_connect_cmd
                0x402266c4        0x0 c:/Espressif/ESP8266_SDK_210/lib\libnet80211.a(wl_cnx.o)
 .literal.cnx_sta_scan_cmd
                0x402266c4        0x0 c:/Espressif/ESP8266_SDK_210/lib\libnet80211.a(wl_cnx.o)
 .literal.cnx_start_connect
                0x402266c4        0x0 c:/Espressif/ESP8266_SDK_210/lib\libnet80211.a(wl_cnx.o)
 .literal.cnx_traverse_rc_list
                0x402266c4        0x0 c:/Espressif/ESP8266_SDK_210/lib\libnet80211.a(wl_cnx.o)
 .literal.cnx_probe_rc
                0x402266c4        0x0 c:/Espressif/ESP8266_SDK_210/lib\libnet80211.a(wl_cnx.o)
 .literal.cnx_probe_rc_tx_cb
                0x402266c4        0x0 c:/Espressif/ESP8266_SDK_210/lib\libnet80211.a(wl_cnx.o)
 .literal.cnx_traverse_rc_lis_done
                0x402266c4        0x0 c:/Espressif/ESP8266_SDK_210/lib\libnet80211.a(wl_cnx.o)
 .literal.cnx_connect_timeout
                0x402266c4        0x0 c:/Espressif/ESP8266_SDK_210/lib\libnet80211.a(wl_cnx.o)
 .literal.cnx_auth_timeout
                0x402266c4        0x0 c:/Espressif/ESP8266_SDK_210/lib\libnet80211.a(wl_cnx.o)
 .literal.cnx_assoc_timeout
                0x402266c4        0x0 c:/Espressif/ESP8266_SDK_210/lib\libnet80211.a(wl_cnx.o)
 .literal.cnx_handshake_timeout
                0x402266c4        0x0 c:/Espressif/ESP8266_SDK_210/lib\libnet80211.a(wl_cnx.o)
 .literal.cnx_start_handoff_cb
                0x402266c4        0x0 c:/Espressif/ESP8266_SDK_210/lib\libnet80211.a(wl_cnx.o)
 .literal.cnx_do_handoff
                0x402266c4        0x0 c:/Espressif/ESP8266_SDK_210/lib\libnet80211.a(wl_cnx.o)
 .literal.cnx_csa_fn
                0x402266c4        0x0 c:/Espressif/ESP8266_SDK_210/lib\libnet80211.a(wl_cnx.o)
 .literal.cnx_connect_to_bss
                0x402266c4        0x0 c:/Espressif/ESP8266_SDK_210/lib\libnet80211.a(wl_cnx.o)
 .literal.cnx_connect_op
                0x402266c4        0x0 c:/Espressif/ESP8266_SDK_210/lib\libnet80211.a(wl_cnx.o)
 .literal.cnx_choose_rc
                0x402266c4        0x0 c:/Espressif/ESP8266_SDK_210/lib\libnet80211.a(wl_cnx.o)
 .literal.cnx_cal_rc_util
                0x402266c4        0x0 c:/Espressif/ESP8266_SDK_210/lib\libnet80211.a(wl_cnx.o)
 .literal.cnx_bss_alloc
                0x402266c4        0x0 c:/Espressif/ESP8266_SDK_210/lib\libnet80211.a(wl_cnx.o)
 .literal.cnx_rc_search
                0x402266c4        0x0 c:/Espressif/ESP8266_SDK_210/lib\libnet80211.a(wl_cnx.o)
 .literal.cnx_get_next_rc
                0x402266c4        0x0 c:/Espressif/ESP8266_SDK_210/lib\libnet80211.a(wl_cnx.o)
 .literal.cnx_add_rc
                0x402266c4        0x0 c:/Espressif/ESP8266_SDK_210/lib\libnet80211.a(wl_cnx.o)
 .literal.cnx_remove_all_rc
                0x402266c4        0x0 c:/Espressif/ESP8266_SDK_210/lib\libnet80211.a(wl_cnx.o)
 .literal.cnx_remove_rc
                0x402266c4        0x0 c:/Espressif/ESP8266_SDK_210/lib\libnet80211.a(wl_cnx.o)
 .literal.cnx_remove_rc_except
                0x402266c4        0x0 c:/Espressif/ESP8266_SDK_210/lib\libnet80211.a(wl_cnx.o)
 .literal.cnx_rc_update_rssi
                0x402266c4        0x0 c:/Espressif/ESP8266_SDK_210/lib\libnet80211.a(wl_cnx.o)
 .literal.cnx_rc_update_state_metric
                0x402266c4        0x0 c:/Espressif/ESP8266_SDK_210/lib\libnet80211.a(wl_cnx.o)
 .literal.cnx_rc_update_age
                0x402266c4        0x0 c:/Espressif/ESP8266_SDK_210/lib\libnet80211.a(wl_cnx.o)
 .literal.cnx_update_bss
                0x402266c4        0x0 c:/Espressif/ESP8266_SDK_210/lib\libnet80211.a(wl_cnx.o)
 .literal.cnx_update_bss_more
                0x402266c4        0x0 c:/Espressif/ESP8266_SDK_210/lib\libnet80211.a(wl_cnx.o)
 .literal.cnx_process_tim
                0x402266c4        0x0 c:/Espressif/ESP8266_SDK_210/lib\libnet80211.a(wl_cnx.o)
 .literal.cnx_sta_leave
                0x402266c4        0x0 c:/Espressif/ESP8266_SDK_210/lib\libnet80211.a(wl_cnx.o)
 .literal.send_ap_probe
                0x402266c4        0x0 c:/Espressif/ESP8266_SDK_210/lib\libnet80211.a(wl_cnx.o)
 .literal.cnx_beacon_timeout
                0x402266c4        0x0 c:/Espressif/ESP8266_SDK_210/lib\libnet80211.a(wl_cnx.o)
 .literal.mgd_probe_send_timeout
                0x402266c4        0x0 c:/Espressif/ESP8266_SDK_210/lib\libnet80211.a(wl_cnx.o)
 .literal.cnx_sta_associated
                0x402266c4        0x0 c:/Espressif/ESP8266_SDK_210/lib\libnet80211.a(wl_cnx.o)
 .literal.cnx_process_handoff_trigger
                0x402266c4        0x0 c:/Espressif/ESP8266_SDK_210/lib\libnet80211.a(wl_cnx.o)
 .literal.cnx_node_alloc
                0x402266c4        0x0 c:/Espressif/ESP8266_SDK_210/lib\libnet80211.a(wl_cnx.o)
 .literal.cnx_node_remove
                0x402266c4        0x0 c:/Espressif/ESP8266_SDK_210/lib\libnet80211.a(wl_cnx.o)
 .literal.cnx_node_search
                0x402266c4        0x0 c:/Espressif/ESP8266_SDK_210/lib\libnet80211.a(wl_cnx.o)
 .literal.cnx_node_leave
                0x402266c4        0x0 c:/Espressif/ESP8266_SDK_210/lib\libnet80211.a(wl_cnx.o)
 .literal.wifi_softap_staconnected_event_policy
                0x402266c4        0x0 c:/Espressif/ESP8266_SDK_210/lib\libnet80211.a(wl_cnx.o)
 .literal.wifi_softap_toomany_deny
                0x402266c4        0x0 c:/Espressif/ESP8266_SDK_210/lib\libnet80211.a(wl_cnx.o)
 .literal.cnx_node_join
                0x402266c4        0x0 c:/Espressif/ESP8266_SDK_210/lib\libnet80211.a(wl_cnx.o)
 *fill*         0x402266c4        0x0 
 *fill*         0x402266c4        0x0 
 *fill*         0x402266c4        0x0 
 *fill*         0x402266c4        0x0 
 *fill*         0x402266c4        0x0 
 *fill*         0x402266c4        0x0 
 *fill*         0x402266c4        0x0 
 *fill*         0x402266c4        0x0 
 *fill*         0x402266c4        0x0 
 *fill*         0x402266c4        0x0 
 *fill*         0x402266c4        0x0 
 *fill*         0x402266c4        0x0 
 *fill*         0x402266c4        0x0 
 *fill*         0x402266c4        0x0 
 *fill*         0x402266c4        0x0 
 *fill*         0x402266c4        0x0 
 *fill*         0x402266c4        0x0 
 *fill*         0x402266c4        0x0 
 *fill*         0x402266c4        0x0 
 *fill*         0x402266c4        0x0 
 *fill*         0x402266c4        0x0 
 *fill*         0x402266c4        0x0 
 .text.cnx_process_tim
                0x402266c4        0x2 c:/Espressif/ESP8266_SDK_210/lib\libnet80211.a(wl_cnx.o)
 *fill*         0x402266c6        0x0 
 *fill*         0x402266c6        0x0 
 *fill*         0x402266c6        0x0 
 *fill*         0x402266c6        0x2 
 .text.cnx_process_handoff_trigger
                0x402266c8        0x2 c:/Espressif/ESP8266_SDK_210/lib\libnet80211.a(wl_cnx.o)
 *fill*         0x402266ca        0x0 
 *fill*         0x402266ca        0x0 
 *fill*         0x402266ca        0x0 
 *fill*         0x402266ca        0x0 
 *fill*         0x402266ca        0x0 
 *fill*         0x402266ca        0x0 
 *fill*         0x402266ca        0x0 
 *fill*         0x402266ca        0x2 
 .literal.send_inval
                0x402266cc        0x0 c:/Espressif/ESP8266_SDK_210/lib\libnet80211.a(ieee80211_action.o)
 .literal.ieee80211_send_action_register
                0x402266cc        0x0 c:/Espressif/ESP8266_SDK_210/lib\libnet80211.a(ieee80211_action.o)
 .literal.ieee80211_send_action_unregister
                0x402266cc        0x0 c:/Espressif/ESP8266_SDK_210/lib\libnet80211.a(ieee80211_action.o)
 .literal.ieee80211_send_action
                0x402266cc        0x0 c:/Espressif/ESP8266_SDK_210/lib\libnet80211.a(ieee80211_action.o)
 .literal.recv_inval
                0x402266cc        0x0 c:/Espressif/ESP8266_SDK_210/lib\libnet80211.a(ieee80211_action.o)
 .literal.ieee80211_recv_action_register
                0x402266cc        0x0 c:/Espressif/ESP8266_SDK_210/lib\libnet80211.a(ieee80211_action.o)
 .literal.ieee80211_recv_action_unregister
                0x402266cc        0x0 c:/Espressif/ESP8266_SDK_210/lib\libnet80211.a(ieee80211_action.o)
 .literal.ieee80211_recv_action
                0x402266cc        0x0 c:/Espressif/ESP8266_SDK_210/lib\libnet80211.a(ieee80211_action.o)
 .text.send_inval
                0x402266cc        0x4 c:/Espressif/ESP8266_SDK_210/lib\libnet80211.a(ieee80211_action.o)
 *fill*         0x402266d0        0x0 
 *fill*         0x402266d0        0x0 
 .text.recv_inval
                0x402266d0        0x4 c:/Espressif/ESP8266_SDK_210/lib\libnet80211.a(ieee80211_action.o)
 *fill*         0x402266d4        0x0 
 *fill*         0x402266d4        0x0 
 .literal.ieee80211_avs_fetch_key_idx
                0x402266d4        0x0 c:/Espressif/ESP8266_SDK_210/lib\libnet80211.a(ieee80211_action_vendor.o)
 .literal.ieee80211_avs_clear_key_idx
                0x402266d4        0x0 c:/Espressif/ESP8266_SDK_210/lib\libnet80211.a(ieee80211_action_vendor.o)
 .literal.get_iav_key
                0x402266d4        0x0 c:/Espressif/ESP8266_SDK_210/lib\libnet80211.a(ieee80211_action_vendor.o)
 .literal.register_ieee80211_action_vendor_get_key_cb
                0x402266d4        0x0 c:/Espressif/ESP8266_SDK_210/lib\libnet80211.a(ieee80211_action_vendor.o)
 .literal.unregister_ieee80211_action_vendor_get_key_cb
                0x402266d4        0x0 c:/Espressif/ESP8266_SDK_210/lib\libnet80211.a(ieee80211_action_vendor.o)
 .literal.ieee80211_add_action_vendor_spec_esp
                0x402266d4        0x0 c:/Espressif/ESP8266_SDK_210/lib\libnet80211.a(ieee80211_action_vendor.o)
 .literal.ieee80211_alloc_action_vendor_spec
                0x402266d4        0x0 c:/Espressif/ESP8266_SDK_210/lib\libnet80211.a(ieee80211_action_vendor.o)
 .literal.ieee80211_send_action_vendor_spec
                0x402266d4        0x0 c:/Espressif/ESP8266_SDK_210/lib\libnet80211.a(ieee80211_action_vendor.o)
 .literal.ieee80211_recv_action_vendor_spec
                0x402266d4        0x0 c:/Espressif/ESP8266_SDK_210/lib\libnet80211.a(ieee80211_action_vendor.o)
 .literal.ieee80211_action_vendor_spec_attach
                0x402266d4        0x0 c:/Espressif/ESP8266_SDK_210/lib\libnet80211.a(ieee80211_action_vendor.o)
 .literal.register_ieee80211_action_vendor_spec_cb
                0x402266d4        0x0 c:/Espressif/ESP8266_SDK_210/lib\libnet80211.a(ieee80211_action_vendor.o)
 .literal.unregister_ieee80211_action_vendor_spec_cb
                0x402266d4        0x0 c:/Espressif/ESP8266_SDK_210/lib\libnet80211.a(ieee80211_action_vendor.o)
 *fill*         0x402266d4        0x0 
 *fill*         0x402266d4        0x0 
 *fill*         0x402266d4        0x0 
 *fill*         0x402266d4        0x0 
 *fill*         0x402266d4        0x0 
 *fill*         0x402266d4        0x0 
 .literal.ccmp_encap
                0x402266d4        0x0 c:/Espressif/ESP8266_SDK_210/lib\libnet80211.a(ieee80211_crypto_ccmp.o)
 .literal.ccmp_decap
                0x402266d4        0x0 c:/Espressif/ESP8266_SDK_210/lib\libnet80211.a(ieee80211_crypto_ccmp.o)
 *fill*         0x402266d4        0x0 
 *fill*         0x402266d4        0x0 
 .literal.ieee80211_add_ie_vendor_esp_head
                0x402266d4        0x0 c:/Espressif/ESP8266_SDK_210/lib\libnet80211.a(ieee80211_ie_vendor.o)
 .literal.ieee80211_add_ie_vendor_esp_mesh_assoc
                0x402266d4        0x0 c:/Espressif/ESP8266_SDK_210/lib\libnet80211.a(ieee80211_ie_vendor.o)
 .literal.ieee80211_add_ie_vendor_esp_mesh_group
                0x402266d4        0x0 c:/Espressif/ESP8266_SDK_210/lib\libnet80211.a(ieee80211_ie_vendor.o)
 .literal.ieee80211_add_ie_vendor_esp_simple_pair
                0x402266d4        0x0 c:/Espressif/ESP8266_SDK_210/lib\libnet80211.a(ieee80211_ie_vendor.o)
 .literal.ieee80211_add_ie_vendor_esp_freq_annon
                0x402266d4        0x0 c:/Espressif/ESP8266_SDK_210/lib\libnet80211.a(ieee80211_ie_vendor.o)
 .literal.ieee80211_add_ie_vendor_esp_now
                0x402266d4        0x0 c:/Espressif/ESP8266_SDK_210/lib\libnet80211.a(ieee80211_ie_vendor.o)
 .literal.ieee80211_add_ie_vendor_esp_ssid
                0x402266d4        0x0 c:/Espressif/ESP8266_SDK_210/lib\libnet80211.a(ieee80211_ie_vendor.o)
 .literal.ieee80211_add_ie_vendor_esp_manufacturer
                0x402266d4        0x0 c:/Espressif/ESP8266_SDK_210/lib\libnet80211.a(ieee80211_ie_vendor.o)
 *fill*         0x402266d4        0x0 
 *fill*         0x402266d4        0x0 
 *fill*         0x402266d4        0x0 
 *fill*         0x402266d4        0x0 
 *fill*         0x402266d4        0x0 
 *fill*         0x402266d4        0x0 
 .literal.tkip_encap
                0x402266d4        0x0 c:/Espressif/ESP8266_SDK_210/lib\libnet80211.a(ieee80211_crypto_tkip.o)
 .literal.tkip_decap
                0x402266d4        0x0 c:/Espressif/ESP8266_SDK_210/lib\libnet80211.a(ieee80211_crypto_tkip.o)
 *fill*         0x402266d4        0x0 
 *fill*         0x402266d4        0x0 
 .literal.wep_encap
                0x402266d4        0x0 c:/Espressif/ESP8266_SDK_210/lib\libnet80211.a(ieee80211_crypto_wep.o)
 .literal.wep_decap
                0x402266d4        0x0 c:/Espressif/ESP8266_SDK_210/lib\libnet80211.a(ieee80211_crypto_wep.o)
 *fill*         0x402266d4        0x0 
 .text.wep_decap
                0x402266d4       0x20 c:/Espressif/ESP8266_SDK_210/lib\libnet80211.a(ieee80211_crypto_wep.o)
 *libsmartconfig.a:(.literal.* .text.*)
 *libssl.a:(.literal.* .text.*)
 *libupgrade.a:(.literal.* .text.*)
 *libwpa.a:(.literal.* .text.*)
 .text.hostapd_config_defaults_bss
                0x402266f4       0x4b c:/Espressif/ESP8266_SDK_210/lib\libwpa.a(ap_config.o)
                                 0x4f (size before relaxing)
                0x402266f8                hostapd_config_defaults_bss
 *fill*         0x4022673f        0x1 
 .text.hostapd_config_defaults
                0x40226740       0x8b c:/Espressif/ESP8266_SDK_210/lib\libwpa.a(ap_config.o)
                                 0xa7 (size before relaxing)
                0x40226744                hostapd_config_defaults
 *fill*         0x402267cb        0x1 
 .text.hostapd_mac_comp
                0x402267cc       0x14 c:/Espressif/ESP8266_SDK_210/lib\libwpa.a(ap_config.o)
                                 0x18 (size before relaxing)
                0x402267cc                hostapd_mac_comp
 .text.hostapd_mac_comp_empty
                0x402267e0       0x24 c:/Espressif/ESP8266_SDK_210/lib\libwpa.a(ap_config.o)
                                 0x2c (size before relaxing)
                0x402267e0                hostapd_mac_comp_empty
 .text.hostapd_derive_psk
                0x40226804       0x46 c:/Espressif/ESP8266_SDK_210/lib\libwpa.a(ap_config.o)
                                 0x56 (size before relaxing)
 *fill*         0x4022684a        0x2 
 .text.hostapd_setup_wpa_psk
                0x4022684c       0x31 c:/Espressif/ESP8266_SDK_210/lib\libwpa.a(ap_config.o)
                                 0x35 (size before relaxing)
                0x4022684c                hostapd_setup_wpa_psk
 *fill*         0x4022687d        0x3 
 .text.hostapd_wep_key_cmp
                0x40226880       0x50 c:/Espressif/ESP8266_SDK_210/lib\libwpa.a(ap_config.o)
                                 0x54 (size before relaxing)
                0x40226880                hostapd_wep_key_cmp
 .text.hostapd_maclist_found
                0x402268d0       0x67 c:/Espressif/ESP8266_SDK_210/lib\libwpa.a(ap_config.o)
                                 0x6b (size before relaxing)
                0x402268d0                hostapd_maclist_found
 *fill*         0x40226937        0x1 
 .text.hostapd_get_psk
                0x40226938       0x52 c:/Espressif/ESP8266_SDK_210/lib\libwpa.a(ap_config.o)
                                 0x56 (size before relaxing)
                0x40226938                hostapd_get_psk
 *fill*         0x4022698a        0x2 
 .text.hex2byte
                0x4022698c       0x35 c:/Espressif/ESP8266_SDK_210/lib\libwpa.a(common.o)
                                 0x41 (size before relaxing)
                0x4022698c                hex2byte
 *fill*         0x402269c1        0x3 
 .text.hexstr2bin
                0x402269c4       0x44 c:/Espressif/ESP8266_SDK_210/lib\libwpa.a(common.o)
                                 0x48 (size before relaxing)
                0x402269c4                hexstr2bin
 .text.wpa_get_ntp_timestamp
                0x40226a08       0x99 c:/Espressif/ESP8266_SDK_210/lib\libwpa.a(common.o)
                                 0xad (size before relaxing)
                0x40226a10                wpa_get_ntp_timestamp
 *fill*         0x40226aa1        0x3 
 .text.wpa_config_parse_string
                0x40226aa4      0x108 c:/Espressif/ESP8266_SDK_210/lib\libwpa.a(common.o)
                                0x138 (size before relaxing)
                0x40226aa8                wpa_config_parse_string
 .text.dup_binstr
                0x40226bac       0x46 c:/Espressif/ESP8266_SDK_210/lib\libwpa.a(common.o)
                                 0x52 (size before relaxing)
                0x40226bac                dup_binstr
 *fill*         0x40226bf2        0x2 
 .text.ets_strdup
                0x40226bf4       0x46 c:/Espressif/ESP8266_SDK_210/lib\libwpa.a(os_xtensa.o)
                                 0x52 (size before relaxing)
                0x40226bf8                ets_strdup
 *fill*         0x40226c3a        0x2 
 .text.r_rand   0x40226c3c       0x12 c:/Espressif/ESP8266_SDK_210/lib\libwpa.a(os_xtensa.o)
                                 0x16 (size before relaxing)
                0x40226c3c                r_rand
 *fill*         0x40226c4e        0x2 
 .text.os_random
                0x40226c50       0x12 c:/Espressif/ESP8266_SDK_210/lib\libwpa.a(os_xtensa.o)
                                 0x16 (size before relaxing)
                0x40226c50                os_random
 *fill*         0x40226c62        0x2 
 .text.os_get_random
                0x40226c64       0x5f c:/Espressif/ESP8266_SDK_210/lib\libwpa.a(os_xtensa.o)
                                 0x63 (size before relaxing)
                0x40226c64                os_get_random
 *fill*         0x40226cc3        0x1 
 .text.wpa_auth_set_key
                0x40226cc4      0x141 c:/Espressif/ESP8266_SDK_210/lib\libwpa.a(wpa_auth.o)
                                0x17d (size before relaxing)
 *fill*         0x40226e05        0x3 
 .text.wpa_rekey_gtk
                0x40226e08       0x57 c:/Espressif/ESP8266_SDK_210/lib\libwpa.a(wpa_auth.o)
                                 0x5f (size before relaxing)
 *fill*         0x40226e5f        0x1 
 .text.wpa_rekey_ptk
                0x40226e60       0x1e c:/Espressif/ESP8266_SDK_210/lib\libwpa.a(wpa_auth.o)
                                 0x2a (size before relaxing)
 *fill*         0x40226e7e        0x2 
 .text.wpa_group_init_gmk_and_counter
                0x40226e80       0x8d c:/Espressif/ESP8266_SDK_210/lib\libwpa.a(wpa_auth.o)
                                 0xb1 (size before relaxing)
 *fill*         0x40226f0d        0x3 
 .text.wpa_group_init
                0x40226f10       0x75 c:/Espressif/ESP8266_SDK_210/lib\libwpa.a(wpa_auth.o)
                                 0x9d (size before relaxing)
 *fill*         0x40226f85        0x3 
 .text.wpa_init
                0x40226f88       0x91 c:/Espressif/ESP8266_SDK_210/lib\libwpa.a(wpa_auth.o)
                                 0xc1 (size before relaxing)
                0x40226f88                wpa_init
 *fill*         0x40227019        0x3 
 .text.wpa_auth_sta_init
                0x4022701c       0x46 c:/Espressif/ESP8266_SDK_210/lib\libwpa.a(wpa_auth.o)
                                 0x52 (size before relaxing)
                0x4022701c                wpa_auth_sta_init
 *fill*         0x40227062        0x2 
 .text.wpa_auth_sta_associated
                0x40227064       0x73 c:/Espressif/ESP8266_SDK_210/lib\libwpa.a(wpa_auth.o)
                                 0x83 (size before relaxing)
                0x40227064                wpa_auth_sta_associated
 *fill*         0x402270d7        0x1 
 .text.wpa_free_sta_sm
                0x402270d8       0x50 c:/Espressif/ESP8266_SDK_210/lib\libwpa.a(wpa_auth.o)
                                 0x68 (size before relaxing)
 .text.wpa_auth_sta_deinit
                0x40227128       0x25 c:/Espressif/ESP8266_SDK_210/lib\libwpa.a(wpa_auth.o)
                                 0x29 (size before relaxing)
                0x40227128                wpa_auth_sta_deinit
 *fill*         0x4022714d        0x3 
 .text.wpa_replay_counter_valid
                0x40227150       0x3d c:/Espressif/ESP8266_SDK_210/lib\libwpa.a(wpa_auth.o)
                                 0x41 (size before relaxing)
 *fill*         0x4022718d        0x3 
 .text.wpa_replay_counter_mark_invalid
                0x40227190       0x3e c:/Espressif/ESP8266_SDK_210/lib\libwpa.a(wpa_auth.o)
                                 0x42 (size before relaxing)
 *fill*         0x402271ce        0x2 
 .text.wpa_receive_error_report
                0x402271d0       0x16 c:/Espressif/ESP8266_SDK_210/lib\libwpa.a(wpa_auth.o)
                                 0x1a (size before relaxing)
 *fill*         0x402271e6        0x2 
 .text.wpa_receive
                0x402271e8      0x3d7 c:/Espressif/ESP8266_SDK_210/lib\libwpa.a(wpa_auth.o)
                                0x47f (size before relaxing)
                0x402271f0                wpa_receive
 *fill*         0x402275bf        0x1 
 .text.wpa_gmk_to_gtk
                0x402275c0       0x75 c:/Espressif/ESP8266_SDK_210/lib\libwpa.a(wpa_auth.o)
                                 0x8d (size before relaxing)
 *fill*         0x40227635        0x3 
 .text.wpa_send_eapol_timeout
                0x40227638       0x1d c:/Espressif/ESP8266_SDK_210/lib\libwpa.a(wpa_auth.o)
                                 0x21 (size before relaxing)
 *fill*         0x40227655        0x3 
 .text.__wpa_send_eapol
                0x40227658      0x406 c:/Espressif/ESP8266_SDK_210/lib\libwpa.a(wpa_auth.o)
                                0x4ae (size before relaxing)
                0x40227664                __wpa_send_eapol
 *fill*         0x40227a5e        0x2 
 .text.wpa_send_eapol
                0x40227a60       0xa7 c:/Espressif/ESP8266_SDK_210/lib\libwpa.a(wpa_auth.o)
                                 0xbb (size before relaxing)
 *fill*         0x40227b07        0x1 
 .text.wpa_verify_key_mic
                0x40227b08       0x83 c:/Espressif/ESP8266_SDK_210/lib\libwpa.a(wpa_auth.o)
                                 0x97 (size before relaxing)
 *fill*         0x40227b8b        0x1 
 .text.wpa_remove_ptk
                0x40227b8c       0x4d c:/Espressif/ESP8266_SDK_210/lib\libwpa.a(wpa_auth.o)
                                 0x5d (size before relaxing)
                0x40227b90                wpa_remove_ptk
 *fill*         0x40227bd9        0x3 
 .text.wpa_auth_sm_event
                0x40227bdc       0xa1 c:/Espressif/ESP8266_SDK_210/lib\libwpa.a(wpa_auth.o)
                                 0xb1 (size before relaxing)
                0x40227bdc                wpa_auth_sm_event
 *fill*         0x40227c7d        0x3 
 .text.sm_WPA_PTK_INITIALIZE_Enter
                0x40227c80       0x68 c:/Espressif/ESP8266_SDK_210/lib\libwpa.a(wpa_auth.o)
                                 0x74 (size before relaxing)
 .text.sm_WPA_PTK_DISCONNECT_Enter
                0x40227ce8       0x30 c:/Espressif/ESP8266_SDK_210/lib\libwpa.a(wpa_auth.o)
                                 0x34 (size before relaxing)
 .text.sm_WPA_PTK_AUTHENTICATION_Enter
                0x40227d18       0x3f c:/Espressif/ESP8266_SDK_210/lib\libwpa.a(wpa_auth.o)
                                 0x43 (size before relaxing)
 *fill*         0x40227d57        0x1 
 .text.wpa_group_ensure_init
                0x40227d58       0x3d c:/Espressif/ESP8266_SDK_210/lib\libwpa.a(wpa_auth.o)
                                 0x51 (size before relaxing)
 *fill*         0x40227d95        0x3 
 .text.sm_WPA_PTK_AUTHENTICATION2_Enter
                0x40227d98       0x4a c:/Espressif/ESP8266_SDK_210/lib\libwpa.a(wpa_auth.o)
                                 0x5e (size before relaxing)
 *fill*         0x40227de2        0x2 
 .text.sm_WPA_PTK_INITPSK_Enter
                0x40227de4       0x53 c:/Espressif/ESP8266_SDK_210/lib\libwpa.a(wpa_auth.o)
                                 0x5f (size before relaxing)
 *fill*         0x40227e37        0x1 
 .text.sm_WPA_PTK_PTKSTART_Enter
                0x40227e38       0xb5 c:/Espressif/ESP8266_SDK_210/lib\libwpa.a(wpa_auth.o)
                                 0xbd (size before relaxing)
 *fill*         0x40227eed        0x3 
 .text.wpa_derive_ptk
                0x40227ef0       0x6e c:/Espressif/ESP8266_SDK_210/lib\libwpa.a(wpa_auth.o)
                                 0x7a (size before relaxing)
 *fill*         0x40227f5e        0x2 
 .text.sm_WPA_PTK_PTKCALCNEGOTIATING_Enter
                0x40227f60       0xe5 c:/Espressif/ESP8266_SDK_210/lib\libwpa.a(wpa_auth.o)
                                0x121 (size before relaxing)
 *fill*         0x40228045        0x3 
 .text.sm_WPA_PTK_PTKINITNEGOTIATING_Enter
                0x40228048      0x195 c:/Espressif/ESP8266_SDK_210/lib\libwpa.a(wpa_auth.o)
                                0x1c9 (size before relaxing)
 *fill*         0x402281dd        0x3 
 .text.sm_WPA_PTK_PTKINITDONE_Enter
                0x402281e0       0xb2 c:/Espressif/ESP8266_SDK_210/lib\libwpa.a(wpa_auth.o)
                                 0xee (size before relaxing)
 *fill*         0x40228292        0x2 
 .text.sm_WPA_PTK_Step
                0x40228294      0x205 c:/Espressif/ESP8266_SDK_210/lib\libwpa.a(wpa_auth.o)
                                0x27c (size before relaxing)
 *fill*         0x40228499        0x3 
 .text.sm_WPA_PTK_GROUP_REKEYNEGOTIATING_Enter
                0x4022849c      0x119 c:/Espressif/ESP8266_SDK_210/lib\libwpa.a(wpa_auth.o)
                                0x151 (size before relaxing)
 *fill*         0x402285b5        0x3 
 .text.sm_WPA_PTK_GROUP_Step
                0x402285b8       0xb2 c:/Espressif/ESP8266_SDK_210/lib\libwpa.a(wpa_auth.o)
                                 0xd1 (size before relaxing)
 *fill*         0x4022866a        0x2 
 .text.wpa_gtk_update
                0x4022866c       0x63 c:/Espressif/ESP8266_SDK_210/lib\libwpa.a(wpa_auth.o)
                                 0x7b (size before relaxing)
 *fill*         0x402286cf        0x1 
 .text.wpa_group_gtk_init
                0x402286d0       0x39 c:/Espressif/ESP8266_SDK_210/lib\libwpa.a(wpa_auth.o)
                                 0x41 (size before relaxing)
 *fill*         0x40228709        0x3 
 .text.wpa_group_update_sta
                0x4022870c       0x44 c:/Espressif/ESP8266_SDK_210/lib\libwpa.a(wpa_auth.o)
                                 0x48 (size before relaxing)
 .text.wpa_group_setkeys
                0x40228750       0x4b c:/Espressif/ESP8266_SDK_210/lib\libwpa.a(wpa_auth.o)
                                 0x57 (size before relaxing)
 *fill*         0x4022879b        0x1 
 .text.wpa_group_config_group_keys
                0x4022879c       0x40 c:/Espressif/ESP8266_SDK_210/lib\libwpa.a(wpa_auth.o)
                                 0x50 (size before relaxing)
 .text.wpa_group_setkeysdone
                0x402287dc       0x25 c:/Espressif/ESP8266_SDK_210/lib\libwpa.a(wpa_auth.o)
                                 0x29 (size before relaxing)
 *fill*         0x40228801        0x3 
 .text.wpa_group_sm_step
                0x40228804       0x53 c:/Espressif/ESP8266_SDK_210/lib\libwpa.a(wpa_auth.o)
                                 0x6a (size before relaxing)
 *fill*         0x40228857        0x1 
 .text.wpa_sm_step
                0x40228858       0x86 c:/Espressif/ESP8266_SDK_210/lib\libwpa.a(wpa_auth.o)
                                 0x9a (size before relaxing)
 *fill*         0x402288de        0x2 
 .text.wpa_write_wpa_ie
                0x402288e0       0xc3 c:/Espressif/ESP8266_SDK_210/lib\libwpa.a(wpa_auth_ie.o)
                                 0xcf (size before relaxing)
 *fill*         0x402289a3        0x1 
 .text.wpa_write_rsn_ie
                0x402289a4      0x106 c:/Espressif/ESP8266_SDK_210/lib\libwpa.a(wpa_auth_ie.o)
                                0x116 (size before relaxing)
                0x402289a4                wpa_write_rsn_ie
 *fill*         0x40228aaa        0x2 
 .text.wpa_auth_gen_wpa_ie
                0x40228aac       0x99 c:/Espressif/ESP8266_SDK_210/lib\libwpa.a(wpa_auth_ie.o)
                                 0xb1 (size before relaxing)
                0x40228ab0                wpa_auth_gen_wpa_ie
 *fill*         0x40228b45        0x3 
 .text.wpa_add_kde
                0x40228b48       0x6a c:/Espressif/ESP8266_SDK_210/lib\libwpa.a(wpa_auth_ie.o)
                                 0x72 (size before relaxing)
                0x40228b48                wpa_add_kde
 *fill*         0x40228bb2        0x2 
 .text.wpa_validate_wpa_ie
                0x40228bb4      0x131 c:/Espressif/ESP8266_SDK_210/lib\libwpa.a(wpa_auth_ie.o)
                                0x169 (size before relaxing)
                0x40228bb4                wpa_validate_wpa_ie
 *fill*         0x40228ce5        0x3 
 .text.wpa_parse_generic
                0x40228ce8       0xd7 c:/Espressif/ESP8266_SDK_210/lib\libwpa.a(wpa_auth_ie.o)
                                 0xdb (size before relaxing)
 *fill*         0x40228dbf        0x1 
 .text.wpa_parse_kde_ies
                0x40228dc0       0x9d c:/Espressif/ESP8266_SDK_210/lib\libwpa.a(wpa_auth_ie.o)
                                 0xa5 (size before relaxing)
                0x40228dc0                wpa_parse_kde_ies
 *fill*         0x40228e5d        0x3 
 .text.wpa_eapol_key_send
                0x40228e60      0x100 c:/Espressif/ESP8266_SDK_210/lib\libwpa.a(wpa.o)
                                0x11c (size before relaxing)
 .text.wpa_sm_key_request
                0x40228f60      0x114 c:/Espressif/ESP8266_SDK_210/lib\libwpa.a(wpa.o)
                                0x134 (size before relaxing)
 .text.wpa_supplicant_send_2_of_4
                0x40229074       0xf8 c:/Espressif/ESP8266_SDK_210/lib\libwpa.a(wpa.o)
                                0x114 (size before relaxing)
 .text.wpa_derive_ptk
                0x4022916c       0x6f c:/Espressif/ESP8266_SDK_210/lib\libwpa.a(wpa.o)
                                 0x7b (size before relaxing)
 *fill*         0x402291db        0x1 
 .text.wpa_supplicant_process_1_of_4
                0x402291dc       0xd7 c:/Espressif/ESP8266_SDK_210/lib\libwpa.a(wpa.o)
                                0x10a (size before relaxing)
 *fill*         0x402292b3        0x1 
 .text.wpa_sm_rekey_ptk
                0x402292b4       0x16 c:/Espressif/ESP8266_SDK_210/lib\libwpa.a(wpa.o)
                                 0x1a (size before relaxing)
 *fill*         0x402292ca        0x2 
 .text.wpa_supplicant_install_ptk
                0x402292cc       0x85 c:/Espressif/ESP8266_SDK_210/lib\libwpa.a(wpa.o)
                                 0x99 (size before relaxing)
 *fill*         0x40229351        0x3 
 .text.wpa_supplicant_key_neg_complete
                0x40229354       0x48 c:/Espressif/ESP8266_SDK_210/lib\libwpa.a(wpa.o)
                                 0x5c (size before relaxing)
 .text.wpa_supplicant_install_gtk
                0x4022939c       0x9c c:/Espressif/ESP8266_SDK_210/lib\libwpa.a(wpa.o)
                                 0xb0 (size before relaxing)
 .text.wpa_supplicant_pairwise_gtk
                0x40229438       0x82 c:/Espressif/ESP8266_SDK_210/lib\libwpa.a(wpa.o)
                                 0x96 (size before relaxing)
 *fill*         0x402294ba        0x2 
 .text.wpa_report_ie_mismatch
                0x402294bc       0x14 c:/Espressif/ESP8266_SDK_210/lib\libwpa.a(wpa.o)
                                 0x18 (size before relaxing)
 .text.wpa_supplicant_validate_ie
                0x402294d0       0xd7 c:/Espressif/ESP8266_SDK_210/lib\libwpa.a(wpa.o)
                                 0xf3 (size before relaxing)
 *fill*         0x402295a7        0x1 
 .text.wpa_supplicant_send_4_of_4
                0x402295a8       0xf9 c:/Espressif/ESP8266_SDK_210/lib\libwpa.a(wpa.o)
                                0x111 (size before relaxing)
 *fill*         0x402296a1        0x3 
 .text.wpa_sm_set_seq
                0x402296a4       0x46 c:/Espressif/ESP8266_SDK_210/lib\libwpa.a(wpa.o)
                                 0x4e (size before relaxing)
 *fill*         0x402296ea        0x2 
 .text.wpa_supplicant_process_3_of_4
                0x402296ec      0x114 c:/Espressif/ESP8266_SDK_210/lib\libwpa.a(wpa.o)
                                0x14c (size before relaxing)
 .text.wpa_supplicant_send_4_of_4_txcallback
                0x40229800       0x76 c:/Espressif/ESP8266_SDK_210/lib\libwpa.a(wpa.o)
                                 0x96 (size before relaxing)
 *fill*         0x40229876        0x2 
 .text.wpa_supplicant_process_1_of_2_rsn
                0x40229878       0x85 c:/Espressif/ESP8266_SDK_210/lib\libwpa.a(wpa.o)
                                 0xa1 (size before relaxing)
 *fill*         0x402298fd        0x3 
 .text.wpa_supplicant_process_1_of_2_wpa
                0x40229900       0xf8 c:/Espressif/ESP8266_SDK_210/lib\libwpa.a(wpa.o)
                                0x110 (size before relaxing)
 .text.wpa_supplicant_send_2_of_2
                0x402299f8       0xdc c:/Espressif/ESP8266_SDK_210/lib\libwpa.a(wpa.o)
                                 0xf0 (size before relaxing)
 .text.wpa_supplicant_process_1_of_2
                0x40229ad4       0xb5 c:/Espressif/ESP8266_SDK_210/lib\libwpa.a(wpa.o)
                                 0xdd (size before relaxing)
 *fill*         0x40229b89        0x3 
 .text.wpa_supplicant_send_2_of_2_txcallback
                0x40229b8c       0x63 c:/Espressif/ESP8266_SDK_210/lib\libwpa.a(wpa.o)
                                 0x76 (size before relaxing)
 *fill*         0x40229bef        0x1 
 .text.wpa_supplicant_verify_eapol_key_mic
                0x40229bf0       0xec c:/Espressif/ESP8266_SDK_210/lib\libwpa.a(wpa.o)
                                0x114 (size before relaxing)
 .text.wpa_supplicant_decrypt_key_data
                0x40229cdc       0xaf c:/Espressif/ESP8266_SDK_210/lib\libwpa.a(wpa.o)
                                 0xc3 (size before relaxing)
 *fill*         0x40229d8b        0x1 
 .text.wpa_sm_rx_eapol
                0x40229d8c      0x189 c:/Espressif/ESP8266_SDK_210/lib\libwpa.a(wpa.o)
                                0x1ad (size before relaxing)
                0x40229d98                wpa_sm_rx_eapol
 *fill*         0x40229f15        0x3 
 .text.wpa_register
                0x40229f18       0x32 c:/Espressif/ESP8266_SDK_210/lib\libwpa.a(wpa.o)
                                 0x36 (size before relaxing)
                0x40229f1c                wpa_register
 *fill*         0x40229f4a        0x2 
 .text.wpa_set_profile
                0x40229f4c       0x15 c:/Espressif/ESP8266_SDK_210/lib\libwpa.a(wpa.o)
                                 0x19 (size before relaxing)
                0x40229f4c                wpa_set_profile
 *fill*         0x40229f61        0x3 
 .text.wpa_set_pmk
                0x40229f64       0x20 c:/Espressif/ESP8266_SDK_210/lib\libwpa.a(wpa.o)
                                 0x2c (size before relaxing)
                0x40229f64                wpa_set_pmk
 .text.wpa_set_bss
                0x40229f84       0x8c c:/Espressif/ESP8266_SDK_210/lib\libwpa.a(wpa.o)
                                 0xbc (size before relaxing)
                0x40229f90                wpa_set_bss
 .text.wpa_set_passphrase
                0x4022a010       0x94 c:/Espressif/ESP8266_SDK_210/lib\libwpa.a(wpa.o)
                                 0xdc (size before relaxing)
 .text.set_assoc_ie
                0x4022a0a4       0x33 c:/Espressif/ESP8266_SDK_210/lib\libwpa.a(wpa.o)
                                 0x37 (size before relaxing)
 *fill*         0x4022a0d7        0x1 
 .text.wpa_sm_set_key
                0x4022a0d8       0x7c c:/Espressif/ESP8266_SDK_210/lib\libwpa.a(wpa.o)
                                 0x88 (size before relaxing)
 .text.wpa_supplicant_clr_countermeasures
                0x4022a154        0xd c:/Espressif/ESP8266_SDK_210/lib\libwpa.a(wpa.o)
                                 0x11 (size before relaxing)
 *fill*         0x4022a161        0x3 
 .text.wpa_supplicant_stop_countermeasures
                0x4022a164       0x27 c:/Espressif/ESP8266_SDK_210/lib\libwpa.a(wpa.o)
                                 0x33 (size before relaxing)
 *fill*         0x4022a18b        0x1 
 .text.pp_michael_mic_failure
                0x4022a18c       0xbe c:/Espressif/ESP8266_SDK_210/lib\libwpa.a(wpa.o)
                                0x10e (size before relaxing)
                0x4022a19c                pp_michael_mic_failure
 *fill*         0x4022a24a        0x2 
 .text.eapol_txcb
                0x4022a24c       0x90 c:/Espressif/ESP8266_SDK_210/lib\libwpa.a(wpa.o)
                                 0xa8 (size before relaxing)
                0x4022a24c                eapol_txcb
 .text.wpa_sm_set_state
                0x4022a2dc       0x28 c:/Espressif/ESP8266_SDK_210/lib\libwpa.a(wpa.o)
                                 0x38 (size before relaxing)
                0x4022a2dc                wpa_sm_set_state
 .text.rsn_selector_to_bitfield
                0x4022a304       0x63 c:/Espressif/ESP8266_SDK_210/lib\libwpa.a(wpa_common.o)
                                 0x6b (size before relaxing)
 *fill*         0x4022a367        0x1 
 .text.rsn_key_mgmt_to_bitfield
                0x4022a368       0x37 c:/Espressif/ESP8266_SDK_210/lib\libwpa.a(wpa_common.o)
                                 0x3f (size before relaxing)
 *fill*         0x4022a39f        0x1 
 .text.wpa_selector_to_bitfield
                0x4022a3a0       0x67 c:/Espressif/ESP8266_SDK_210/lib\libwpa.a(wpa_common.o)
                                 0x6b (size before relaxing)
 *fill*         0x4022a407        0x1 
 .text.wpa_key_mgmt_to_bitfield
                0x4022a408       0x41 c:/Espressif/ESP8266_SDK_210/lib\libwpa.a(wpa_common.o)
                                 0x4d (size before relaxing)
 *fill*         0x4022a449        0x3 
 .text.wpa_parse_wpa_ie_rsn
                0x4022a44c      0x195 c:/Espressif/ESP8266_SDK_210/lib\libwpa.a(wpa_common.o)
                                0x1ad (size before relaxing)
                0x4022a44c                wpa_parse_wpa_ie_rsn
 *fill*         0x4022a5e1        0x3 
 .text.wpa_parse_wpa_ie_wpa
                0x4022a5e4      0x18e c:/Espressif/ESP8266_SDK_210/lib\libwpa.a(wpa_common.o)
                                0x1a2 (size before relaxing)
                0x4022a5e4                wpa_parse_wpa_ie_wpa
 *fill*         0x4022a772        0x2 
 .text.wpa_eapol_key_mic
                0x4022a774       0x47 c:/Espressif/ESP8266_SDK_210/lib\libwpa.a(wpa_common.o)
                                 0x4b (size before relaxing)
                0x4022a77c                wpa_eapol_key_mic
 *fill*         0x4022a7bb        0x1 
 .text.wpa_compare_rsn_ie
                0x4022a7bc       0x26 c:/Espressif/ESP8266_SDK_210/lib\libwpa.a(wpa_common.o)
                                 0x2a (size before relaxing)
                0x4022a7bc                wpa_compare_rsn_ie
 *fill*         0x4022a7e2        0x2 
 .text.wpa_pmk_to_ptk
                0x4022a7e4       0xe3 c:/Espressif/ESP8266_SDK_210/lib\libwpa.a(wpa_common.o)
                                0x10f (size before relaxing)
                0x4022a7e4                wpa_pmk_to_ptk
 *fill*         0x4022a8c7        0x1 
 .text.rsn_pmkid
                0x4022a8c8       0x67 c:/Espressif/ESP8266_SDK_210/lib\libwpa.a(wpa_common.o)
                                 0x6f (size before relaxing)
                0x4022a8d4                rsn_pmkid
 *fill*         0x4022a92f        0x1 
 .text.wpa_cipher_to_suite
                0x4022a930       0x55 c:/Espressif/ESP8266_SDK_210/lib\libwpa.a(wpa_common.o)
                                 0x7d (size before relaxing)
                0x4022a934                wpa_cipher_to_suite
 *fill*         0x4022a985        0x3 
 .text._wpa_snprintf_hex
                0x4022a988       0x78 c:/Espressif/ESP8266_SDK_210/lib\libwpa.a(wpa_debug.o)
                                 0x7c (size before relaxing)
 .text.wpa_snprintf_hex_uppercase
                0x4022aa00       0x14 c:/Espressif/ESP8266_SDK_210/lib\libwpa.a(wpa_debug.o)
                                 0x18 (size before relaxing)
                0x4022aa00                wpa_snprintf_hex_uppercase
 .text.wpa_snprintf_hex
                0x4022aa14       0x14 c:/Espressif/ESP8266_SDK_210/lib\libwpa.a(wpa_debug.o)
                                 0x18 (size before relaxing)
                0x4022aa14                wpa_snprintf_hex
 .text.wpa_parse_wpa_ie
                0x4022aa28       0x25 c:/Espressif/ESP8266_SDK_210/lib\libwpa.a(wpa_ie.o)
                                 0x2d (size before relaxing)
                0x4022aa28                wpa_parse_wpa_ie
 *fill*         0x4022aa4d        0x3 
 .text.wpa_parse_generic
                0x4022aa50       0xcb c:/Espressif/ESP8266_SDK_210/lib\libwpa.a(wpa_ie.o)
                                 0xdb (size before relaxing)
 *fill*         0x4022ab1b        0x1 
 .text.wpa_supplicant_parse_ies
                0x4022ab1c       0x9d c:/Espressif/ESP8266_SDK_210/lib\libwpa.a(wpa_ie.o)
                                 0xa5 (size before relaxing)
                0x4022ab1c                wpa_supplicant_parse_ies
 *fill*         0x4022abb9        0x3 
 .text.wpa_gen_wpa_ie
                0x4022abbc       0x34 c:/Espressif/ESP8266_SDK_210/lib\libwpa.a(wpa_ie.o)
                                 0x3f (size before relaxing)
                0x4022abbc                wpa_gen_wpa_ie
 *fill*         0x4022abf0        0x0 
 .text.ppInstallKey
                0x4022abf0      0x142 c:/Espressif/ESP8266_SDK_210/lib\libwpa.a(wpa_main.o)
                                0x18a (size before relaxing)
                0x4022abf4                ppInstallKey
 *fill*         0x4022ad32        0x2 
 .text.wpa_sendto_wrapper
                0x4022ad34       0x1b c:/Espressif/ESP8266_SDK_210/lib\libwpa.a(wpa_main.o)
                                 0x23 (size before relaxing)
 *fill*         0x4022ad4f        0x1 
 .text.wpa_deauthenticate
                0x4022ad50       0x32 c:/Espressif/ESP8266_SDK_210/lib\libwpa.a(wpa_main.o)
                                 0x46 (size before relaxing)
 *fill*         0x4022ad82        0x2 
 .text.wpa_config_profile
                0x4022ad84       0x34 c:/Espressif/ESP8266_SDK_210/lib\libwpa.a(wpa_main.o)
                                 0x3f (size before relaxing)
                0x4022ad84                wpa_config_profile
 *fill*         0x4022adb8        0x0 
 .text.wpa_config_bss
                0x4022adb8       0x2d c:/Espressif/ESP8266_SDK_210/lib\libwpa.a(wpa_main.o)
                                 0x31 (size before relaxing)
                0x4022adb8                wpa_config_bss
 *fill*         0x4022ade5        0x3 
 .text.wpa_config_assoc_ie
                0x4022ade8       0x14 c:/Espressif/ESP8266_SDK_210/lib\libwpa.a(wpa_main.o)
                                 0x18 (size before relaxing)
                0x4022ade8                wpa_config_assoc_ie
 .text.dhcp_bind_check
                0x4022adfc       0x1e c:/Espressif/ESP8266_SDK_210/lib\libwpa.a(wpa_main.o)
                                 0x26 (size before relaxing)
                0x4022adfc                dhcp_bind_check
 *fill*         0x4022ae1a        0x2 
 .text.eagle_auth_done
                0x4022ae1c      0x19b c:/Espressif/ESP8266_SDK_210/lib\libwpa.a(wpa_main.o)
                                0x21f (size before relaxing)
                0x4022ae38                eagle_auth_done
 *fill*         0x4022afb7        0x1 
 .text.wpa_neg_complete
                0x4022afb8       0x12 c:/Espressif/ESP8266_SDK_210/lib\libwpa.a(wpa_main.o)
                                 0x16 (size before relaxing)
                0x4022afb8                wpa_neg_complete
 *fill*         0x4022afca        0x2 
 .text.wpa_attach
                0x4022afcc       0x50 c:/Espressif/ESP8266_SDK_210/lib\libwpa.a(wpa_main.o)
                                 0x5c (size before relaxing)
                0x4022afe4                wpa_attach
 .text.wpa_alloc_eapol
                0x4022b01c       0x6e c:/Espressif/ESP8266_SDK_210/lib\libwpa.a(wpas_glue.o)
                                 0x76 (size before relaxing)
 *fill*         0x4022b08a        0x2 
 .text.wpa_sm_alloc_eapol
                0x4022b08c       0x3f c:/Espressif/ESP8266_SDK_210/lib\libwpa.a(wpas_glue.o)
                                 0x4b (size before relaxing)
                0x4022b08c                wpa_sm_alloc_eapol
 *fill*         0x4022b0cb        0x1 
 .literal.hostapd_config_defaults_bss
                0x4022b0cc        0x0 c:/Espressif/ESP8266_SDK_210/lib\libwpa.a(ap_config.o)
 .literal.hostapd_config_defaults
                0x4022b0cc        0x0 c:/Espressif/ESP8266_SDK_210/lib\libwpa.a(ap_config.o)
 .literal.hostapd_mac_comp
                0x4022b0cc        0x0 c:/Espressif/ESP8266_SDK_210/lib\libwpa.a(ap_config.o)
 .literal.hostapd_mac_comp_empty
                0x4022b0cc        0x0 c:/Espressif/ESP8266_SDK_210/lib\libwpa.a(ap_config.o)
 .literal.hostapd_derive_psk
                0x4022b0cc        0x0 c:/Espressif/ESP8266_SDK_210/lib\libwpa.a(ap_config.o)
 .literal.hostapd_setup_wpa_psk
                0x4022b0cc        0x0 c:/Espressif/ESP8266_SDK_210/lib\libwpa.a(ap_config.o)
 .literal.hostapd_wep_key_cmp
                0x4022b0cc        0x0 c:/Espressif/ESP8266_SDK_210/lib\libwpa.a(ap_config.o)
 .literal.hostapd_maclist_found
                0x4022b0cc        0x0 c:/Espressif/ESP8266_SDK_210/lib\libwpa.a(ap_config.o)
 .literal.hostapd_rate_found
                0x4022b0cc        0x0 c:/Espressif/ESP8266_SDK_210/lib\libwpa.a(ap_config.o)
 .literal.hostapd_get_psk
                0x4022b0cc        0x0 c:/Espressif/ESP8266_SDK_210/lib\libwpa.a(ap_config.o)
 *fill*         0x4022b0cc        0x0 
 *fill*         0x4022b0cc        0x0 
 *fill*         0x4022b0cc        0x0 
 *fill*         0x4022b0cc        0x0 
 *fill*         0x4022b0cc        0x0 
 .text.hostapd_rate_found
                0x4022b0cc       0x19 c:/Espressif/ESP8266_SDK_210/lib\libwpa.a(ap_config.o)
                0x4022b0cc                hostapd_rate_found
 *fill*         0x4022b0e5        0x0 
 *fill*         0x4022b0e5        0x3 
 .literal.inc_byte_array
                0x4022b0e8        0x0 c:/Espressif/ESP8266_SDK_210/lib\libwpa.a(common.o)
 .literal.hex2num
                0x4022b0e8        0x0 c:/Espressif/ESP8266_SDK_210/lib\libwpa.a(common.o)
 .literal.hex2byte
                0x4022b0e8        0x0 c:/Espressif/ESP8266_SDK_210/lib\libwpa.a(common.o)
 .literal.hexstr2bin
                0x4022b0e8        0x0 c:/Espressif/ESP8266_SDK_210/lib\libwpa.a(common.o)
 .literal.wpa_get_ntp_timestamp
                0x4022b0e8        0x0 c:/Espressif/ESP8266_SDK_210/lib\libwpa.a(common.o)
 .literal.wpa_config_parse_string
                0x4022b0e8        0x0 c:/Espressif/ESP8266_SDK_210/lib\libwpa.a(common.o)
 .literal.dup_binstr
                0x4022b0e8        0x0 c:/Espressif/ESP8266_SDK_210/lib\libwpa.a(common.o)
 .text.inc_byte_array
                0x4022b0e8       0x1d c:/Espressif/ESP8266_SDK_210/lib\libwpa.a(common.o)
                0x4022b0e8                inc_byte_array
 *fill*         0x4022b105        0x3 
 .text.hex2num  0x4022b108       0x33 c:/Espressif/ESP8266_SDK_210/lib\libwpa.a(common.o)
 *fill*         0x4022b13b        0x0 
 *fill*         0x4022b13b        0x0 
 *fill*         0x4022b13b        0x0 
 *fill*         0x4022b13b        0x1 
 .literal.ets_strdup
                0x4022b13c        0x0 c:/Espressif/ESP8266_SDK_210/lib\libwpa.a(os_xtensa.o)
 .literal.os_get_time
                0x4022b13c        0x0 c:/Espressif/ESP8266_SDK_210/lib\libwpa.a(os_xtensa.o)
 .literal.r_rand
                0x4022b13c        0x0 c:/Espressif/ESP8266_SDK_210/lib\libwpa.a(os_xtensa.o)
 .literal.os_random
                0x4022b13c        0x0 c:/Espressif/ESP8266_SDK_210/lib\libwpa.a(os_xtensa.o)
 .literal.os_get_random
                0x4022b13c        0x0 c:/Espressif/ESP8266_SDK_210/lib\libwpa.a(os_xtensa.o)
 *fill*         0x4022b13c        0x0 
 .text.os_get_time
                0x4022b13c        0x4 c:/Espressif/ESP8266_SDK_210/lib\libwpa.a(os_xtensa.o)
                0x4022b13c                os_get_time
 *fill*         0x4022b140        0x0 
 *fill*         0x4022b140        0x0 
 *fill*         0x4022b140        0x0 
 .literal.wpa_key_mgmt_wpa_psk
                0x4022b140        0x0 c:/Espressif/ESP8266_SDK_210/lib\libwpa.a(wpa_auth.o)
 .literal.wpa_auth_set_key
                0x4022b140        0x0 c:/Espressif/ESP8266_SDK_210/lib\libwpa.a(wpa_auth.o)
 .literal.wpa_auth_for_each_sta
                0x4022b140        0x0 c:/Espressif/ESP8266_SDK_210/lib\libwpa.a(wpa_auth.o)
 .literal.wpa_sta_disconnect
                0x4022b140        0x0 c:/Espressif/ESP8266_SDK_210/lib\libwpa.a(wpa_auth.o)
 .literal.wpa_use_aes_cmac
                0x4022b140        0x0 c:/Espressif/ESP8266_SDK_210/lib\libwpa.a(wpa_auth.o)
 .literal.wpa_rekey_gtk
                0x4022b140        0x0 c:/Espressif/ESP8266_SDK_210/lib\libwpa.a(wpa_auth.o)
 .literal.wpa_rekey_ptk
                0x4022b140        0x0 c:/Espressif/ESP8266_SDK_210/lib\libwpa.a(wpa_auth.o)
 .literal.wpa_group_init_gmk_and_counter
                0x4022b140        0x0 c:/Espressif/ESP8266_SDK_210/lib\libwpa.a(wpa_auth.o)
 .literal.wpa_group_init
                0x4022b140        0x0 c:/Espressif/ESP8266_SDK_210/lib\libwpa.a(wpa_auth.o)
 .literal.wpa_init
                0x4022b140        0x0 c:/Espressif/ESP8266_SDK_210/lib\libwpa.a(wpa_auth.o)
 .literal.wpa_auth_sta_init
                0x4022b140        0x0 c:/Espressif/ESP8266_SDK_210/lib\libwpa.a(wpa_auth.o)
 .literal.wpa_auth_sta_associated
                0x4022b140        0x0 c:/Espressif/ESP8266_SDK_210/lib\libwpa.a(wpa_auth.o)
 .literal.wpa_auth_sta_no_wpa
                0x4022b140        0x0 c:/Espressif/ESP8266_SDK_210/lib\libwpa.a(wpa_auth.o)
 .literal.wpa_free_sta_sm
                0x4022b140        0x0 c:/Espressif/ESP8266_SDK_210/lib\libwpa.a(wpa_auth.o)
 .literal.wpa_auth_sta_deinit
                0x4022b140        0x0 c:/Espressif/ESP8266_SDK_210/lib\libwpa.a(wpa_auth.o)
 .literal.wpa_request_new_ptk
                0x4022b140        0x0 c:/Espressif/ESP8266_SDK_210/lib\libwpa.a(wpa_auth.o)
 .literal.wpa_replay_counter_valid
                0x4022b140        0x0 c:/Espressif/ESP8266_SDK_210/lib\libwpa.a(wpa_auth.o)
 .literal.wpa_replay_counter_mark_invalid
                0x4022b140        0x0 c:/Espressif/ESP8266_SDK_210/lib\libwpa.a(wpa_auth.o)
 .literal.wpa_receive_error_report
                0x4022b140        0x0 c:/Espressif/ESP8266_SDK_210/lib\libwpa.a(wpa_auth.o)
 .literal.wpa_receive
                0x4022b140        0x0 c:/Espressif/ESP8266_SDK_210/lib\libwpa.a(wpa_auth.o)
 .literal.wpa_gmk_to_gtk
                0x4022b140        0x0 c:/Espressif/ESP8266_SDK_210/lib\libwpa.a(wpa_auth.o)
 .literal.wpa_send_eapol_timeout
                0x4022b140        0x0 c:/Espressif/ESP8266_SDK_210/lib\libwpa.a(wpa_auth.o)
 .literal.__wpa_send_eapol
                0x4022b140        0x0 c:/Espressif/ESP8266_SDK_210/lib\libwpa.a(wpa_auth.o)
 .literal.wpa_send_eapol
                0x4022b140        0x0 c:/Espressif/ESP8266_SDK_210/lib\libwpa.a(wpa_auth.o)
 .literal.wpa_verify_key_mic
                0x4022b140        0x0 c:/Espressif/ESP8266_SDK_210/lib\libwpa.a(wpa_auth.o)
 .literal.wpa_remove_ptk
                0x4022b140        0x0 c:/Espressif/ESP8266_SDK_210/lib\libwpa.a(wpa_auth.o)
 .literal.wpa_auth_sm_event
                0x4022b140        0x0 c:/Espressif/ESP8266_SDK_210/lib\libwpa.a(wpa_auth.o)
 .literal.sm_WPA_PTK_INITIALIZE_Enter
                0x4022b140        0x0 c:/Espressif/ESP8266_SDK_210/lib\libwpa.a(wpa_auth.o)
 .literal.sm_WPA_PTK_DISCONNECT_Enter
                0x4022b140        0x0 c:/Espressif/ESP8266_SDK_210/lib\libwpa.a(wpa_auth.o)
 .literal.sm_WPA_PTK_DISCONNECTED_Enter
                0x4022b140        0x0 c:/Espressif/ESP8266_SDK_210/lib\libwpa.a(wpa_auth.o)
 .literal.sm_WPA_PTK_AUTHENTICATION_Enter
                0x4022b140        0x0 c:/Espressif/ESP8266_SDK_210/lib\libwpa.a(wpa_auth.o)
 .literal.wpa_group_ensure_init
                0x4022b140        0x0 c:/Espressif/ESP8266_SDK_210/lib\libwpa.a(wpa_auth.o)
 .literal.sm_WPA_PTK_AUTHENTICATION2_Enter
                0x4022b140        0x0 c:/Espressif/ESP8266_SDK_210/lib\libwpa.a(wpa_auth.o)
 .literal.sm_WPA_PTK_INITPMK_Enter
                0x4022b140        0x0 c:/Espressif/ESP8266_SDK_210/lib\libwpa.a(wpa_auth.o)
 .literal.sm_WPA_PTK_INITPSK_Enter
                0x4022b140        0x0 c:/Espressif/ESP8266_SDK_210/lib\libwpa.a(wpa_auth.o)
 .literal.sm_WPA_PTK_PTKSTART_Enter
                0x4022b140        0x0 c:/Espressif/ESP8266_SDK_210/lib\libwpa.a(wpa_auth.o)
 .literal.wpa_derive_ptk
                0x4022b140        0x0 c:/Espressif/ESP8266_SDK_210/lib\libwpa.a(wpa_auth.o)
 .literal.sm_WPA_PTK_PTKCALCNEGOTIATING_Enter
                0x4022b140        0x0 c:/Espressif/ESP8266_SDK_210/lib\libwpa.a(wpa_auth.o)
 .literal.sm_WPA_PTK_PTKCALCNEGOTIATING2_Enter
                0x4022b140        0x0 c:/Espressif/ESP8266_SDK_210/lib\libwpa.a(wpa_auth.o)
 .literal.ieee80211w_kde_len
                0x4022b140        0x0 c:/Espressif/ESP8266_SDK_210/lib\libwpa.a(wpa_auth.o)
 .literal.ieee80211w_kde_add
                0x4022b140        0x0 c:/Espressif/ESP8266_SDK_210/lib\libwpa.a(wpa_auth.o)
 .literal.sm_WPA_PTK_PTKINITNEGOTIATING_Enter
                0x4022b140        0x0 c:/Espressif/ESP8266_SDK_210/lib\libwpa.a(wpa_auth.o)
 .literal.sm_WPA_PTK_PTKINITDONE_Enter
                0x4022b140        0x0 c:/Espressif/ESP8266_SDK_210/lib\libwpa.a(wpa_auth.o)
 .literal.sm_WPA_PTK_Step
                0x4022b140        0x0 c:/Espressif/ESP8266_SDK_210/lib\libwpa.a(wpa_auth.o)
 .literal.sm_WPA_PTK_GROUP_IDLE_Enter
                0x4022b140        0x0 c:/Espressif/ESP8266_SDK_210/lib\libwpa.a(wpa_auth.o)
 .literal.sm_WPA_PTK_GROUP_REKEYNEGOTIATING_Enter
                0x4022b140        0x0 c:/Espressif/ESP8266_SDK_210/lib\libwpa.a(wpa_auth.o)
 .literal.sm_WPA_PTK_GROUP_REKEYESTABLISHED_Enter
                0x4022b140        0x0 c:/Espressif/ESP8266_SDK_210/lib\libwpa.a(wpa_auth.o)
 .literal.sm_WPA_PTK_GROUP_KEYERROR_Enter
                0x4022b140        0x0 c:/Espressif/ESP8266_SDK_210/lib\libwpa.a(wpa_auth.o)
 .literal.sm_WPA_PTK_GROUP_Step
                0x4022b140        0x0 c:/Espressif/ESP8266_SDK_210/lib\libwpa.a(wpa_auth.o)
 .literal.wpa_gtk_update
                0x4022b140        0x0 c:/Espressif/ESP8266_SDK_210/lib\libwpa.a(wpa_auth.o)
 .literal.wpa_group_gtk_init
                0x4022b140        0x0 c:/Espressif/ESP8266_SDK_210/lib\libwpa.a(wpa_auth.o)
 .literal.wpa_group_update_sta
                0x4022b140        0x0 c:/Espressif/ESP8266_SDK_210/lib\libwpa.a(wpa_auth.o)
 .literal.wpa_group_setkeys
                0x4022b140        0x0 c:/Espressif/ESP8266_SDK_210/lib\libwpa.a(wpa_auth.o)
 .literal.wpa_group_config_group_keys
                0x4022b140        0x0 c:/Espressif/ESP8266_SDK_210/lib\libwpa.a(wpa_auth.o)
 .literal.wpa_group_setkeysdone
                0x4022b140        0x0 c:/Espressif/ESP8266_SDK_210/lib\libwpa.a(wpa_auth.o)
 .literal.wpa_group_sm_step
                0x4022b140        0x0 c:/Espressif/ESP8266_SDK_210/lib\libwpa.a(wpa_auth.o)
 .literal.wpa_sm_step
                0x4022b140        0x0 c:/Espressif/ESP8266_SDK_210/lib\libwpa.a(wpa_auth.o)
 .text.wpa_key_mgmt_wpa_psk
                0x4022b140       0x11 c:/Espressif/ESP8266_SDK_210/lib\libwpa.a(wpa_auth.o)
 *fill*         0x4022b151        0x0 
 *fill*         0x4022b151        0x3 
 .text.wpa_auth_for_each_sta
                0x4022b154        0x4 c:/Espressif/ESP8266_SDK_210/lib\libwpa.a(wpa_auth.o)
                0x4022b154                wpa_auth_for_each_sta
 .text.wpa_sta_disconnect
                0x4022b158        0x2 c:/Espressif/ESP8266_SDK_210/lib\libwpa.a(wpa_auth.o)
 *fill*         0x4022b15a        0x2 
 .text.wpa_use_aes_cmac
                0x4022b15c        0x4 c:/Espressif/ESP8266_SDK_210/lib\libwpa.a(wpa_auth.o)
 *fill*         0x4022b160        0x0 
 *fill*         0x4022b160        0x0 
 *fill*         0x4022b160        0x0 
 *fill*         0x4022b160        0x0 
 *fill*         0x4022b160        0x0 
 *fill*         0x4022b160        0x0 
 *fill*         0x4022b160        0x0 
 .text.wpa_auth_sta_no_wpa
                0x4022b160        0x9 c:/Espressif/ESP8266_SDK_210/lib\libwpa.a(wpa_auth.o)
                0x4022b160                wpa_auth_sta_no_wpa
 *fill*         0x4022b169        0x0 
 *fill*         0x4022b169        0x3 
 .text.wpa_request_new_ptk
                0x4022b16c        0xe c:/Espressif/ESP8266_SDK_210/lib\libwpa.a(wpa_auth.o)
 *fill*         0x4022b17a        0x0 
 *fill*         0x4022b17a        0x0 
 *fill*         0x4022b17a        0x0 
 *fill*         0x4022b17a        0x0 
 *fill*         0x4022b17a        0x0 
 *fill*         0x4022b17a        0x0 
 *fill*         0x4022b17a        0x0 
 *fill*         0x4022b17a        0x0 
 *fill*         0x4022b17a        0x0 
 *fill*         0x4022b17a        0x0 
 *fill*         0x4022b17a        0x0 
 *fill*         0x4022b17a        0x2 
 .text.sm_WPA_PTK_DISCONNECTED_Enter
                0x4022b17c       0x1c c:/Espressif/ESP8266_SDK_210/lib\libwpa.a(wpa_auth.o)
 *fill*         0x4022b198        0x0 
 *fill*         0x4022b198        0x0 
 *fill*         0x4022b198        0x0 
 .text.sm_WPA_PTK_INITPMK_Enter
                0x4022b198       0x1d c:/Espressif/ESP8266_SDK_210/lib\libwpa.a(wpa_auth.o)
 *fill*         0x4022b1b5        0x0 
 *fill*         0x4022b1b5        0x0 
 *fill*         0x4022b1b5        0x0 
 *fill*         0x4022b1b5        0x0 
 *fill*         0x4022b1b5        0x3 
 .text.sm_WPA_PTK_PTKCALCNEGOTIATING2_Enter
                0x4022b1b8       0x1c c:/Espressif/ESP8266_SDK_210/lib\libwpa.a(wpa_auth.o)
 .text.ieee80211w_kde_len
                0x4022b1d4        0x4 c:/Espressif/ESP8266_SDK_210/lib\libwpa.a(wpa_auth.o)
 .text.ieee80211w_kde_add
                0x4022b1d8        0x4 c:/Espressif/ESP8266_SDK_210/lib\libwpa.a(wpa_auth.o)
 *fill*         0x4022b1dc        0x0 
 *fill*         0x4022b1dc        0x0 
 .text.sm_WPA_PTK_GROUP_IDLE_Enter
                0x4022b1dc       0x28 c:/Espressif/ESP8266_SDK_210/lib\libwpa.a(wpa_auth.o)
 *fill*         0x4022b204        0x0 
 .text.sm_WPA_PTK_GROUP_REKEYESTABLISHED_Enter
                0x4022b204       0x31 c:/Espressif/ESP8266_SDK_210/lib\libwpa.a(wpa_auth.o)
 *fill*         0x4022b235        0x3 
 .text.sm_WPA_PTK_GROUP_KEYERROR_Enter
                0x4022b238       0x2c c:/Espressif/ESP8266_SDK_210/lib\libwpa.a(wpa_auth.o)
 *fill*         0x4022b264        0x0 
 *fill*         0x4022b264        0x0 
 *fill*         0x4022b264        0x0 
 *fill*         0x4022b264        0x0 
 *fill*         0x4022b264        0x0 
 *fill*         0x4022b264        0x0 
 *fill*         0x4022b264        0x0 
 .literal.wpa_write_wpa_ie
                0x4022b264        0x0 c:/Espressif/ESP8266_SDK_210/lib\libwpa.a(wpa_auth_ie.o)
 .literal.wpa_write_rsn_ie
                0x4022b264        0x0 c:/Espressif/ESP8266_SDK_210/lib\libwpa.a(wpa_auth_ie.o)
 .literal.wpa_auth_gen_wpa_ie
                0x4022b264        0x0 c:/Espressif/ESP8266_SDK_210/lib\libwpa.a(wpa_auth_ie.o)
 .literal.wpa_add_kde
                0x4022b264        0x0 c:/Espressif/ESP8266_SDK_210/lib\libwpa.a(wpa_auth_ie.o)
 .literal.wpa_validate_wpa_ie
                0x4022b264        0x0 c:/Espressif/ESP8266_SDK_210/lib\libwpa.a(wpa_auth_ie.o)
 .literal.wpa_parse_generic
                0x4022b264        0x0 c:/Espressif/ESP8266_SDK_210/lib\libwpa.a(wpa_auth_ie.o)
 .literal.wpa_parse_kde_ies
                0x4022b264        0x0 c:/Espressif/ESP8266_SDK_210/lib\libwpa.a(wpa_auth_ie.o)
 .literal.wpa_auth_uses_mfp
                0x4022b264        0x0 c:/Espressif/ESP8266_SDK_210/lib\libwpa.a(wpa_auth_ie.o)
 *fill*         0x4022b264        0x0 
 *fill*         0x4022b264        0x0 
 *fill*         0x4022b264        0x0 
 *fill*         0x4022b264        0x0 
 *fill*         0x4022b264        0x0 
 *fill*         0x4022b264        0x0 
 *fill*         0x4022b264        0x0 
 .text.wpa_auth_uses_mfp
                0x4022b264        0xe c:/Espressif/ESP8266_SDK_210/lib\libwpa.a(wpa_auth_ie.o)
                0x4022b264                wpa_auth_uses_mfp
 *fill*         0x4022b272        0x2 
 .literal.eapol_sm_notify_eap_success
                0x4022b274        0x0 c:/Espressif/ESP8266_SDK_210/lib\libwpa.a(wpa.o)
 .literal.wpa_eapol_key_send
                0x4022b274        0x0 c:/Espressif/ESP8266_SDK_210/lib\libwpa.a(wpa.o)
 .literal.wpa_sm_key_request
                0x4022b274        0x0 c:/Espressif/ESP8266_SDK_210/lib\libwpa.a(wpa.o)
 .literal.wpa_supplicant_get_pmk
                0x4022b274        0x0 c:/Espressif/ESP8266_SDK_210/lib\libwpa.a(wpa.o)
 .literal.wpa_supplicant_send_2_of_4
                0x4022b274        0x0 c:/Espressif/ESP8266_SDK_210/lib\libwpa.a(wpa.o)
 .literal.wpa_derive_ptk
                0x4022b274        0x0 c:/Espressif/ESP8266_SDK_210/lib\libwpa.a(wpa.o)
 .literal.wpa_supplicant_process_1_of_4
                0x4022b274        0x0 c:/Espressif/ESP8266_SDK_210/lib\libwpa.a(wpa.o)
 .literal.wpa_sm_rekey_ptk
                0x4022b274        0x0 c:/Espressif/ESP8266_SDK_210/lib\libwpa.a(wpa.o)
 .literal.wpa_supplicant_install_ptk
                0x4022b274        0x0 c:/Espressif/ESP8266_SDK_210/lib\libwpa.a(wpa.o)
 .literal.wpa_supplicant_check_group_cipher
                0x4022b274        0x0 c:/Espressif/ESP8266_SDK_210/lib\libwpa.a(wpa.o)
 .literal.wpa_supplicant_key_neg_complete
                0x4022b274        0x0 c:/Espressif/ESP8266_SDK_210/lib\libwpa.a(wpa.o)
 .literal.wpa_supplicant_install_gtk
                0x4022b274        0x0 c:/Espressif/ESP8266_SDK_210/lib\libwpa.a(wpa.o)
 .literal.wpa_supplicant_gtk_tx_bit_workaround
                0x4022b274        0x0 c:/Espressif/ESP8266_SDK_210/lib\libwpa.a(wpa.o)
 .literal.wpa_supplicant_pairwise_gtk
                0x4022b274        0x0 c:/Espressif/ESP8266_SDK_210/lib\libwpa.a(wpa.o)
 .literal.wpa_report_ie_mismatch
                0x4022b274        0x0 c:/Espressif/ESP8266_SDK_210/lib\libwpa.a(wpa.o)
 .literal.ieee80211w_set_keys
                0x4022b274        0x0 c:/Espressif/ESP8266_SDK_210/lib\libwpa.a(wpa.o)
 .literal.wpa_supplicant_validate_ie
                0x4022b274        0x0 c:/Espressif/ESP8266_SDK_210/lib\libwpa.a(wpa.o)
 .literal.wpa_supplicant_send_4_of_4
                0x4022b274        0x0 c:/Espressif/ESP8266_SDK_210/lib\libwpa.a(wpa.o)
 .literal.wpa_sm_set_seq
                0x4022b274        0x0 c:/Espressif/ESP8266_SDK_210/lib\libwpa.a(wpa.o)
 .literal.wpa_supplicant_process_3_of_4
                0x4022b274        0x0 c:/Espressif/ESP8266_SDK_210/lib\libwpa.a(wpa.o)
 .literal.wpa_supplicant_send_4_of_4_txcallback
                0x4022b274        0x0 c:/Espressif/ESP8266_SDK_210/lib\libwpa.a(wpa.o)
 .literal.wpa_supplicant_process_1_of_2_rsn
                0x4022b274        0x0 c:/Espressif/ESP8266_SDK_210/lib\libwpa.a(wpa.o)
 .literal.wpa_supplicant_process_1_of_2_wpa
                0x4022b274        0x0 c:/Espressif/ESP8266_SDK_210/lib\libwpa.a(wpa.o)
 .literal.wpa_supplicant_send_2_of_2
                0x4022b274        0x0 c:/Espressif/ESP8266_SDK_210/lib\libwpa.a(wpa.o)
 .literal.wpa_supplicant_process_1_of_2
                0x4022b274        0x0 c:/Espressif/ESP8266_SDK_210/lib\libwpa.a(wpa.o)
 .literal.wpa_supplicant_send_2_of_2_txcallback
                0x4022b274        0x0 c:/Espressif/ESP8266_SDK_210/lib\libwpa.a(wpa.o)
 .literal.wpa_supplicant_verify_eapol_key_mic
                0x4022b274        0x0 c:/Espressif/ESP8266_SDK_210/lib\libwpa.a(wpa.o)
 .literal.wpa_supplicant_decrypt_key_data
                0x4022b274        0x0 c:/Espressif/ESP8266_SDK_210/lib\libwpa.a(wpa.o)
 .literal.wpa_eapol_key_dump
                0x4022b274        0x0 c:/Espressif/ESP8266_SDK_210/lib\libwpa.a(wpa.o)
 .literal.wpa_sm_rx_eapol
                0x4022b274        0x0 c:/Espressif/ESP8266_SDK_210/lib\libwpa.a(wpa.o)
 .literal.wpa_register
                0x4022b274        0x0 c:/Espressif/ESP8266_SDK_210/lib\libwpa.a(wpa.o)
 .literal.wpa_set_profile
                0x4022b274        0x0 c:/Espressif/ESP8266_SDK_210/lib\libwpa.a(wpa.o)
 .literal.wpa_set_pmk
                0x4022b274        0x0 c:/Espressif/ESP8266_SDK_210/lib\libwpa.a(wpa.o)
 .literal.wpa_set_bss
                0x4022b274        0x0 c:/Espressif/ESP8266_SDK_210/lib\libwpa.a(wpa.o)
 .literal.wpa_set_passphrase
                0x4022b274        0x0 c:/Espressif/ESP8266_SDK_210/lib\libwpa.a(wpa.o)
 .literal.set_assoc_ie
                0x4022b274        0x0 c:/Espressif/ESP8266_SDK_210/lib\libwpa.a(wpa.o)
 .literal.wpa_sm_set_key
                0x4022b274        0x0 c:/Espressif/ESP8266_SDK_210/lib\libwpa.a(wpa.o)
 .literal.wpa_supplicant_clr_countermeasures
                0x4022b274        0x0 c:/Espressif/ESP8266_SDK_210/lib\libwpa.a(wpa.o)
 .literal.wpa_supplicant_stop_countermeasures
                0x4022b274        0x0 c:/Espressif/ESP8266_SDK_210/lib\libwpa.a(wpa.o)
 .literal.pp_michael_mic_failure
                0x4022b274        0x0 c:/Espressif/ESP8266_SDK_210/lib\libwpa.a(wpa.o)
 .literal.eapol_txcb
                0x4022b274        0x0 c:/Espressif/ESP8266_SDK_210/lib\libwpa.a(wpa.o)
 .literal.wpa_sm_set_state
                0x4022b274        0x0 c:/Espressif/ESP8266_SDK_210/lib\libwpa.a(wpa.o)
 .text.eapol_sm_notify_eap_success
                0x4022b274        0x2 c:/Espressif/ESP8266_SDK_210/lib\libwpa.a(wpa.o)
 *fill*         0x4022b276        0x2 
 .text.wpa_supplicant_get_pmk
                0x4022b278        0xb c:/Espressif/ESP8266_SDK_210/lib\libwpa.a(wpa.o)
 *fill*         0x4022b283        0x0 
 *fill*         0x4022b283        0x0 
 *fill*         0x4022b283        0x0 
 *fill*         0x4022b283        0x0 
 *fill*         0x4022b283        0x1 
 .text.wpa_supplicant_check_group_cipher
                0x4022b284       0x56 c:/Espressif/ESP8266_SDK_210/lib\libwpa.a(wpa.o)
 *fill*         0x4022b2da        0x2 
 .text.wpa_supplicant_gtk_tx_bit_workaround
                0x4022b2dc       0x10 c:/Espressif/ESP8266_SDK_210/lib\libwpa.a(wpa.o)
 *fill*         0x4022b2ec        0x0 
 .text.ieee80211w_set_keys
                0x4022b2ec        0x4 c:/Espressif/ESP8266_SDK_210/lib\libwpa.a(wpa.o)
 *fill*         0x4022b2f0        0x0 
 *fill*         0x4022b2f0        0x0 
 *fill*         0x4022b2f0        0x0 
 *fill*         0x4022b2f0        0x0 
 *fill*         0x4022b2f0        0x0 
 *fill*         0x4022b2f0        0x0 
 *fill*         0x4022b2f0        0x0 
 *fill*         0x4022b2f0        0x0 
 .text.wpa_eapol_key_dump
                0x4022b2f0        0x2 c:/Espressif/ESP8266_SDK_210/lib\libwpa.a(wpa.o)
 *fill*         0x4022b2f2        0x0 
 *fill*         0x4022b2f2        0x0 
 *fill*         0x4022b2f2        0x0 
 *fill*         0x4022b2f2        0x0 
 *fill*         0x4022b2f2        0x0 
 *fill*         0x4022b2f2        0x0 
 *fill*         0x4022b2f2        0x0 
 *fill*         0x4022b2f2        0x2 
 .literal.rsn_selector_to_bitfield
                0x4022b2f4        0x0 c:/Espressif/ESP8266_SDK_210/lib\libwpa.a(wpa_common.o)
 .literal.rsn_key_mgmt_to_bitfield
                0x4022b2f4        0x0 c:/Espressif/ESP8266_SDK_210/lib\libwpa.a(wpa_common.o)
 .literal.wpa_selector_to_bitfield
                0x4022b2f4        0x0 c:/Espressif/ESP8266_SDK_210/lib\libwpa.a(wpa_common.o)
 .literal.wpa_key_mgmt_to_bitfield
                0x4022b2f4        0x0 c:/Espressif/ESP8266_SDK_210/lib\libwpa.a(wpa_common.o)
 .literal.wpa_parse_wpa_ie_rsn
                0x4022b2f4        0x0 c:/Espressif/ESP8266_SDK_210/lib\libwpa.a(wpa_common.o)
 .literal.wpa_parse_wpa_ie_wpa
                0x4022b2f4        0x0 c:/Espressif/ESP8266_SDK_210/lib\libwpa.a(wpa_common.o)
 .literal.wpa_eapol_key_mic
                0x4022b2f4        0x0 c:/Espressif/ESP8266_SDK_210/lib\libwpa.a(wpa_common.o)
 .literal.wpa_compare_rsn_ie
                0x4022b2f4        0x0 c:/Espressif/ESP8266_SDK_210/lib\libwpa.a(wpa_common.o)
 .literal.wpa_pmk_to_ptk
                0x4022b2f4        0x0 c:/Espressif/ESP8266_SDK_210/lib\libwpa.a(wpa_common.o)
 .literal.rsn_pmkid
                0x4022b2f4        0x0 c:/Espressif/ESP8266_SDK_210/lib\libwpa.a(wpa_common.o)
 .literal.wpa_cipher_key_len
                0x4022b2f4        0x0 c:/Espressif/ESP8266_SDK_210/lib\libwpa.a(wpa_common.o)
 .literal.wpa_cipher_to_alg
                0x4022b2f4        0x0 c:/Espressif/ESP8266_SDK_210/lib\libwpa.a(wpa_common.o)
 .literal.wpa_cipher_to_suite
                0x4022b2f4        0x0 c:/Espressif/ESP8266_SDK_210/lib\libwpa.a(wpa_common.o)
 .literal.rsn_cipher_put_suites
                0x4022b2f4        0x0 c:/Espressif/ESP8266_SDK_210/lib\libwpa.a(wpa_common.o)
 .literal.wpa_cipher_put_suites
                0x4022b2f4        0x0 c:/Espressif/ESP8266_SDK_210/lib\libwpa.a(wpa_common.o)
 *fill*         0x4022b2f4        0x0 
 *fill*         0x4022b2f4        0x0 
 *fill*         0x4022b2f4        0x0 
 *fill*         0x4022b2f4        0x0 
 *fill*         0x4022b2f4        0x0 
 *fill*         0x4022b2f4        0x0 
 *fill*         0x4022b2f4        0x0 
 *fill*         0x4022b2f4        0x0 
 *fill*         0x4022b2f4        0x0 
 *fill*         0x4022b2f4        0x0 
 .text.wpa_cipher_key_len
                0x4022b2f4       0x24 c:/Espressif/ESP8266_SDK_210/lib\libwpa.a(wpa_common.o)
                0x4022b2f4                wpa_cipher_key_len
 .text.wpa_cipher_to_alg
                0x4022b318       0x23 c:/Espressif/ESP8266_SDK_210/lib\libwpa.a(wpa_common.o)
                0x4022b318                wpa_cipher_to_alg
 *fill*         0x4022b33b        0x0 
 *fill*         0x4022b33b        0x1 
 .text.rsn_cipher_put_suites
                0x4022b33c       0x60 c:/Espressif/ESP8266_SDK_210/lib\libwpa.a(wpa_common.o)
                0x4022b33c                rsn_cipher_put_suites
 .text.wpa_cipher_put_suites
                0x4022b39c       0x4a c:/Espressif/ESP8266_SDK_210/lib\libwpa.a(wpa_common.o)
                0x4022b39c                wpa_cipher_put_suites
 *fill*         0x4022b3e6        0x2 
 .literal._wpa_snprintf_hex
                0x4022b3e8        0x0 c:/Espressif/ESP8266_SDK_210/lib\libwpa.a(wpa_debug.o)
 .literal.wpa_snprintf_hex_uppercase
                0x4022b3e8        0x0 c:/Espressif/ESP8266_SDK_210/lib\libwpa.a(wpa_debug.o)
 .literal.wpa_snprintf_hex
                0x4022b3e8        0x0 c:/Espressif/ESP8266_SDK_210/lib\libwpa.a(wpa_debug.o)
 .literal.eloop_cancel_timeout
                0x4022b3e8        0x0 c:/Espressif/ESP8266_SDK_210/lib\libwpa.a(wpa_debug.o)
 .literal.eloop_register_timeout
                0x4022b3e8        0x0 c:/Espressif/ESP8266_SDK_210/lib\libwpa.a(wpa_debug.o)
 .text.eloop_cancel_timeout
                0x4022b3e8        0x4 c:/Espressif/ESP8266_SDK_210/lib\libwpa.a(wpa_debug.o)
                0x4022b3e8                eloop_cancel_timeout
 .text.eloop_register_timeout
                0x4022b3ec        0x4 c:/Espressif/ESP8266_SDK_210/lib\libwpa.a(wpa_debug.o)
                0x4022b3ec                eloop_register_timeout
 .literal.wpa_parse_wpa_ie
                0x4022b3f0        0x0 c:/Espressif/ESP8266_SDK_210/lib\libwpa.a(wpa_ie.o)
 .literal.wpa_parse_generic
                0x4022b3f0        0x0 c:/Espressif/ESP8266_SDK_210/lib\libwpa.a(wpa_ie.o)
 .literal.wpa_supplicant_parse_ies
                0x4022b3f0        0x0 c:/Espressif/ESP8266_SDK_210/lib\libwpa.a(wpa_ie.o)
 .literal.wpa_gen_wpa_ie_wpa
                0x4022b3f0        0x0 c:/Espressif/ESP8266_SDK_210/lib\libwpa.a(wpa_ie.o)
 .literal.wpa_gen_wpa_ie_rsn
                0x4022b3f0        0x0 c:/Espressif/ESP8266_SDK_210/lib\libwpa.a(wpa_ie.o)
 .literal.wpa_gen_wpa_ie
                0x4022b3f0        0x0 c:/Espressif/ESP8266_SDK_210/lib\libwpa.a(wpa_ie.o)
 *fill*         0x4022b3f0        0x0 
 *fill*         0x4022b3f0        0x0 
 *fill*         0x4022b3f0        0x0 
 .text.wpa_gen_wpa_ie_wpa
                0x4022b3f0       0xb7 c:/Espressif/ESP8266_SDK_210/lib\libwpa.a(wpa_ie.o)
 *fill*         0x4022b4a7        0x1 
 .text.wpa_gen_wpa_ie_rsn
                0x4022b4a8       0xa9 c:/Espressif/ESP8266_SDK_210/lib\libwpa.a(wpa_ie.o)
 *fill*         0x4022b551        0x0 
 *fill*         0x4022b551        0x3 
 .literal.ppInstallKey
                0x4022b554        0x0 c:/Espressif/ESP8266_SDK_210/lib\libwpa.a(wpa_main.o)
 .literal.wpa_sendto_wrapper
                0x4022b554        0x0 c:/Espressif/ESP8266_SDK_210/lib\libwpa.a(wpa_main.o)
 .literal.wpa_deauthenticate
                0x4022b554        0x0 c:/Espressif/ESP8266_SDK_210/lib\libwpa.a(wpa_main.o)
 .literal.wpa_config_profile
                0x4022b554        0x0 c:/Espressif/ESP8266_SDK_210/lib\libwpa.a(wpa_main.o)
 .literal.wpa_config_bss
                0x4022b554        0x0 c:/Espressif/ESP8266_SDK_210/lib\libwpa.a(wpa_main.o)
 .literal.wpa_config_assoc_ie
                0x4022b554        0x0 c:/Espressif/ESP8266_SDK_210/lib\libwpa.a(wpa_main.o)
 .literal.dhcp_bind_check
                0x4022b554        0x0 c:/Espressif/ESP8266_SDK_210/lib\libwpa.a(wpa_main.o)
 .literal.eagle_auth_done
                0x4022b554        0x0 c:/Espressif/ESP8266_SDK_210/lib\libwpa.a(wpa_main.o)
 .literal.wpa_neg_complete
                0x4022b554        0x0 c:/Espressif/ESP8266_SDK_210/lib\libwpa.a(wpa_main.o)
 .literal.wpa_attach
                0x4022b554        0x0 c:/Espressif/ESP8266_SDK_210/lib\libwpa.a(wpa_main.o)
 *fill*         0x4022b554        0x0 
 *fill*         0x4022b554        0x0 
 *fill*         0x4022b554        0x0 
 *fill*         0x4022b554        0x0 
 *fill*         0x4022b554        0x0 
 *fill*         0x4022b554        0x0 
 *fill*         0x4022b554        0x0 
 *fill*         0x4022b554        0x0 
 .literal.wpa_alloc_eapol
                0x4022b554        0x0 c:/Espressif/ESP8266_SDK_210/lib\libwpa.a(wpas_glue.o)
 .literal.wpa_sm_alloc_eapol
                0x4022b554        0x0 c:/Espressif/ESP8266_SDK_210/lib\libwpa.a(wpas_glue.o)
 .literal.wpa_sm_deauthenticate
                0x4022b554        0x0 c:/Espressif/ESP8266_SDK_210/lib\libwpa.a(wpas_glue.o)
 .literal.wpa_sm_mlme_setprotection
                0x4022b554        0x0 c:/Espressif/ESP8266_SDK_210/lib\libwpa.a(wpas_glue.o)
 .literal.wpa_sm_get_beacon_ie
                0x4022b554        0x0 c:/Espressif/ESP8266_SDK_210/lib\libwpa.a(wpas_glue.o)
 .literal.wpa_sm_disassociate
                0x4022b554        0x0 c:/Espressif/ESP8266_SDK_210/lib\libwpa.a(wpas_glue.o)
 *fill*         0x4022b554        0x0 
 *fill*         0x4022b554        0x0 
 .text.wpa_sm_deauthenticate
                0x4022b554       0x1a c:/Espressif/ESP8266_SDK_210/lib\libwpa.a(wpas_glue.o)
                0x4022b554                wpa_sm_deauthenticate
 *fill*         0x4022b56e        0x2 
 .text.wpa_sm_mlme_setprotection
                0x4022b570        0x4 c:/Espressif/ESP8266_SDK_210/lib\libwpa.a(wpas_glue.o)
                0x4022b570                wpa_sm_mlme_setprotection
 .text.wpa_sm_get_beacon_ie
                0x4022b574        0x4 c:/Espressif/ESP8266_SDK_210/lib\libwpa.a(wpas_glue.o)
                0x4022b574                wpa_sm_get_beacon_ie
 .text.wpa_sm_disassociate
                0x4022b578        0x2 c:/Espressif/ESP8266_SDK_210/lib\libwpa.a(wpas_glue.o)
                0x4022b578                wpa_sm_disassociate
 *libwpa2.a:(.literal.* .text.*)
 *libwps.a:(.literal.* .text.*)
 *libmbedtls.a:(.literal.* .text.*)
 *libm.a:(.literal .text .literal.* .text.*)
 *(.irom0.literal .irom.literal .irom.text.literal .irom0.text .irom.text)
 *fill*         0x4022b57a        0x2 
 .irom0.text    0x4022b57c      0xd51 c:/Espressif/ESP8266_SDK_210/lib\libmain.a(app_main.o)
                               0x1079 (size before relaxing)
                0x4022b58c                uart_div_modify
                0x4022b858                wdt_init
                0x4022b8f4                user_uart_wait_tx_fifo_empty
                0x4022bba4                wifi_set_backup_mac
                0x4022bbb0                system_phy_freq_trace_enable
                0x4022bbc0                flash_data_check
 *fill*         0x4022c2cd        0x3 
 .irom0.text    0x4022c2d0      0x172 c:/Espressif/ESP8266_SDK_210/lib\libmain.a(ets_timer.o)
                                0x1b2 (size before relaxing)
                0x4022c2d8                ets_timer_done
                0x4022c314                ets_timer_handler_isr
                0x4022c3e0                ets_timer_init
 *fill*         0x4022c442        0x2 
 .irom0.text    0x4022c444       0xe8 c:/Espressif/ESP8266_SDK_210/lib\libmain.a(mem_manager.o)
                                 0xf8 (size before relaxing)
                0x4022c444                check_memleak_debug_enable
                0x4022c4ac                xPortGetFreeHeapSize
                0x4022c4b4                vPortInitialiseBlocks
 .irom0.text    0x4022c52c     0x42b5 c:/Espressif/ESP8266_SDK_210/lib\libmain.a(user_interface.o)
                               0x4f7d (size before relaxing)
                0x4022c530                system_set_os_print
                0x4022c540                system_get_os_print
                0x4022c708                system_pp_recycle_rx_pkt
                0x4022c71c                system_adc_read
                0x4022c75c                system_adc_read_fast
                0x4022c7bc                system_get_vdd33
                0x4022c7e8                system_restart_hook
                0x4022c808                system_restart_local
                0x4022c8e4                system_restart
                0x4022c940                system_restore
                0x4022c9a8                system_get_flash_size_map
                0x4022c9c8                system_get_boot_version
                0x4022ca00                system_get_test_result
                0x4022ca24                system_get_userbin_addr
                0x4022cac0                system_get_boot_mode
                0x4022caf0                system_restart_enhance
                0x4022cc9c                system_upgrade_userbin_set
                0x4022cce8                system_upgrade_userbin_check
                0x4022cd28                system_upgrade_flag_set
                0x4022cd3c                system_upgrade_flag_check
                0x4022cd44                spi_flash_erase_protect_enable
                0x4022cd6c                spi_flash_erase_protect_disable
                0x4022cd80                spi_flash_erase_sector_check
                0x4022ce2c                system_get_current_sumlength
                0x4022cea4                get_irom0_bin_len
                0x4022cf0c                get_flash_bin_len
                0x4022d1d8                system_upgrade_reboot
                0x4022d4ec                system_deep_sleep_instant
                0x4022d544                system_deep_sleep
                0x4022d5e4                system_deep_sleep_set_option
                0x4022d600                system_phy_temperature_alert
                0x4022d614                system_phy_set_max_tpw
                0x4022d628                system_phy_set_tpw_via_vdd33
                0x4022d63c                system_phy_set_rfoption
                0x4022d650                system_phy_set_powerup_option
                0x4022d668                system_update_cpu_freq
                0x4022d6c4                system_get_cpu_freq
                0x4022d6e0                system_overclock
                0x4022d70c                system_restoreclock
                0x4022d73c                system_timer_reinit
                0x4022d754                system_relative_time
                0x4022d76c                system_station_got_ip_set
                0x4022d898                system_print_meminfo
                0x4022d8f8                system_get_free_heap_size
                0x4022d90c                system_get_chip_id
                0x4022d94c                system_rtc_clock_cali_proc
                0x4022d960                system_get_rtc_time
                0x4022d974                system_mktime
                0x4022da44                system_init_done_cb
                0x4022da4c                system_get_rst_info
                0x4022da54                system_get_data_of_array_8
                0x4022da78                system_get_data_of_array_16
                0x4022daa0                system_get_string_from_flash
                0x4022db0c                wifi_softap_dhcps_start
                0x4022db54                wifi_softap_dhcps_stop
                0x4022db94                wifi_softap_dhcps_status
                0x4022db9c                wifi_station_dhcpc_start
                0x4022dbf4                wifi_station_dhcpc_stop
                0x4022dc34                wifi_station_dhcpc_event
                0x4022dca8                wifi_station_dhcpc_set_maxtry
                0x4022dcb8                wifi_station_dhcpc_status
                0x4022dd38                wifi_get_opmode
                0x4022dd4c                wifi_get_opmode_default
                0x4022ddc4                wifi_get_broadcast_if
                0x4022de00                wifi_set_broadcast_if
                0x4022dfc4                wifi_set_opmode
                0x4022dfd8                wifi_set_opmode_current
                0x4022dfec                system_get_checksum
                0x4022e034                wifi_param_save_protect_with_check
                0x4022e0f4                system_param_save_with_protect
                0x4022e1a8                system_save_sys_param
                0x4022e1d4                system_param_load
                0x4022e318                wifi_station_get_config
                0x4022e32c                wifi_station_get_config_default
                0x4022e34c                wifi_station_get_ap_info
                0x4022e40c                wifi_station_ap_number_set
                0x4022e8c8                wifi_station_set_config
                0x4022e8e0                wifi_station_set_config_current
                0x4022e8f8                wifi_station_restore_config
                0x4022e910                wifi_station_get_current_ap_id
                0x4022e924                wifi_station_ap_check
                0x4022e968                wifi_station_ap_change
                0x4022ea80                wifi_station_scan
                0x4022eacc                wifi_station_get_auto_connect
                0x4022eaec                wifi_station_set_auto_connect
                0x4022eba4                wifi_station_save_pmk2cache
                0x4022ecd4                wifi_station_save_bssid
                0x4022ed70                wifi_station_connect
                0x4022ee04                wifi_station_disconnect
                0x4022eec4                wifi_station_get_connect_status
                0x4022eef4                wifi_station_set_reconnect_policy
                0x4022ef0c                wifi_station_get_reconnect_policy
                0x4022ef14                wifi_station_get_rssi
                0x4022ef64                wifi_station_set_default_hostname
                0x4022efcc                wifi_station_get_hostname
                0x4022effc                wifi_station_set_hostname
                0x4022f098                wifi_softap_cacl_mac
                0x4022f0fc                wifi_softap_set_default_ssid
                0x4022f2dc                wifi_softap_get_config
                0x4022f2f0                wifi_softap_get_config_default
                0x4022f61c                wifi_softap_set_config
                0x4022f630                wifi_softap_set_config_current
                0x4022f644                wifi_softap_set_station_info
                0x4022f6b4                wifi_softap_get_station_info
                0x4022f760                wifi_softap_free_station_info
                0x4022f7a0                wifi_softap_get_station_num
                0x4022f7f0                wifi_softap_deauth
                0x4022f8e0                wifi_softap_get_beacon_only_mode
                0x4022f8f4                wifi_softap_set_beacon_only_mode
                0x4022f958                wifi_register_user_ie_manufacturer_recv_cb
                0x4022f96c                wifi_unregister_user_ie_manufacturer_recv_cb
                0x4022f99c                wifi_set_user_ie
                0x4022faac                wifi_get_user_ie
                0x4022fae0                wifi_get_phy_mode
                0x4022faf4                wifi_set_phy_mode
                0x4022fca8                wifi_check_regdomain_param
                0x4022fd2c                wifi_regdomain_need_update
                0x4022fe04                wifi_set_regdomain
                0x4022ff3c                wifi_get_regdomain
                0x4022ffec                wifi_set_sleep_type
                0x4023000c                wifi_enable_gpio_wakeup
                0x40230038                wifi_disable_gpio_wakeup
                0x40230050                wifi_get_sleep_type
                0x40230064                wifi_get_channel
                0x4023007c                wifi_set_channel
                0x402300d0                wifi_promiscuous_set_mac
                0x4023012c                wifi_promiscuous_enable
                0x40230210                wifi_set_promiscuous_rx_cb
                0x40230218                wifi_get_ip_info
                0x40230298                wifi_set_ip_info
                0x4023030c                wifi_get_macaddr
                0x4023036c                wifi_set_macaddr
                0x40230490                wifi_enable_6m_rate
                0x40230498                wifi_get_user_fixed_rate
                0x402304b8                wifi_set_user_fixed_rate
                0x402304d8                wifi_set_user_sup_rate
                0x40230514                wifi_set_user_rate_limit
                0x40230538                wifi_get_user_limit_rate_mask
                0x40230540                wifi_set_user_limit_rate_mask
                0x40230558                wifi_register_send_pkt_freedom_cb
                0x4023056c                wifi_unregister_send_pkt_freedom_cb
                0x40230578                wifi_send_pkt_freedom
                0x402305c4                wifi_rfid_locp_recv_open
                0x402305d8                wifi_rfid_locp_recv_close
                0x402305ec                wifi_register_rfid_locp_recv_cb
                0x40230600                wifi_unregister_rfid_locp_recv_cb
                0x40230618                wifi_status_led_install
                0x4023064c                wifi_status_led_uninstall
                0x40230670                wifi_set_status_led_output_level
                0x402306c4                wifi_set_event_handler_cb
                0x4023070c                system_os_task
                0x40230748                system_uart_swap
                0x402307a8                system_uart_de_swap
                0x402307dc                system_get_sdk_version
 *fill*         0x402307e1        0x3 
 .irom0.text    0x402307e4        0xb c:/Espressif/ESP8266_SDK_210/lib\libmain.a(spi_flash.o)
                0x402307e8                spi_flash_set_read_func
 *fill*         0x402307ef        0x1 
 .irom0.text    0x402307f0      0x60c c:/Espressif/ESP8266_SDK_210/lib\libmain.a(eagle_lib.o)
                                0x620 (size before relaxing)
                0x402307f0                divide
                0x4023082c                skip_atoi
                0x402309ac                ets_vsnprintf
                0x40230d0c                ets_vsprintf
                0x40230d30                ets_sprintf
                0x40230d58                ets_strcat
                0x40230d78                ets_strrchr
                0x40230da4                ets_strchr
                0x40230dbc                bit_popcount
                0x40230dd8                ets_snprintf
 .irom0.text    0x40230dfc      0x31e c:/Espressif/ESP8266_SDK_210/lib\libmain.a(eagle_lwip_if.o)
                                0x3e6 (size before relaxing)
                0x40230eb4                eagle_lwip_if_alloc
                0x40231074                eagle_lwip_if_free
                0x402310f8                eagle_lwip_getif
 *fill*         0x4023111a        0x2 
 .irom0.text    0x4023111c      0x204 build/debug/app_app.a(user_main.o)
                                0x2a4 (size before relaxing)
                0x402312b0                user_rf_cal_sector_set
                0x402312ec                user_init
 .irom0.text    0x40231320       0xd5 build/debug/app_app.a(hw_timer.o)
                                 0xf1 (size before relaxing)
                0x40231338                hw_timer_restart
                0x402313c4                hw_timer_disable
 *fill*         0x402313f5        0x3 
 .irom0.text    0x402313f8      0x4b9 build/debug/app_app.a(easygpio.o)
                                0x4f5 (size before relaxing)
                0x402313f8                easygpio_countBits
                0x40231450                easygpio_getGPIONameFunc
                0x4023157c                easygpio_pullMode
                0x402315d0                easygpio_pinMode
                0x40231700                easygpio_attachInterrupt
                0x402317e0                easygpio_detachInterrupt
                0x4023180c                easygpio_outputDisable
                0x4023184c                easygpio_outputEnable
 *fill*         0x402318b1        0x3 
 .irom0.text    0x402318b4       0xc9 build/debug/app_app.a(stdout.o)
                                 0xe1 (size before relaxing)
                0x40231908                stdout_init
 *fill*         0x4023197d        0x3 
 .irom0.text    0x40231980       0xfa c:/Espressif/ESP8266_SDK_210/lib\libphy.a(phy.o)
                                0x11e (size before relaxing)
                0x40231984                rf_init
                0x402319a0                bb_init
                0x402319b8                phy_init
                0x402319e8                RFChannelSel
                0x40231a04                phy_delete_channel
                0x40231a1c                phy_enable_agc
                0x40231a34                phy_disable_agc
                0x40231a4c                phy_initialize_bb
                0x40231a64                phy_set_sense
 *fill*         0x40231a7a        0x2 
 .irom0.text    0x40231a7c     0x1797 c:/Espressif/ESP8266_SDK_210/lib\libphy.a(phy_chip_v6_ana.o)
                               0x19b7 (size before relaxing)
                0x40231a80                ram_pbus_set_rxgain
                0x40231b54                ram_pbus_debugmode
                0x40231c08                ram_pbus_xpd_tx_on
                0x40231c74                set_rf_freq_offset
                0x40231ce4                chip_v6_rxmax_ext_ana
                0x40231e38                ram_chip_v6_rx_init
                0x40231e68                tsen_meas
                0x40231f14                readvdd33
                0x402320e0                txpwr_offset
                0x4023219c                set_txcap_reg
                0x4023221c                ram_ana_inf_gating_en
                0x4023237c                ram_restart_cal
                0x402323e8                wait_rfpll_cal_end
                0x40232480                ram_rfpll_set_freq
                0x40232584                ram_set_channel_freq
                0x40232888                chip_60_set_channel
                0x40232a50                chip_v6_set_chan_offset
                0x40232ab0                chip_v6_set_chan
                0x40232b60                chip_v6_set_chan_wakeup
                0x40232be0                chip_v6_rf_init
                0x40232e44                low_power_set
                0x40232e94                test_tout
                0x4023300c                check_data_flag
                0x4023302c                phy_get_check_flag
                0x40233160                phy_get_vdd33
 *fill*         0x40233213        0x1 
 .irom0.text    0x40233214     0x3e0c c:/Espressif/ESP8266_SDK_210/lib\libphy.a(phy_chip_v6.o)
                               0x44d0 (size before relaxing)
                0x40233214                ram_tx_mac_enable
                0x40233218                ram_tx_mac_disable
                0x4023321c                rtc_mem_backup
                0x4023324c                rtc_mem_recovery
                0x4023327c                set_cal_rxdc
                0x40233330                set_rx_gain_cal_iq
                0x40233688                gen_rx_gain_table
                0x402337e0                pbus_set_rxbbgain
                0x40233860                set_rx_gain_testchip_50
                0x40233b94                ram_get_corr_power
                0x40233c84                check_data_func
                0x40233ca4                do_noisefloor_lsleep_v50
                0x40233cd8                do_noisefloor
                0x40233d48                start_dig_rx
                0x40233d8c                stop_dig_rx
                0x40233db8                chip_v6_set_chanfreq
                0x40233de4                tx_cap_init
                0x4023400c                target_power_add_backoff
                0x40234038                tx_pwctrl_init_cal
                0x402341d8                tx_atten_set_interp
                0x40234438                check_tx_pwr_cal
                0x4023457c                tx_pwctrl_init
                0x402346a0                ram_get_noisefloor
                0x402346bc                get_noisefloor_sat
                0x402346ec                ram_set_noise_floor
                0x40234748                ram_start_noisefloor
                0x40234790                read_hw_noisefloor
                0x402347bc                noise_check_loop
                0x40234914                noise_init
                0x40234b14                target_power_backoff
                0x40234b68                sdt_on_noise_start
                0x40234be8                chip_v6_set_chan_rx_cmp
                0x40234d74                chip_v6_set_chan_misc
                0x40234e04                phy_dig_spur_set
                0x4023515c                phy_dig_spur_prot
                0x40235394                chip_v6_rxmax_ext_dig
                0x402353e0                chip_v6_rxmax_ext
                0x40235488                phy_bb_rx_cfg
                0x402358a0                uart_wait_idle
                0x402358d8                phy_pbus_soc_cfg
                0x40235990                phy_gpio_cfg
                0x40235ba8                tx_cont_en
                0x40235c50                tx_cont_dis
                0x40235ca4                tx_cont_cfg
                0x40235cc4                chip_v6_initialize_bb
                0x40235e28                periodic_cal
                0x40235e60                bbpll_cal
                0x40235f08                periodic_cal_top
                0x40235f6c                register_chipv6_phy_init_param
                0x40236214                change_bbpll160_sleep
                0x402363c4                change_bbpll160
                0x402363fc                set_crystal_uart
                0x4023648c                ant_switch_init
                0x4023653c                reduce_current_init
                0x40236628                rtc_mem_check
                0x40236664                phy_afterwake_set_rfoption
                0x40236680                deep_sleep_set_option
                0x402366ac                write_data_to_rtc
                0x402366e4                get_data_from_rtc
                0x40236768                register_chipv6_phy
                0x40236bd8                set_dpd_bypass
                0x40236c00                set_rf_gain_stage10
                0x40236c30                get_vdd33_offset
                0x40236ca4                get_phy_target_power
                0x40236d54                set_most_pwr_reg
                0x40236e28                phy_set_most_tpw
                0x40236e48                phy_vdd33_set_tpw
                0x40236e60                get_adc_rand
                0x40236e90                phy_get_rand
                0x40236ea8                phy_tx_pwctrl_cali
                0x40236ed0                phy_check_data_table
                0x40236f0c                phy_after_init_enrx
                0x40236f70                phy_set_rx11b_reg
                0x40236fa4                phy_set_powerup_option
                0x40236fb4                phy_get_txpwr_param
                0x40237000                phy_get_rxnf_param
                0x4023700c                phy_get_freq_param
 .irom0.text    0x40237020     0x2198 c:/Espressif/ESP8266_SDK_210/lib\libphy.a(phy_chip_v6_cal.o)
                               0x23d4 (size before relaxing)
                0x40237020                txbbgain2dcoindex
                0x40237040                dcoindex2txbbgain
                0x40237064                init_cal_dcoffset
                0x40237128                set_rfanagain_dc_reg
                0x402371c4                set_txdc_pbus
                0x40237230                get_rf_gain_qdb
                0x40237258                correct_rf_ana_gain
                0x40237360                get_sar_dout
                0x402373f0                cal_rf_ana_gain
                0x40237508                meas_tone_pwr_db
                0x40237578                tx_pwr_backoff
                0x4023772c                get_fcc_1m2m_pwr_offset
                0x40237768                ram_set_txbb_atten
                0x402377fc                txiq_get_mis_pwr
                0x402378a0                txiq_cover
                0x40237ab8                ram_rfcal_txiq
                0x40237d24                rc_cal
                0x40237ee4                get_target_power_offset
                0x40237fec                get_pwctrl_correct
                0x40238044                tx_pwctrl_cal
                0x40238340                tx_pwctrl_bg_init
                0x402383b8                tx_pwctrl_background
                0x40238470                read_sar_dout
                0x402384d4                ram_get_fm_sar_dout
                0x40238578                ram_cal_tos_v60
                0x40238748                ram_get_bb_atten
                0x40238778                ram_rfcal_txcap
                0x4023893c                ram_rfcal_pwrctrl
                0x40238b78                ram_rxiq_get_mis
                0x40238d44                ram_rxiq_cover_mg_mp
                0x40238ee8                ram_rfcal_rxiq
                0x402390f4                dpd_scale_set
                0x4023913c                dpd_mem_write
 .irom0.text    0x402391b8      0xcde c:/Espressif/ESP8266_SDK_210/lib\libphy.a(phy_sleep.o)
                                0xefe (size before relaxing)
                0x402391b8                pm_usec2rtc
                0x402391f0                pm_usec2rtc_64
                0x40239244                pm_rtc2usec
                0x40239250                pm_set_sleep_cycles
                0x40239278                pm_sleep_opt
                0x402393cc                pm_wakeup_opt
                0x40239404                get_chip_version
                0x40239444                pm_sleep_opt_bb_off
                0x40239490                pm_sleep_opt_bb_on
                0x402394e4                pm_set_pll_xtal_wait_time
                0x40239510                pm_prepare_to_sleep
                0x40239518                pm_sdio_nidle
                0x4023958c                chg_lslp_mem_opt_8266
                0x402395ac                pm_wait4wakeup
                0x402395e8                pm_open_rf
                0x40239628                pm_sleep_set_mac
                0x402396ac                pm_set_wakeup_mac
                0x40239744                pm_check_mac_idle
                0x4023979c                pm_set_sleep_btco
                0x4023983c                pm_set_wakeup_btco
                0x40239954                pm_set_sleep_mode
                0x40239a74                pm_unmask_bt
                0x40239ae0                pm_wakeup_init
                0x40239d3c                sleep_opt_8266
                0x40239d5c                sleep_opt_bb_on_8266
                0x40239d94                sleep_reset_analog_rtcreg_8266
 *fill*         0x40239e96        0x2 
 .irom0.text    0x40239e98      0x48d c:/Espressif/ESP8266_SDK_210/lib\libpp.a(if_hwctrl.o)
                                0x5bd (size before relaxing)
                0x40239eb8                ic_get_addr
                0x40239ec4                ic_set_opmode
                0x40239ed8                ic_enable_interface
                0x40239f28                ic_interface_enabled
                0x40239f3c                ic_disable_interface
                0x40239f84                ic_is_pure_sta
                0x40239fa0                ic_get_ptk_alg
                0x40239fb0                ic_get_gtk_alg
                0x40239fc0                ic_set_ptk_alg
                0x40239fd0                ic_set_gtk_alg
                0x40239fe0                ic_interface_is_p2p
                0x4023a078                ic_set_vif
                0x4023a134                ic_set_sta
                0x4023a234                ic_bss_info_update
                0x4023a290                ic_set_key
                0x4023a2ec                ic_remove_key
                0x4023a300                ic_get_rssi
 *fill*         0x4023a325        0x3 
 .irom0.text    0x4023a328      0x100 c:/Espressif/ESP8266_SDK_210/lib\libpp.a(lmac.o)
                                0x118 (size before relaxing)
                0x4023a32c                lmacInitAc
                0x4023a360                lmacInit
                0x4023a40c                lmacSetRetryLimit
 .irom0.text    0x4023a428     0x1a0d c:/Espressif/ESP8266_SDK_210/lib\libpp.a(pm.o)
                               0x1fbd (size before relaxing)
                0x4023a42c                pm_set_gpio_wakeup_pin
                0x4023a464                pm_clear_gpio_wakeup_pin
                0x4023a474                pm_is_gpio_int_trig
                0x4023a488                pm_rtc_clock_cali_proc
                0x4023a4c0                pm_get_ck170_period
                0x4023a4e4                pm_set_sleep_time
                0x4023a7a8                pm_rf_is_closed
                0x4023a7d8                pm_set_sleep_type_from_upper
                0x4023a8c8                pm_get_sleep_type
                0x4023aa84                uart_tx_flush
                0x4023aa88                pm_suspend
                0x4023aca4                pm_shutdown
                0x4023ad88                pm_reset_idle_sleep
                0x4023adc8                pm_idle_sleep
                0x4023ade0                pm_open
                0x4023af18                pm_onBcnRx
                0x4023b2ac                StopLightSleepSetFunc
                0x4023b2b4                LightSleepWakedCbSetFunc
                0x4023b878                pm_enable_gpio_wakeup
                0x4023b8b4                pm_attach
                0x4023b9a0                pm_send_nullfunc
                0x4023bb44                pm_is_waked
                0x4023bb5c                pm_is_open
                0x4023bb74                pm_scan_lock
                0x4023bb9c                pm_try_scan_unlock
                0x4023bbb4                pm_force_scan_unlock
                0x4023bc58                pm_scan_unlocked
                0x4023bc6c                pm_allow_tx
                0x4023bc88                pm_assoc_parse
                0x4023bca0                pm_set_addr
                0x4023bcc0                pm_sleep_for
                0x4023bcf0                pm_post
                0x4023bdf4                pm_get_idle_wait_time
 *fill*         0x4023be35        0x3 
 .irom0.text    0x4023be38      0xb38 c:/Espressif/ESP8266_SDK_210/lib\libpp.a(pm_for_bcn_only_mode.o)
                                0xee4 (size before relaxing)
                0x4023be4c                wifi_fpm_set_sleep_type
                0x4023be4c                fpm_set_type_from_upper
                0x4023bf08                fpm_get_slp_type
                0x4023bf08                wifi_fpm_get_sleep_type
                0x4023bf10                fpm_rf_is_closed
                0x4023bf24                fpm_is_open
                0x4023bf30                fpm_allow_tx
                0x4023bf58                fpm_close
                0x4023bf58                wifi_fpm_close
                0x4023bfe8                wifi_fpm_open
                0x4023bfe8                fpm_open
                0x4023c06c                fpm_attach
                0x4023c220                wifi_fpm_set_wakeup_cb
                0x4023c220                fpm_set_wakeup_cb
                0x4023c35c                fpm_do_wakeup
                0x4023c35c                wifi_fpm_do_wakeup
                0x4023c888                fpm_do_sleep
                0x4023c888                wifi_fpm_do_sleep
                0x4023c928                fpm_auto_sleep_set_in_null_mode
                0x4023c928                wifi_fpm_auto_sleep_set_in_null_mode
                0x4023c968                get_fpm_auto_sleep_flag
 .irom0.text    0x4023c970     0x19a2 c:/Espressif/ESP8266_SDK_210/lib\libpp.a(pp.o)
                               0x1e52 (size before relaxing)
                0x4023c97c                PPWdtReset
                0x4023c9b0                pp_soft_wdt_init
                0x4023c9d0                pp_soft_wdt_feed
                0x4023c9d0                system_soft_wdt_feed
                0x4023c9ec                system_soft_wdt_stop
                0x4023c9ec                pp_soft_wdt_stop
                0x4023ca18                pp_soft_wdt_restart
                0x4023ca18                system_soft_wdt_restart
                0x4023ca50                RxNodeNum
                0x4023ca68                TxNodeNum
                0x4023ca8c                pp_disable_noise_timer
                0x4023caac                pp_enable_noise_timer
                0x4023cbbc                pp_noise_test
                0x4023cbcc                reset_noise_timer
                0x4023cc04                pp_disable_idle_timer
                0x4023cc28                pp_enable_idle_timer
                0x4023cc50                pp_try_enable_idle_timer
                0x4023cc8c                ppPeocessRxPktHdr
                0x4023cfc4                HdlAllBuffedEb
                0x4023d09c                ppTxPkt
                0x4023d214                ppProcessWaitQ
                0x4023d224                ppRegisterTxCallback
                0x4023d24c                ppUnregisterTxCallback
                0x4023d280                ppRecycleRxPkt
                0x4023d2e0                ppCheckTxIdle
                0x4023d558                pp_tx_idle_timeout
                0x4023d718                freq_change_sta_scan_force_enable
                0x4023d720                freq_changle_sta_scan_do_cb
                0x4023d7c8                freq_change_check_scan_start
                0x4023d7e8                freq_change_check_scan_done
                0x4023d98c                freq_change_check_scan_work
                0x4023d9c8                DefFreqCalTimerCB
                0x4023de34                ppGetTxQFirstAvail_Locked
                0x4023df10                pp_attach
 *fill*         0x4023e312        0x2 
 .irom0.text    0x4023e314      0x296 c:/Espressif/ESP8266_SDK_210/lib\libpp.a(rate_control.o)
                                0x2a2 (size before relaxing)
                0x4023e560                RC_SetBasicRate
 *fill*         0x4023e5aa        0x2 
 .irom0.text    0x4023e5ac      0x5e9 c:/Espressif/ESP8266_SDK_210/lib\libpp.a(trc.o)
                                0x64d (size before relaxing)
                0x4023e5ac                phytype2mode
                0x4023e5c8                rc_set_rate_limit_id
                0x4023e6e4                rcUpdatePhyMode
                0x4023e8b0                rcAttach
                0x4023e8fc                rcGetTrc
                0x4023e904                trc_onDisconnect
                0x4023e908                trc_onScanStart
                0x4023e91c                trc_onScanDone
                0x4023e938                rc_enable_trc
                0x4023ea10                rc_get_mask
                0x4023ea24                rc_disable_trc
                0x4023ea78                rc_disable_trc_by_interface
                0x4023ea94                rc_get_sta_trc
                0x4023ead8                rc_get_trc
                0x4023eb48                rc_get_trc_by_index
                0x4023eb68                rc_only_sta_trc
 *fill*         0x4023eb95        0x3 
 .irom0.text    0x4023eb98      0xc0f c:/Espressif/ESP8266_SDK_210/lib\libpp.a(wdev.o)
                                0xd8b (size before relaxing)
                0x4023eba4                wDev_Option_Init
                0x4023ec98                wDev_Enable_Beacon_Tsf
                0x4023ecb4                wDev_Disable_Beacon_Tsf
                0x4023ecd0                wDev_Set_Beacon_Int
                0x4023ecd8                wDev_Reset_TBTT
                0x4023ed08                wDev_Get_Next_TBTT
                0x4023ef84                wDev_Initialize
                0x4023eff4                wDevForceAck6M
                0x4023f010                wDev_SetMacAddress
                0x4023f0ac                wDev_SetRxPolicy
                0x4023f100                wDev_EnableUcRx
                0x4023f12c                wDev_DisableUcRx
                0x4023f158                wDev_SetBssid
                0x4023f230                wDev_ClearBssid
                0x4023f264                wDev_Is_Mac_Key_Exist
                0x4023f2f0                wDev_Insert_KeyEntry
                0x4023f424                wDev_remove_KeyEntry
                0x4023f460                wDev_remove_KeyEntry_all_cnx
                0x4023f4a8                wDev_Crypto_Conf
                0x4023f544                wDev_Crypto_Disable
                0x4023f57c                wDevEnableRx
                0x4023f5a4                wdev_go_sniffer
                0x4023f680                wdev_set_sniffer_addr
                0x4023f6d8                wdev_exit_sniffer
 *fill*         0x4023f7a7        0x1 
 .irom0.text    0x4023f7a8      0x3ed c:/Espressif/ESP8266_SDK_210/lib\libpp.a(esf_buf.o)
                                0x4c1 (size before relaxing)
                0x4023f7b0                esf_buf_alloc
                0x4023f998                esf_buf_recycle
                0x4023fad8                esf_buf_setup
 *fill*         0x4023fb95        0x3 
 .irom0.literal
                0x4023fb98        0x0 c:/Espressif/ESP8266_SDK_210/lib\libmain.a(app_main.o)
 *fill*         0x4023fb98        0x8 
 .irom.text     0x4023fba0      0x530 c:/Espressif/ESP8266_SDK_210/lib\libmain.a(app_main.o)
 .irom0.literal
                0x402400d0        0x0 c:/Espressif/ESP8266_SDK_210/lib\libmain.a(ets_timer.o)
 *fill*         0x402400d0        0x0 
 .irom.text     0x402400d0      0x14c c:/Espressif/ESP8266_SDK_210/lib\libmain.a(ets_timer.o)
 .irom0.literal
                0x4024021c        0x0 c:/Espressif/ESP8266_SDK_210/lib\libmain.a(mem_manager.o)
 *fill*         0x4024021c        0x4 
 .irom.text     0x40240220       0x11 c:/Espressif/ESP8266_SDK_210/lib\libmain.a(mem_manager.o)
 *fill*         0x40240231        0x3 
 .irom0.literal
                0x40240234        0x0 c:/Espressif/ESP8266_SDK_210/lib\libmain.a(user_interface.o)
 *fill*         0x40240234        0xc 
 .irom.text     0x40240240      0x425 c:/Espressif/ESP8266_SDK_210/lib\libmain.a(user_interface.o)
                0x40240260                default_ssid
 *fill*         0x40240665        0x3 
 .irom0.literal
                0x40240668        0x0 c:/Espressif/ESP8266_SDK_210/lib\libmain.a(spi_flash.o)
 *fill*         0x40240668        0x8 
 .irom.text     0x40240670      0x12f c:/Espressif/ESP8266_SDK_210/lib\libmain.a(spi_flash.o)
 *fill*         0x4024079f        0x1 
 .irom0.literal
                0x402407a0        0x0 c:/Espressif/ESP8266_SDK_210/lib\libmain.a(eagle_lib.o)
 .irom0.literal
                0x402407a0        0x0 c:/Espressif/ESP8266_SDK_210/lib\libmain.a(eagle_lwip_if.o)
 *fill*         0x402407a0        0x0 
 .irom.text     0x402407a0       0x63 c:/Espressif/ESP8266_SDK_210/lib\libmain.a(eagle_lwip_if.o)
 *fill*         0x40240803        0x1 
 .irom0.literal
                0x40240804        0x0 build/debug/app_app.a(user_main.o)
 .irom0.literal
                0x40240804        0x0 build/debug/app_app.a(hw_timer.o)
 *fill*         0x40240804        0x0 
 .irom0.literal
                0x40240804        0x0 build/debug/app_app.a(easygpio.o)
 *fill*         0x40240804        0x0 
 .irom0.literal
                0x40240804        0x0 build/debug/app_app.a(stdout.o)
 *fill*         0x40240804        0x0 
 .irom0.literal
                0x40240804        0x0 c:/Espressif/ESP8266_SDK_210/lib\libphy.a(phy.o)
 *fill*         0x40240804        0x0 
 .irom0.literal
                0x40240804        0x0 c:/Espressif/ESP8266_SDK_210/lib\libphy.a(phy_chip_v6_ana.o)
 *fill*         0x40240804        0xc 
 .irom.text     0x40240810       0x65 c:/Espressif/ESP8266_SDK_210/lib\libphy.a(phy_chip_v6_ana.o)
 *fill*         0x40240875        0x3 
 .irom0.literal
                0x40240878        0x0 c:/Espressif/ESP8266_SDK_210/lib\libphy.a(phy_chip_v6.o)
 *fill*         0x40240878        0x8 
 .irom.text     0x40240880      0x14c c:/Espressif/ESP8266_SDK_210/lib\libphy.a(phy_chip_v6.o)
 .irom0.literal
                0x402409cc        0x0 c:/Espressif/ESP8266_SDK_210/lib\libphy.a(phy_chip_v6_cal.o)
 *fill*         0x402409cc        0x4 
 .irom.text     0x402409d0      0x1f4 c:/Espressif/ESP8266_SDK_210/lib\libphy.a(phy_chip_v6_cal.o)
 .irom0.literal
                0x40240bc4        0x0 c:/Espressif/ESP8266_SDK_210/lib\libphy.a(phy_chip_v6_unused.o)
 .irom0.text    0x40240bc4        0xc c:/Espressif/ESP8266_SDK_210/lib\libphy.a(phy_chip_v6_unused.o)
                0x40240bc4                chip_v6_set_sense
                0x40240bc8                chip_v6_get_sense
                0x40240bcc                chip_v6_unset_chanfreq
 .irom0.literal
                0x40240bd0        0x0 c:/Espressif/ESP8266_SDK_210/lib\libphy.a(phy_sleep.o)
 *fill*         0x40240bd0        0x0 
 .irom0.literal
                0x40240bd0        0x0 c:/Espressif/ESP8266_SDK_210/lib\libpp.a(if_hwctrl.o)
 *fill*         0x40240bd0        0x0 
 .irom.text     0x40240bd0       0x50 c:/Espressif/ESP8266_SDK_210/lib\libpp.a(if_hwctrl.o)
 .irom0.literal
                0x40240c20        0x0 c:/Espressif/ESP8266_SDK_210/lib\libpp.a(lmac.o)
 *fill*         0x40240c20        0x0 
 .irom.text     0x40240c20       0x2f c:/Espressif/ESP8266_SDK_210/lib\libpp.a(lmac.o)
 *fill*         0x40240c4f        0x1 
 .irom0.literal
                0x40240c50        0x0 c:/Espressif/ESP8266_SDK_210/lib\libpp.a(pm.o)
 *fill*         0x40240c50        0x0 
 .irom.text     0x40240c50      0x14d c:/Espressif/ESP8266_SDK_210/lib\libpp.a(pm.o)
 *fill*         0x40240d9d        0x3 
 .irom0.literal
                0x40240da0        0x0 c:/Espressif/ESP8266_SDK_210/lib\libpp.a(pm_for_bcn_only_mode.o)
 *fill*         0x40240da0        0x0 
 .irom.text     0x40240da0      0x118 c:/Espressif/ESP8266_SDK_210/lib\libpp.a(pm_for_bcn_only_mode.o)
 .irom0.literal
                0x40240eb8        0x0 c:/Espressif/ESP8266_SDK_210/lib\libpp.a(pp.o)
 *fill*         0x40240eb8        0x8 
 .irom.text     0x40240ec0       0x6e c:/Espressif/ESP8266_SDK_210/lib\libpp.a(pp.o)
 *fill*         0x40240f2e        0x2 
 .irom0.literal
                0x40240f30        0x0 c:/Espressif/ESP8266_SDK_210/lib\libpp.a(rate_control.o)
 *fill*         0x40240f30        0x0 
 .irom0.literal
                0x40240f30        0x0 c:/Espressif/ESP8266_SDK_210/lib\libpp.a(trc.o)
 *fill*         0x40240f30        0x0 
 .irom.text     0x40240f30       0x38 c:/Espressif/ESP8266_SDK_210/lib\libpp.a(trc.o)
 .irom0.literal
                0x40240f68        0x0 c:/Espressif/ESP8266_SDK_210/lib\libpp.a(wdev.o)
 *fill*         0x40240f68        0x0 
 .irom.text     0x40240f68        0x7 c:/Espressif/ESP8266_SDK_210/lib\libpp.a(wdev.o)
 *fill*         0x40240f6f        0x1 
 .irom0.literal
                0x40240f70        0x0 c:/Espressif/ESP8266_SDK_210/lib\libpp.a(esf_buf.o)
 *fill*         0x40240f70        0x0 
 .irom.text     0x40240f70        0xa c:/Espressif/ESP8266_SDK_210/lib\libpp.a(esf_buf.o)
 *fill*         0x40240f7a        0x6 
 .irom.text     0x40240f80       0x82 c:/Espressif/ESP8266_SDK_210/lib\libnet80211.a(ieee80211.o)
                0x40240f90                ieee80211_opcap
 *fill*         0x40241002        0xe 
 .irom.text     0x40241010       0x4d c:/Espressif/ESP8266_SDK_210/lib\libnet80211.a(ieee80211_hostap.o)
 *fill*         0x4024105d        0x3 
 .irom.text     0x40241060       0x19 c:/Espressif/ESP8266_SDK_210/lib\libnet80211.a(ieee80211_ht.o)
 *fill*         0x40241079        0x7 
 .irom.text     0x40241080       0x12 c:/Espressif/ESP8266_SDK_210/lib\libnet80211.a(ieee80211_input.o)
 *fill*         0x40241092        0xe 
 .irom.text     0x402410a0       0x43 c:/Espressif/ESP8266_SDK_210/lib\libnet80211.a(ieee80211_mesh_quick.o)
 *fill*         0x402410e3        0xd 
 .irom.text     0x402410f0       0x3d c:/Espressif/ESP8266_SDK_210/lib\libnet80211.a(ieee80211_output.o)
 *fill*         0x4024112d        0x3 
 .irom.text     0x40241130      0x1b8 c:/Espressif/ESP8266_SDK_210/lib\libnet80211.a(ieee80211_phy.o)
 *fill*         0x402412e8        0x8 
 .irom.text     0x402412f0       0x1c c:/Espressif/ESP8266_SDK_210/lib\libnet80211.a(ieee80211_proto.o)
 *fill*         0x4024130c        0x4 
 .irom.text     0x40241310       0x2b c:/Espressif/ESP8266_SDK_210/lib\libnet80211.a(ieee80211_regdomain.o)
 *fill*         0x4024133b        0x5 
 .irom.text     0x40241340       0x89 c:/Espressif/ESP8266_SDK_210/lib\libnet80211.a(ieee80211_scan.o)
 *fill*         0x402413c9        0x7 
 .irom.text     0x402413d0       0x26 c:/Espressif/ESP8266_SDK_210/lib\libnet80211.a(ieee80211_sta.o)
 *fill*         0x402413f6        0xa 
 .irom.text     0x40241400      0x1a7 c:/Espressif/ESP8266_SDK_210/lib\libnet80211.a(wl_cnx.o)
 *fill*         0x402415a7        0x9 
 .irom.text     0x402415b0       0xe3 c:/Espressif/ESP8266_SDK_210/lib\libnet80211.a(ieee80211_action_vendor.o)
 *fill*         0x40241693        0x1 
 .irom.text     0x40241694       0x18 c:/Espressif/ESP8266_SDK_210/lib\libnet80211.a(ieee80211_crypto_ccmp.o)
                0x40241694                ccmp
 *fill*         0x402416ac        0x4 
 .irom.text     0x402416b0       0x1e c:/Espressif/ESP8266_SDK_210/lib\liblwip.a(dhcp.o)
 *fill*         0x402416ce        0x2 
 .irom.text     0x402416d0       0x45 c:/Espressif/ESP8266_SDK_210/lib\liblwip.a(dhcpserver.o)
 *fill*         0x40241715        0x3 
 .irom.text     0x40241718        0x6 c:/Espressif/ESP8266_SDK_210/lib\liblwip.a(dns.o)
 *fill*         0x4024171e        0x2 
 .irom.text     0x40241720       0xab c:/Espressif/ESP8266_SDK_210/lib\liblwip.a(espconn_tcp.o)
 *fill*         0x402417cb        0x5 
 .irom.text     0x402417d0        0x9 c:/Espressif/ESP8266_SDK_210/lib\liblwip.a(etharp.o)
 *fill*         0x402417d9        0x3 
 .irom.text     0x402417dc        0x8 c:/Espressif/ESP8266_SDK_210/lib\liblwip.a(ip_addr.o)
                0x402417dc                ip_addr_any
                0x402417e0                ip_addr_broadcast
 *fill*         0x402417e4        0xc 
 .irom.text     0x402417f0       0x11 c:/Espressif/ESP8266_SDK_210/lib\liblwip.a(ip.o)
 *fill*         0x40241801        0xf 
 .irom.text     0x40241810       0x28 c:/Espressif/ESP8266_SDK_210/lib\liblwip.a(memp.o)
                0x40241810                memp_sizes
 .irom.text     0x40241838        0x7 c:/Espressif/ESP8266_SDK_210/lib\liblwip.a(pbuf.o)
 *fill*         0x4024183f        0x1 
 .irom.text     0x40241840        0x6 c:/Espressif/ESP8266_SDK_210/lib\liblwip.a(raw.o)
 *fill*         0x40241846        0xa 
 .irom.text     0x40241850        0x9 c:/Espressif/ESP8266_SDK_210/lib\liblwip.a(tcp_in.o)
 *fill*         0x40241859        0x7 
 .irom.text     0x40241860       0x3d c:/Espressif/ESP8266_SDK_210/lib\liblwip.a(tcp.o)
                0x40241870                tcp_pcb_lists
                0x40241880                tcp_persist_backoff
                0x40241890                tcp_backoff
 *fill*         0x4024189d        0x3 
 .irom.text     0x402418a0        0xa c:/Espressif/ESP8266_SDK_210/lib\liblwip.a(tcp_out.o)
 *fill*         0x402418aa        0x6 
 .irom.text     0x402418b0        0x9 c:/Espressif/ESP8266_SDK_210/lib\liblwip.a(timers.o)
 *fill*         0x402418b9        0x7 
 .irom.text     0x402418c0        0x6 c:/Espressif/ESP8266_SDK_210/lib\liblwip.a(udp.o)
 *fill*         0x402418c6        0xa 
 .irom.text     0x402418d0       0x57 c:/Espressif/ESP8266_SDK_210/lib\liblwip.a(espconn_buf.o)
 *fill*         0x40241927        0x9 
 .irom.text     0x40241930        0xa c:/Espressif/ESP8266_SDK_210/lib\liblwip.a(espconn.o)
 *fill*         0x4024193a        0x6 
 .irom.text     0x40241940        0xe c:/Espressif/ESP8266_SDK_210/lib\liblwip.a(espconn_udp.o)
 *fill*         0x4024194e        0x2 
 .irom.text     0x40241950        0x7 c:/Espressif/ESP8266_SDK_210/lib\liblwip.a(igmp.o)
 *fill*         0x40241957        0x9 
 .irom.text     0x40241960        0xc c:/Espressif/ESP8266_SDK_210/lib\libwpa.a(ap_config.o)
 *fill*         0x4024196c        0x4 
 .irom.text     0x40241970        0x9 c:/Espressif/ESP8266_SDK_210/lib\libwpa.a(common.o)
 *fill*         0x40241979        0x7 
 .irom.text     0x40241980        0xc c:/Espressif/ESP8266_SDK_210/lib\libwpa.a(os_xtensa.o)
 *fill*         0x4024198c        0x4 
 .irom.text     0x40241990       0x74 c:/Espressif/ESP8266_SDK_210/lib\libwpa.a(wpa_auth.o)
 *fill*         0x40241a04        0xc 
 .irom.text     0x40241a10        0xe c:/Espressif/ESP8266_SDK_210/lib\libwpa.a(wpa_auth_ie.o)
 *fill*         0x40241a1e        0x2 
 .irom.text     0x40241a20       0x17 c:/Espressif/ESP8266_SDK_210/lib\libwpa.a(wpa.o)
 *fill*         0x40241a37        0x9 
 .irom.text     0x40241a40       0x1c c:/Espressif/ESP8266_SDK_210/lib\libwpa.a(wpa_common.o)
 *fill*         0x40241a5c        0x4 
 .irom.text     0x40241a60       0x67 c:/Espressif/ESP8266_SDK_210/lib\libwpa.a(wpa_main.o)
 *fill*         0x40241ac7        0x9 
 .irom.text     0x40241ad0       0x13 c:/Espressif/ESP8266_SDK_210/lib\libcrypto.a(aes-internal-enc.o)
 *fill*         0x40241ae3        0x1 
 .irom.text     0x40241ae4       0x18 c:/Espressif/ESP8266_SDK_210/lib\libnet80211.a(ieee80211_crypto_tkip.o)
                0x40241ae4                tkip
 .irom.text     0x40241afc       0x18 c:/Espressif/ESP8266_SDK_210/lib\libnet80211.a(ieee80211_crypto_wep.o)
                0x40241afc                wep
                0x40241b14                _irom0_text_end = ABSOLUTE (.)

.text           0x40100000     0x6384
                0x40100000                _stext = .
                0x40100000                _text_start = ABSOLUTE (.)
 *(.UserEnter.text)
 .UserEnter.text
                0x40100000        0xd c:/Espressif/ESP8266_SDK_210/lib\libmain.a(vector.o)
                                 0x14 (size before relaxing)
                0x40100004                call_user_start
                0x40100010                . = ALIGN (0x10)
 *fill*         0x4010000d        0x3 
 *(.DebugExceptionVector.text)
 .DebugExceptionVector.text
                0x40100010        0x6 c:/Espressif/ESP8266_SDK_210/lib\libmain.a(debug-vector.o)
                0x40100010                _DebugExceptionVector
                0x40100020                . = ALIGN (0x10)
 *fill*         0x40100016        0xa 
 *(.NMIExceptionVector.text)
 .NMIExceptionVector.text
                0x40100020        0x6 c:/Espressif/ESP8266_SDK_210/lib\libmain.a(nmi-vector.o)
                                  0xd (size before relaxing)
                0x40100020                _NMIExceptionVector
                0x40100030                . = ALIGN (0x10)
 *fill*         0x40100026        0xa 
 *(.KernelExceptionVector.text)
 .KernelExceptionVector.text
                0x40100030        0x6 c:/Espressif/ESP8266_SDK_210/lib\libmain.a(kernel-vector.o)
                0x40100030                _KernelExceptionVector
                0x40100036        0x4 LONG 0x0
                0x4010003a        0x4 LONG 0x0
                0x4010003e        0x4 LONG 0x0
                0x40100042        0x4 LONG 0x0
                0x40100050                . = ALIGN (0x10)
 *fill*         0x40100046        0xa 
 *(.UserExceptionVector.text)
 .UserExceptionVector.text
                0x40100050        0x6 c:/Espressif/ESP8266_SDK_210/lib\libmain.a(user-vector.o)
                                  0xd (size before relaxing)
                0x40100050                _UserExceptionVector
                0x40100056        0x4 LONG 0x0
                0x4010005a        0x4 LONG 0x0
                0x4010005e        0x4 LONG 0x0
                0x40100062        0x4 LONG 0x0
                0x40100070                . = ALIGN (0x10)
 *fill*         0x40100066        0xa 
 *(.DoubleExceptionVector.text)
 .DoubleExceptionVector.text
                0x40100070        0x6 c:/Espressif/ESP8266_SDK_210/lib\libmain.a(double-vector.o)
                0x40100070                _DoubleExceptionVector
                0x40100076        0x4 LONG 0x0
                0x4010007a        0x4 LONG 0x0
                0x4010007e        0x4 LONG 0x0
                0x40100082        0x4 LONG 0x0
                0x40100090                . = ALIGN (0x10)
 *fill*         0x40100086        0xa 
 *(.entry.text)
 *(.init.literal)
 *(.init)
 *(.literal .text .literal.* .text.* .stub .gnu.warning .gnu.linkonce.literal.* .gnu.linkonce.t.*.literal .gnu.linkonce.t.*)
 .text          0x40100090       0xc7 c:/Espressif/ESP8266_SDK_210/lib\libmain.a(nmi-vector.o)
                                 0xcb (size before relaxing)
                0x4010009c                _NMILevelVector
 *fill*         0x40100157        0x1 
 .text          0x40100158       0x1e c:/Espressif/ESP8266_SDK_210/lib\libmain.a(user-vector.o)
                0x4010015c                _UserExceptionVector_1
 *fill*         0x40100176        0x2 
 .text          0x40100178      0x67f c:/Espressif/ESP8266_SDK_210/lib\libmain.a(app_main.o)
                                0x6ef (size before relaxing)
                0x401001b0                Cache_Read_Enable_New
                0x401001ec                NmiTimSetFunc
                0x40100210                NMI_Handler
                0x40100268                call_user_start_local
                0x40100280                esp_crc8
                0x40100428                wdt_feed
 *fill*         0x401007f7        0x1 
 .text          0x401007f8      0x3cc c:/Espressif/ESP8266_SDK_210/lib\libmain.a(ets_timer.o)
                                0x450 (size before relaxing)
                0x401008cc                ets_timer_setfn
                0x401009a8                ets_timer_disarm
                0x40100a58                ets_timer_arm_new
 .text          0x40100bc4      0x30f c:/Espressif/ESP8266_SDK_210/lib\libmain.a(mem_manager.o)
                                0x367 (size before relaxing)
                0x40100bc8                prvInsertBlockIntoUsedList
                0x40100bf8                system_show_malloc
                0x40100bf8                pvShowMalloc
                0x40100c84                prvRemoveBlockFromUsedList
                0x40100cb0                xPortWantedSizeAlign
                0x40100cd8                pvPortMalloc
                0x40100da0                vPortFree
                0x40100df8                pvPortCalloc
                0x40100e28                pvPortZalloc
                0x40100e44                pvPortRealloc
 *fill*         0x40100ed3        0x1 
 .text          0x40100ed4      0x33a c:/Espressif/ESP8266_SDK_210/lib\libmain.a(user_interface.o)
                                0x39e (size before relaxing)
                0x40100ef0                os_printf_plus
                0x40101020                system_restart_core
                0x40101060                system_deep_sleep_local_2
                0x40101114                system_get_time
                0x4010112c                system_os_post
                0x40101160                system_rtc_mem_write
                0x401011b8                system_rtc_mem_read
 *fill*         0x4010120e        0x2 
 .text.Cache_Read_Disable_2
                0x40101210       0x3f c:/Espressif/ESP8266_SDK_210/lib\libmain.a(spi_flash.o)
                                 0x47 (size before relaxing)
                0x40101214                Cache_Read_Disable_2
 *fill*         0x4010124f        0x1 
 .text.Cache_Read_Enable_2
                0x40101250       0x2e c:/Espressif/ESP8266_SDK_210/lib\libmain.a(spi_flash.o)
                                 0x36 (size before relaxing)
                0x40101254                Cache_Read_Enable_2
 *fill*         0x4010127e        0x2 
 .text.spi_flash_get_unique_id
                0x40101280      0x18a c:/Espressif/ESP8266_SDK_210/lib\libmain.a(spi_flash.o)
                                0x1ae (size before relaxing)
                0x401012a4                spi_flash_get_unique_id
 *fill*         0x4010140a        0x2 
 .text.spi_flash_get_id
                0x4010140c       0x59 c:/Espressif/ESP8266_SDK_210/lib\libmain.a(spi_flash.o)
                                 0x71 (size before relaxing)
                0x40101410                spi_flash_get_id
 *fill*         0x40101465        0x3 
 .text.spi_flash_read_status
                0x40101468       0x2b c:/Espressif/ESP8266_SDK_210/lib\libmain.a(spi_flash.o)
                                 0x3b (size before relaxing)
                0x4010146c                spi_flash_read_status
 *fill*         0x40101493        0x1 
 .text.spi_flash_write_status
                0x40101494       0x66 c:/Espressif/ESP8266_SDK_210/lib\libmain.a(spi_flash.o)
                                 0x86 (size before relaxing)
                0x401014a0                spi_flash_write_status
 *fill*         0x401014fa        0x2 
 .text.flash_gd25q32c_read_status
                0x401014fc      0x199 c:/Espressif/ESP8266_SDK_210/lib\libmain.a(spi_flash.o)
                                0x1e1 (size before relaxing)
                0x40101510                flash_gd25q32c_read_status
 *fill*         0x40101695        0x3 
 .text.flash_gd25q32c_write_status
                0x40101698      0x198 c:/Espressif/ESP8266_SDK_210/lib\libmain.a(spi_flash.o)
                                0x1e4 (size before relaxing)
                0x401016a8                flash_gd25q32c_write_status
 .text.spi_flash_check_wr_protect
                0x40101830       0xa2 c:/Espressif/ESP8266_SDK_210/lib\libmain.a(spi_flash.o)
                                 0xd6 (size before relaxing)
                0x40101840                spi_flash_check_wr_protect
 *fill*         0x401018d2        0x2 
 .text.spi_flash_erase_sector
                0x401018d4       0x50 c:/Espressif/ESP8266_SDK_210/lib\libmain.a(spi_flash.o)
                                 0x68 (size before relaxing)
                0x401018e0                spi_flash_erase_sector
 .text.spi_flash_enable_qmode
                0x40101924       0x32 c:/Espressif/ESP8266_SDK_210/lib\libmain.a(spi_flash.o)
                                 0x4a (size before relaxing)
                0x40101928                spi_flash_enable_qmode
 *fill*         0x40101956        0x2 
 .text.spi_flash_write
                0x40101958       0x56 c:/Espressif/ESP8266_SDK_210/lib\libmain.a(spi_flash.o)
                                 0x6a (size before relaxing)
                0x4010195c                spi_flash_write
 *fill*         0x401019ae        0x2 
 .text.spi_flash_read
                0x401019b0       0x5b c:/Espressif/ESP8266_SDK_210/lib\libmain.a(spi_flash.o)
                                 0x6f (size before relaxing)
                0x401019b4                spi_flash_read
 *fill*         0x40101a0b        0x1 
 .text.spi_flash_issi_enable_QIO_mode
                0x40101a0c      0x1a1 c:/Espressif/ESP8266_SDK_210/lib\libmain.a(spi_flash.o)
                                0x214 (size before relaxing)
                0x40101a20                spi_flash_issi_enable_QIO_mode
 *fill*         0x40101bad        0x3 
 .text.flash_gd25q32c_enable_QIO_mode
                0x40101bb0       0x5c c:/Espressif/ESP8266_SDK_210/lib\libmain.a(spi_flash.o)
                                 0x88 (size before relaxing)
                0x40101bc0                flash_gd25q32c_enable_QIO_mode
 .text.user_spi_flash_dio_to_qio_pre_init
                0x40101c0c       0x7b c:/Espressif/ESP8266_SDK_210/lib\libmain.a(spi_flash.o)
                                 0xa2 (size before relaxing)
                0x40101c14                user_spi_flash_dio_to_qio_pre_init
 *fill*         0x40101c87        0x1 
 .text          0x40101c88      0x13e build/debug/app_app.a(user_main.o)
                                0x16e (size before relaxing)
                0x40101dc4                user_rf_pre_init
 *fill*         0x40101dc6        0x2 
 .text          0x40101dc8       0x23 build/debug/app_app.a(hw_timer.o)
                                 0x27 (size before relaxing)
                0x40101de4                hw_timer_set_func
 *fill*         0x40101deb        0x1 
 .text          0x40101dec       0x9c build/debug/app_app.a(easygpio.o)
                0x40101df4                easygpio_outputSet
                0x40101e54                easygpio_inputGet
 .text          0x40101e88       0x53 c:/Espressif/ESP8266_SDK_210/lib\libphy.a(phy.o)
                                 0x5f (size before relaxing)
                0x40101e90                register_phy_ops
                0x40101eb0                register_get_phy_addr
                0x40101eb8                phy_change_channel
                0x40101ed0                phy_get_mactime
 *fill*         0x40101edb        0x1 
 .text          0x40101edc      0x26a c:/Espressif/ESP8266_SDK_210/lib\libphy.a(phy_chip_v6_ana.o)
                                0x27a (size before relaxing)
                0x40101f00                phy_adc_read_fast
 *fill*         0x40102146        0x2 
 .text          0x40102148       0xb1 c:/Espressif/ESP8266_SDK_210/lib\libphy.a(phy_chip_v6.o)
                                 0xbd (size before relaxing)
                0x40102154                set_cca
                0x401021bc                phy_debug_print
 *fill*         0x401021f9        0x3 
 .text          0x401021fc      0x26b c:/Espressif/ESP8266_SDK_210/lib\libphy.a(phy_chip_v6_cal.o)
                                0x283 (size before relaxing)
                0x40102208                tx_pwr_backoff_old
                0x4010235c                unsign_to_sign
                0x40102398                phy_get_bb_freqoffset
                0x40102408                phy_get_bb_evm
 *fill*         0x40102467        0x1 
 .text          0x40102468      0x257 c:/Espressif/ESP8266_SDK_210/lib\libphy.a(phy_sleep.o)
                                0x287 (size before relaxing)
                0x40102470                pm_rtc_clock_cali
                0x40102544                pm_goto_sleep
                0x40102694                clockgate_watchdog
 *fill*         0x401026bf        0x1 
 .text          0x401026c0     0x161a c:/Espressif/ESP8266_SDK_210/lib\libpp.a(lmac.o)
                               0x1982 (size before relaxing)
                0x401026c4                lmacIsActive
                0x401026d8                lmacIsIdle
                0x40102b54                lmacSetAcParam
                0x40102ba8                lmacProcessTXStartData
                0x40102d54                lmacProcessTxSuccess
                0x40102e98                GetAccess
                0x40102ea4                lmacDiscardAgedMSDU
                0x40102eb8                lmacRecycleMPDU
                0x40103480                lmacProcessTxTimeout
                0x401034e8                lmacProcessAllTxTimeout
                0x401034fc                lmacProcessCollisions
                0x4010355c                lmacProcessCollision
                0x401035cc                lmacMSDUAged
                0x4010395c                lmacProcessCtsTimeout
                0x40103994                lmacProcessAckTimeout
                0x401039ec                lmacProcessRtsStart
                0x401039f8                lmacProcessTxRtsError
                0x40103a98                lmacProcessTxError
                0x40103b28                lmacTxFrame
                0x40103cc4                lmacRxDone
 *fill*         0x40103cda        0x2 
 .text          0x40103cdc      0x8e1 c:/Espressif/ESP8266_SDK_210/lib\libpp.a(pp.o)
                                0x9fd (size before relaxing)
                0x40103d10                pp_soft_wdt_feed_local
                0x40103da4                ppProcessTxQ
                0x40103e18                ppFetchTxQFirstAvail
                0x40103e58                ppDequeueTxQ
                0x40103e80                ppRollBackTxQ
                0x40103ea4                ppRecordBarRRC
                0x40103eb4                ppTxqUpdateBitmap
                0x40103edc                ppEnqueueTxDone
                0x40103f10                ppEnqueueRxq
                0x401043f8                ppDiscardMPDU
                0x4010441c                pp_post
                0x401044a8                pp_post2
                0x401044d0                ppCalTxop
                0x40104550                ppCalFrameTimes
 *fill*         0x401045bd        0x3 
 .text          0x401045c0       0xf5 c:/Espressif/ESP8266_SDK_210/lib\libpp.a(rate_control.o)
                                0x109 (size before relaxing)
                0x401045e0                RC_GetAckRate
                0x401045ec                RC_GetRtsRate
                0x401045fc                RC_GetAckTime
                0x40104610                RC_GetCtsTime
                0x40104648                RC_GetBlockAckTime
 *fill*         0x401046b5        0x3 
 .text          0x401046b8      0x9a5 c:/Espressif/ESP8266_SDK_210/lib\libpp.a(trc.o)
                                0xa09 (size before relaxing)
                0x4010488c                rcUpdateTxDone
                0x40104920                rcUpdateRxDone
                0x4010497c                rcUpdateDataRxDone
                0x40104998                rcGetSched
                0x40104a80                rcGetRate
                0x40104f90                rcReachRetryLimit
                0x40104fa8                trc_NeedRTS
 *fill*         0x4010505d        0x3 
 .text          0x40105060     0x10cc c:/Espressif/ESP8266_SDK_210/lib\libpp.a(wdev.o)
                               0x13d4 (size before relaxing)
                0x40105444                wDev_MacTim1SetFunc
                0x40105464                wDev_MacTim1Arm
                0x401054f8                wDev_ProcessFiq
                0x4010583c                wDev_EnableTransmit
                0x40105874                wDev_DisableTransmit
                0x40105894                Tx_Copy2Queue
                0x401058d8                wDev_ProcessCollision
                0x401058fc                wDev_GetTxqCollisions
                0x4010590c                wDev_ClearTxqCollisions
                0x40105928                wDev_SetWaitingQueue
                0x40105970                wDev_ClearWaitingQueue
                0x40105994                wDev_SetFrameAckType
                0x401059f4                wDev_AppendRxBlocks
                0x40105b38                wDev_AppendRxAmpduLensBlocks
                0x40105c0c                wDev_GetBAInfo
                0x40105c40                wDevDisableRx
 .text          0x4010612c       0x4c c:/Espressif/ESP8266_SDK_210/lib\libpp.a(esf_buf.o)
                                 0x5c (size before relaxing)
                0x40106130                esf_rx_buf_alloc
 .text          0x40106178        0xb c:/Espressif/ESP8266_SDK_210/lib\libnet80211.a(wl_chm.o)
                0x4010617c                chm_get_current_channel
 *fill*         0x40106183        0x1 
 .literal       0x40106184        0x4 c:/Espressif/ESP8266_SDK_210/lib\libgcc.a(_divsf3.o)
                                 0x10 (size before relaxing)
 .literal       0x40106188        0x0 c:/Espressif/ESP8266_SDK_210/lib\libgcc.a(_fixsfsi.o)
                                  0x4 (size before relaxing)
 .text          0x40106188      0x135 c:/Espressif/ESP8266_SDK_210/lib\libgcc.a(_divsf3.o)
                0x40106204                __divsf3
 *fill*         0x401062bd        0x3 
 .text          0x401062c0       0x40 c:/Espressif/ESP8266_SDK_210/lib\libgcc.a(_fixsfsi.o)
                0x401062c0                __fixsfsi
 .text          0x40106300        0x0 c:/Espressif/ESP8266_SDK_210/lib\libmain.a(debug-vector.o)
 .text          0x40106300        0x0 c:/Espressif/ESP8266_SDK_210/lib\libmain.a(double-vector.o)
 .text          0x40106300        0x0 c:/Espressif/ESP8266_SDK_210/lib\libmain.a(kernel-vector.o)
 .literal       0x40106300        0x0 c:/Espressif/ESP8266_SDK_210/lib\libmain.a(nmi-vector.o)
 *fill*         0x40106300        0x0 
 .literal       0x40106300        0x0 c:/Espressif/ESP8266_SDK_210/lib\libmain.a(user-vector.o)
 .text          0x40106300        0x0 c:/Espressif/ESP8266_SDK_210/lib\libmain.a(vector.o)
 *fill*         0x40106300        0x0 
 .literal       0x40106300        0x0 c:/Espressif/ESP8266_SDK_210/lib\libmain.a(app_main.o)
 *fill*         0x40106300        0x0 
 .literal       0x40106300        0x0 c:/Espressif/ESP8266_SDK_210/lib\libmain.a(ets_timer.o)
 .literal       0x40106300        0x0 c:/Espressif/ESP8266_SDK_210/lib\libmain.a(mem_manager.o)
 *fill*         0x40106300        0x0 
 .literal       0x40106300        0x0 c:/Espressif/ESP8266_SDK_210/lib\libmain.a(user_interface.o)
 *fill*         0x40106300        0x0 
 .literal.Cache_Read_Disable_2
                0x40106300        0x0 c:/Espressif/ESP8266_SDK_210/lib\libmain.a(spi_flash.o)
 .literal.Cache_Read_Enable_2
                0x40106300        0x0 c:/Espressif/ESP8266_SDK_210/lib\libmain.a(spi_flash.o)
 .literal.spi_flash_get_unique_id
                0x40106300        0x0 c:/Espressif/ESP8266_SDK_210/lib\libmain.a(spi_flash.o)
 .literal.spi_flash_get_id
                0x40106300        0x0 c:/Espressif/ESP8266_SDK_210/lib\libmain.a(spi_flash.o)
 .literal.spi_flash_read_status
                0x40106300        0x0 c:/Espressif/ESP8266_SDK_210/lib\libmain.a(spi_flash.o)
 .literal.spi_flash_write_status
                0x40106300        0x0 c:/Espressif/ESP8266_SDK_210/lib\libmain.a(spi_flash.o)
 .literal.flash_gd25q32c_read_status
                0x40106300        0x0 c:/Espressif/ESP8266_SDK_210/lib\libmain.a(spi_flash.o)
 .literal.flash_gd25q32c_write_status
                0x40106300        0x0 c:/Espressif/ESP8266_SDK_210/lib\libmain.a(spi_flash.o)
 .literal.spi_flash_check_wr_protect
                0x40106300        0x0 c:/Espressif/ESP8266_SDK_210/lib\libmain.a(spi_flash.o)
 .literal.spi_flash_erase_sector
                0x40106300        0x0 c:/Espressif/ESP8266_SDK_210/lib\libmain.a(spi_flash.o)
 .literal.spi_flash_enable_qmode
                0x40106300        0x0 c:/Espressif/ESP8266_SDK_210/lib\libmain.a(spi_flash.o)
 .literal.spi_flash_write
                0x40106300        0x0 c:/Espressif/ESP8266_SDK_210/lib\libmain.a(spi_flash.o)
 .literal.spi_flash_read
                0x40106300        0x0 c:/Espressif/ESP8266_SDK_210/lib\libmain.a(spi_flash.o)
 .literal.spi_flash_issi_enable_QIO_mode
                0x40106300        0x0 c:/Espressif/ESP8266_SDK_210/lib\libmain.a(spi_flash.o)
 .literal.flash_gd25q32c_enable_QIO_mode
                0x40106300        0x0 c:/Espressif/ESP8266_SDK_210/lib\libmain.a(spi_flash.o)
 .literal.user_spi_flash_dio_to_qio_pre_init
                0x40106300        0x0 c:/Espressif/ESP8266_SDK_210/lib\libmain.a(spi_flash.o)
 .text          0x40106300        0x0 c:/Espressif/ESP8266_SDK_210/lib\libmain.a(spi_flash.o)
 *fill*         0x40106300        0x0 
 *fill*         0x40106300        0x0 
 *fill*         0x40106300        0x0 
 *fill*         0x40106300        0x0 
 *fill*         0x40106300        0x0 
 *fill*         0x40106300        0x0 
 *fill*         0x40106300        0x0 
 *fill*         0x40106300        0x0 
 *fill*         0x40106300        0x0 
 *fill*         0x40106300        0x0 
 *fill*         0x40106300        0x0 
 .text          0x40106300        0x0 c:/Espressif/ESP8266_SDK_210/lib\libmain.a(eagle_lib.o)
 .text          0x40106300        0x0 c:/Espressif/ESP8266_SDK_210/lib\libmain.a(eagle_lwip_if.o)
 *fill*         0x40106300        0x0 
 .literal       0x40106300        0x0 build/debug/app_app.a(user_main.o)
 *fill*         0x40106300        0x0 
 .literal       0x40106300        0x0 build/debug/app_app.a(hw_timer.o)
 *fill*         0x40106300        0x0 
 .literal       0x40106300        0x0 build/debug/app_app.a(easygpio.o)
 .text          0x40106300        0x0 build/debug/app_app.a(stdout.o)
 .text          0x40106300        0x5 c:/espressif/xtensa-lx106-elf/bin/../lib/gcc/xtensa-lx106-elf/5.1.0/../../../../xtensa-lx106-elf/lib\libhal.a(int_asm--set_intclear.o)
                0x40106300                xthal_set_intclear
 *fill*         0x40106305        0x3 
 .literal       0x40106308        0x0 c:/Espressif/ESP8266_SDK_210/lib\libphy.a(phy.o)
 *fill*         0x40106308        0x0 
 .literal       0x40106308        0x0 c:/Espressif/ESP8266_SDK_210/lib\libphy.a(phy_chip_v6_ana.o)
 *fill*         0x40106308        0x0 
 .literal       0x40106308        0x0 c:/Espressif/ESP8266_SDK_210/lib\libphy.a(phy_chip_v6.o)
 *fill*         0x40106308        0x0 
 .literal       0x40106308        0x0 c:/Espressif/ESP8266_SDK_210/lib\libphy.a(phy_chip_v6_cal.o)
 .text          0x40106308        0x0 c:/Espressif/ESP8266_SDK_210/lib\libphy.a(phy_chip_v6_unused.o)
 *fill*         0x40106308        0x0 
 .literal       0x40106308        0x0 c:/Espressif/ESP8266_SDK_210/lib\libphy.a(phy_sleep.o)
 .text          0x40106308        0x0 c:/Espressif/ESP8266_SDK_210/lib\libpp.a(if_hwctrl.o)
 *fill*         0x40106308        0x0 
 .literal       0x40106308        0x0 c:/Espressif/ESP8266_SDK_210/lib\libpp.a(lmac.o)
 .text          0x40106308        0x0 c:/Espressif/ESP8266_SDK_210/lib\libpp.a(pm.o)
 .text          0x40106308        0x0 c:/Espressif/ESP8266_SDK_210/lib\libpp.a(pm_for_bcn_only_mode.o)
 *fill*         0x40106308        0x0 
 .literal       0x40106308        0x0 c:/Espressif/ESP8266_SDK_210/lib\libpp.a(pp.o)
 *fill*         0x40106308        0x0 
 .literal       0x40106308        0x0 c:/Espressif/ESP8266_SDK_210/lib\libpp.a(rate_control.o)
 *fill*         0x40106308        0x0 
 .literal       0x40106308        0x0 c:/Espressif/ESP8266_SDK_210/lib\libpp.a(trc.o)
 *fill*         0x40106308        0x0 
 .literal       0x40106308        0x0 c:/Espressif/ESP8266_SDK_210/lib\libpp.a(wdev.o)
 .literal       0x40106308        0x0 c:/Espressif/ESP8266_SDK_210/lib\libpp.a(esf_buf.o)
 .text          0x40106308        0x0 c:/Espressif/ESP8266_SDK_210/lib\libnet80211.a(ieee80211.o)
 .text          0x40106308        0x0 c:/Espressif/ESP8266_SDK_210/lib\libnet80211.a(ieee80211_crypto.o)
 .text          0x40106308        0x0 c:/Espressif/ESP8266_SDK_210/lib\libnet80211.a(ieee80211_ets.o)
 .text          0x40106308        0x0 c:/Espressif/ESP8266_SDK_210/lib\libnet80211.a(ieee80211_hostap.o)
 .text          0x40106308        0x0 c:/Espressif/ESP8266_SDK_210/lib\libnet80211.a(ieee80211_ht.o)
 .text          0x40106308        0x0 c:/Espressif/ESP8266_SDK_210/lib\libnet80211.a(ieee80211_input.o)
 .text          0x40106308        0x0 c:/Espressif/ESP8266_SDK_210/lib\libnet80211.a(ieee80211_mesh_quick.o)
 .text          0x40106308        0x0 c:/Espressif/ESP8266_SDK_210/lib\libnet80211.a(ieee80211_output.o)
 .text          0x40106308        0x0 c:/Espressif/ESP8266_SDK_210/lib\libnet80211.a(ieee80211_phy.o)
 .text          0x40106308        0x0 c:/Espressif/ESP8266_SDK_210/lib\libnet80211.a(ieee80211_power.o)
 .text          0x40106308        0x0 c:/Espressif/ESP8266_SDK_210/lib\libnet80211.a(ieee80211_proto.o)
 .text          0x40106308        0x0 c:/Espressif/ESP8266_SDK_210/lib\libnet80211.a(ieee80211_regdomain.o)
 .text          0x40106308        0x0 c:/Espressif/ESP8266_SDK_210/lib\libnet80211.a(ieee80211_rfid.o)
 .text          0x40106308        0x0 c:/Espressif/ESP8266_SDK_210/lib\libnet80211.a(ieee80211_scan.o)
 .text          0x40106308        0x0 c:/Espressif/ESP8266_SDK_210/lib\libnet80211.a(ieee80211_sta.o)
 .literal       0x40106308        0x0 c:/Espressif/ESP8266_SDK_210/lib\libnet80211.a(wl_chm.o)
 .text          0x40106308        0x0 c:/Espressif/ESP8266_SDK_210/lib\libnet80211.a(wl_cnx.o)
 .text          0x40106308        0x0 c:/Espressif/ESP8266_SDK_210/lib\libnet80211.a(ieee80211_action.o)
 .text          0x40106308        0x0 c:/Espressif/ESP8266_SDK_210/lib\libnet80211.a(ieee80211_action_vendor.o)
 .text          0x40106308        0x0 c:/Espressif/ESP8266_SDK_210/lib\libnet80211.a(ieee80211_crypto_ccmp.o)
 .text          0x40106308        0x0 c:/Espressif/ESP8266_SDK_210/lib\libnet80211.a(ieee80211_ie_vendor.o)
 .text          0x40106308        0x0 c:/Espressif/ESP8266_SDK_210/lib\liblwip.a(dhcp.o)
 .text          0x40106308        0x0 c:/Espressif/ESP8266_SDK_210/lib\liblwip.a(dhcpserver.o)
 .text          0x40106308        0x0 c:/Espressif/ESP8266_SDK_210/lib\liblwip.a(dns.o)
 .text          0x40106308        0x0 c:/Espressif/ESP8266_SDK_210/lib\liblwip.a(espconn_tcp.o)
 .text          0x40106308        0x0 c:/Espressif/ESP8266_SDK_210/lib\liblwip.a(etharp.o)
 .text          0x40106308        0x0 c:/Espressif/ESP8266_SDK_210/lib\liblwip.a(init.o)
 .text          0x40106308        0x0 c:/Espressif/ESP8266_SDK_210/lib\liblwip.a(ip_addr.o)
 .text          0x40106308        0x0 c:/Espressif/ESP8266_SDK_210/lib\liblwip.a(ip.o)
 .text          0x40106308        0x0 c:/Espressif/ESP8266_SDK_210/lib\liblwip.a(memp.o)
 .text          0x40106308        0x0 c:/Espressif/ESP8266_SDK_210/lib\liblwip.a(netif.o)
 .text          0x40106308        0x0 c:/Espressif/ESP8266_SDK_210/lib\liblwip.a(pbuf.o)
 .text          0x40106308        0x0 c:/Espressif/ESP8266_SDK_210/lib\liblwip.a(raw.o)
 .text          0x40106308        0x0 c:/Espressif/ESP8266_SDK_210/lib\liblwip.a(tcp_in.o)
 .text          0x40106308        0x0 c:/Espressif/ESP8266_SDK_210/lib\liblwip.a(tcp.o)
 .text          0x40106308        0x0 c:/Espressif/ESP8266_SDK_210/lib\liblwip.a(tcp_out.o)
 .text          0x40106308        0x0 c:/Espressif/ESP8266_SDK_210/lib\liblwip.a(timers.o)
 .text          0x40106308        0x0 c:/Espressif/ESP8266_SDK_210/lib\liblwip.a(udp.o)
 .text          0x40106308        0x0 c:/Espressif/ESP8266_SDK_210/lib\liblwip.a(espconn_buf.o)
 .text          0x40106308        0x0 c:/Espressif/ESP8266_SDK_210/lib\liblwip.a(espconn.o)
 .text          0x40106308        0x0 c:/Espressif/ESP8266_SDK_210/lib\liblwip.a(espconn_udp.o)
 .text          0x40106308        0x0 c:/Espressif/ESP8266_SDK_210/lib\liblwip.a(icmp.o)
 .text          0x40106308        0x0 c:/Espressif/ESP8266_SDK_210/lib\liblwip.a(igmp.o)
 .text          0x40106308        0x0 c:/Espressif/ESP8266_SDK_210/lib\liblwip.a(inet_chksum.o)
 .text          0x40106308        0x0 c:/Espressif/ESP8266_SDK_210/lib\libwpa.a(ap_config.o)
 .text          0x40106308        0x0 c:/Espressif/ESP8266_SDK_210/lib\libwpa.a(common.o)
 .text          0x40106308        0x0 c:/Espressif/ESP8266_SDK_210/lib\libwpa.a(os_xtensa.o)
 .text          0x40106308        0x0 c:/Espressif/ESP8266_SDK_210/lib\libwpa.a(wpa_auth.o)
 .text          0x40106308        0x0 c:/Espressif/ESP8266_SDK_210/lib\libwpa.a(wpa_auth_ie.o)
 .text          0x40106308        0x0 c:/Espressif/ESP8266_SDK_210/lib\libwpa.a(wpa.o)
 .text          0x40106308        0x0 c:/Espressif/ESP8266_SDK_210/lib\libwpa.a(wpa_common.o)
 .text          0x40106308        0x0 c:/Espressif/ESP8266_SDK_210/lib\libwpa.a(wpa_debug.o)
 .text          0x40106308        0x0 c:/Espressif/ESP8266_SDK_210/lib\libwpa.a(wpa_ie.o)
 .text          0x40106308        0x0 c:/Espressif/ESP8266_SDK_210/lib\libwpa.a(wpa_main.o)
 .text          0x40106308        0x0 c:/Espressif/ESP8266_SDK_210/lib\libwpa.a(wpas_glue.o)
 .text          0x40106308        0x0 c:/Espressif/ESP8266_SDK_210/lib\libcrypto.a(aes-wrap.o)
 .text          0x40106308        0x0 c:/Espressif/ESP8266_SDK_210/lib\libcrypto.a(aes-internal-enc.o)
 .text          0x40106308        0x0 c:/Espressif/ESP8266_SDK_210/lib\libcrypto.a(aes-internal.o)
 *fill*         0x40106308        0x0 
 .text          0x40106308       0x17 c:/Espressif/ESP8266_SDK_210/lib\libc.a(lib_a-memchr.o)
                0x40106308                memchr
 *fill*         0x4010631f        0x1 
 .text          0x40106320       0x49 c:/Espressif/ESP8266_SDK_210/lib\libgcc.a(_modsi3.o)
                0x40106320                __modsi3
 *fill*         0x40106369        0x3 
 .text          0x4010636c       0x18 c:/Espressif/ESP8266_SDK_210/lib\libgcc.a(_ashrdi3.o)
                0x4010636c                __ashrdi3
 *fill*         0x40106384        0x0 
 .text          0x40106384        0x0 c:/Espressif/ESP8266_SDK_210/lib\libnet80211.a(ieee80211_crypto_tkip.o)
 .text          0x40106384        0x0 c:/Espressif/ESP8266_SDK_210/lib\libnet80211.a(ieee80211_crypto_wep.o)
 *(.fini.literal)
 *(.fini)
 *(.gnu.version)
                0x40106384                _text_end = ABSOLUTE (.)
                0x40106384                _etext = .

.NMIExceptionVector.literal
                0x40106384        0x0
 .NMIExceptionVector.literal
                0x40106384        0x0 c:/Espressif/ESP8266_SDK_210/lib\libmain.a(nmi-vector.o)

.UserExceptionVector.literal
                0x40106384        0x0
 .UserExceptionVector.literal
                0x40106384        0x0 c:/Espressif/ESP8266_SDK_210/lib\libmain.a(user-vector.o)

.UserEnter.literal
                0x40106384        0x0
 .UserEnter.literal
                0x40106384        0x0 c:/Espressif/ESP8266_SDK_210/lib\libmain.a(vector.o)

.lit4           0x40106384        0x0
                0x40106384                _lit4_start = ABSOLUTE (.)
 *(*.lit4)
 *(.lit4.*)
 *(.gnu.linkonce.lit4.*)
                0x40106384                _lit4_end = ABSOLUTE (.)
                0x400047f0                PROVIDE (Cache_Read_Disable, 0x400047f0)
                0x40004678                PROVIDE (Cache_Read_Enable, 0x40004678)
                0x400035a0                PROVIDE (FilePacketSendReqMsgProc, 0x400035a0)
                0x4000368c                PROVIDE (FlashDwnLdParamCfgMsgProc, 0x4000368c)
                0x40003538                PROVIDE (FlashDwnLdStartMsgProc, 0x40003538)
                0x40003658                PROVIDE (FlashDwnLdStopReqMsgProc, 0x40003658)
                0x40003f4c                PROVIDE (GetUartDevice, 0x40003f4c)
                0x40009900                PROVIDE (MD5Final, 0x40009900)
                0x40009818                PROVIDE (MD5Init, 0x40009818)
                0x40009834                PROVIDE (MD5Update, 0x40009834)
                0x400036c4                PROVIDE (MemDwnLdStartMsgProc, 0x400036c4)
                0x4000377c                PROVIDE (MemDwnLdStopReqMsgProc, 0x4000377c)
                0x400036f0                PROVIDE (MemPacketSendReqMsgProc, 0x400036f0)
                0x40003eac                PROVIDE (RcvMsg, 0x40003eac)
                0x4000b648                PROVIDE (SHA1Final, 0x4000b648)
                0x4000b584                PROVIDE (SHA1Init, 0x4000b584)
                0x4000a364                PROVIDE (SHA1Transform, 0x4000a364)
                0x4000b5a8                PROVIDE (SHA1Update, 0x4000b5a8)
                0x400043c8                PROVIDE (SPI_read_status, 0x400043c8)
                0x40004400                PROVIDE (SPI_write_status, 0x40004400)
                0x4000443c                PROVIDE (SPI_write_enable, 0x4000443c)
                0x4000448c                PROVIDE (Wait_SPI_Idle, 0x4000448c)
                0x400044c0                PROVIDE (Enable_QMode, 0x400044c0)
                0x40004b44                PROVIDE (SPIEraseArea, 0x40004b44)
                0x400049b4                PROVIDE (SPIEraseBlock, 0x400049b4)
                0x40004984                PROVIDE (SPIEraseChip, 0x40004984)
                0x40004a00                PROVIDE (SPIEraseSector, 0x40004a00)
                0x400048a8                PROVIDE (SPILock, 0x400048a8)
                0x40004c2c                PROVIDE (SPIParamCfg, 0x40004c2c)
                0x40004b1c                PROVIDE (SPIRead, 0x40004b1c)
                0x400048ec                PROVIDE (SPIReadModeCnfig, 0x400048ec)
                0x40004878                PROVIDE (SPIUnlock, 0x40004878)
                0x40004a4c                PROVIDE (SPIWrite, 0x40004a4c)
                0x40003f58                PROVIDE (SelectSpiFunction, 0x40003f58)
                0x40003cf4                PROVIDE (SendMsg, 0x40003cf4)
                0x40003230                PROVIDE (UartConnCheck, 0x40003230)
                0x400037a0                PROVIDE (UartConnectProc, 0x400037a0)
                0x40003368                PROVIDE (UartDwnLdProc, 0x40003368)
                0x40003ef4                PROVIDE (UartGetCmdLn, 0x40003ef4)
                0x4000381c                PROVIDE (UartRegReadProc, 0x4000381c)
                0x400037ac                PROVIDE (UartRegWriteProc, 0x400037ac)
                0x40003c30                PROVIDE (UartRxString, 0x40003c30)
                0x40003a14                PROVIDE (Uart_Init, 0x40003a14)
                0x40000010                PROVIDE (_DebugExceptionVector, 0x40000010)
                0x40000070                PROVIDE (_DoubleExceptionVector, 0x40000070)
                0x40000030                PROVIDE (_KernelExceptionVector, 0x40000030)
                0x40000020                PROVIDE (_NMIExceptionVector, 0x40000020)
                0x400000a4                PROVIDE (_ResetHandler, 0x400000a4)
                0x40000080                PROVIDE (_ResetVector, 0x40000080)
                0x40000050                PROVIDE (_UserExceptionVector, 0x40000050)
                0x4000c538                PROVIDE (__adddf3, 0x4000c538)
                0x4000c180                PROVIDE (__addsf3, 0x4000c180)
                0x4000cb94                PROVIDE (__divdf3, 0x4000cb94)
                0x4000ce60                PROVIDE (__divdi3, 0x4000ce60)
                0x4000dc88                PROVIDE (__divsi3, 0x4000dc88)
                0x4000cdfc                PROVIDE (__extendsfdf2, 0x4000cdfc)
                0x4000ccb8                PROVIDE (__fixdfsi, 0x4000ccb8)
                0x4000cd00                PROVIDE (__fixunsdfsi, 0x4000cd00)
                0x4000c4c4                PROVIDE (__fixunssfsi, 0x4000c4c4)
                0x4000e2f0                PROVIDE (__floatsidf, 0x4000e2f0)
                0x4000e2ac                PROVIDE (__floatsisf, 0x4000e2ac)
                0x4000e2e8                PROVIDE (__floatunsidf, 0x4000e2e8)
                0x4000e2a4                PROVIDE (__floatunsisf, 0x4000e2a4)
                0x4000c8f0                PROVIDE (__muldf3, 0x4000c8f0)
                0x40000650                PROVIDE (__muldi3, 0x40000650)
                0x4000c3dc                PROVIDE (__mulsf3, 0x4000c3dc)
                0x4000c688                PROVIDE (__subdf3, 0x4000c688)
                0x4000c268                PROVIDE (__subsf3, 0x4000c268)
                0x4000cd5c                PROVIDE (__truncdfsf2, 0x4000cd5c)
                0x4000d310                PROVIDE (__udivdi3, 0x4000d310)
                0x4000e21c                PROVIDE (__udivsi3, 0x4000e21c)
                0x4000d770                PROVIDE (__umoddi3, 0x4000d770)
                0x4000e268                PROVIDE (__umodsi3, 0x4000e268)
                0x4000dcf0                PROVIDE (__umulsidi3, 0x4000dcf0)
                0x4000e388                PROVIDE (_rom_store, 0x4000e388)
                0x4000e328                PROVIDE (_rom_store_table, 0x4000e328)
                0x4000042c                PROVIDE (_start, 0x4000042c)
                0x4000dbe0                PROVIDE (_xtos_alloca_handler, 0x4000dbe0)
                0x40000598                PROVIDE (_xtos_c_wrapper_handler, 0x40000598)
                0x40000590                PROVIDE (_xtos_cause3_handler, 0x40000590)
                0x4000bda4                PROVIDE (_xtos_ints_off, 0x4000bda4)
                0x4000bd84                PROVIDE (_xtos_ints_on, 0x4000bd84)
                0x4000048c                PROVIDE (_xtos_l1int_handler, 0x4000048c)
                0x4000dbf8                PROVIDE (_xtos_p_none, 0x4000dbf8)
                0x4000056c                PROVIDE (_xtos_restore_intlevel, 0x4000056c)
                0x4000dc54                PROVIDE (_xtos_return_from_exc, 0x4000dc54)
                0x40000454                PROVIDE (_xtos_set_exception_handler, 0x40000454)
                0x4000bd70                PROVIDE (_xtos_set_interrupt_handler, 0x4000bd70)
                0x4000bd28                PROVIDE (_xtos_set_interrupt_handler_arg, 0x4000bd28)
                0x4000dbfc                PROVIDE (_xtos_set_intlevel, 0x4000dbfc)
                0x4000dc18                PROVIDE (_xtos_set_min_intlevel, 0x4000dc18)
                0x40000574                PROVIDE (_xtos_set_vpri, 0x40000574)
                0x4000dbe4                PROVIDE (_xtos_syscall_handler, 0x4000dbe4)
                0x4000dc44                PROVIDE (_xtos_unhandled_exception, 0x4000dc44)
                0x4000dc3c                PROVIDE (_xtos_unhandled_interrupt, 0x4000dc3c)
                0x400092d4                PROVIDE (aes_decrypt, 0x400092d4)
                0x400092e4                PROVIDE (aes_decrypt_deinit, 0x400092e4)
                0x40008ea4                PROVIDE (aes_decrypt_init, 0x40008ea4)
                0x40009410                PROVIDE (aes_unwrap, 0x40009410)
                0x40009648                PROVIDE (base64_decode, 0x40009648)
                0x400094fc                PROVIDE (base64_encode, 0x400094fc)
                0x4000de84                PROVIDE (bzero, 0x4000de84)
                0x40000814                PROVIDE (cmd_parse, 0x40000814)
                0x40000b24                PROVIDE (conv_str_decimal, 0x40000b24)
                0x40000cb8                PROVIDE (conv_str_hex, 0x40000cb8)
                0x40000a60                PROVIDE (convert_para_str, 0x40000a60)
                0x400026d0                PROVIDE (dtm_get_intr_mask, 0x400026d0)
                0x4000269c                PROVIDE (dtm_params_init, 0x4000269c)
                0x400026c8                PROVIDE (dtm_set_intr_mask, 0x400026c8)
                0x400026dc                PROVIDE (dtm_set_params, 0x400026dc)
                0x40001d14                PROVIDE (eprintf, 0x40001d14)
                0x40001cb8                PROVIDE (eprintf_init_buf, 0x40001cb8)
                0x40001d48                PROVIDE (eprintf_to_host, 0x40001d48)
                0x40002494                PROVIDE (est_get_printf_buf_remain_len, 0x40002494)
                0x4000249c                PROVIDE (est_reset_printf_buf_len, 0x4000249c)
                0x40002ae8                PROVIDE (ets_bzero, 0x40002ae8)
                0x40002b74                PROVIDE (ets_char2xdigit, 0x40002b74)
                0x40002ecc                PROVIDE (ets_delay_us, 0x40002ecc)
                0x400027b8                PROVIDE (ets_enter_sleep, 0x400027b8)
                0x40002578                PROVIDE (ets_external_printf, 0x40002578)
                0x40002f0c                PROVIDE (ets_get_cpu_frequency, 0x40002f0c)
                0x40002bcc                PROVIDE (ets_getc, 0x40002bcc)
                0x40002450                PROVIDE (ets_install_external_printf, 0x40002450)
                0x4000242c                PROVIDE (ets_install_putc1, 0x4000242c)
                0x4000248c                PROVIDE (ets_install_putc2, 0x4000248c)
                0x40002438                PROVIDE (ets_install_uart_printf, 0x40002438)
                0x40000f74                PROVIDE (ets_intr_lock, 0x40000f74)
                0x40000f80                PROVIDE (ets_intr_unlock, 0x40000f80)
                0x40000f88                PROVIDE (ets_isr_attach, 0x40000f88)
                0x40000f98                PROVIDE (ets_isr_mask, 0x40000f98)
                0x40000fa8                PROVIDE (ets_isr_unmask, 0x40000fa8)
                0x400018d4                PROVIDE (ets_memcmp, 0x400018d4)
                0x400018b4                PROVIDE (ets_memcpy, 0x400018b4)
                0x400018c4                PROVIDE (ets_memmove, 0x400018c4)
                0x400018a4                PROVIDE (ets_memset, 0x400018a4)
                0x40000e24                PROVIDE (ets_post, 0x40000e24)
                0x400024cc                PROVIDE (ets_printf, 0x400024cc)
                0x40002be8                PROVIDE (ets_putc, 0x40002be8)
                0x40002a40                PROVIDE (ets_rtc_int_register, 0x40002a40)
                0x40000e04                PROVIDE (ets_run, 0x40000e04)
                0x40000dc0                PROVIDE (ets_set_idle_cb, 0x40000dc0)
                0x40000fbc                PROVIDE (ets_set_user_start, 0x40000fbc)
                0x40002af8                PROVIDE (ets_str2macaddr, 0x40002af8)
                0x40002aa8                PROVIDE (ets_strcmp, 0x40002aa8)
                0x40002a88                PROVIDE (ets_strcpy, 0x40002a88)
                0x40002ac8                PROVIDE (ets_strlen, 0x40002ac8)
                0x40002ab8                PROVIDE (ets_strncmp, 0x40002ab8)
                0x40002a98                PROVIDE (ets_strncpy, 0x40002a98)
                0x40002ad8                PROVIDE (ets_strstr, 0x40002ad8)
                0x40000dd0                PROVIDE (ets_task, 0x40000dd0)
                0x40002cc4                PROVIDE (ets_timer_arm, 0x40002cc4)
                0x40002d40                PROVIDE (ets_timer_disarm, 0x40002d40)
                0x40002d80                PROVIDE (ets_timer_done, 0x40002d80)
                0x40002da8                PROVIDE (ets_timer_handler_isr, 0x40002da8)
                0x40002e68                PROVIDE (ets_timer_init, 0x40002e68)
                0x40002c48                PROVIDE (ets_timer_setfn, 0x40002c48)
                0x40002544                PROVIDE (ets_uart_printf, 0x40002544)
                0x40002f04                PROVIDE (ets_update_cpu_frequency, 0x40002f04)
                0x40001f00                PROVIDE (ets_vprintf, 0x40001f00)
                0x400030f0                PROVIDE (ets_wdt_disable, 0x400030f0)
                0x40002fa0                PROVIDE (ets_wdt_enable, 0x40002fa0)
                0x40002f34                PROVIDE (ets_wdt_get_mode, 0x40002f34)
                0x40003170                PROVIDE (ets_wdt_init, 0x40003170)
                0x40003158                PROVIDE (ets_wdt_restore, 0x40003158)
                0x40001da0                PROVIDE (ets_write_char, 0x40001da0)
                0x4000091c                PROVIDE (get_first_seg, 0x4000091c)
                0x40004c50                PROVIDE (gpio_init, 0x40004c50)
                0x40004cf0                PROVIDE (gpio_input_get, 0x40004cf0)
                0x40004dcc                PROVIDE (gpio_intr_ack, 0x40004dcc)
                0x40004e28                PROVIDE (gpio_intr_handler_register, 0x40004e28)
                0x40004d88                PROVIDE (gpio_intr_pending, 0x40004d88)
                0x40004efc                PROVIDE (gpio_intr_test, 0x40004efc)
                0x40004cd0                PROVIDE (gpio_output_set, 0x40004cd0)
                0x40004d90                PROVIDE (gpio_pin_intr_state_set, 0x40004d90)
                0x40004ed4                PROVIDE (gpio_pin_wakeup_disable, 0x40004ed4)
                0x40004e90                PROVIDE (gpio_pin_wakeup_enable, 0x40004e90)
                0x40004d5c                PROVIDE (gpio_register_get, 0x40004d5c)
                0x40004d04                PROVIDE (gpio_register_set, 0x40004d04)
                0x4000a2cc                PROVIDE (hmac_md5, 0x4000a2cc)
                0x4000a160                PROVIDE (hmac_md5_vector, 0x4000a160)
                0x4000ba28                PROVIDE (hmac_sha1, 0x4000ba28)
                0x4000b8b4                PROVIDE (hmac_sha1_vector, 0x4000b8b4)
                0x40004f40                PROVIDE (lldesc_build_chain, 0x40004f40)
                0x40005050                PROVIDE (lldesc_num2link, 0x40005050)
                0x4000507c                PROVIDE (lldesc_set_owner, 0x4000507c)
                0x40000fec                PROVIDE (main, 0x40000fec)
                0x400097ac                PROVIDE (md5_vector, 0x400097ac)
                0x40001c2c                PROVIDE (mem_calloc, 0x40001c2c)
                0x400019e0                PROVIDE (mem_free, 0x400019e0)
                0x40001998                PROVIDE (mem_init, 0x40001998)
                0x40001b40                PROVIDE (mem_malloc, 0x40001b40)
                0x40001c6c                PROVIDE (mem_realloc, 0x40001c6c)
                0x40001a14                PROVIDE (mem_trim, 0x40001a14)
                0x40001c58                PROVIDE (mem_zalloc, 0x40001c58)
                0x4000dea8                PROVIDE (memcmp, 0x4000dea8)
                0x4000df48                PROVIDE (memcpy, 0x4000df48)
                0x4000e04c                PROVIDE (memmove, 0x4000e04c)
                0x4000e190                PROVIDE (memset, 0x4000e190)
                0x400031c0                PROVIDE (multofup, 0x400031c0)
                0x4000b840                PROVIDE (pbkdf2_sha1, 0x4000b840)
                0x40006b08                PROVIDE (phy_get_romfuncs, 0x40006b08)
                0x40000600                PROVIDE (rand, 0x40000600)
                0x4000dd68                PROVIDE (rc4_skip, 0x4000dd68)
                0x40003d08                PROVIDE (recv_packet, 0x40003d08)
                0x40000a04                PROVIDE (remove_head_space, 0x40000a04)
                0x40008dd0                PROVIDE (rijndaelKeySetupDec, 0x40008dd0)
                0x40009300                PROVIDE (rijndaelKeySetupEnc, 0x40009300)
                0x400060c0                PROVIDE (rom_abs_temp, 0x400060c0)
                0x40006b10                PROVIDE (rom_ana_inf_gating_en, 0x40006b10)
                0x40007a28                PROVIDE (rom_cal_tos_v50, 0x40007a28)
                0x40006f84                PROVIDE (rom_chip_50_set_channel, 0x40006f84)
                0x400060d0                PROVIDE (rom_chip_v5_disable_cca, 0x400060d0)
                0x400060ec                PROVIDE (rom_chip_v5_enable_cca, 0x400060ec)
                0x4000711c                PROVIDE (rom_chip_v5_rx_init, 0x4000711c)
                0x4000610c                PROVIDE (rom_chip_v5_sense_backoff, 0x4000610c)
                0x4000718c                PROVIDE (rom_chip_v5_tx_init, 0x4000718c)
                0x4000615c                PROVIDE (rom_dc_iq_est, 0x4000615c)
                0x400061b8                PROVIDE (rom_en_pwdet, 0x400061b8)
                0x40006238                PROVIDE (rom_get_bb_atten, 0x40006238)
                0x40006260                PROVIDE (rom_get_corr_power, 0x40006260)
                0x400062dc                PROVIDE (rom_get_fm_sar_dout, 0x400062dc)
                0x40006394                PROVIDE (rom_get_noisefloor, 0x40006394)
                0x400063b0                PROVIDE (rom_get_power_db, 0x400063b0)
                0x40007268                PROVIDE (rom_i2c_readReg, 0x40007268)
                0x4000729c                PROVIDE (rom_i2c_readReg_Mask, 0x4000729c)
                0x400072d8                PROVIDE (rom_i2c_writeReg, 0x400072d8)
                0x4000730c                PROVIDE (rom_i2c_writeReg_Mask, 0x4000730c)
                0x40006400                PROVIDE (rom_iq_est_disable, 0x40006400)
                0x40006430                PROVIDE (rom_iq_est_enable, 0x40006430)
                0x40006484                PROVIDE (rom_linear_to_db, 0x40006484)
                0x400065a4                PROVIDE (rom_mhz2ieee, 0x400065a4)
                0x40007bf0                PROVIDE (rom_pbus_dco___SA2, 0x40007bf0)
                0x4000737c                PROVIDE (rom_pbus_debugmode, 0x4000737c)
                0x40007410                PROVIDE (rom_pbus_enter_debugmode, 0x40007410)
                0x40007448                PROVIDE (rom_pbus_exit_debugmode, 0x40007448)
                0x4000747c                PROVIDE (rom_pbus_force_test, 0x4000747c)
                0x400074d8                PROVIDE (rom_pbus_rd, 0x400074d8)
                0x4000754c                PROVIDE (rom_pbus_set_rxgain, 0x4000754c)
                0x40007610                PROVIDE (rom_pbus_set_txgain, 0x40007610)
                0x40007648                PROVIDE (rom_pbus_workmode, 0x40007648)
                0x40007688                PROVIDE (rom_pbus_xpd_rx_off, 0x40007688)
                0x400076cc                PROVIDE (rom_pbus_xpd_rx_on, 0x400076cc)
                0x400076fc                PROVIDE (rom_pbus_xpd_tx_off, 0x400076fc)
                0x40007740                PROVIDE (rom_pbus_xpd_tx_on, 0x40007740)
                0x400077a0                PROVIDE (rom_pbus_xpd_tx_on__low_gain, 0x400077a0)
                0x40007804                PROVIDE (rom_phy_reset_req, 0x40007804)
                0x4000781c                PROVIDE (rom_restart_cal, 0x4000781c)
                0x40007eb4                PROVIDE (rom_rfcal_pwrctrl, 0x40007eb4)
                0x4000804c                PROVIDE (rom_rfcal_rxiq, 0x4000804c)
                0x40008264                PROVIDE (rom_rfcal_rxiq_set_reg, 0x40008264)
                0x40008388                PROVIDE (rom_rfcal_txcap, 0x40008388)
                0x40008610                PROVIDE (rom_rfcal_txiq, 0x40008610)
                0x400088b8                PROVIDE (rom_rfcal_txiq_cover, 0x400088b8)
                0x40008a70                PROVIDE (rom_rfcal_txiq_set_reg, 0x40008a70)
                0x40007868                PROVIDE (rom_rfpll_reset, 0x40007868)
                0x40007968                PROVIDE (rom_rfpll_set_freq, 0x40007968)
                0x40008b6c                PROVIDE (rom_rxiq_cover_mg_mp, 0x40008b6c)
                0x40006628                PROVIDE (rom_rxiq_get_mis, 0x40006628)
                0x40006738                PROVIDE (rom_sar_init, 0x40006738)
                0x4000678c                PROVIDE (rom_set_ana_inf_tx_scale, 0x4000678c)
                0x40006c50                PROVIDE (rom_set_channel_freq, 0x40006c50)
                0x400067c8                PROVIDE (rom_set_loopback_gain, 0x400067c8)
                0x40006830                PROVIDE (rom_set_noise_floor, 0x40006830)
                0x40006550                PROVIDE (rom_set_rxclk_en, 0x40006550)
                0x40008c6c                PROVIDE (rom_set_txbb_atten, 0x40008c6c)
                0x4000650c                PROVIDE (rom_set_txclk_en, 0x4000650c)
                0x40008d34                PROVIDE (rom_set_txiq_cal, 0x40008d34)
                0x40006874                PROVIDE (rom_start_noisefloor, 0x40006874)
                0x400068b4                PROVIDE (rom_start_tx_tone, 0x400068b4)
                0x4000698c                PROVIDE (rom_stop_tx_tone, 0x4000698c)
                0x40006a98                PROVIDE (rom_tx_mac_disable, 0x40006a98)
                0x40006ad4                PROVIDE (rom_tx_mac_enable, 0x40006ad4)
                0x40006a1c                PROVIDE (rom_txtone_linear_pwr, 0x40006a1c)
                0x400078dc                PROVIDE (rom_write_rfpll_sdm, 0x400078dc)
                0x400031b4                PROVIDE (roundup2, 0x400031b4)
                0x40002870                PROVIDE (rtc_enter_sleep, 0x40002870)
                0x400025e0                PROVIDE (rtc_get_reset_reason, 0x400025e0)
                0x400029ec                PROVIDE (rtc_intr_handler, 0x400029ec)
                0x40002668                PROVIDE (rtc_set_sleep_mode, 0x40002668)
                0x400027a4                PROVIDE (save_rxbcn_mactime, 0x400027a4)
                0x400027ac                PROVIDE (save_tsf_us, 0x400027ac)
                0x40003c80                PROVIDE (send_packet, 0x40003c80)
                0x4000ba48                PROVIDE (sha1_prf, 0x4000ba48)
                0x4000a2ec                PROVIDE (sha1_vector, 0x4000a2ec)
                0x40005180                PROVIDE (sip_alloc_to_host_evt, 0x40005180)
                0x400058a8                PROVIDE (sip_get_ptr, 0x400058a8)
                0x40005668                PROVIDE (sip_get_state, 0x40005668)
                0x4000567c                PROVIDE (sip_init_attach, 0x4000567c)
                0x4000544c                PROVIDE (sip_install_rx_ctrl_cb, 0x4000544c)
                0x4000545c                PROVIDE (sip_install_rx_data_cb, 0x4000545c)
                0x400050fc                PROVIDE (sip_post, 0x400050fc)
                0x400056c4                PROVIDE (sip_post_init, 0x400056c4)
                0x4000534c                PROVIDE (sip_reclaim_from_host_cmd, 0x4000534c)
                0x400052c0                PROVIDE (sip_reclaim_tx_data_pkt, 0x400052c0)
                0x40005808                PROVIDE (sip_send, 0x40005808)
                0x40005864                PROVIDE (sip_to_host_chain_append, 0x40005864)
                0x40005234                PROVIDE (sip_to_host_evt_send_done, 0x40005234)
                0x400060ac                PROVIDE (slc_add_credits, 0x400060ac)
                0x40005d90                PROVIDE (slc_enable, 0x40005d90)
                0x40005f24                PROVIDE (slc_from_host_chain_fetch, 0x40005f24)
                0x40005e94                PROVIDE (slc_from_host_chain_recycle, 0x40005e94)
                0x40005c50                PROVIDE (slc_init_attach, 0x40005c50)
                0x4000608c                PROVIDE (slc_init_credit, 0x4000608c)
                0x40006014                PROVIDE (slc_pause_from_host, 0x40006014)
                0x40005c1c                PROVIDE (slc_reattach, 0x40005c1c)
                0x4000603c                PROVIDE (slc_resume_from_host, 0x4000603c)
                0x40005dc0                PROVIDE (slc_select_tohost_gpio, 0x40005dc0)
                0x40005db8                PROVIDE (slc_select_tohost_gpio_mode, 0x40005db8)
                0x40005de4                PROVIDE (slc_send_to_host_chain, 0x40005de4)
                0x40006068                PROVIDE (slc_set_host_io_max_window, 0x40006068)
                0x40005f10                PROVIDE (slc_to_host_chain_recycle, 0x40005f10)
                0x4000264c                PROVIDE (software_reset, 0x4000264c)
                0x40004644                PROVIDE (spi_flash_attach, 0x40004644)
                0x400005f0                PROVIDE (srand, 0x400005f0)
                0x4000bdc8                PROVIDE (strcmp, 0x4000bdc8)
                0x4000bec8                PROVIDE (strcpy, 0x4000bec8)
                0x4000bf4c                PROVIDE (strlen, 0x4000bf4c)
                0x4000bfa8                PROVIDE (strncmp, 0x4000bfa8)
                0x4000c0a0                PROVIDE (strncpy, 0x4000c0a0)
                0x4000e1e0                PROVIDE (strstr, 0x4000e1e0)
                0x40002c64                PROVIDE (timer_insert, 0x40002c64)
                0x4000383c                PROVIDE (uartAttach, 0x4000383c)
                0x40003924                PROVIDE (uart_baudrate_detect, 0x40003924)
                0x400038a4                PROVIDE (uart_buff_switch, 0x400038a4)
                0x40003bbc                PROVIDE (uart_rx_intr_handler, 0x40003bbc)
                0x40003b8c                PROVIDE (uart_rx_one_char, 0x40003b8c)
                0x40003b64                PROVIDE (uart_rx_one_char_block, 0x40003b64)
                0x40003ec8                PROVIDE (uart_rx_readbuff, 0x40003ec8)
                0x40003b30                PROVIDE (uart_tx_one_char, 0x40003b30)
                0x4000bc40                PROVIDE (wepkey_128, 0x4000bc40)
                0x4000bb3c                PROVIDE (wepkey_64, 0x4000bb3c)
                0x40000688                PROVIDE (xthal_bcopy, 0x40000688)
                0x4000074c                PROVIDE (xthal_copy123, 0x4000074c)
                0x4000dd4c                PROVIDE (xthal_get_ccompare, 0x4000dd4c)
                0x4000dd38                PROVIDE (xthal_get_ccount, 0x4000dd38)
                0x4000dd58                PROVIDE (xthal_get_interrupt, 0x4000dd58)
                0x4000dd58                PROVIDE (xthal_get_intread, 0x4000dd58)
                0x400006c4                PROVIDE (xthal_memcpy, 0x400006c4)
                0x4000dd40                PROVIDE (xthal_set_ccompare, 0x4000dd40)
                0x4000dd60                PROVIDE (xthal_set_intclear, 0x4000dd60)
                0x4000e320                PROVIDE (xthal_spill_registers_into_stack_nw, 0x4000e320)
                0x4000e324                PROVIDE (xthal_window_spill, 0x4000e324)
                0x4000e320                PROVIDE (xthal_window_spill_nw, 0x4000e320)
                0x3fffccf0                PROVIDE (Te0, 0x3fffccf0)
                0x3fffd100                PROVIDE (Td0, 0x3fffd100)
                0x3fffd500                PROVIDE (Td4s, 0x3fffd500)
                0x3fffd0f0                PROVIDE (rcons, 0x3fffd0f0)
                0x3fffde10                PROVIDE (UartDev, 0x3fffde10)
                0x3fffc714                PROVIDE (flashchip, 0x3fffc714)
OUTPUT(build/debug/app.out elf32-xtensa-le)

.xtensa.info    0x00000000       0x38
 .xtensa.info   0x00000000       0x38 c:/Espressif/ESP8266_SDK_210/lib\libmain.a(debug-vector.o)
 .xtensa.info   0x00000000        0x0 c:/Espressif/ESP8266_SDK_210/lib\libmain.a(double-vector.o)
 .xtensa.info   0x00000000        0x0 c:/Espressif/ESP8266_SDK_210/lib\libmain.a(kernel-vector.o)
 .xtensa.info   0x00000000        0x0 c:/Espressif/ESP8266_SDK_210/lib\libmain.a(nmi-vector.o)
 .xtensa.info   0x00000000        0x0 c:/Espressif/ESP8266_SDK_210/lib\libmain.a(user-vector.o)
 .xtensa.info   0x00000000        0x0 c:/Espressif/ESP8266_SDK_210/lib\libmain.a(vector.o)
 .xtensa.info   0x00000000        0x0 c:/Espressif/ESP8266_SDK_210/lib\libmain.a(app_main.o)
 .xtensa.info   0x00000000        0x0 c:/Espressif/ESP8266_SDK_210/lib\libmain.a(ets_timer.o)
 .xtensa.info   0x00000000        0x0 c:/Espressif/ESP8266_SDK_210/lib\libmain.a(mem_manager.o)
 .xtensa.info   0x00000000        0x0 c:/Espressif/ESP8266_SDK_210/lib\libmain.a(user_interface.o)
 .xtensa.info   0x00000000        0x0 c:/Espressif/ESP8266_SDK_210/lib\libmain.a(spi_flash.o)
 .xtensa.info   0x00000000        0x0 c:/Espressif/ESP8266_SDK_210/lib\libmain.a(eagle_lib.o)
 .xtensa.info   0x00000000        0x0 c:/Espressif/ESP8266_SDK_210/lib\libmain.a(eagle_lwip_if.o)
 .xtensa.info   0x00000000        0x0 build/debug/app_app.a(user_main.o)
 .xtensa.info   0x00000000        0x0 build/debug/app_app.a(hw_timer.o)
 .xtensa.info   0x00000000        0x0 build/debug/app_app.a(easygpio.o)
 .xtensa.info   0x00000000        0x0 build/debug/app_app.a(stdout.o)
 .xtensa.info   0x00000000        0x0 c:/espressif/xtensa-lx106-elf/bin/../lib/gcc/xtensa-lx106-elf/5.1.0/../../../../xtensa-lx106-elf/lib\libhal.a(int_asm--set_intclear.o)
 .xtensa.info   0x00000000        0x0 c:/Espressif/ESP8266_SDK_210/lib\libphy.a(phy.o)
 .xtensa.info   0x00000000        0x0 c:/Espressif/ESP8266_SDK_210/lib\libphy.a(phy_chip_v6_ana.o)
 .xtensa.info   0x00000000        0x0 c:/Espressif/ESP8266_SDK_210/lib\libphy.a(phy_chip_v6.o)
 .xtensa.info   0x00000000        0x0 c:/Espressif/ESP8266_SDK_210/lib\libphy.a(phy_chip_v6_cal.o)
 .xtensa.info   0x00000000        0x0 c:/Espressif/ESP8266_SDK_210/lib\libphy.a(phy_chip_v6_unused.o)
 .xtensa.info   0x00000000        0x0 c:/Espressif/ESP8266_SDK_210/lib\libphy.a(phy_sleep.o)
 .xtensa.info   0x00000000        0x0 c:/Espressif/ESP8266_SDK_210/lib\libpp.a(if_hwctrl.o)
 .xtensa.info   0x00000000        0x0 c:/Espressif/ESP8266_SDK_210/lib\libpp.a(lmac.o)
 .xtensa.info   0x00000000        0x0 c:/Espressif/ESP8266_SDK_210/lib\libpp.a(pm.o)
 .xtensa.info   0x00000000        0x0 c:/Espressif/ESP8266_SDK_210/lib\libpp.a(pm_for_bcn_only_mode.o)
 .xtensa.info   0x00000000        0x0 c:/Espressif/ESP8266_SDK_210/lib\libpp.a(pp.o)
 .xtensa.info   0x00000000        0x0 c:/Espressif/ESP8266_SDK_210/lib\libpp.a(rate_control.o)
 .xtensa.info   0x00000000        0x0 c:/Espressif/ESP8266_SDK_210/lib\libpp.a(trc.o)
 .xtensa.info   0x00000000        0x0 c:/Espressif/ESP8266_SDK_210/lib\libpp.a(wdev.o)
 .xtensa.info   0x00000000        0x0 c:/Espressif/ESP8266_SDK_210/lib\libpp.a(esf_buf.o)
 .xtensa.info   0x00000000        0x0 c:/Espressif/ESP8266_SDK_210/lib\libnet80211.a(ieee80211.o)
 .xtensa.info   0x00000000        0x0 c:/Espressif/ESP8266_SDK_210/lib\libnet80211.a(ieee80211_crypto.o)
 .xtensa.info   0x00000000        0x0 c:/Espressif/ESP8266_SDK_210/lib\libnet80211.a(ieee80211_ets.o)
 .xtensa.info   0x00000000        0x0 c:/Espressif/ESP8266_SDK_210/lib\libnet80211.a(ieee80211_hostap.o)
 .xtensa.info   0x00000000        0x0 c:/Espressif/ESP8266_SDK_210/lib\libnet80211.a(ieee80211_ht.o)
 .xtensa.info   0x00000000        0x0 c:/Espressif/ESP8266_SDK_210/lib\libnet80211.a(ieee80211_input.o)
 .xtensa.info   0x00000000        0x0 c:/Espressif/ESP8266_SDK_210/lib\libnet80211.a(ieee80211_mesh_quick.o)
 .xtensa.info   0x00000000        0x0 c:/Espressif/ESP8266_SDK_210/lib\libnet80211.a(ieee80211_output.o)
 .xtensa.info   0x00000000        0x0 c:/Espressif/ESP8266_SDK_210/lib\libnet80211.a(ieee80211_phy.o)
 .xtensa.info   0x00000000        0x0 c:/Espressif/ESP8266_SDK_210/lib\libnet80211.a(ieee80211_power.o)
 .xtensa.info   0x00000000        0x0 c:/Espressif/ESP8266_SDK_210/lib\libnet80211.a(ieee80211_proto.o)
 .xtensa.info   0x00000000        0x0 c:/Espressif/ESP8266_SDK_210/lib\libnet80211.a(ieee80211_regdomain.o)
 .xtensa.info   0x00000000        0x0 c:/Espressif/ESP8266_SDK_210/lib\libnet80211.a(ieee80211_rfid.o)
 .xtensa.info   0x00000000        0x0 c:/Espressif/ESP8266_SDK_210/lib\libnet80211.a(ieee80211_scan.o)
 .xtensa.info   0x00000000        0x0 c:/Espressif/ESP8266_SDK_210/lib\libnet80211.a(ieee80211_sta.o)
 .xtensa.info   0x00000000        0x0 c:/Espressif/ESP8266_SDK_210/lib\libnet80211.a(wl_chm.o)
 .xtensa.info   0x00000000        0x0 c:/Espressif/ESP8266_SDK_210/lib\libnet80211.a(wl_cnx.o)
 .xtensa.info   0x00000000        0x0 c:/Espressif/ESP8266_SDK_210/lib\libnet80211.a(ieee80211_action.o)
 .xtensa.info   0x00000000        0x0 c:/Espressif/ESP8266_SDK_210/lib\libnet80211.a(ieee80211_action_vendor.o)
 .xtensa.info   0x00000000        0x0 c:/Espressif/ESP8266_SDK_210/lib\libnet80211.a(ieee80211_crypto_ccmp.o)
 .xtensa.info   0x00000000        0x0 c:/Espressif/ESP8266_SDK_210/lib\libnet80211.a(ieee80211_ie_vendor.o)
 .xtensa.info   0x00000000        0x0 c:/Espressif/ESP8266_SDK_210/lib\liblwip.a(dhcp.o)
 .xtensa.info   0x00000000        0x0 c:/Espressif/ESP8266_SDK_210/lib\liblwip.a(dhcpserver.o)
 .xtensa.info   0x00000000        0x0 c:/Espressif/ESP8266_SDK_210/lib\liblwip.a(dns.o)
 .xtensa.info   0x00000000        0x0 c:/Espressif/ESP8266_SDK_210/lib\liblwip.a(espconn_tcp.o)
 .xtensa.info   0x00000000        0x0 c:/Espressif/ESP8266_SDK_210/lib\liblwip.a(etharp.o)
 .xtensa.info   0x00000000        0x0 c:/Espressif/ESP8266_SDK_210/lib\liblwip.a(init.o)
 .xtensa.info   0x00000000        0x0 c:/Espressif/ESP8266_SDK_210/lib\liblwip.a(ip_addr.o)
 .xtensa.info   0x00000000        0x0 c:/Espressif/ESP8266_SDK_210/lib\liblwip.a(ip.o)
 .xtensa.info   0x00000000        0x0 c:/Espressif/ESP8266_SDK_210/lib\liblwip.a(memp.o)
 .xtensa.info   0x00000000        0x0 c:/Espressif/ESP8266_SDK_210/lib\liblwip.a(netif.o)
 .xtensa.info   0x00000000        0x0 c:/Espressif/ESP8266_SDK_210/lib\liblwip.a(pbuf.o)
 .xtensa.info   0x00000000        0x0 c:/Espressif/ESP8266_SDK_210/lib\liblwip.a(raw.o)
 .xtensa.info   0x00000000        0x0 c:/Espressif/ESP8266_SDK_210/lib\liblwip.a(tcp_in.o)
 .xtensa.info   0x00000000        0x0 c:/Espressif/ESP8266_SDK_210/lib\liblwip.a(tcp.o)
 .xtensa.info   0x00000000        0x0 c:/Espressif/ESP8266_SDK_210/lib\liblwip.a(tcp_out.o)
 .xtensa.info   0x00000000        0x0 c:/Espressif/ESP8266_SDK_210/lib\liblwip.a(timers.o)
 .xtensa.info   0x00000000        0x0 c:/Espressif/ESP8266_SDK_210/lib\liblwip.a(udp.o)
 .xtensa.info   0x00000000        0x0 c:/Espressif/ESP8266_SDK_210/lib\liblwip.a(espconn_buf.o)
 .xtensa.info   0x00000000        0x0 c:/Espressif/ESP8266_SDK_210/lib\liblwip.a(espconn.o)
 .xtensa.info   0x00000000        0x0 c:/Espressif/ESP8266_SDK_210/lib\liblwip.a(espconn_udp.o)
 .xtensa.info   0x00000000        0x0 c:/Espressif/ESP8266_SDK_210/lib\liblwip.a(icmp.o)
 .xtensa.info   0x00000000        0x0 c:/Espressif/ESP8266_SDK_210/lib\liblwip.a(igmp.o)
 .xtensa.info   0x00000000        0x0 c:/Espressif/ESP8266_SDK_210/lib\liblwip.a(inet_chksum.o)
 .xtensa.info   0x00000000        0x0 c:/Espressif/ESP8266_SDK_210/lib\libwpa.a(ap_config.o)
 .xtensa.info   0x00000000        0x0 c:/Espressif/ESP8266_SDK_210/lib\libwpa.a(common.o)
 .xtensa.info   0x00000000        0x0 c:/Espressif/ESP8266_SDK_210/lib\libwpa.a(os_xtensa.o)
 .xtensa.info   0x00000000        0x0 c:/Espressif/ESP8266_SDK_210/lib\libwpa.a(wpa_auth.o)
 .xtensa.info   0x00000000        0x0 c:/Espressif/ESP8266_SDK_210/lib\libwpa.a(wpa_auth_ie.o)
 .xtensa.info   0x00000000        0x0 c:/Espressif/ESP8266_SDK_210/lib\libwpa.a(wpa.o)
 .xtensa.info   0x00000000        0x0 c:/Espressif/ESP8266_SDK_210/lib\libwpa.a(wpa_common.o)
 .xtensa.info   0x00000000        0x0 c:/Espressif/ESP8266_SDK_210/lib\libwpa.a(wpa_debug.o)
 .xtensa.info   0x00000000        0x0 c:/Espressif/ESP8266_SDK_210/lib\libwpa.a(wpa_ie.o)
 .xtensa.info   0x00000000        0x0 c:/Espressif/ESP8266_SDK_210/lib\libwpa.a(wpa_main.o)
 .xtensa.info   0x00000000        0x0 c:/Espressif/ESP8266_SDK_210/lib\libwpa.a(wpas_glue.o)
 .xtensa.info   0x00000000        0x0 c:/Espressif/ESP8266_SDK_210/lib\libcrypto.a(aes-wrap.o)
 .xtensa.info   0x00000000        0x0 c:/Espressif/ESP8266_SDK_210/lib\libcrypto.a(aes-internal-enc.o)
 .xtensa.info   0x00000000        0x0 c:/Espressif/ESP8266_SDK_210/lib\libcrypto.a(aes-internal.o)
 .xtensa.info   0x00000000        0x0 c:/Espressif/ESP8266_SDK_210/lib\libc.a(lib_a-memchr.o)
 .xtensa.info   0x00000000        0x0 c:/Espressif/ESP8266_SDK_210/lib\libgcc.a(_modsi3.o)
 .xtensa.info   0x00000000        0x0 c:/Espressif/ESP8266_SDK_210/lib\libgcc.a(_ashrdi3.o)
 .xtensa.info   0x00000000        0x0 c:/Espressif/ESP8266_SDK_210/lib\libgcc.a(_divsf3.o)
 .xtensa.info   0x00000000        0x0 c:/Espressif/ESP8266_SDK_210/lib\libgcc.a(_fixsfsi.o)
 .xtensa.info   0x00000000        0x0 c:/Espressif/ESP8266_SDK_210/lib\libnet80211.a(ieee80211_crypto_tkip.o)
 .xtensa.info   0x00000000        0x0 c:/Espressif/ESP8266_SDK_210/lib\libnet80211.a(ieee80211_crypto_wep.o)

.xt.prop        0x00000000    0x29784
 .xt.prop       0x00000000       0x18 c:/Espressif/ESP8266_SDK_210/lib\libmain.a(debug-vector.o)
 .xt.prop       0x00000018       0x18 c:/Espressif/ESP8266_SDK_210/lib\libmain.a(double-vector.o)
 .xt.prop       0x00000030       0x18 c:/Espressif/ESP8266_SDK_210/lib\libmain.a(kernel-vector.o)
 .xt.prop       0x00000048       0x30 c:/Espressif/ESP8266_SDK_210/lib\libmain.a(nmi-vector.o)
                                 0x3c (size before relaxing)
 .xt.prop       0x00000078       0x30 c:/Espressif/ESP8266_SDK_210/lib\libmain.a(user-vector.o)
                                 0x3c (size before relaxing)
 .xt.prop       0x000000a8       0x18 c:/Espressif/ESP8266_SDK_210/lib\libmain.a(vector.o)
 .xt.prop       0x000000c0     0x117c c:/Espressif/ESP8266_SDK_210/lib\libmain.a(app_main.o)
                               0x1230 (size before relaxing)
 .xt.prop       0x0000123c      0x5e8 c:/Espressif/ESP8266_SDK_210/lib\libmain.a(ets_timer.o)
                                0x630 (size before relaxing)
 .xt.prop       0x00001824      0x3e4 c:/Espressif/ESP8266_SDK_210/lib\libmain.a(mem_manager.o)
                                0x474 (size before relaxing)
 .xt.prop       0x00001c08     0x4044 c:/Espressif/ESP8266_SDK_210/lib\libmain.a(user_interface.o)
                               0x41f4 (size before relaxing)
 .xt.prop       0x00005c4c      0x648 c:/Espressif/ESP8266_SDK_210/lib\libmain.a(spi_flash.o)
                                0x660 (size before relaxing)
 .xt.prop       0x00006294      0x858 c:/Espressif/ESP8266_SDK_210/lib\libmain.a(eagle_lib.o)
 .xt.prop       0x00006aec      0x270 c:/Espressif/ESP8266_SDK_210/lib\libmain.a(eagle_lwip_if.o)
                                0x2a0 (size before relaxing)
 .xt.prop       0x00006d5c      0x204 build/debug/app_app.a(user_main.o)
                                0x288 (size before relaxing)
 .xt.prop       0x00006f60       0xc0 build/debug/app_app.a(hw_timer.o)
                                 0xcc (size before relaxing)
 .xt.prop       0x00007020      0x468 build/debug/app_app.a(easygpio.o)
 .xt.prop       0x00007488       0x60 build/debug/app_app.a(stdout.o)
 .xt.prop       0x000074e8       0x24 c:/espressif/xtensa-lx106-elf/bin/../lib/gcc/xtensa-lx106-elf/5.1.0/../../../../xtensa-lx106-elf/lib\libhal.a(int_asm--set_intclear.o)
 .xt.prop       0x0000750c      0x1d4 c:/Espressif/ESP8266_SDK_210/lib\libphy.a(phy.o)
                                0x1e0 (size before relaxing)
 .xt.prop       0x000076e0      0xdb0 c:/Espressif/ESP8266_SDK_210/lib\libphy.a(phy_chip_v6_ana.o)
                                0xdc8 (size before relaxing)
 .xt.prop       0x00008490     0x2124 c:/Espressif/ESP8266_SDK_210/lib\libphy.a(phy_chip_v6.o)
                               0x22e0 (size before relaxing)
 .xt.prop       0x0000a5b4     0x10b0 c:/Espressif/ESP8266_SDK_210/lib\libphy.a(phy_chip_v6_cal.o)
                               0x1110 (size before relaxing)
 .xt.prop       0x0000b664       0x60 c:/Espressif/ESP8266_SDK_210/lib\libphy.a(phy_chip_v6_unused.o)
                                 0x6c (size before relaxing)
 .xt.prop       0x0000b6c4      0x8f4 c:/Espressif/ESP8266_SDK_210/lib\libphy.a(phy_sleep.o)
                                0x948 (size before relaxing)
 .xt.prop       0x0000bfb8      0x528 c:/Espressif/ESP8266_SDK_210/lib\libpp.a(if_hwctrl.o)
                                0x558 (size before relaxing)
 .xt.prop       0x0000c4e0     0x1500 c:/Espressif/ESP8266_SDK_210/lib\libpp.a(lmac.o)
                               0x1554 (size before relaxing)
 .xt.prop       0x0000d9e0     0x16c8 c:/Espressif/ESP8266_SDK_210/lib\libpp.a(pm.o)
                               0x17ac (size before relaxing)
 .xt.prop       0x0000f0a8      0x9d8 c:/Espressif/ESP8266_SDK_210/lib\libpp.a(pm_for_bcn_only_mode.o)
                                0xa08 (size before relaxing)
 .xt.prop       0x0000fa80     0x1c14 c:/Espressif/ESP8266_SDK_210/lib\libpp.a(pp.o)
                               0x1e30 (size before relaxing)
 .xt.prop       0x00011694      0x1bc c:/Espressif/ESP8266_SDK_210/lib\libpp.a(rate_control.o)
                                0x1d4 (size before relaxing)
 .xt.prop       0x00011850     0x1158 c:/Espressif/ESP8266_SDK_210/lib\libpp.a(trc.o)
                               0x11b8 (size before relaxing)
 .xt.prop       0x000129a8     0x13a4 c:/Espressif/ESP8266_SDK_210/lib\libpp.a(wdev.o)
                               0x147c (size before relaxing)
 .xt.prop       0x00013d4c      0x264 c:/Espressif/ESP8266_SDK_210/lib\libpp.a(esf_buf.o)
                                0x2e8 (size before relaxing)
 .xt.prop       0x00013fb0      0x4a4 c:/Espressif/ESP8266_SDK_210/lib\libnet80211.a(ieee80211.o)
                                0x4c8 (size before relaxing)
 .xt.prop       0x00014454      0x15c c:/Espressif/ESP8266_SDK_210/lib\libnet80211.a(ieee80211_crypto.o)
 .xt.prop       0x000145b0       0x48 c:/Espressif/ESP8266_SDK_210/lib\libnet80211.a(ieee80211_ets.o)
 .xt.prop       0x000145f8      0xf3c c:/Espressif/ESP8266_SDK_210/lib\libnet80211.a(ieee80211_hostap.o)
                               0x1044 (size before relaxing)
 .xt.prop       0x00015534      0x6b4 c:/Espressif/ESP8266_SDK_210/lib\libnet80211.a(ieee80211_ht.o)
                                0x6c0 (size before relaxing)
 .xt.prop       0x00015be8      0x900 c:/Espressif/ESP8266_SDK_210/lib\libnet80211.a(ieee80211_input.o)
                                0x90c (size before relaxing)
 .xt.prop       0x000164e8      0x468 c:/Espressif/ESP8266_SDK_210/lib\libnet80211.a(ieee80211_mesh_quick.o)
 .xt.prop       0x00016950     0x1314 c:/Espressif/ESP8266_SDK_210/lib\libnet80211.a(ieee80211_output.o)
                               0x1320 (size before relaxing)
 .xt.prop       0x00017c64      0x108 c:/Espressif/ESP8266_SDK_210/lib\libnet80211.a(ieee80211_phy.o)
 .xt.prop       0x00017d6c      0x1c8 c:/Espressif/ESP8266_SDK_210/lib\libnet80211.a(ieee80211_power.o)
 .xt.prop       0x00017f34      0x12c c:/Espressif/ESP8266_SDK_210/lib\libnet80211.a(ieee80211_proto.o)
                                0x138 (size before relaxing)
 .xt.prop       0x00018060      0x234 c:/Espressif/ESP8266_SDK_210/lib\libnet80211.a(ieee80211_regdomain.o)
 .xt.prop       0x00018294      0x12c c:/Espressif/ESP8266_SDK_210/lib\libnet80211.a(ieee80211_rfid.o)
 .xt.prop       0x000183c0      0xcd8 c:/Espressif/ESP8266_SDK_210/lib\libnet80211.a(ieee80211_scan.o)
                                0xd8c (size before relaxing)
 .xt.prop       0x00019098      0xab0 c:/Espressif/ESP8266_SDK_210/lib\libnet80211.a(ieee80211_sta.o)
                                0xaec (size before relaxing)
 .xt.prop       0x00019b48      0x2e8 c:/Espressif/ESP8266_SDK_210/lib\libnet80211.a(wl_chm.o)
                                0x2f4 (size before relaxing)
 .xt.prop       0x00019e30     0x12b4 c:/Espressif/ESP8266_SDK_210/lib\libnet80211.a(wl_cnx.o)
                               0x132c (size before relaxing)
 .xt.prop       0x0001b0e4      0x33c c:/Espressif/ESP8266_SDK_210/lib\libnet80211.a(ieee80211_action.o)
 .xt.prop       0x0001b420      0x480 c:/Espressif/ESP8266_SDK_210/lib\libnet80211.a(ieee80211_action_vendor.o)
                                0x4c8 (size before relaxing)
 .xt.prop       0x0001b8a0       0xcc c:/Espressif/ESP8266_SDK_210/lib\libnet80211.a(ieee80211_crypto_ccmp.o)
                                 0xd8 (size before relaxing)
 .xt.prop       0x0001b96c      0x120 c:/Espressif/ESP8266_SDK_210/lib\libnet80211.a(ieee80211_ie_vendor.o)
 .xt.prop       0x0001ba8c      0xdc8 c:/Espressif/ESP8266_SDK_210/lib\liblwip.a(dhcp.o)
                                0xe04 (size before relaxing)
 .xt.prop       0x0001c854      0xad4 c:/Espressif/ESP8266_SDK_210/lib\liblwip.a(dhcpserver.o)
                                0xb34 (size before relaxing)
 .xt.prop       0x0001d328      0x468 c:/Espressif/ESP8266_SDK_210/lib\liblwip.a(dns.o)
                                0x4d4 (size before relaxing)
 .xt.prop       0x0001d790      0xf24 c:/Espressif/ESP8266_SDK_210/lib\liblwip.a(espconn_tcp.o)
                                0xf30 (size before relaxing)
 .xt.prop       0x0001e6b4      0x714 c:/Espressif/ESP8266_SDK_210/lib\liblwip.a(etharp.o)
                                0x75c (size before relaxing)
 .xt.prop       0x0001edc8       0x24 c:/Espressif/ESP8266_SDK_210/lib\liblwip.a(init.o)
 .xt.prop       0x0001edec      0x330 c:/Espressif/ESP8266_SDK_210/lib\liblwip.a(ip_addr.o)
                                0x33c (size before relaxing)
 .xt.prop       0x0001f11c      0x45c c:/Espressif/ESP8266_SDK_210/lib\liblwip.a(ip.o)
                                0x4a4 (size before relaxing)
 .xt.prop       0x0001f578        0x0 c:/Espressif/ESP8266_SDK_210/lib\liblwip.a(memp.o)
                                 0x18 (size before relaxing)
 .xt.prop       0x0001f578      0x348 c:/Espressif/ESP8266_SDK_210/lib\liblwip.a(netif.o)
                                0x36c (size before relaxing)
 .xt.prop       0x0001f8c0      0x7d4 c:/Espressif/ESP8266_SDK_210/lib\liblwip.a(pbuf.o)
                                0x7e0 (size before relaxing)
 .xt.prop       0x00020094      0x2a0 c:/Espressif/ESP8266_SDK_210/lib\liblwip.a(raw.o)
                                0x2b8 (size before relaxing)
 .xt.prop       0x00020334      0xc6c c:/Espressif/ESP8266_SDK_210/lib\liblwip.a(tcp_in.o)
                                0xcfc (size before relaxing)
 .xt.prop       0x00020fa0      0xd20 c:/Espressif/ESP8266_SDK_210/lib\liblwip.a(tcp.o)
                                0xd8c (size before relaxing)
 .xt.prop       0x00021cc0      0x984 c:/Espressif/ESP8266_SDK_210/lib\liblwip.a(tcp_out.o)
                                0x990 (size before relaxing)
 .xt.prop       0x00022644      0x354 c:/Espressif/ESP8266_SDK_210/lib\liblwip.a(timers.o)
                                0x384 (size before relaxing)
 .xt.prop       0x00022998      0x5ac c:/Espressif/ESP8266_SDK_210/lib\liblwip.a(udp.o)
                                0x5c4 (size before relaxing)
 .xt.prop       0x00022f44      0x60c c:/Espressif/ESP8266_SDK_210/lib\liblwip.a(espconn_buf.o)
                                0x618 (size before relaxing)
 .xt.prop       0x00023550      0xffc c:/Espressif/ESP8266_SDK_210/lib\liblwip.a(espconn.o)
                               0x105c (size before relaxing)
 .xt.prop       0x0002454c      0x33c c:/Espressif/ESP8266_SDK_210/lib\liblwip.a(espconn_udp.o)
                                0x348 (size before relaxing)
 .xt.prop       0x00024888      0x144 c:/Espressif/ESP8266_SDK_210/lib\liblwip.a(icmp.o)
 .xt.prop       0x000249cc      0x654 c:/Espressif/ESP8266_SDK_210/lib\liblwip.a(igmp.o)
                                0x684 (size before relaxing)
 .xt.prop       0x00025020      0x198 c:/Espressif/ESP8266_SDK_210/lib\liblwip.a(inet_chksum.o)
 .xt.prop       0x000251b8      0x2f4 c:/Espressif/ESP8266_SDK_210/lib\libwpa.a(ap_config.o)
                                0x300 (size before relaxing)
 .xt.prop       0x000254ac      0x234 c:/Espressif/ESP8266_SDK_210/lib\libwpa.a(common.o)
                                0x240 (size before relaxing)
 .xt.prop       0x000256e0      0x108 c:/Espressif/ESP8266_SDK_210/lib\libwpa.a(os_xtensa.o)
                                0x114 (size before relaxing)
 .xt.prop       0x000257e8     0x16ec c:/Espressif/ESP8266_SDK_210/lib\libwpa.a(wpa_auth.o)
 .xt.prop       0x00026ed4      0x480 c:/Espressif/ESP8266_SDK_210/lib\libwpa.a(wpa_auth_ie.o)
                                0x48c (size before relaxing)
 .xt.prop       0x00027354      0xda4 c:/Espressif/ESP8266_SDK_210/lib\libwpa.a(wpa.o)
                                0xdc8 (size before relaxing)
 .xt.prop       0x000280f8      0x7a4 c:/Espressif/ESP8266_SDK_210/lib\libwpa.a(wpa_common.o)
 .xt.prop       0x0002889c       0xd8 c:/Espressif/ESP8266_SDK_210/lib\libwpa.a(wpa_debug.o)
 .xt.prop       0x00028974      0x384 c:/Espressif/ESP8266_SDK_210/lib\libwpa.a(wpa_ie.o)
 .xt.prop       0x00028cf8      0x33c c:/Espressif/ESP8266_SDK_210/lib\libwpa.a(wpa_main.o)
                                0x348 (size before relaxing)
 .xt.prop       0x00029034      0x12c c:/Espressif/ESP8266_SDK_210/lib\libwpa.a(wpas_glue.o)
 .xt.prop       0x00029160       0x6c c:/Espressif/ESP8266_SDK_210/lib\libcrypto.a(aes-wrap.o)
 .xt.prop       0x000291cc       0xe4 c:/Espressif/ESP8266_SDK_210/lib\libcrypto.a(aes-internal-enc.o)
                                 0xf0 (size before relaxing)
 .xt.prop       0x000292b0       0xb4 c:/Espressif/ESP8266_SDK_210/lib\libcrypto.a(aes-internal.o)
 .xt.prop       0x00029364       0x48 c:/Espressif/ESP8266_SDK_210/lib\libc.a(lib_a-memchr.o)
 .xt.prop       0x000293ac       0x84 c:/Espressif/ESP8266_SDK_210/lib\libgcc.a(_modsi3.o)
 .xt.prop       0x00029430       0x3c c:/Espressif/ESP8266_SDK_210/lib\libgcc.a(_ashrdi3.o)
 .xt.prop       0x0002946c      0x168 c:/Espressif/ESP8266_SDK_210/lib\libgcc.a(_divsf3.o)
 .xt.prop       0x000295d4       0x60 c:/Espressif/ESP8266_SDK_210/lib\libgcc.a(_fixsfsi.o)
                                 0x6c (size before relaxing)
 .xt.prop       0x00029634       0xe4 c:/Espressif/ESP8266_SDK_210/lib\libnet80211.a(ieee80211_crypto_tkip.o)
                                 0xfc (size before relaxing)
 .xt.prop       0x00029718       0x6c c:/Espressif/ESP8266_SDK_210/lib\libnet80211.a(ieee80211_crypto_wep.o)
                                 0x78 (size before relaxing)

.xt.lit         0x00000000     0x13f8
 .xt.lit        0x00000000        0x8 c:/Espressif/ESP8266_SDK_210/lib\libmain.a(nmi-vector.o)
                                 0x10 (size before relaxing)
 .xt.lit        0x00000008        0x8 c:/Espressif/ESP8266_SDK_210/lib\libmain.a(user-vector.o)
                                 0x10 (size before relaxing)
 .xt.lit        0x00000010        0x8 c:/Espressif/ESP8266_SDK_210/lib\libmain.a(vector.o)
 .xt.lit        0x00000018       0xb0 c:/Espressif/ESP8266_SDK_210/lib\libmain.a(app_main.o)
                                 0xb8 (size before relaxing)
 .xt.lit        0x000000c8       0x48 c:/Espressif/ESP8266_SDK_210/lib\libmain.a(ets_timer.o)
 .xt.lit        0x00000110       0x40 c:/Espressif/ESP8266_SDK_210/lib\libmain.a(mem_manager.o)
                                 0x60 (size before relaxing)
 .xt.lit        0x00000150      0x218 c:/Espressif/ESP8266_SDK_210/lib\libmain.a(user_interface.o)
                                0x520 (size before relaxing)
 .xt.lit        0x00000368       0x88 c:/Espressif/ESP8266_SDK_210/lib\libmain.a(spi_flash.o)
 .xt.lit        0x000003f0       0x10 c:/Espressif/ESP8266_SDK_210/lib\libmain.a(eagle_lib.o)
                                 0x18 (size before relaxing)
 .xt.lit        0x00000400        0x8 c:/Espressif/ESP8266_SDK_210/lib\libmain.a(eagle_lwip_if.o)
                                 0x28 (size before relaxing)
 .xt.lit        0x00000408       0x28 build/debug/app_app.a(user_main.o)
 .xt.lit        0x00000430       0x10 build/debug/app_app.a(hw_timer.o)
                                 0x20 (size before relaxing)
 .xt.lit        0x00000440       0x38 build/debug/app_app.a(easygpio.o)
                                 0x40 (size before relaxing)
 .xt.lit        0x00000478       0x10 build/debug/app_app.a(stdout.o)
 .xt.lit        0x00000488       0x10 c:/Espressif/ESP8266_SDK_210/lib\libphy.a(phy.o)
                                 0x68 (size before relaxing)
 .xt.lit        0x00000498       0x98 c:/Espressif/ESP8266_SDK_210/lib\libphy.a(phy_chip_v6_ana.o)
                                 0xc8 (size before relaxing)
 .xt.lit        0x00000530      0x160 c:/Espressif/ESP8266_SDK_210/lib\libphy.a(phy_chip_v6.o)
                                0x250 (size before relaxing)
 .xt.lit        0x00000690       0x80 c:/Espressif/ESP8266_SDK_210/lib\libphy.a(phy_chip_v6_cal.o)
                                 0xf0 (size before relaxing)
 .xt.lit        0x00000710       0x80 c:/Espressif/ESP8266_SDK_210/lib\libphy.a(phy_sleep.o)
                                 0xd8 (size before relaxing)
 .xt.lit        0x00000790       0x30 c:/Espressif/ESP8266_SDK_210/lib\libpp.a(if_hwctrl.o)
                                 0xa0 (size before relaxing)
 .xt.lit        0x000007c0       0x70 c:/Espressif/ESP8266_SDK_210/lib\libpp.a(lmac.o)
                                0x130 (size before relaxing)
 .xt.lit        0x00000830       0xe8 c:/Espressif/ESP8266_SDK_210/lib\libpp.a(pm.o)
                                0x1a8 (size before relaxing)
 .xt.lit        0x00000918       0x48 c:/Espressif/ESP8266_SDK_210/lib\libpp.a(pm_for_bcn_only_mode.o)
                                 0xa8 (size before relaxing)
 .xt.lit        0x00000960       0xd8 c:/Espressif/ESP8266_SDK_210/lib\libpp.a(pp.o)
                                0x1d8 (size before relaxing)
 .xt.lit        0x00000a38       0x18 c:/Espressif/ESP8266_SDK_210/lib\libpp.a(rate_control.o)
                                 0x38 (size before relaxing)
 .xt.lit        0x00000a50       0x68 c:/Espressif/ESP8266_SDK_210/lib\libpp.a(trc.o)
                                 0xa8 (size before relaxing)
 .xt.lit        0x00000ab8       0xe0 c:/Espressif/ESP8266_SDK_210/lib\libpp.a(wdev.o)
                                0x1b0 (size before relaxing)
 .xt.lit        0x00000b98       0x18 c:/Espressif/ESP8266_SDK_210/lib\libpp.a(esf_buf.o)
                                 0x20 (size before relaxing)
 .xt.lit        0x00000bb0       0x40 c:/Espressif/ESP8266_SDK_210/lib\libnet80211.a(ieee80211.o)
                                 0x50 (size before relaxing)
 .xt.lit        0x00000bf0        0x0 c:/Espressif/ESP8266_SDK_210/lib\libnet80211.a(ieee80211_crypto.o)
                                 0x10 (size before relaxing)
 .xt.lit        0x00000bf0        0x8 c:/Espressif/ESP8266_SDK_210/lib\libnet80211.a(ieee80211_ets.o)
 .xt.lit        0x00000bf8       0x68 c:/Espressif/ESP8266_SDK_210/lib\libnet80211.a(ieee80211_hostap.o)
                                 0x88 (size before relaxing)
 .xt.lit        0x00000c60       0x50 c:/Espressif/ESP8266_SDK_210/lib\libnet80211.a(ieee80211_ht.o)
                                 0x90 (size before relaxing)
 .xt.lit        0x00000cb0       0x38 c:/Espressif/ESP8266_SDK_210/lib\libnet80211.a(ieee80211_input.o)
                                 0x60 (size before relaxing)
 .xt.lit        0x00000ce8       0x18 c:/Espressif/ESP8266_SDK_210/lib\libnet80211.a(ieee80211_mesh_quick.o)
                                 0x28 (size before relaxing)
 .xt.lit        0x00000d00       0x58 c:/Espressif/ESP8266_SDK_210/lib\libnet80211.a(ieee80211_output.o)
                                 0xb8 (size before relaxing)
 .xt.lit        0x00000d58        0x8 c:/Espressif/ESP8266_SDK_210/lib\libnet80211.a(ieee80211_phy.o)
                                 0x18 (size before relaxing)
 .xt.lit        0x00000d60        0x8 c:/Espressif/ESP8266_SDK_210/lib\libnet80211.a(ieee80211_power.o)
                                 0x28 (size before relaxing)
 .xt.lit        0x00000d68       0x18 c:/Espressif/ESP8266_SDK_210/lib\libnet80211.a(ieee80211_proto.o)
 .xt.lit        0x00000d80       0x18 c:/Espressif/ESP8266_SDK_210/lib\libnet80211.a(ieee80211_regdomain.o)
                                 0x20 (size before relaxing)
 .xt.lit        0x00000d98       0x10 c:/Espressif/ESP8266_SDK_210/lib\libnet80211.a(ieee80211_rfid.o)
                                 0x30 (size before relaxing)
 .xt.lit        0x00000da8       0x58 c:/Espressif/ESP8266_SDK_210/lib\libnet80211.a(ieee80211_scan.o)
                                 0xf8 (size before relaxing)
 .xt.lit        0x00000e00       0x48 c:/Espressif/ESP8266_SDK_210/lib\libnet80211.a(ieee80211_sta.o)
                                 0x68 (size before relaxing)
 .xt.lit        0x00000e48       0x20 c:/Espressif/ESP8266_SDK_210/lib\libnet80211.a(wl_chm.o)
                                 0x68 (size before relaxing)
 .xt.lit        0x00000e68       0x98 c:/Espressif/ESP8266_SDK_210/lib\libnet80211.a(wl_cnx.o)
                                0x160 (size before relaxing)
 .xt.lit        0x00000f00       0x20 c:/Espressif/ESP8266_SDK_210/lib\libnet80211.a(ieee80211_action.o)
                                 0x30 (size before relaxing)
 .xt.lit        0x00000f20       0x20 c:/Espressif/ESP8266_SDK_210/lib\libnet80211.a(ieee80211_action_vendor.o)
                                 0x60 (size before relaxing)
 .xt.lit        0x00000f40        0x0 c:/Espressif/ESP8266_SDK_210/lib\libnet80211.a(ieee80211_crypto_ccmp.o)
                                 0x10 (size before relaxing)
 .xt.lit        0x00000f40        0x8 c:/Espressif/ESP8266_SDK_210/lib\libnet80211.a(ieee80211_ie_vendor.o)
                                 0x40 (size before relaxing)
 .xt.lit        0x00000f48       0x60 c:/Espressif/ESP8266_SDK_210/lib\liblwip.a(dhcp.o)
                                 0xe0 (size before relaxing)
 .xt.lit        0x00000fa8       0x38 c:/Espressif/ESP8266_SDK_210/lib\liblwip.a(dhcpserver.o)
                                 0xa8 (size before relaxing)
 .xt.lit        0x00000fe0       0x20 c:/Espressif/ESP8266_SDK_210/lib\liblwip.a(dns.o)
                                 0x50 (size before relaxing)
 .xt.lit        0x00001000       0x88 c:/Espressif/ESP8266_SDK_210/lib\liblwip.a(espconn_tcp.o)
                                 0xf8 (size before relaxing)
 .xt.lit        0x00001088       0x28 c:/Espressif/ESP8266_SDK_210/lib\liblwip.a(etharp.o)
                                 0x80 (size before relaxing)
 .xt.lit        0x000010b0        0x8 c:/Espressif/ESP8266_SDK_210/lib\liblwip.a(init.o)
 .xt.lit        0x000010b8       0x18 c:/Espressif/ESP8266_SDK_210/lib\liblwip.a(ip_addr.o)
                                 0x28 (size before relaxing)
 .xt.lit        0x000010d0       0x20 c:/Espressif/ESP8266_SDK_210/lib\liblwip.a(ip.o)
                                 0x30 (size before relaxing)
 .xt.lit        0x000010f0       0x10 c:/Espressif/ESP8266_SDK_210/lib\liblwip.a(netif.o)
                                 0x48 (size before relaxing)
 .xt.lit        0x00001100       0x10 c:/Espressif/ESP8266_SDK_210/lib\liblwip.a(pbuf.o)
                                 0x68 (size before relaxing)
 .xt.lit        0x00001110       0x10 c:/Espressif/ESP8266_SDK_210/lib\liblwip.a(raw.o)
                                 0x28 (size before relaxing)
 .xt.lit        0x00001120       0x18 c:/Espressif/ESP8266_SDK_210/lib\liblwip.a(tcp_in.o)
                                 0x38 (size before relaxing)
 .xt.lit        0x00001138       0x38 c:/Espressif/ESP8266_SDK_210/lib\liblwip.a(tcp.o)
                                 0xd0 (size before relaxing)
 .xt.lit        0x00001170       0x30 c:/Espressif/ESP8266_SDK_210/lib\liblwip.a(tcp_out.o)
                                 0x80 (size before relaxing)
 .xt.lit        0x000011a0       0x50 c:/Espressif/ESP8266_SDK_210/lib\liblwip.a(timers.o)
                                 0x68 (size before relaxing)
 .xt.lit        0x000011f0       0x10 c:/Espressif/ESP8266_SDK_210/lib\liblwip.a(udp.o)
                                 0x40 (size before relaxing)
 .xt.lit        0x00001200       0x38 c:/Espressif/ESP8266_SDK_210/lib\liblwip.a(espconn_buf.o)
                                 0x68 (size before relaxing)
 .xt.lit        0x00001238       0x18 c:/Espressif/ESP8266_SDK_210/lib\liblwip.a(espconn.o)
                                0x110 (size before relaxing)
 .xt.lit        0x00001250       0x18 c:/Espressif/ESP8266_SDK_210/lib\liblwip.a(espconn_udp.o)
                                 0x40 (size before relaxing)
 .xt.lit        0x00001268        0x8 c:/Espressif/ESP8266_SDK_210/lib\liblwip.a(icmp.o)
                                 0x18 (size before relaxing)
 .xt.lit        0x00001270       0x18 c:/Espressif/ESP8266_SDK_210/lib\liblwip.a(igmp.o)
                                 0x80 (size before relaxing)
 .xt.lit        0x00001288        0x0 c:/Espressif/ESP8266_SDK_210/lib\liblwip.a(inet_chksum.o)
                                 0x20 (size before relaxing)
 .xt.lit        0x00001288       0x18 c:/Espressif/ESP8266_SDK_210/lib\libwpa.a(ap_config.o)
                                 0x48 (size before relaxing)
 .xt.lit        0x000012a0       0x10 c:/Espressif/ESP8266_SDK_210/lib\libwpa.a(common.o)
                                 0x28 (size before relaxing)
 .xt.lit        0x000012b0        0x8 c:/Espressif/ESP8266_SDK_210/lib\libwpa.a(os_xtensa.o)
                                 0x20 (size before relaxing)
 .xt.lit        0x000012b8       0x68 c:/Espressif/ESP8266_SDK_210/lib\libwpa.a(wpa_auth.o)
                                0x158 (size before relaxing)
 .xt.lit        0x00001320       0x10 c:/Espressif/ESP8266_SDK_210/lib\libwpa.a(wpa_auth_ie.o)
                                 0x38 (size before relaxing)
 .xt.lit        0x00001330       0x40 c:/Espressif/ESP8266_SDK_210/lib\libwpa.a(wpa.o)
                                0x120 (size before relaxing)
 .xt.lit        0x00001370       0x28 c:/Espressif/ESP8266_SDK_210/lib\libwpa.a(wpa_common.o)
                                 0x58 (size before relaxing)
 .xt.lit        0x00001398        0x8 c:/Espressif/ESP8266_SDK_210/lib\libwpa.a(wpa_debug.o)
                                 0x18 (size before relaxing)
 .xt.lit        0x000013a0        0x0 c:/Espressif/ESP8266_SDK_210/lib\libwpa.a(wpa_ie.o)
                                 0x20 (size before relaxing)
 .xt.lit        0x000013a0       0x18 c:/Espressif/ESP8266_SDK_210/lib\libwpa.a(wpa_main.o)
                                 0x50 (size before relaxing)
 .xt.lit        0x000013b8        0x0 c:/Espressif/ESP8266_SDK_210/lib\libwpa.a(wpas_glue.o)
                                 0x10 (size before relaxing)
 .xt.lit        0x000013b8        0x8 c:/Espressif/ESP8266_SDK_210/lib\libcrypto.a(aes-wrap.o)
 .xt.lit        0x000013c0       0x10 c:/Espressif/ESP8266_SDK_210/lib\libcrypto.a(aes-internal-enc.o)
                                 0x20 (size before relaxing)
 .xt.lit        0x000013d0        0x8 c:/Espressif/ESP8266_SDK_210/lib\libcrypto.a(aes-internal.o)
 .xt.lit        0x000013d8        0x8 c:/Espressif/ESP8266_SDK_210/lib\libgcc.a(_divsf3.o)
 .xt.lit        0x000013e0        0x0 c:/Espressif/ESP8266_SDK_210/lib\libgcc.a(_fixsfsi.o)
                                  0x8 (size before relaxing)
 .xt.lit        0x000013e0       0x10 c:/Espressif/ESP8266_SDK_210/lib\libnet80211.a(ieee80211_crypto_tkip.o)
 .xt.lit        0x000013f0        0x8 c:/Espressif/ESP8266_SDK_210/lib\libnet80211.a(ieee80211_crypto_wep.o)

.comment        0x00000000     0x1bce
 .comment       0x00000000       0x55 c:/Espressif/ESP8266_SDK_210/lib\libmain.a(app_main.o)
                                 0x56 (size before relaxing)
 .comment       0x00000055       0x56 c:/Espressif/ESP8266_SDK_210/lib\libmain.a(ets_timer.o)
                                 0x57 (size before relaxing)
 .comment       0x000000ab       0x58 c:/Espressif/ESP8266_SDK_210/lib\libmain.a(mem_manager.o)
                                 0x59 (size before relaxing)
 .comment       0x00000103       0x5b c:/Espressif/ESP8266_SDK_210/lib\libmain.a(user_interface.o)
                                 0x5c (size before relaxing)
 .comment       0x0000015e       0x56 c:/Espressif/ESP8266_SDK_210/lib\libmain.a(spi_flash.o)
                                 0x57 (size before relaxing)
 .comment       0x000001b4       0x56 c:/Espressif/ESP8266_SDK_210/lib\libmain.a(eagle_lib.o)
                                 0x57 (size before relaxing)
 .comment       0x0000020a       0x5a c:/Espressif/ESP8266_SDK_210/lib\libmain.a(eagle_lwip_if.o)
                                 0x5b (size before relaxing)
 .comment       0x00000264       0x11 build/debug/app_app.a(user_main.o)
                                 0x12 (size before relaxing)
 .comment       0x00000000       0x12 build/debug/app_app.a(hw_timer.o)
 .comment       0x00000000       0x12 build/debug/app_app.a(easygpio.o)
 .comment       0x00000000       0x12 build/debug/app_app.a(stdout.o)
 .comment       0x00000275       0x41 c:/Espressif/ESP8266_SDK_210/lib\libphy.a(phy.o)
 .comment       0x000002b6       0x4d c:/Espressif/ESP8266_SDK_210/lib\libphy.a(phy_chip_v6_ana.o)
 .comment       0x00000303       0x49 c:/Espressif/ESP8266_SDK_210/lib\libphy.a(phy_chip_v6.o)
 .comment       0x0000034c       0x4d c:/Espressif/ESP8266_SDK_210/lib\libphy.a(phy_chip_v6_cal.o)
 .comment       0x00000399       0x50 c:/Espressif/ESP8266_SDK_210/lib\libphy.a(phy_chip_v6_unused.o)
 .comment       0x000003e9       0x47 c:/Espressif/ESP8266_SDK_210/lib\libphy.a(phy_sleep.o)
 .comment       0x00000430       0x56 c:/Espressif/ESP8266_SDK_210/lib\libpp.a(if_hwctrl.o)
                                 0x57 (size before relaxing)
 .comment       0x00000486       0x51 c:/Espressif/ESP8266_SDK_210/lib\libpp.a(lmac.o)
                                 0x52 (size before relaxing)
 .comment       0x000004d7       0x4f c:/Espressif/ESP8266_SDK_210/lib\libpp.a(pm.o)
                                 0x50 (size before relaxing)
 .comment       0x00000526       0x61 c:/Espressif/ESP8266_SDK_210/lib\libpp.a(pm_for_bcn_only_mode.o)
                                 0x62 (size before relaxing)
 .comment       0x00000587       0x4f c:/Espressif/ESP8266_SDK_210/lib\libpp.a(pp.o)
                                 0x50 (size before relaxing)
 .comment       0x000005d6       0x59 c:/Espressif/ESP8266_SDK_210/lib\libpp.a(rate_control.o)
                                 0x5a (size before relaxing)
 .comment       0x0000062f       0x50 c:/Espressif/ESP8266_SDK_210/lib\libpp.a(trc.o)
                                 0x51 (size before relaxing)
 .comment       0x0000067f       0x51 c:/Espressif/ESP8266_SDK_210/lib\libpp.a(wdev.o)
                                 0x52 (size before relaxing)
 .comment       0x000006d0       0x54 c:/Espressif/ESP8266_SDK_210/lib\libpp.a(esf_buf.o)
                                 0x55 (size before relaxing)
 .comment       0x00000724       0x56 c:/Espressif/ESP8266_SDK_210/lib\libnet80211.a(ieee80211.o)
                                 0x57 (size before relaxing)
 .comment       0x0000077a       0x5d c:/Espressif/ESP8266_SDK_210/lib\libnet80211.a(ieee80211_crypto.o)
                                 0x5e (size before relaxing)
 .comment       0x000007d7       0x5a c:/Espressif/ESP8266_SDK_210/lib\libnet80211.a(ieee80211_ets.o)
                                 0x5b (size before relaxing)
 .comment       0x00000831       0x5d c:/Espressif/ESP8266_SDK_210/lib\libnet80211.a(ieee80211_hostap.o)
                                 0x5e (size before relaxing)
 .comment       0x0000088e       0x59 c:/Espressif/ESP8266_SDK_210/lib\libnet80211.a(ieee80211_ht.o)
                                 0x5a (size before relaxing)
 .comment       0x000008e7       0x5c c:/Espressif/ESP8266_SDK_210/lib\libnet80211.a(ieee80211_input.o)
                                 0x5d (size before relaxing)
 .comment       0x00000943       0x61 c:/Espressif/ESP8266_SDK_210/lib\libnet80211.a(ieee80211_mesh_quick.o)
                                 0x62 (size before relaxing)
 .comment       0x000009a4       0x5d c:/Espressif/ESP8266_SDK_210/lib\libnet80211.a(ieee80211_output.o)
                                 0x5e (size before relaxing)
 .comment       0x00000a01       0x5a c:/Espressif/ESP8266_SDK_210/lib\libnet80211.a(ieee80211_phy.o)
                                 0x5b (size before relaxing)
 .comment       0x00000a5b       0x5c c:/Espressif/ESP8266_SDK_210/lib\libnet80211.a(ieee80211_power.o)
                                 0x5d (size before relaxing)
 .comment       0x00000ab7       0x5c c:/Espressif/ESP8266_SDK_210/lib\libnet80211.a(ieee80211_proto.o)
                                 0x5d (size before relaxing)
 .comment       0x00000b13       0x60 c:/Espressif/ESP8266_SDK_210/lib\libnet80211.a(ieee80211_regdomain.o)
                                 0x61 (size before relaxing)
 .comment       0x00000b73       0x5b c:/Espressif/ESP8266_SDK_210/lib\libnet80211.a(ieee80211_rfid.o)
                                 0x5c (size before relaxing)
 .comment       0x00000bce       0x5b c:/Espressif/ESP8266_SDK_210/lib\libnet80211.a(ieee80211_scan.o)
                                 0x5c (size before relaxing)
 .comment       0x00000c29       0x5a c:/Espressif/ESP8266_SDK_210/lib\libnet80211.a(ieee80211_sta.o)
                                 0x5b (size before relaxing)
 .comment       0x00000c83       0x53 c:/Espressif/ESP8266_SDK_210/lib\libnet80211.a(wl_chm.o)
                                 0x54 (size before relaxing)
 .comment       0x00000cd6       0x53 c:/Espressif/ESP8266_SDK_210/lib\libnet80211.a(wl_cnx.o)
                                 0x54 (size before relaxing)
 .comment       0x00000d29       0x5d c:/Espressif/ESP8266_SDK_210/lib\libnet80211.a(ieee80211_action.o)
                                 0x5e (size before relaxing)
 .comment       0x00000d86       0x64 c:/Espressif/ESP8266_SDK_210/lib\libnet80211.a(ieee80211_action_vendor.o)
                                 0x65 (size before relaxing)
 .comment       0x00000dea       0x62 c:/Espressif/ESP8266_SDK_210/lib\libnet80211.a(ieee80211_crypto_ccmp.o)
                                 0x63 (size before relaxing)
 .comment       0x00000e4c       0x60 c:/Espressif/ESP8266_SDK_210/lib\libnet80211.a(ieee80211_ie_vendor.o)
                                 0x61 (size before relaxing)
 .comment       0x00000eac       0x51 c:/Espressif/ESP8266_SDK_210/lib\liblwip.a(dhcp.o)
                                 0x52 (size before relaxing)
 .comment       0x00000efd       0x57 c:/Espressif/ESP8266_SDK_210/lib\liblwip.a(dhcpserver.o)
                                 0x58 (size before relaxing)
 .comment       0x00000f54       0x50 c:/Espressif/ESP8266_SDK_210/lib\liblwip.a(dns.o)
                                 0x51 (size before relaxing)
 .comment       0x00000fa4       0x58 c:/Espressif/ESP8266_SDK_210/lib\liblwip.a(espconn_tcp.o)
                                 0x59 (size before relaxing)
 .comment       0x00000ffc       0x53 c:/Espressif/ESP8266_SDK_210/lib\liblwip.a(etharp.o)
                                 0x54 (size before relaxing)
 .comment       0x0000104f       0x51 c:/Espressif/ESP8266_SDK_210/lib\liblwip.a(init.o)
                                 0x52 (size before relaxing)
 .comment       0x000010a0       0x54 c:/Espressif/ESP8266_SDK_210/lib\liblwip.a(ip_addr.o)
                                 0x55 (size before relaxing)
 .comment       0x000010f4       0x4f c:/Espressif/ESP8266_SDK_210/lib\liblwip.a(ip.o)
                                 0x50 (size before relaxing)
 .comment       0x00001143       0x51 c:/Espressif/ESP8266_SDK_210/lib\liblwip.a(memp.o)
                                 0x52 (size before relaxing)
 .comment       0x00001194       0x52 c:/Espressif/ESP8266_SDK_210/lib\liblwip.a(netif.o)
                                 0x53 (size before relaxing)
 .comment       0x000011e6       0x51 c:/Espressif/ESP8266_SDK_210/lib\liblwip.a(pbuf.o)
                                 0x52 (size before relaxing)
 .comment       0x00001237       0x50 c:/Espressif/ESP8266_SDK_210/lib\liblwip.a(raw.o)
                                 0x51 (size before relaxing)
 .comment       0x00001287       0x53 c:/Espressif/ESP8266_SDK_210/lib\liblwip.a(tcp_in.o)
                                 0x54 (size before relaxing)
 .comment       0x000012da       0x50 c:/Espressif/ESP8266_SDK_210/lib\liblwip.a(tcp.o)
                                 0x51 (size before relaxing)
 .comment       0x0000132a       0x54 c:/Espressif/ESP8266_SDK_210/lib\liblwip.a(tcp_out.o)
                                 0x55 (size before relaxing)
 .comment       0x0000137e       0x53 c:/Espressif/ESP8266_SDK_210/lib\liblwip.a(timers.o)
                                 0x54 (size before relaxing)
 .comment       0x000013d1       0x50 c:/Espressif/ESP8266_SDK_210/lib\liblwip.a(udp.o)
                                 0x51 (size before relaxing)
 .comment       0x00001421       0x58 c:/Espressif/ESP8266_SDK_210/lib\liblwip.a(espconn_buf.o)
                                 0x59 (size before relaxing)
 .comment       0x00001479       0x54 c:/Espressif/ESP8266_SDK_210/lib\liblwip.a(espconn.o)
                                 0x55 (size before relaxing)
 .comment       0x000014cd       0x58 c:/Espressif/ESP8266_SDK_210/lib\liblwip.a(espconn_udp.o)
                                 0x59 (size before relaxing)
 .comment       0x00001525       0x51 c:/Espressif/ESP8266_SDK_210/lib\liblwip.a(icmp.o)
                                 0x52 (size before relaxing)
 .comment       0x00001576       0x51 c:/Espressif/ESP8266_SDK_210/lib\liblwip.a(igmp.o)
                                 0x52 (size before relaxing)
 .comment       0x000015c7       0x58 c:/Espressif/ESP8266_SDK_210/lib\liblwip.a(inet_chksum.o)
                                 0x59 (size before relaxing)
 .comment       0x0000161f       0x56 c:/Espressif/ESP8266_SDK_210/lib\libwpa.a(ap_config.o)
                                 0x57 (size before relaxing)
 .comment       0x00001675       0x53 c:/Espressif/ESP8266_SDK_210/lib\libwpa.a(common.o)
                                 0x54 (size before relaxing)
 .comment       0x000016c8       0x56 c:/Espressif/ESP8266_SDK_210/lib\libwpa.a(os_xtensa.o)
                                 0x57 (size before relaxing)
 .comment       0x0000171e       0x55 c:/Espressif/ESP8266_SDK_210/lib\libwpa.a(wpa_auth.o)
                                 0x56 (size before relaxing)
 .comment       0x00001773       0x58 c:/Espressif/ESP8266_SDK_210/lib\libwpa.a(wpa_auth_ie.o)
                                 0x59 (size before relaxing)
 .comment       0x000017cb       0x50 c:/Espressif/ESP8266_SDK_210/lib\libwpa.a(wpa.o)
                                 0x51 (size before relaxing)
 .comment       0x0000181b       0x57 c:/Espressif/ESP8266_SDK_210/lib\libwpa.a(wpa_common.o)
                                 0x58 (size before relaxing)
 .comment       0x00001872       0x56 c:/Espressif/ESP8266_SDK_210/lib\libwpa.a(wpa_debug.o)
                                 0x57 (size before relaxing)
 .comment       0x000018c8       0x53 c:/Espressif/ESP8266_SDK_210/lib\libwpa.a(wpa_ie.o)
                                 0x54 (size before relaxing)
 .comment       0x0000191b       0x55 c:/Espressif/ESP8266_SDK_210/lib\libwpa.a(wpa_main.o)
                                 0x56 (size before relaxing)
 .comment       0x00001970       0x56 c:/Espressif/ESP8266_SDK_210/lib\libwpa.a(wpas_glue.o)
                                 0x57 (size before relaxing)
 .comment       0x000019c6       0x55 c:/Espressif/ESP8266_SDK_210/lib\libcrypto.a(aes-wrap.o)
                                 0x56 (size before relaxing)
 .comment       0x00001a1b       0x5d c:/Espressif/ESP8266_SDK_210/lib\libcrypto.a(aes-internal-enc.o)
                                 0x5e (size before relaxing)
 .comment       0x00001a78       0x59 c:/Espressif/ESP8266_SDK_210/lib\libcrypto.a(aes-internal.o)
                                 0x5a (size before relaxing)
 .comment       0x00001ad1       0x3a c:/Espressif/ESP8266_SDK_210/lib\libc.a(lib_a-memchr.o)
                                 0x3b (size before relaxing)
 .comment       0x00001b0b       0x62 c:/Espressif/ESP8266_SDK_210/lib\libnet80211.a(ieee80211_crypto_tkip.o)
                                 0x63 (size before relaxing)
 .comment       0x00001b6d       0x61 c:/Espressif/ESP8266_SDK_210/lib\libnet80211.a(ieee80211_crypto_wep.o)
                                 0x62 (size before relaxing)

.debug_frame    0x00000000      0x2f4
 .debug_frame   0x00000000       0xd0 build/debug/app_app.a(user_main.o)
 .debug_frame   0x000000d0       0x80 build/debug/app_app.a(hw_timer.o)
 .debug_frame   0x00000150      0x144 build/debug/app_app.a(easygpio.o)
 .debug_frame   0x00000294       0x40 build/debug/app_app.a(stdout.o)
 .debug_frame   0x000002d4       0x20 c:/Espressif/ESP8266_SDK_210/lib\libc.a(lib_a-memchr.o)

.debug_info     0x00000000     0x1ab9
 .debug_info    0x00000000      0x95d build/debug/app_app.a(user_main.o)
 .debug_info    0x0000095d      0x220 build/debug/app_app.a(hw_timer.o)
 .debug_info    0x00000b7d      0x7ea build/debug/app_app.a(easygpio.o)
 .debug_info    0x00001367      0x230 build/debug/app_app.a(stdout.o)
 .debug_info    0x00001597       0xf4 c:/Espressif/ESP8266_SDK_210/lib\libc.a(lib_a-memchr.o)
 .debug_info    0x0000168b      0x10b c:/Espressif/ESP8266_SDK_210/lib\libgcc.a(_modsi3.o)
 .debug_info    0x00001796      0x10b c:/Espressif/ESP8266_SDK_210/lib\libgcc.a(_ashrdi3.o)
 .debug_info    0x000018a1      0x10c c:/Espressif/ESP8266_SDK_210/lib\libgcc.a(_divsf3.o)
 .debug_info    0x000019ad      0x10c c:/Espressif/ESP8266_SDK_210/lib\libgcc.a(_fixsfsi.o)

.debug_abbrev   0x00000000      0x8a0
 .debug_abbrev  0x00000000      0x2c5 build/debug/app_app.a(user_main.o)
 .debug_abbrev  0x000002c5      0x14f build/debug/app_app.a(hw_timer.o)
 .debug_abbrev  0x00000414      0x23d build/debug/app_app.a(easygpio.o)
 .debug_abbrev  0x00000651      0x156 build/debug/app_app.a(stdout.o)
 .debug_abbrev  0x000007a7       0xa9 c:/Espressif/ESP8266_SDK_210/lib\libc.a(lib_a-memchr.o)
 .debug_abbrev  0x00000850       0x14 c:/Espressif/ESP8266_SDK_210/lib\libgcc.a(_modsi3.o)
 .debug_abbrev  0x00000864       0x14 c:/Espressif/ESP8266_SDK_210/lib\libgcc.a(_ashrdi3.o)
 .debug_abbrev  0x00000878       0x14 c:/Espressif/ESP8266_SDK_210/lib\libgcc.a(_divsf3.o)
 .debug_abbrev  0x0000088c       0x14 c:/Espressif/ESP8266_SDK_210/lib\libgcc.a(_fixsfsi.o)

.debug_loc      0x00000000      0x873
 .debug_loc     0x00000000      0x1c0 build/debug/app_app.a(user_main.o)
 .debug_loc     0x000001c0       0x5b build/debug/app_app.a(hw_timer.o)
 .debug_loc     0x0000021b      0x5d2 build/debug/app_app.a(easygpio.o)
 .debug_loc     0x000007ed       0x86 c:/Espressif/ESP8266_SDK_210/lib\libc.a(lib_a-memchr.o)

.debug_aranges  0x00000000      0x198
 .debug_aranges
                0x00000000       0x40 build/debug/app_app.a(user_main.o)
 .debug_aranges
                0x00000040       0x30 build/debug/app_app.a(hw_timer.o)
 .debug_aranges
                0x00000070       0x60 build/debug/app_app.a(easygpio.o)
 .debug_aranges
                0x000000d0       0x28 build/debug/app_app.a(stdout.o)
 .debug_aranges
                0x000000f8       0x20 c:/Espressif/ESP8266_SDK_210/lib\libc.a(lib_a-memchr.o)
 .debug_aranges
                0x00000118       0x20 c:/Espressif/ESP8266_SDK_210/lib\libgcc.a(_modsi3.o)
 .debug_aranges
                0x00000138       0x20 c:/Espressif/ESP8266_SDK_210/lib\libgcc.a(_ashrdi3.o)
 .debug_aranges
                0x00000158       0x20 c:/Espressif/ESP8266_SDK_210/lib\libgcc.a(_divsf3.o)
 .debug_aranges
                0x00000178       0x20 c:/Espressif/ESP8266_SDK_210/lib\libgcc.a(_fixsfsi.o)

.debug_ranges   0x00000000      0x130
 .debug_ranges  0x00000000       0x70 build/debug/app_app.a(user_main.o)
 .debug_ranges  0x00000070       0x20 build/debug/app_app.a(hw_timer.o)
 .debug_ranges  0x00000090       0x88 build/debug/app_app.a(easygpio.o)
 .debug_ranges  0x00000118       0x18 build/debug/app_app.a(stdout.o)

.debug_line     0x00000000     0x129c
 .debug_line    0x00000000      0x364 build/debug/app_app.a(user_main.o)
 .debug_line    0x00000364      0x1a3 build/debug/app_app.a(hw_timer.o)
 .debug_line    0x00000507      0x490 build/debug/app_app.a(easygpio.o)
 .debug_line    0x00000997      0x128 build/debug/app_app.a(stdout.o)
 .debug_line    0x00000abf      0x1b7 c:/Espressif/ESP8266_SDK_210/lib\libc.a(lib_a-memchr.o)
 .debug_line    0x00000c76      0x123 c:/Espressif/ESP8266_SDK_210/lib\libgcc.a(_modsi3.o)
 .debug_line    0x00000d99       0xc3 c:/Espressif/ESP8266_SDK_210/lib\libgcc.a(_ashrdi3.o)
 .debug_line    0x00000e5c      0x322 c:/Espressif/ESP8266_SDK_210/lib\libgcc.a(_divsf3.o)
 .debug_line    0x0000117e      0x11e c:/Espressif/ESP8266_SDK_210/lib\libgcc.a(_fixsfsi.o)

.debug_str      0x00000000      0xa5e
 .debug_str     0x00000000      0x56a build/debug/app_app.a(user_main.o)
                                0x5d5 (size before relaxing)
 .debug_str     0x0000056a       0xbb build/debug/app_app.a(hw_timer.o)
                                0x21b (size before relaxing)
 .debug_str     0x00000625      0x21f build/debug/app_app.a(easygpio.o)
                                0x46a (size before relaxing)
 .debug_str     0x00000844      0x155 build/debug/app_app.a(stdout.o)
                                0x28d (size before relaxing)
 .debug_str     0x00000999       0xc5 c:/Espressif/ESP8266_SDK_210/lib\libc.a(lib_a-memchr.o)
                                0x157 (size before relaxing)

Cross Reference Table

Symbol                                            File
APRecvBcnStartTick                                c:/Espressif/ESP8266_SDK_210/lib\libnet80211.a(ieee80211_hostap.o)
AllFreqOffsetInOneChk                             c:/Espressif/ESP8266_SDK_210/lib\libpp.a(pp.o)
                                                  c:/Espressif/ESP8266_SDK_210/lib\libnet80211.a(ieee80211_hostap.o)
ApFreqCalTimer                                    c:/Espressif/ESP8266_SDK_210/lib\libnet80211.a(ieee80211_hostap.o)
AvgFreqOffsetInOneChk                             c:/Espressif/ESP8266_SDK_210/lib\libpp.a(pp.o)
                                                  c:/Espressif/ESP8266_SDK_210/lib\libnet80211.a(ieee80211_hostap.o)
BcnEb_update                                      c:/Espressif/ESP8266_SDK_210/lib\libnet80211.a(ieee80211_hostap.o)
                                                  c:/Espressif/ESP8266_SDK_210/lib\libnet80211.a(wl_cnx.o)
                                                  c:/Espressif/ESP8266_SDK_210/lib\libnet80211.a(wl_chm.o)
                                                  c:/Espressif/ESP8266_SDK_210/lib\libnet80211.a(ieee80211_mesh_quick.o)
                                                  c:/Espressif/ESP8266_SDK_210/lib\libmain.a(user_interface.o)
BcnWithMcastSendCnt                               c:/Espressif/ESP8266_SDK_210/lib\libnet80211.a(ieee80211_hostap.o)
                                                  c:/Espressif/ESP8266_SDK_210/lib\libpp.a(pp.o)
BcnWithMcastSendStart                             c:/Espressif/ESP8266_SDK_210/lib\libnet80211.a(ieee80211_hostap.o)
Cache_Read_Disable                                c:/Espressif/ESP8266_SDK_210/lib\libmain.a(spi_flash.o)
                                                  c:/Espressif/ESP8266_SDK_210/lib\libmain.a(user_interface.o)
Cache_Read_Disable_2                              c:/Espressif/ESP8266_SDK_210/lib\libmain.a(spi_flash.o)
Cache_Read_Enable                                 c:/Espressif/ESP8266_SDK_210/lib\libmain.a(app_main.o)
Cache_Read_Enable_2                               c:/Espressif/ESP8266_SDK_210/lib\libmain.a(spi_flash.o)
Cache_Read_Enable_New                             c:/Espressif/ESP8266_SDK_210/lib\libmain.a(app_main.o)
                                                  c:/Espressif/ESP8266_SDK_210/lib\libpp.a(pp.o)
                                                  c:/Espressif/ESP8266_SDK_210/lib\libmain.a(spi_flash.o)
                                                  c:/Espressif/ESP8266_SDK_210/lib\libmain.a(mem_manager.o)
CanDoFreqCal                                      c:/Espressif/ESP8266_SDK_210/lib\libpp.a(pp.o)
DefFreqCalTimer                                   c:/Espressif/ESP8266_SDK_210/lib\libpp.a(pp.o)
DefFreqCalTimerCB                                 c:/Espressif/ESP8266_SDK_210/lib\libpp.a(pp.o)
Enable_QMode                                      c:/Espressif/ESP8266_SDK_210/lib\libmain.a(spi_flash.o)
FreqCalCntForScan                                 c:/Espressif/ESP8266_SDK_210/lib\libnet80211.a(ieee80211_scan.o)
                                                  c:/Espressif/ESP8266_SDK_210/lib\libnet80211.a(ieee80211_sta.o)
GetAccess                                         c:/Espressif/ESP8266_SDK_210/lib\libpp.a(lmac.o)
                                                  c:/Espressif/ESP8266_SDK_210/lib\libpp.a(pp.o)
HdlAllBuffedEb                                    c:/Espressif/ESP8266_SDK_210/lib\libpp.a(pp.o)
                                                  c:/Espressif/ESP8266_SDK_210/lib\libnet80211.a(ieee80211_hostap.o)
HighestFreqOffsetInOneChk                         c:/Espressif/ESP8266_SDK_210/lib\libpp.a(pp.o)
LightSleepWakedCbSetFunc                          c:/Espressif/ESP8266_SDK_210/lib\libpp.a(pm.o)
LowestFreqOffsetInOneChk                          c:/Espressif/ESP8266_SDK_210/lib\libpp.a(pp.o)
NMI_Handler                                       c:/Espressif/ESP8266_SDK_210/lib\libmain.a(app_main.o)
                                                  c:/Espressif/ESP8266_SDK_210/lib\libmain.a(nmi-vector.o)
NmiTimSetFunc                                     c:/Espressif/ESP8266_SDK_210/lib\libmain.a(app_main.o)
NoiseTimerInterval                                c:/Espressif/ESP8266_SDK_210/lib\libpp.a(pp.o)
                                                  c:/Espressif/ESP8266_SDK_210/lib\libnet80211.a(ieee80211_hostap.o)
OpmodChgIsOnGoing                                 c:/Espressif/ESP8266_SDK_210/lib\libmain.a(user_interface.o)
PPWdtReset                                        c:/Espressif/ESP8266_SDK_210/lib\libpp.a(pp.o)
                                                  c:/Espressif/ESP8266_SDK_210/lib\libpp.a(wdev.o)
PendFreeBcnEb                                     c:/Espressif/ESP8266_SDK_210/lib\libnet80211.a(ieee80211_hostap.o)
                                                  c:/Espressif/ESP8266_SDK_210/lib\libpp.a(pp.o)
PktNumInOneChk                                    c:/Espressif/ESP8266_SDK_210/lib\libpp.a(pp.o)
PktsNumInOneChk                                   c:/Espressif/ESP8266_SDK_210/lib\libpp.a(pp.o)
                                                  c:/Espressif/ESP8266_SDK_210/lib\libnet80211.a(ieee80211_hostap.o)
RC_GetAckRate                                     c:/Espressif/ESP8266_SDK_210/lib\libpp.a(rate_control.o)
RC_GetAckTime                                     c:/Espressif/ESP8266_SDK_210/lib\libpp.a(rate_control.o)
                                                  c:/Espressif/ESP8266_SDK_210/lib\libpp.a(pp.o)
                                                  c:/Espressif/ESP8266_SDK_210/lib\libpp.a(lmac.o)
RC_GetBlockAckTime                                c:/Espressif/ESP8266_SDK_210/lib\libpp.a(rate_control.o)
                                                  c:/Espressif/ESP8266_SDK_210/lib\libpp.a(pp.o)
RC_GetCtsTime                                     c:/Espressif/ESP8266_SDK_210/lib\libpp.a(rate_control.o)
                                                  c:/Espressif/ESP8266_SDK_210/lib\libpp.a(pp.o)
RC_GetRtsRate                                     c:/Espressif/ESP8266_SDK_210/lib\libpp.a(rate_control.o)
RC_SetBasicRate                                   c:/Espressif/ESP8266_SDK_210/lib\libpp.a(rate_control.o)
                                                  c:/Espressif/ESP8266_SDK_210/lib\libpp.a(lmac.o)
RFChannelSel                                      c:/Espressif/ESP8266_SDK_210/lib\libphy.a(phy.o)
RxNodeNum                                         c:/Espressif/ESP8266_SDK_210/lib\libpp.a(pp.o)
                                                  c:/Espressif/ESP8266_SDK_210/lib\liblwip.a(tcp_in.o)
SDIO_slp_reject                                   c:/Espressif/ESP8266_SDK_210/lib\libphy.a(phy_sleep.o)
SDK_VERSION                                       c:/Espressif/ESP8266_SDK_210/lib\libmain.a(app_main.o)
                                                  c:/Espressif/ESP8266_SDK_210/lib\libmain.a(user_interface.o)
SPIEraseSector                                    c:/Espressif/ESP8266_SDK_210/lib\libmain.a(spi_flash.o)
SPIRead                                           c:/Espressif/ESP8266_SDK_210/lib\libmain.a(spi_flash.o)
                                                  c:/Espressif/ESP8266_SDK_210/lib\libmain.a(app_main.o)
SPIWrite                                          c:/Espressif/ESP8266_SDK_210/lib\libmain.a(spi_flash.o)
SPI_read_status                                   c:/Espressif/ESP8266_SDK_210/lib\libmain.a(spi_flash.o)
SPI_write_enable                                  c:/Espressif/ESP8266_SDK_210/lib\libmain.a(spi_flash.o)
SPI_write_status                                  c:/Espressif/ESP8266_SDK_210/lib\libmain.a(spi_flash.o)
StopLightSleepSetFunc                             c:/Espressif/ESP8266_SDK_210/lib\libpp.a(pm.o)
Te0                                               c:/Espressif/ESP8266_SDK_210/lib\libcrypto.a(aes-internal.o)
                                                  c:/Espressif/ESP8266_SDK_210/lib\libcrypto.a(aes-internal-enc.o)
TestStaFreqCalValDev                              c:/Espressif/ESP8266_SDK_210/lib\libnet80211.a(ieee80211_scan.o)
                                                  c:/Espressif/ESP8266_SDK_210/lib\libnet80211.a(ieee80211_hostap.o)
                                                  c:/Espressif/ESP8266_SDK_210/lib\libpp.a(wdev.o)
                                                  c:/Espressif/ESP8266_SDK_210/lib\libpp.a(pp.o)
                                                  c:/Espressif/ESP8266_SDK_210/lib\libmain.a(app_main.o)
TestStaFreqCalValFilter                           c:/Espressif/ESP8266_SDK_210/lib\libpp.a(pp.o)
                                                  c:/Espressif/ESP8266_SDK_210/lib\libnet80211.a(ieee80211_hostap.o)
TestStaFreqCalValInput                            c:/Espressif/ESP8266_SDK_210/lib\libnet80211.a(ieee80211_scan.o)
                                                  c:/Espressif/ESP8266_SDK_210/lib\libnet80211.a(ieee80211_output.o)
                                                  c:/Espressif/ESP8266_SDK_210/lib\libnet80211.a(ieee80211_hostap.o)
                                                  c:/Espressif/ESP8266_SDK_210/lib\libpp.a(pp.o)
                                                  c:/Espressif/ESP8266_SDK_210/lib\libmain.a(app_main.o)
TestStaFreqCalValOK                               c:/Espressif/ESP8266_SDK_210/lib\libnet80211.a(ieee80211_scan.o)
                                                  c:/Espressif/ESP8266_SDK_210/lib\libnet80211.a(ieee80211_hostap.o)
                                                  c:/Espressif/ESP8266_SDK_210/lib\libpp.a(wdev.o)
                                                  c:/Espressif/ESP8266_SDK_210/lib\libpp.a(pp.o)
TmpSTAAPCloseAP                                   c:/Espressif/ESP8266_SDK_210/lib\libnet80211.a(ieee80211_hostap.o)
                                                  c:/Espressif/ESP8266_SDK_210/lib\libpp.a(pp.o)
TxNodeNum                                         c:/Espressif/ESP8266_SDK_210/lib\libpp.a(pp.o)
Tx_Copy2Queue                                     c:/Espressif/ESP8266_SDK_210/lib\libpp.a(wdev.o)
                                                  c:/Espressif/ESP8266_SDK_210/lib\libpp.a(lmac.o)
Uart_Init                                         c:/Espressif/ESP8266_SDK_210/lib\libphy.a(phy_chip_v6.o)
Wait_SPI_Idle                                     c:/Espressif/ESP8266_SDK_210/lib\libpp.a(pp.o)
                                                  c:/Espressif/ESP8266_SDK_210/lib\libmain.a(spi_flash.o)
                                                  c:/Espressif/ESP8266_SDK_210/lib\libmain.a(user_interface.o)
                                                  c:/Espressif/ESP8266_SDK_210/lib\libmain.a(mem_manager.o)
                                                  c:/Espressif/ESP8266_SDK_210/lib\libmain.a(app_main.o)
WdevTimOffSet                                     c:/Espressif/ESP8266_SDK_210/lib\libpp.a(wdev.o)
                                                  c:/Espressif/ESP8266_SDK_210/lib\libpp.a(pm_for_bcn_only_mode.o)
                                                  c:/Espressif/ESP8266_SDK_210/lib\libpp.a(pm.o)
                                                  c:/Espressif/ESP8266_SDK_210/lib\libmain.a(user_interface.o)
_DebugExceptionVector                             c:/Espressif/ESP8266_SDK_210/lib\libmain.a(debug-vector.o)
_DoubleExceptionVector                            c:/Espressif/ESP8266_SDK_210/lib\libmain.a(double-vector.o)
_KernelExceptionVector                            c:/Espressif/ESP8266_SDK_210/lib\libmain.a(kernel-vector.o)
_NMIExceptionVector                               c:/Espressif/ESP8266_SDK_210/lib\libmain.a(nmi-vector.o)
_NMILevelVector                                   c:/Espressif/ESP8266_SDK_210/lib\libmain.a(nmi-vector.o)
_Pri_3_HandlerAddress                             c:/Espressif/ESP8266_SDK_210/lib\libmain.a(nmi-vector.o)
_UserExceptionVector                              c:/Espressif/ESP8266_SDK_210/lib\libmain.a(user-vector.o)
_UserExceptionVector_1                            c:/Espressif/ESP8266_SDK_210/lib\libmain.a(user-vector.o)
__addsf3                                          c:/Espressif/ESP8266_SDK_210/lib\libphy.a(phy_chip_v6_ana.o)
__ashrdi3                                         c:/Espressif/ESP8266_SDK_210/lib\libgcc.a(_ashrdi3.o)
                                                  c:/Espressif/ESP8266_SDK_210/lib\libphy.a(phy_chip_v6.o)
__divdf3                                          c:/Espressif/ESP8266_SDK_210/lib\libphy.a(phy_chip_v6.o)
                                                  c:/Espressif/ESP8266_SDK_210/lib\libphy.a(phy_chip_v6_ana.o)
__divdi3                                          c:/Espressif/ESP8266_SDK_210/lib\libphy.a(phy_chip_v6_cal.o)
__divsf3                                          c:/Espressif/ESP8266_SDK_210/lib\libgcc.a(_divsf3.o)
                                                  c:/Espressif/ESP8266_SDK_210/lib\libphy.a(phy_chip_v6.o)
                                                  c:/Espressif/ESP8266_SDK_210/lib\libphy.a(phy_chip_v6_ana.o)
__divsi3                                          c:/Espressif/ESP8266_SDK_210/lib\libwpa.a(wpa_auth.o)
                                                  c:/Espressif/ESP8266_SDK_210/lib\liblwip.a(tcp_in.o)
                                                  c:/Espressif/ESP8266_SDK_210/lib\liblwip.a(dhcp.o)
                                                  c:/Espressif/ESP8266_SDK_210/lib\libnet80211.a(ieee80211_regdomain.o)
                                                  c:/Espressif/ESP8266_SDK_210/lib\libnet80211.a(ieee80211_hostap.o)
                                                  c:/Espressif/ESP8266_SDK_210/lib\libnet80211.a(ieee80211.o)
                                                  c:/Espressif/ESP8266_SDK_210/lib\libpp.a(pp.o)
                                                  c:/Espressif/ESP8266_SDK_210/lib\libpp.a(pm.o)
                                                  c:/Espressif/ESP8266_SDK_210/lib\libphy.a(phy_chip_v6_cal.o)
                                                  c:/Espressif/ESP8266_SDK_210/lib\libphy.a(phy_chip_v6.o)
                                                  c:/Espressif/ESP8266_SDK_210/lib\libphy.a(phy_chip_v6_ana.o)
                                                  c:/Espressif/ESP8266_SDK_210/lib\libmain.a(user_interface.o)
__fixdfsi                                         c:/Espressif/ESP8266_SDK_210/lib\libphy.a(phy_chip_v6.o)
__fixsfsi                                         c:/Espressif/ESP8266_SDK_210/lib\libgcc.a(_fixsfsi.o)
                                                  c:/Espressif/ESP8266_SDK_210/lib\libphy.a(phy_chip_v6.o)
__fixunssfsi                                      c:/Espressif/ESP8266_SDK_210/lib\libphy.a(phy_chip_v6_ana.o)
__floatsidf                                       c:/Espressif/ESP8266_SDK_210/lib\libphy.a(phy_chip_v6.o)
__floatsisf                                       c:/Espressif/ESP8266_SDK_210/lib\libphy.a(phy_chip_v6.o)
                                                  c:/Espressif/ESP8266_SDK_210/lib\libphy.a(phy_chip_v6_ana.o)
__floatunsidf                                     c:/Espressif/ESP8266_SDK_210/lib\libphy.a(phy_chip_v6_ana.o)
__floatunsisf                                     c:/Espressif/ESP8266_SDK_210/lib\libphy.a(phy_chip_v6.o)
__modsi3                                          c:/Espressif/ESP8266_SDK_210/lib\libgcc.a(_modsi3.o)
                                                  c:/Espressif/ESP8266_SDK_210/lib\libwpa.a(wpa_auth.o)
                                                  c:/Espressif/ESP8266_SDK_210/lib\libnet80211.a(ieee80211_ht.o)
                                                  c:/Espressif/ESP8266_SDK_210/lib\libphy.a(phy_chip_v6.o)
__muldf3                                          c:/Espressif/ESP8266_SDK_210/lib\libphy.a(phy_chip_v6.o)
__muldi3                                          c:/Espressif/ESP8266_SDK_210/lib\libphy.a(phy_chip_v6_cal.o)
                                                  c:/Espressif/ESP8266_SDK_210/lib\libphy.a(phy_chip_v6.o)
                                                  c:/Espressif/ESP8266_SDK_210/lib\libmain.a(user_interface.o)
__mulsf3                                          c:/Espressif/ESP8266_SDK_210/lib\libphy.a(phy_chip_v6.o)
                                                  c:/Espressif/ESP8266_SDK_210/lib\libphy.a(phy_chip_v6_ana.o)
__subsf3                                          c:/Espressif/ESP8266_SDK_210/lib\libphy.a(phy_chip_v6_ana.o)
__truncdfsf2                                      c:/Espressif/ESP8266_SDK_210/lib\libphy.a(phy_chip_v6_ana.o)
__udivdi3                                         c:/Espressif/ESP8266_SDK_210/lib\libphy.a(phy_sleep.o)
__udivsi3                                         c:/Espressif/ESP8266_SDK_210/lib\liblwip.a(espconn.o)
                                                  c:/Espressif/ESP8266_SDK_210/lib\liblwip.a(timers.o)
                                                  c:/Espressif/ESP8266_SDK_210/lib\liblwip.a(tcp.o)
                                                  c:/Espressif/ESP8266_SDK_210/lib\liblwip.a(ip_addr.o)
                                                  c:/Espressif/ESP8266_SDK_210/lib\liblwip.a(dhcp.o)
                                                  c:/Espressif/ESP8266_SDK_210/lib\libnet80211.a(ieee80211_hostap.o)
                                                  c:/Espressif/ESP8266_SDK_210/lib\libnet80211.a(ieee80211.o)
                                                  c:/Espressif/ESP8266_SDK_210/lib\libpp.a(wdev.o)
                                                  c:/Espressif/ESP8266_SDK_210/lib\libpp.a(trc.o)
                                                  c:/Espressif/ESP8266_SDK_210/lib\libpp.a(pp.o)
                                                  c:/Espressif/ESP8266_SDK_210/lib\libpp.a(pm_for_bcn_only_mode.o)
                                                  c:/Espressif/ESP8266_SDK_210/lib\libpp.a(pm.o)
                                                  c:/Espressif/ESP8266_SDK_210/lib\libphy.a(phy_sleep.o)
                                                  c:/Espressif/ESP8266_SDK_210/lib\libphy.a(phy_chip_v6_cal.o)
                                                  c:/Espressif/ESP8266_SDK_210/lib\libphy.a(phy_chip_v6.o)
                                                  build/debug/app_app.a(hw_timer.o)
                                                  build/debug/app_app.a(user_main.o)
                                                  c:/Espressif/ESP8266_SDK_210/lib\libmain.a(eagle_lib.o)
                                                  c:/Espressif/ESP8266_SDK_210/lib\libmain.a(user_interface.o)
                                                  c:/Espressif/ESP8266_SDK_210/lib\libmain.a(ets_timer.o)
                                                  c:/Espressif/ESP8266_SDK_210/lib\libmain.a(app_main.o)
__umoddi3                                         c:/Espressif/ESP8266_SDK_210/lib\libpp.a(pm.o)
__umodsi3                                         c:/Espressif/ESP8266_SDK_210/lib\liblwip.a(igmp.o)
                                                  c:/Espressif/ESP8266_SDK_210/lib\liblwip.a(espconn.o)
                                                  c:/Espressif/ESP8266_SDK_210/lib\liblwip.a(espconn_buf.o)
                                                  c:/Espressif/ESP8266_SDK_210/lib\liblwip.a(tcp.o)
                                                  c:/Espressif/ESP8266_SDK_210/lib\liblwip.a(ip_addr.o)
                                                  c:/Espressif/ESP8266_SDK_210/lib\libnet80211.a(ieee80211_hostap.o)
                                                  c:/Espressif/ESP8266_SDK_210/lib\libmain.a(eagle_lib.o)
__wpa_send_eapol                                  c:/Espressif/ESP8266_SDK_210/lib\libwpa.a(wpa_auth.o)
_bss_end                                          c:/Espressif/ESP8266_SDK_210/lib\libmain.a(user_interface.o)
                                                  c:/Espressif/ESP8266_SDK_210/lib\libmain.a(app_main.o)
_bss_start                                        c:/Espressif/ESP8266_SDK_210/lib\libmain.a(user_interface.o)
                                                  c:/Espressif/ESP8266_SDK_210/lib\libmain.a(app_main.o)
_data_end                                         c:/Espressif/ESP8266_SDK_210/lib\libmain.a(user_interface.o)
_data_start                                       c:/Espressif/ESP8266_SDK_210/lib\libmain.a(user_interface.o)
_heap_start                                       c:/Espressif/ESP8266_SDK_210/lib\libmain.a(user_interface.o)
                                                  c:/Espressif/ESP8266_SDK_210/lib\libmain.a(mem_manager.o)
_rodata_end                                       c:/Espressif/ESP8266_SDK_210/lib\libmain.a(user_interface.o)
_rodata_start                                     c:/Espressif/ESP8266_SDK_210/lib\libmain.a(user_interface.o)
_xtos_set_exception_handler                       c:/Espressif/ESP8266_SDK_210/lib\libmain.a(app_main.o)
adc_rand_noise                                    c:/Espressif/ESP8266_SDK_210/lib\libphy.a(phy_chip_v6.o)
                                                  c:/Espressif/ESP8266_SDK_210/lib\libphy.a(phy_sleep.o)
aes_encrypt                                       c:/Espressif/ESP8266_SDK_210/lib\libcrypto.a(aes-internal-enc.o)
                                                  c:/Espressif/ESP8266_SDK_210/lib\libcrypto.a(aes-wrap.o)
aes_encrypt_deinit                                c:/Espressif/ESP8266_SDK_210/lib\libcrypto.a(aes-internal-enc.o)
                                                  c:/Espressif/ESP8266_SDK_210/lib\libcrypto.a(aes-wrap.o)
aes_encrypt_init                                  c:/Espressif/ESP8266_SDK_210/lib\libcrypto.a(aes-internal-enc.o)
                                                  c:/Espressif/ESP8266_SDK_210/lib\libcrypto.a(aes-wrap.o)
aes_unwrap                                        c:/Espressif/ESP8266_SDK_210/lib\libwpa.a(wpa.o)
aes_wrap                                          c:/Espressif/ESP8266_SDK_210/lib\libcrypto.a(aes-wrap.o)
                                                  c:/Espressif/ESP8266_SDK_210/lib\libwpa.a(wpa_auth.o)
all_freqoffset_sta_freqcal                        c:/Espressif/ESP8266_SDK_210/lib\libpp.a(pp.o)
ant_switch_init                                   c:/Espressif/ESP8266_SDK_210/lib\libphy.a(phy_chip_v6.o)
ap_freq_force_to_scan                             c:/Espressif/ESP8266_SDK_210/lib\libnet80211.a(ieee80211_hostap.o)
                                                  c:/Espressif/ESP8266_SDK_210/lib\libnet80211.a(ieee80211_scan.o)
                                                  c:/Espressif/ESP8266_SDK_210/lib\libpp.a(pp.o)
auth_type                                         c:/Espressif/ESP8266_SDK_210/lib\libnet80211.a(ieee80211_scan.o)
                                                  c:/Espressif/ESP8266_SDK_210/lib\libnet80211.a(wl_cnx.o)
avg_freqoffset_sta_freqcal                        c:/Espressif/ESP8266_SDK_210/lib\libpp.a(pp.o)
backup_ni_connect_status                          c:/Espressif/ESP8266_SDK_210/lib\libnet80211.a(wl_cnx.o)
bb_init                                           c:/Espressif/ESP8266_SDK_210/lib\libphy.a(phy.o)
bbpll_cal                                         c:/Espressif/ESP8266_SDK_210/lib\libphy.a(phy_chip_v6.o)
                                                  c:/Espressif/ESP8266_SDK_210/lib\libphy.a(phy_chip_v6_ana.o)
bbpll_cal_flag                                    c:/Espressif/ESP8266_SDK_210/lib\libphy.a(phy_chip_v6.o)
                                                  c:/Espressif/ESP8266_SDK_210/lib\libphy.a(phy_sleep.o)
bin_sum_len                                       c:/Espressif/ESP8266_SDK_210/lib\libmain.a(user_interface.o)
bit_popcount                                      c:/Espressif/ESP8266_SDK_210/lib\libmain.a(eagle_lib.o)
                                                  c:/Espressif/ESP8266_SDK_210/lib\libpp.a(trc.o)
                                                  c:/Espressif/ESP8266_SDK_210/lib\libpp.a(if_hwctrl.o)
buffed_eb_arr                                     c:/Espressif/ESP8266_SDK_210/lib\libpp.a(pp.o)
cal_rf_ana_gain                                   c:/Espressif/ESP8266_SDK_210/lib\libphy.a(phy_chip_v6_cal.o)
                                                  c:/Espressif/ESP8266_SDK_210/lib\libphy.a(phy_chip_v6.o)
call_user_start                                   c:/Espressif/ESP8266_SDK_210/lib\libmain.a(vector.o)
call_user_start_local                             c:/Espressif/ESP8266_SDK_210/lib\libmain.a(app_main.o)
                                                  c:/Espressif/ESP8266_SDK_210/lib\libmain.a(vector.o)
cannel_scan_connect_state                         c:/Espressif/ESP8266_SDK_210/lib\libnet80211.a(ieee80211_scan.o)
ccmp                                              c:/Espressif/ESP8266_SDK_210/lib\libnet80211.a(ieee80211_crypto_ccmp.o)
                                                  c:/Espressif/ESP8266_SDK_210/lib\libwpa.a(wpa_main.o)
                                                  c:/Espressif/ESP8266_SDK_210/lib\libwpa.a(wpa_auth.o)
                                                  c:/Espressif/ESP8266_SDK_210/lib\libnet80211.a(ieee80211_action_vendor.o)
                                                  c:/Espressif/ESP8266_SDK_210/lib\libnet80211.a(ieee80211_action.o)
                                                  c:/Espressif/ESP8266_SDK_210/lib\libnet80211.a(ieee80211_input.o)
change_bbpll160                                   c:/Espressif/ESP8266_SDK_210/lib\libphy.a(phy_chip_v6.o)
                                                  c:/Espressif/ESP8266_SDK_210/lib\libphy.a(phy_sleep.o)
change_bbpll160_sleep                             c:/Espressif/ESP8266_SDK_210/lib\libphy.a(phy_chip_v6.o)
check_data_flag                                   c:/Espressif/ESP8266_SDK_210/lib\libphy.a(phy_chip_v6_ana.o)
check_data_func                                   c:/Espressif/ESP8266_SDK_210/lib\libphy.a(phy_chip_v6.o)
check_memleak_debug_enable                        c:/Espressif/ESP8266_SDK_210/lib\libmain.a(mem_manager.o)
check_result                                      c:/Espressif/ESP8266_SDK_210/lib\libphy.a(phy_chip_v6.o)
                                                  c:/Espressif/ESP8266_SDK_210/lib\libphy.a(phy_chip_v6_cal.o)
check_timeouts_timer                              c:/Espressif/ESP8266_SDK_210/lib\libmain.a(app_main.o)
                                                  c:/Espressif/ESP8266_SDK_210/lib\libpp.a(pm_for_bcn_only_mode.o)
                                                  c:/Espressif/ESP8266_SDK_210/lib\libpp.a(pm.o)
check_tx_pwr_cal                                  c:/Espressif/ESP8266_SDK_210/lib\libphy.a(phy_chip_v6.o)
chg_lslp_mem_opt_8266                             c:/Espressif/ESP8266_SDK_210/lib\libphy.a(phy_sleep.o)
chip6_phy_init_ctrl                               c:/Espressif/ESP8266_SDK_210/lib\libphy.a(phy_chip_v6.o)
                                                  c:/Espressif/ESP8266_SDK_210/lib\libpp.a(pp.o)
                                                  c:/Espressif/ESP8266_SDK_210/lib\libphy.a(phy_sleep.o)
                                                  c:/Espressif/ESP8266_SDK_210/lib\libphy.a(phy_chip_v6_cal.o)
                                                  c:/Espressif/ESP8266_SDK_210/lib\libphy.a(phy_chip_v6_ana.o)
chip6_sleep_params                                c:/Espressif/ESP8266_SDK_210/lib\libphy.a(phy_chip_v6.o)
                                                  c:/Espressif/ESP8266_SDK_210/lib\libphy.a(phy_sleep.o)
                                                  c:/Espressif/ESP8266_SDK_210/lib\libphy.a(phy_chip_v6_cal.o)
                                                  c:/Espressif/ESP8266_SDK_210/lib\libphy.a(phy_chip_v6_ana.o)
chip_60_set_channel                               c:/Espressif/ESP8266_SDK_210/lib\libphy.a(phy_chip_v6_ana.o)
                                                  c:/Espressif/ESP8266_SDK_210/lib\libphy.a(phy_chip_v6.o)
chip_v6_get_sense                                 c:/Espressif/ESP8266_SDK_210/lib\libphy.a(phy_chip_v6_unused.o)
chip_v6_initialize_bb                             c:/Espressif/ESP8266_SDK_210/lib\libphy.a(phy_chip_v6.o)
chip_v6_rf_init                                   c:/Espressif/ESP8266_SDK_210/lib\libphy.a(phy_chip_v6_ana.o)
                                                  c:/Espressif/ESP8266_SDK_210/lib\libphy.a(phy_chip_v6.o)
chip_v6_rxmax_ext                                 c:/Espressif/ESP8266_SDK_210/lib\libphy.a(phy_chip_v6.o)
                                                  c:/Espressif/ESP8266_SDK_210/lib\libnet80211.a(ieee80211_sta.o)
chip_v6_rxmax_ext_ana                             c:/Espressif/ESP8266_SDK_210/lib\libphy.a(phy_chip_v6_ana.o)
                                                  c:/Espressif/ESP8266_SDK_210/lib\libphy.a(phy_chip_v6.o)
chip_v6_rxmax_ext_dig                             c:/Espressif/ESP8266_SDK_210/lib\libphy.a(phy_chip_v6.o)
chip_v6_set_chan                                  c:/Espressif/ESP8266_SDK_210/lib\libphy.a(phy_chip_v6_ana.o)
                                                  c:/Espressif/ESP8266_SDK_210/lib\libphy.a(phy_chip_v6.o)
chip_v6_set_chan_misc                             c:/Espressif/ESP8266_SDK_210/lib\libphy.a(phy_chip_v6.o)
                                                  c:/Espressif/ESP8266_SDK_210/lib\libphy.a(phy_chip_v6_ana.o)
chip_v6_set_chan_offset                           c:/Espressif/ESP8266_SDK_210/lib\libphy.a(phy_chip_v6_ana.o)
                                                  c:/Espressif/ESP8266_SDK_210/lib\libnet80211.a(ieee80211_scan.o)
                                                  c:/Espressif/ESP8266_SDK_210/lib\libnet80211.a(ieee80211_hostap.o)
                                                  c:/Espressif/ESP8266_SDK_210/lib\libpp.a(pp.o)
                                                  c:/Espressif/ESP8266_SDK_210/lib\libmain.a(app_main.o)
chip_v6_set_chan_rx_cmp                           c:/Espressif/ESP8266_SDK_210/lib\libphy.a(phy_chip_v6.o)
chip_v6_set_chan_wakeup                           c:/Espressif/ESP8266_SDK_210/lib\libphy.a(phy_chip_v6_ana.o)
chip_v6_set_chanfreq                              c:/Espressif/ESP8266_SDK_210/lib\libphy.a(phy_chip_v6.o)
chip_v6_set_sense                                 c:/Espressif/ESP8266_SDK_210/lib\libphy.a(phy_chip_v6_unused.o)
                                                  c:/Espressif/ESP8266_SDK_210/lib\libphy.a(phy_chip_v6.o)
chip_v6_unset_chanfreq                            c:/Espressif/ESP8266_SDK_210/lib\libphy.a(phy_chip_v6_unused.o)
                                                  c:/Espressif/ESP8266_SDK_210/lib\libphy.a(phy_chip_v6.o)
chip_version                                      c:/Espressif/ESP8266_SDK_210/lib\libphy.a(phy_sleep.o)
chm_acquire_lock                                  c:/Espressif/ESP8266_SDK_210/lib\libnet80211.a(wl_chm.o)
                                                  c:/Espressif/ESP8266_SDK_210/lib\libnet80211.a(wl_cnx.o)
                                                  c:/Espressif/ESP8266_SDK_210/lib\libnet80211.a(ieee80211_scan.o)
chm_cancel_op                                     c:/Espressif/ESP8266_SDK_210/lib\libnet80211.a(wl_chm.o)
                                                  c:/Espressif/ESP8266_SDK_210/lib\libnet80211.a(ieee80211_scan.o)
chm_check_same_channel                            c:/Espressif/ESP8266_SDK_210/lib\libnet80211.a(wl_chm.o)
                                                  c:/Espressif/ESP8266_SDK_210/lib\libnet80211.a(ieee80211_power.o)
                                                  c:/Espressif/ESP8266_SDK_210/lib\libnet80211.a(ieee80211_output.o)
                                                  c:/Espressif/ESP8266_SDK_210/lib\libnet80211.a(ieee80211_hostap.o)
chm_end_op                                        c:/Espressif/ESP8266_SDK_210/lib\libnet80211.a(wl_chm.o)
chm_freq2index                                    c:/Espressif/ESP8266_SDK_210/lib\libnet80211.a(wl_chm.o)
chm_get_current_channel                           c:/Espressif/ESP8266_SDK_210/lib\libnet80211.a(wl_chm.o)
                                                  c:/Espressif/ESP8266_SDK_210/lib\libnet80211.a(wl_cnx.o)
                                                  c:/Espressif/ESP8266_SDK_210/lib\libnet80211.a(ieee80211_scan.o)
                                                  c:/Espressif/ESP8266_SDK_210/lib\libnet80211.a(ieee80211_hostap.o)
                                                  c:/Espressif/ESP8266_SDK_210/lib\libpp.a(wdev.o)
                                                  c:/Espressif/ESP8266_SDK_210/lib\libpp.a(pp.o)
                                                  c:/Espressif/ESP8266_SDK_210/lib\libpp.a(pm.o)
                                                  c:/Espressif/ESP8266_SDK_210/lib\libmain.a(user_interface.o)
chm_init                                          c:/Espressif/ESP8266_SDK_210/lib\libnet80211.a(wl_chm.o)
                                                  c:/Espressif/ESP8266_SDK_210/lib\libnet80211.a(ieee80211.o)
chm_release_lock                                  c:/Espressif/ESP8266_SDK_210/lib\libnet80211.a(wl_chm.o)
                                                  c:/Espressif/ESP8266_SDK_210/lib\libnet80211.a(wl_cnx.o)
                                                  c:/Espressif/ESP8266_SDK_210/lib\libnet80211.a(ieee80211_scan.o)
chm_return_home_channel                           c:/Espressif/ESP8266_SDK_210/lib\libnet80211.a(wl_chm.o)
                                                  c:/Espressif/ESP8266_SDK_210/lib\libnet80211.a(wl_cnx.o)
                                                  c:/Espressif/ESP8266_SDK_210/lib\libnet80211.a(ieee80211_scan.o)
chm_set_current_channel                           c:/Espressif/ESP8266_SDK_210/lib\libnet80211.a(wl_chm.o)
                                                  c:/Espressif/ESP8266_SDK_210/lib\libnet80211.a(ieee80211_hostap.o)
                                                  c:/Espressif/ESP8266_SDK_210/lib\libmain.a(user_interface.o)
chm_start_op                                      c:/Espressif/ESP8266_SDK_210/lib\libnet80211.a(wl_chm.o)
                                                  c:/Espressif/ESP8266_SDK_210/lib\libnet80211.a(wl_cnx.o)
                                                  c:/Espressif/ESP8266_SDK_210/lib\libnet80211.a(ieee80211_scan.o)
clockgate_watchdog                                c:/Espressif/ESP8266_SDK_210/lib\libphy.a(phy_sleep.o)
                                                  c:/Espressif/ESP8266_SDK_210/lib\libpp.a(pm_for_bcn_only_mode.o)
                                                  c:/Espressif/ESP8266_SDK_210/lib\libpp.a(pm.o)
                                                  c:/Espressif/ESP8266_SDK_210/lib\libmain.a(user_interface.o)
cnx_add_rc                                        c:/Espressif/ESP8266_SDK_210/lib\libnet80211.a(wl_cnx.o)
                                                  c:/Espressif/ESP8266_SDK_210/lib\libnet80211.a(ieee80211_scan.o)
cnx_assoc_timeout                                 c:/Espressif/ESP8266_SDK_210/lib\libnet80211.a(wl_cnx.o)
                                                  c:/Espressif/ESP8266_SDK_210/lib\libnet80211.a(ieee80211_sta.o)
cnx_attach                                        c:/Espressif/ESP8266_SDK_210/lib\libnet80211.a(wl_cnx.o)
                                                  c:/Espressif/ESP8266_SDK_210/lib\libmain.a(app_main.o)
cnx_auth_timeout                                  c:/Espressif/ESP8266_SDK_210/lib\libnet80211.a(wl_cnx.o)
                                                  c:/Espressif/ESP8266_SDK_210/lib\libnet80211.a(ieee80211_proto.o)
cnx_bss_alloc                                     c:/Espressif/ESP8266_SDK_210/lib\libnet80211.a(wl_cnx.o)
                                                  c:/Espressif/ESP8266_SDK_210/lib\libnet80211.a(ieee80211_scan.o)
cnx_connect_timeout                               c:/Espressif/ESP8266_SDK_210/lib\libnet80211.a(wl_cnx.o)
                                                  c:/Espressif/ESP8266_SDK_210/lib\libnet80211.a(ieee80211_sta.o)
                                                  c:/Espressif/ESP8266_SDK_210/lib\libnet80211.a(ieee80211_scan.o)
cnx_csa_fn                                        c:/Espressif/ESP8266_SDK_210/lib\libnet80211.a(wl_cnx.o)
                                                  c:/Espressif/ESP8266_SDK_210/lib\libnet80211.a(ieee80211_sta.o)
cnx_handshake_timeout                             c:/Espressif/ESP8266_SDK_210/lib\libnet80211.a(wl_cnx.o)
cnx_node_alloc                                    c:/Espressif/ESP8266_SDK_210/lib\libnet80211.a(wl_cnx.o)
                                                  c:/Espressif/ESP8266_SDK_210/lib\libnet80211.a(ieee80211_hostap.o)
cnx_node_join                                     c:/Espressif/ESP8266_SDK_210/lib\libnet80211.a(wl_cnx.o)
                                                  c:/Espressif/ESP8266_SDK_210/lib\libnet80211.a(ieee80211_hostap.o)
cnx_node_leave                                    c:/Espressif/ESP8266_SDK_210/lib\libnet80211.a(wl_cnx.o)
                                                  c:/Espressif/ESP8266_SDK_210/lib\libnet80211.a(ieee80211_hostap.o)
                                                  c:/Espressif/ESP8266_SDK_210/lib\libmain.a(user_interface.o)
cnx_node_remove                                   c:/Espressif/ESP8266_SDK_210/lib\libnet80211.a(wl_cnx.o)
cnx_node_search                                   c:/Espressif/ESP8266_SDK_210/lib\libnet80211.a(wl_cnx.o)
                                                  c:/Espressif/ESP8266_SDK_210/lib\libwpa.a(wpa_auth.o)
                                                  c:/Espressif/ESP8266_SDK_210/lib\libnet80211.a(ieee80211_output.o)
                                                  c:/Espressif/ESP8266_SDK_210/lib\libnet80211.a(ieee80211_hostap.o)
cnx_rc_search                                     c:/Espressif/ESP8266_SDK_210/lib\libnet80211.a(wl_cnx.o)
                                                  c:/Espressif/ESP8266_SDK_210/lib\libnet80211.a(ieee80211_scan.o)
cnx_rc_update_age                                 c:/Espressif/ESP8266_SDK_210/lib\libnet80211.a(wl_cnx.o)
                                                  c:/Espressif/ESP8266_SDK_210/lib\libnet80211.a(ieee80211_scan.o)
cnx_rc_update_rssi                                c:/Espressif/ESP8266_SDK_210/lib\libnet80211.a(wl_cnx.o)
                                                  c:/Espressif/ESP8266_SDK_210/lib\libnet80211.a(ieee80211_scan.o)
cnx_rc_update_state_metric                        c:/Espressif/ESP8266_SDK_210/lib\libnet80211.a(wl_cnx.o)
                                                  c:/Espressif/ESP8266_SDK_210/lib\libnet80211.a(ieee80211_scan.o)
cnx_remove_all_rc                                 c:/Espressif/ESP8266_SDK_210/lib\libnet80211.a(wl_cnx.o)
                                                  c:/Espressif/ESP8266_SDK_210/lib\libnet80211.a(ieee80211_sta.o)
cnx_remove_rc                                     c:/Espressif/ESP8266_SDK_210/lib\libnet80211.a(wl_cnx.o)
                                                  c:/Espressif/ESP8266_SDK_210/lib\libnet80211.a(ieee80211_scan.o)
cnx_sta_associated                                c:/Espressif/ESP8266_SDK_210/lib\libnet80211.a(wl_cnx.o)
                                                  c:/Espressif/ESP8266_SDK_210/lib\libnet80211.a(ieee80211_sta.o)
cnx_sta_connect_cmd                               c:/Espressif/ESP8266_SDK_210/lib\libnet80211.a(wl_cnx.o)
                                                  c:/Espressif/ESP8266_SDK_210/lib\libmain.a(user_interface.o)
cnx_sta_connect_led_timer_cb                      c:/Espressif/ESP8266_SDK_210/lib\libnet80211.a(wl_cnx.o)
cnx_sta_leave                                     c:/Espressif/ESP8266_SDK_210/lib\libnet80211.a(wl_cnx.o)
                                                  c:/Espressif/ESP8266_SDK_210/lib\libnet80211.a(ieee80211_sta.o)
cnx_sta_scan_cmd                                  c:/Espressif/ESP8266_SDK_210/lib\libnet80211.a(wl_cnx.o)
                                                  c:/Espressif/ESP8266_SDK_210/lib\libmain.a(user_interface.o)
cnx_start_handoff_cb                              c:/Espressif/ESP8266_SDK_210/lib\libnet80211.a(wl_cnx.o)
cnx_update_bss                                    c:/Espressif/ESP8266_SDK_210/lib\libnet80211.a(wl_cnx.o)
                                                  c:/Espressif/ESP8266_SDK_210/lib\libnet80211.a(ieee80211_scan.o)
cnx_update_bss_more                               c:/Espressif/ESP8266_SDK_210/lib\libnet80211.a(wl_cnx.o)
                                                  c:/Espressif/ESP8266_SDK_210/lib\libnet80211.a(ieee80211_scan.o)
connect_scan_flag                                 c:/Espressif/ESP8266_SDK_210/lib\libnet80211.a(ieee80211_scan.o)
correct_rf_ana_gain                               c:/Espressif/ESP8266_SDK_210/lib\libphy.a(phy_chip_v6_cal.o)
cpu_overclock                                     c:/Espressif/ESP8266_SDK_210/lib\libmain.a(user_interface.o)
current_header                                    c:/Espressif/ESP8266_SDK_210/lib\liblwip.a(ip.o)
current_iphdr_dest                                c:/Espressif/ESP8266_SDK_210/lib\liblwip.a(ip.o)
                                                  c:/Espressif/ESP8266_SDK_210/lib\liblwip.a(icmp.o)
                                                  c:/Espressif/ESP8266_SDK_210/lib\liblwip.a(udp.o)
                                                  c:/Espressif/ESP8266_SDK_210/lib\liblwip.a(tcp_in.o)
                                                  c:/Espressif/ESP8266_SDK_210/lib\liblwip.a(raw.o)
current_iphdr_src                                 c:/Espressif/ESP8266_SDK_210/lib\liblwip.a(ip.o)
                                                  c:/Espressif/ESP8266_SDK_210/lib\liblwip.a(icmp.o)
                                                  c:/Espressif/ESP8266_SDK_210/lib\liblwip.a(udp.o)
                                                  c:/Espressif/ESP8266_SDK_210/lib\liblwip.a(tcp_in.o)
                                                  c:/Espressif/ESP8266_SDK_210/lib\liblwip.a(raw.o)
current_netif                                     c:/Espressif/ESP8266_SDK_210/lib\liblwip.a(ip.o)
dbg_stop_hw_wdt                                   c:/Espressif/ESP8266_SDK_210/lib\libpp.a(pp.o)
dbg_stop_sw_wdt                                   c:/Espressif/ESP8266_SDK_210/lib\libpp.a(pp.o)
dbg_timer_flag                                    c:/Espressif/ESP8266_SDK_210/lib\libmain.a(ets_timer.o)
dcoindex2txbbgain                                 c:/Espressif/ESP8266_SDK_210/lib\libphy.a(phy_chip_v6_cal.o)
debug_timer                                       c:/Espressif/ESP8266_SDK_210/lib\libmain.a(ets_timer.o)
debug_timerfn                                     c:/Espressif/ESP8266_SDK_210/lib\libmain.a(ets_timer.o)
deep_sleep_flag                                   c:/Espressif/ESP8266_SDK_210/lib\libmain.a(user_interface.o)
deep_sleep_set_option                             c:/Espressif/ESP8266_SDK_210/lib\libphy.a(phy_chip_v6.o)
                                                  c:/Espressif/ESP8266_SDK_210/lib\libmain.a(user_interface.o)
default_hostname                                  c:/Espressif/ESP8266_SDK_210/lib\libmain.a(eagle_lwip_if.o)
                                                  c:/Espressif/ESP8266_SDK_210/lib\libmain.a(user_interface.o)
default_interface                                 c:/Espressif/ESP8266_SDK_210/lib\libmain.a(user_interface.o)
                                                  c:/Espressif/ESP8266_SDK_210/lib\liblwip.a(espconn_udp.o)
default_ssid                                      c:/Espressif/ESP8266_SDK_210/lib\libmain.a(user_interface.o)
dhcp_arp_reply                                    c:/Espressif/ESP8266_SDK_210/lib\liblwip.a(dhcp.o)
                                                  c:/Espressif/ESP8266_SDK_210/lib\liblwip.a(etharp.o)
dhcp_bind_check                                   c:/Espressif/ESP8266_SDK_210/lib\libwpa.a(wpa_main.o)
dhcp_cleanup                                      c:/Espressif/ESP8266_SDK_210/lib\liblwip.a(dhcp.o)
                                                  c:/Espressif/ESP8266_SDK_210/lib\libnet80211.a(wl_cnx.o)
                                                  c:/Espressif/ESP8266_SDK_210/lib\libmain.a(user_interface.o)
dhcp_coarse_tmr                                   c:/Espressif/ESP8266_SDK_210/lib\liblwip.a(dhcp.o)
                                                  c:/Espressif/ESP8266_SDK_210/lib\liblwip.a(timers.o)
dhcp_fine_tmr                                     c:/Espressif/ESP8266_SDK_210/lib\liblwip.a(dhcp.o)
                                                  c:/Espressif/ESP8266_SDK_210/lib\liblwip.a(timers.o)
dhcp_inform                                       c:/Espressif/ESP8266_SDK_210/lib\liblwip.a(dhcp.o)
dhcp_network_changed                              c:/Espressif/ESP8266_SDK_210/lib\liblwip.a(dhcp.o)
                                                  c:/Espressif/ESP8266_SDK_210/lib\liblwip.a(netif.o)
dhcp_release                                      c:/Espressif/ESP8266_SDK_210/lib\liblwip.a(dhcp.o)
                                                  c:/Espressif/ESP8266_SDK_210/lib\libnet80211.a(wl_cnx.o)
dhcp_renew                                        c:/Espressif/ESP8266_SDK_210/lib\liblwip.a(dhcp.o)
dhcp_rx_options_given                             c:/Espressif/ESP8266_SDK_210/lib\liblwip.a(dhcp.o)
dhcp_rx_options_val                               c:/Espressif/ESP8266_SDK_210/lib\liblwip.a(dhcp.o)
dhcp_set_struct                                   c:/Espressif/ESP8266_SDK_210/lib\liblwip.a(dhcp.o)
dhcp_start                                        c:/Espressif/ESP8266_SDK_210/lib\liblwip.a(dhcp.o)
                                                  c:/Espressif/ESP8266_SDK_210/lib\libwpa.a(wpa_main.o)
                                                  c:/Espressif/ESP8266_SDK_210/lib\libmain.a(user_interface.o)
dhcp_stop                                         c:/Espressif/ESP8266_SDK_210/lib\liblwip.a(dhcp.o)
                                                  c:/Espressif/ESP8266_SDK_210/lib\libnet80211.a(wl_cnx.o)
                                                  c:/Espressif/ESP8266_SDK_210/lib\libmain.a(user_interface.o)
dhcpc_flag                                        c:/Espressif/ESP8266_SDK_210/lib\libmain.a(user_interface.o)
                                                  c:/Espressif/ESP8266_SDK_210/lib\libwpa.a(wpa_main.o)
dhcps_coarse_tmr                                  c:/Espressif/ESP8266_SDK_210/lib\liblwip.a(dhcpserver.o)
                                                  c:/Espressif/ESP8266_SDK_210/lib\liblwip.a(timers.o)
dhcps_flag                                        c:/Espressif/ESP8266_SDK_210/lib\libmain.a(user_interface.o)
                                                  c:/Espressif/ESP8266_SDK_210/lib\libmain.a(eagle_lwip_if.o)
dhcps_lease_time                                  c:/Espressif/ESP8266_SDK_210/lib\liblwip.a(dhcpserver.o)
dhcps_start                                       c:/Espressif/ESP8266_SDK_210/lib\liblwip.a(dhcpserver.o)
                                                  c:/Espressif/ESP8266_SDK_210/lib\libmain.a(eagle_lwip_if.o)
                                                  c:/Espressif/ESP8266_SDK_210/lib\libmain.a(user_interface.o)
dhcps_stop                                        c:/Espressif/ESP8266_SDK_210/lib\liblwip.a(dhcpserver.o)
                                                  c:/Espressif/ESP8266_SDK_210/lib\libmain.a(eagle_lwip_if.o)
                                                  c:/Espressif/ESP8266_SDK_210/lib\libmain.a(user_interface.o)
divide                                            c:/Espressif/ESP8266_SDK_210/lib\libmain.a(eagle_lib.o)
dns_gethostbyname                                 c:/Espressif/ESP8266_SDK_210/lib\liblwip.a(dns.o)
                                                  c:/Espressif/ESP8266_SDK_210/lib\liblwip.a(espconn.o)
dns_getserver                                     c:/Espressif/ESP8266_SDK_210/lib\liblwip.a(dns.o)
                                                  c:/Espressif/ESP8266_SDK_210/lib\liblwip.a(espconn.o)
dns_init                                          c:/Espressif/ESP8266_SDK_210/lib\liblwip.a(dns.o)
                                                  c:/Espressif/ESP8266_SDK_210/lib\liblwip.a(init.o)
dns_setserver                                     c:/Espressif/ESP8266_SDK_210/lib\liblwip.a(dns.o)
                                                  c:/Espressif/ESP8266_SDK_210/lib\liblwip.a(espconn.o)
                                                  c:/Espressif/ESP8266_SDK_210/lib\liblwip.a(dhcp.o)
dns_tmr                                           c:/Espressif/ESP8266_SDK_210/lib\liblwip.a(dns.o)
                                                  c:/Espressif/ESP8266_SDK_210/lib\liblwip.a(timers.o)
do_noisefloor                                     c:/Espressif/ESP8266_SDK_210/lib\libphy.a(phy_chip_v6.o)
do_noisefloor_lsleep_v50                          c:/Espressif/ESP8266_SDK_210/lib\libphy.a(phy_chip_v6.o)
do_pwctrl_flag                                    c:/Espressif/ESP8266_SDK_210/lib\libphy.a(phy_chip_v6.o)
                                                  c:/Espressif/ESP8266_SDK_210/lib\libphy.a(phy_sleep.o)
done_cb                                           c:/Espressif/ESP8266_SDK_210/lib\libmain.a(user_interface.o)
                                                  c:/Espressif/ESP8266_SDK_210/lib\libmain.a(app_main.o)
dpd_bypass_original                               c:/Espressif/ESP8266_SDK_210/lib\libphy.a(phy_chip_v6.o)
dpd_mem_write                                     c:/Espressif/ESP8266_SDK_210/lib\libphy.a(phy_chip_v6_cal.o)
dpd_scale_set                                     c:/Espressif/ESP8266_SDK_210/lib\libphy.a(phy_chip_v6_cal.o)
                                                  c:/Espressif/ESP8266_SDK_210/lib\libphy.a(phy_chip_v6.o)
dup_binstr                                        c:/Espressif/ESP8266_SDK_210/lib\libwpa.a(common.o)
eagle_auth_done                                   c:/Espressif/ESP8266_SDK_210/lib\libwpa.a(wpa_main.o)
                                                  c:/Espressif/ESP8266_SDK_210/lib\libnet80211.a(ieee80211_sta.o)
eagle_lwip_getif                                  c:/Espressif/ESP8266_SDK_210/lib\libmain.a(eagle_lwip_if.o)
                                                  c:/Espressif/ESP8266_SDK_210/lib\liblwip.a(espconn_udp.o)
                                                  c:/Espressif/ESP8266_SDK_210/lib\liblwip.a(ip.o)
                                                  c:/Espressif/ESP8266_SDK_210/lib\liblwip.a(dhcpserver.o)
                                                  c:/Espressif/ESP8266_SDK_210/lib\libmain.a(user_interface.o)
eagle_lwip_if_alloc                               c:/Espressif/ESP8266_SDK_210/lib\libmain.a(eagle_lwip_if.o)
                                                  c:/Espressif/ESP8266_SDK_210/lib\libnet80211.a(ieee80211_sta.o)
                                                  c:/Espressif/ESP8266_SDK_210/lib\libnet80211.a(ieee80211_hostap.o)
eagle_lwip_if_free                                c:/Espressif/ESP8266_SDK_210/lib\libmain.a(eagle_lwip_if.o)
                                                  c:/Espressif/ESP8266_SDK_210/lib\libnet80211.a(ieee80211_hostap.o)
                                                  c:/Espressif/ESP8266_SDK_210/lib\libmain.a(user_interface.o)
eapol_txcb                                        c:/Espressif/ESP8266_SDK_210/lib\libwpa.a(wpa.o)
                                                  c:/Espressif/ESP8266_SDK_210/lib\libwpa.a(wpa_main.o)
easygpio_attachInterrupt                          build/debug/app_app.a(easygpio.o)
easygpio_countBits                                build/debug/app_app.a(easygpio.o)
easygpio_detachInterrupt                          build/debug/app_app.a(easygpio.o)
easygpio_getGPIONameFunc                          build/debug/app_app.a(easygpio.o)
easygpio_inputGet                                 build/debug/app_app.a(easygpio.o)
easygpio_outputDisable                            build/debug/app_app.a(easygpio.o)
easygpio_outputEnable                             build/debug/app_app.a(easygpio.o)
                                                  build/debug/app_app.a(user_main.o)
easygpio_outputSet                                build/debug/app_app.a(easygpio.o)
                                                  build/debug/app_app.a(user_main.o)
easygpio_pinMode                                  build/debug/app_app.a(easygpio.o)
                                                  build/debug/app_app.a(user_main.o)
easygpio_pullMode                                 build/debug/app_app.a(easygpio.o)
eloop_cancel_timeout                              c:/Espressif/ESP8266_SDK_210/lib\libwpa.a(wpa_debug.o)
                                                  c:/Espressif/ESP8266_SDK_210/lib\libwpa.a(wpa.o)
                                                  c:/Espressif/ESP8266_SDK_210/lib\libwpa.a(wpa_auth.o)
eloop_register_timeout                            c:/Espressif/ESP8266_SDK_210/lib\libwpa.a(wpa_debug.o)
                                                  c:/Espressif/ESP8266_SDK_210/lib\libwpa.a(wpa.o)
                                                  c:/Espressif/ESP8266_SDK_210/lib\libwpa.a(wpa_auth.o)
esf_buf_alloc                                     c:/Espressif/ESP8266_SDK_210/lib\libpp.a(esf_buf.o)
                                                  c:/Espressif/ESP8266_SDK_210/lib\libnet80211.a(ieee80211_output.o)
                                                  c:/Espressif/ESP8266_SDK_210/lib\libnet80211.a(ieee80211_ets.o)
esf_buf_recycle                                   c:/Espressif/ESP8266_SDK_210/lib\libpp.a(esf_buf.o)
                                                  c:/Espressif/ESP8266_SDK_210/lib\libnet80211.a(ieee80211_power.o)
                                                  c:/Espressif/ESP8266_SDK_210/lib\libnet80211.a(ieee80211_output.o)
                                                  c:/Espressif/ESP8266_SDK_210/lib\libnet80211.a(ieee80211_hostap.o)
                                                  c:/Espressif/ESP8266_SDK_210/lib\libpp.a(pp.o)
esf_buf_setup                                     c:/Espressif/ESP8266_SDK_210/lib\libpp.a(esf_buf.o)
                                                  c:/Espressif/ESP8266_SDK_210/lib\libpp.a(pp.o)
esf_rx_buf_alloc                                  c:/Espressif/ESP8266_SDK_210/lib\libpp.a(esf_buf.o)
                                                  c:/Espressif/ESP8266_SDK_210/lib\libpp.a(wdev.o)
esp_crc8                                          c:/Espressif/ESP8266_SDK_210/lib\libmain.a(app_main.o)
espconn_TaskQueue                                 c:/Espressif/ESP8266_SDK_210/lib\liblwip.a(espconn_tcp.o)
espconn_abort                                     c:/Espressif/ESP8266_SDK_210/lib\liblwip.a(espconn.o)
espconn_accept                                    c:/Espressif/ESP8266_SDK_210/lib\liblwip.a(espconn.o)
espconn_clear_opt                                 c:/Espressif/ESP8266_SDK_210/lib\liblwip.a(espconn.o)
espconn_connect                                   c:/Espressif/ESP8266_SDK_210/lib\liblwip.a(espconn.o)
espconn_copy_partial                              c:/Espressif/ESP8266_SDK_210/lib\liblwip.a(espconn.o)
                                                  c:/Espressif/ESP8266_SDK_210/lib\liblwip.a(espconn_tcp.o)
espconn_create                                    c:/Espressif/ESP8266_SDK_210/lib\liblwip.a(espconn.o)
espconn_delete                                    c:/Espressif/ESP8266_SDK_210/lib\liblwip.a(espconn.o)
espconn_disconnect                                c:/Espressif/ESP8266_SDK_210/lib\liblwip.a(espconn.o)
espconn_dns_getserver                             c:/Espressif/ESP8266_SDK_210/lib\liblwip.a(espconn.o)
espconn_dns_setserver                             c:/Espressif/ESP8266_SDK_210/lib\liblwip.a(espconn.o)
espconn_find_connection                           c:/Espressif/ESP8266_SDK_210/lib\liblwip.a(espconn.o)
                                                  c:/Espressif/ESP8266_SDK_210/lib\liblwip.a(espconn_tcp.o)
espconn_find_current_pcb                          c:/Espressif/ESP8266_SDK_210/lib\liblwip.a(espconn_tcp.o)
espconn_get_connection_info                       c:/Espressif/ESP8266_SDK_210/lib\liblwip.a(espconn.o)
                                                  c:/Espressif/ESP8266_SDK_210/lib\liblwip.a(espconn_tcp.o)
espconn_get_keepalive                             c:/Espressif/ESP8266_SDK_210/lib\liblwip.a(espconn.o)
espconn_get_packet_info                           c:/Espressif/ESP8266_SDK_210/lib\liblwip.a(espconn.o)
espconn_gethostbyname                             c:/Espressif/ESP8266_SDK_210/lib\liblwip.a(espconn.o)
espconn_igmp_join                                 c:/Espressif/ESP8266_SDK_210/lib\liblwip.a(espconn_udp.o)
espconn_igmp_leave                                c:/Espressif/ESP8266_SDK_210/lib\liblwip.a(espconn_udp.o)
espconn_init                                      c:/Espressif/ESP8266_SDK_210/lib\liblwip.a(espconn_tcp.o)
                                                  c:/Espressif/ESP8266_SDK_210/lib\libmain.a(app_main.o)
espconn_kill_oldest_pcb                           c:/Espressif/ESP8266_SDK_210/lib\liblwip.a(espconn_tcp.o)
espconn_kill_pcb                                  c:/Espressif/ESP8266_SDK_210/lib\liblwip.a(espconn_tcp.o)
espconn_list_creat                                c:/Espressif/ESP8266_SDK_210/lib\liblwip.a(espconn.o)
                                                  c:/Espressif/ESP8266_SDK_210/lib\liblwip.a(espconn_udp.o)
                                                  c:/Espressif/ESP8266_SDK_210/lib\liblwip.a(espconn_tcp.o)
espconn_list_delete                               c:/Espressif/ESP8266_SDK_210/lib\liblwip.a(espconn.o)
                                                  c:/Espressif/ESP8266_SDK_210/lib\liblwip.a(espconn_udp.o)
                                                  c:/Espressif/ESP8266_SDK_210/lib\liblwip.a(espconn_tcp.o)
espconn_lock_recv                                 c:/Espressif/ESP8266_SDK_210/lib\liblwip.a(espconn_tcp.o)
espconn_pbuf_create                               c:/Espressif/ESP8266_SDK_210/lib\liblwip.a(espconn.o)
espconn_pbuf_delete                               c:/Espressif/ESP8266_SDK_210/lib\liblwip.a(espconn.o)
                                                  c:/Espressif/ESP8266_SDK_210/lib\liblwip.a(espconn_tcp.o)
espconn_port                                      c:/Espressif/ESP8266_SDK_210/lib\liblwip.a(espconn.o)
espconn_recv                                      c:/Espressif/ESP8266_SDK_210/lib\liblwip.a(espconn.o)
espconn_recv_hold                                 c:/Espressif/ESP8266_SDK_210/lib\liblwip.a(espconn_tcp.o)
espconn_recv_unhold                               c:/Espressif/ESP8266_SDK_210/lib\liblwip.a(espconn_tcp.o)
                                                  c:/Espressif/ESP8266_SDK_210/lib\liblwip.a(espconn.o)
espconn_regist_connectcb                          c:/Espressif/ESP8266_SDK_210/lib\liblwip.a(espconn.o)
espconn_regist_disconcb                           c:/Espressif/ESP8266_SDK_210/lib\liblwip.a(espconn.o)
espconn_regist_reconcb                            c:/Espressif/ESP8266_SDK_210/lib\liblwip.a(espconn.o)
espconn_regist_recvcb                             c:/Espressif/ESP8266_SDK_210/lib\liblwip.a(espconn.o)
espconn_regist_sentcb                             c:/Espressif/ESP8266_SDK_210/lib\liblwip.a(espconn.o)
espconn_regist_time                               c:/Espressif/ESP8266_SDK_210/lib\liblwip.a(espconn.o)
espconn_regist_write_finish                       c:/Espressif/ESP8266_SDK_210/lib\liblwip.a(espconn.o)
espconn_send                                      c:/Espressif/ESP8266_SDK_210/lib\liblwip.a(espconn.o)
espconn_sendto                                    c:/Espressif/ESP8266_SDK_210/lib\liblwip.a(espconn.o)
espconn_sent                                      c:/Espressif/ESP8266_SDK_210/lib\liblwip.a(espconn.o)
espconn_set_keepalive                             c:/Espressif/ESP8266_SDK_210/lib\liblwip.a(espconn.o)
espconn_set_opt                                   c:/Espressif/ESP8266_SDK_210/lib\liblwip.a(espconn.o)
espconn_tcp_client                                c:/Espressif/ESP8266_SDK_210/lib\liblwip.a(espconn_tcp.o)
                                                  c:/Espressif/ESP8266_SDK_210/lib\liblwip.a(espconn.o)
espconn_tcp_delete                                c:/Espressif/ESP8266_SDK_210/lib\liblwip.a(espconn_tcp.o)
                                                  c:/Espressif/ESP8266_SDK_210/lib\liblwip.a(espconn.o)
espconn_tcp_disconnect                            c:/Espressif/ESP8266_SDK_210/lib\liblwip.a(espconn_tcp.o)
                                                  c:/Espressif/ESP8266_SDK_210/lib\liblwip.a(espconn.o)
espconn_tcp_get_max_con                           c:/Espressif/ESP8266_SDK_210/lib\liblwip.a(espconn.o)
espconn_tcp_get_max_con_allow                     c:/Espressif/ESP8266_SDK_210/lib\liblwip.a(espconn.o)
                                                  c:/Espressif/ESP8266_SDK_210/lib\liblwip.a(espconn_tcp.o)
espconn_tcp_get_max_retran                        c:/Espressif/ESP8266_SDK_210/lib\liblwip.a(espconn.o)
espconn_tcp_get_max_syn                           c:/Espressif/ESP8266_SDK_210/lib\liblwip.a(espconn.o)
espconn_tcp_get_mss                               c:/Espressif/ESP8266_SDK_210/lib\liblwip.a(espconn.o)
espconn_tcp_get_wnd                               c:/Espressif/ESP8266_SDK_210/lib\liblwip.a(espconn.o)
espconn_tcp_memp_free                             c:/Espressif/ESP8266_SDK_210/lib\liblwip.a(espconn_tcp.o)
espconn_tcp_sent                                  c:/Espressif/ESP8266_SDK_210/lib\liblwip.a(espconn_tcp.o)
espconn_tcp_server                                c:/Espressif/ESP8266_SDK_210/lib\liblwip.a(espconn_tcp.o)
                                                  c:/Espressif/ESP8266_SDK_210/lib\liblwip.a(espconn.o)
espconn_tcp_set_buf_count                         c:/Espressif/ESP8266_SDK_210/lib\liblwip.a(espconn.o)
                                                  c:/Espressif/ESP8266_SDK_210/lib\liblwip.a(espconn_tcp.o)
espconn_tcp_set_max_con                           c:/Espressif/ESP8266_SDK_210/lib\liblwip.a(espconn.o)
espconn_tcp_set_max_con_allow                     c:/Espressif/ESP8266_SDK_210/lib\liblwip.a(espconn.o)
espconn_tcp_set_max_retran                        c:/Espressif/ESP8266_SDK_210/lib\liblwip.a(espconn.o)
espconn_tcp_set_max_syn                           c:/Espressif/ESP8266_SDK_210/lib\liblwip.a(espconn.o)
espconn_tcp_set_wnd                               c:/Espressif/ESP8266_SDK_210/lib\liblwip.a(espconn.o)
espconn_tcp_write                                 c:/Espressif/ESP8266_SDK_210/lib\liblwip.a(espconn_tcp.o)
                                                  c:/Espressif/ESP8266_SDK_210/lib\liblwip.a(espconn.o)
espconn_udp_disconnect                            c:/Espressif/ESP8266_SDK_210/lib\liblwip.a(espconn_udp.o)
                                                  c:/Espressif/ESP8266_SDK_210/lib\liblwip.a(espconn.o)
espconn_udp_sendto                                c:/Espressif/ESP8266_SDK_210/lib\liblwip.a(espconn_udp.o)
                                                  c:/Espressif/ESP8266_SDK_210/lib\liblwip.a(espconn.o)
espconn_udp_sent                                  c:/Espressif/ESP8266_SDK_210/lib\liblwip.a(espconn_udp.o)
                                                  c:/Espressif/ESP8266_SDK_210/lib\liblwip.a(espconn.o)
espconn_udp_server                                c:/Espressif/ESP8266_SDK_210/lib\liblwip.a(espconn_udp.o)
                                                  c:/Espressif/ESP8266_SDK_210/lib\liblwip.a(espconn.o)
espconn_unlock_recv                               c:/Espressif/ESP8266_SDK_210/lib\liblwip.a(espconn_tcp.o)
etharp_cleanup_netif                              c:/Espressif/ESP8266_SDK_210/lib\liblwip.a(etharp.o)
                                                  c:/Espressif/ESP8266_SDK_210/lib\liblwip.a(netif.o)
etharp_find_addr                                  c:/Espressif/ESP8266_SDK_210/lib\liblwip.a(etharp.o)
etharp_output                                     c:/Espressif/ESP8266_SDK_210/lib\liblwip.a(etharp.o)
                                                  c:/Espressif/ESP8266_SDK_210/lib\libmain.a(eagle_lwip_if.o)
etharp_query                                      c:/Espressif/ESP8266_SDK_210/lib\liblwip.a(etharp.o)
                                                  c:/Espressif/ESP8266_SDK_210/lib\liblwip.a(dhcp.o)
etharp_request                                    c:/Espressif/ESP8266_SDK_210/lib\liblwip.a(etharp.o)
                                                  c:/Espressif/ESP8266_SDK_210/lib\liblwip.a(netif.o)
etharp_tmr                                        c:/Espressif/ESP8266_SDK_210/lib\liblwip.a(etharp.o)
                                                  c:/Espressif/ESP8266_SDK_210/lib\liblwip.a(timers.o)
ethbroadcast                                      c:/Espressif/ESP8266_SDK_210/lib\liblwip.a(etharp.o)
                                                  c:/Espressif/ESP8266_SDK_210/lib\libwpa.a(wpa_auth.o)
                                                  c:/Espressif/ESP8266_SDK_210/lib\libnet80211.a(wl_cnx.o)
                                                  c:/Espressif/ESP8266_SDK_210/lib\libnet80211.a(ieee80211_scan.o)
                                                  c:/Espressif/ESP8266_SDK_210/lib\libnet80211.a(ieee80211_output.o)
                                                  c:/Espressif/ESP8266_SDK_210/lib\libnet80211.a(ieee80211_hostap.o)
                                                  c:/Espressif/ESP8266_SDK_210/lib\libnet80211.a(ieee80211.o)
                                                  c:/Espressif/ESP8266_SDK_210/lib\libpp.a(wdev.o)
ethernet_input                                    c:/Espressif/ESP8266_SDK_210/lib\liblwip.a(etharp.o)
                                                  c:/Espressif/ESP8266_SDK_210/lib\libmain.a(eagle_lwip_if.o)
ethzero                                           c:/Espressif/ESP8266_SDK_210/lib\liblwip.a(etharp.o)
ets_bzero                                         c:/Espressif/ESP8266_SDK_210/lib\libwpa.a(wpa_main.o)
                                                  c:/Espressif/ESP8266_SDK_210/lib\libwpa.a(wpa.o)
                                                  c:/Espressif/ESP8266_SDK_210/lib\libwpa.a(wpa_auth.o)
                                                  c:/Espressif/ESP8266_SDK_210/lib\libwpa.a(ap_config.o)
                                                  c:/Espressif/ESP8266_SDK_210/lib\liblwip.a(espconn_tcp.o)
                                                  c:/Espressif/ESP8266_SDK_210/lib\liblwip.a(dhcpserver.o)
                                                  c:/Espressif/ESP8266_SDK_210/lib\libnet80211.a(wl_cnx.o)
                                                  c:/Espressif/ESP8266_SDK_210/lib\libnet80211.a(wl_chm.o)
                                                  c:/Espressif/ESP8266_SDK_210/lib\libnet80211.a(ieee80211_sta.o)
                                                  c:/Espressif/ESP8266_SDK_210/lib\libnet80211.a(ieee80211_scan.o)
                                                  c:/Espressif/ESP8266_SDK_210/lib\libnet80211.a(ieee80211_input.o)
                                                  c:/Espressif/ESP8266_SDK_210/lib\libpp.a(trc.o)
                                                  c:/Espressif/ESP8266_SDK_210/lib\libpp.a(pm.o)
                                                  c:/Espressif/ESP8266_SDK_210/lib\libmain.a(user_interface.o)
                                                  c:/Espressif/ESP8266_SDK_210/lib\libmain.a(app_main.o)
ets_delay_us                                      c:/Espressif/ESP8266_SDK_210/lib\libwpa.a(wpa.o)
                                                  c:/Espressif/ESP8266_SDK_210/lib\libnet80211.a(ieee80211_hostap.o)
                                                  c:/Espressif/ESP8266_SDK_210/lib\libpp.a(wdev.o)
                                                  c:/Espressif/ESP8266_SDK_210/lib\libpp.a(lmac.o)
                                                  c:/Espressif/ESP8266_SDK_210/lib\libphy.a(phy_sleep.o)
                                                  c:/Espressif/ESP8266_SDK_210/lib\libphy.a(phy_chip_v6_cal.o)
                                                  c:/Espressif/ESP8266_SDK_210/lib\libphy.a(phy_chip_v6.o)
                                                  c:/Espressif/ESP8266_SDK_210/lib\libphy.a(phy_chip_v6_ana.o)
                                                  build/debug/app_app.a(user_main.o)
                                                  c:/Espressif/ESP8266_SDK_210/lib\libmain.a(user_interface.o)
                                                  c:/Espressif/ESP8266_SDK_210/lib\libmain.a(mem_manager.o)
                                                  c:/Espressif/ESP8266_SDK_210/lib\libmain.a(app_main.o)
ets_get_cpu_frequency                             c:/Espressif/ESP8266_SDK_210/lib\libmain.a(user_interface.o)
ets_install_putc1                                 build/debug/app_app.a(stdout.o)
                                                  c:/Espressif/ESP8266_SDK_210/lib\libmain.a(app_main.o)
ets_intr_lock                                     c:/Espressif/ESP8266_SDK_210/lib\libnet80211.a(wl_cnx.o)
                                                  c:/Espressif/ESP8266_SDK_210/lib\libnet80211.a(wl_chm.o)
                                                  c:/Espressif/ESP8266_SDK_210/lib\libnet80211.a(ieee80211_scan.o)
                                                  c:/Espressif/ESP8266_SDK_210/lib\libnet80211.a(ieee80211_hostap.o)
                                                  c:/Espressif/ESP8266_SDK_210/lib\libpp.a(esf_buf.o)
                                                  c:/Espressif/ESP8266_SDK_210/lib\libpp.a(wdev.o)
                                                  c:/Espressif/ESP8266_SDK_210/lib\libpp.a(pp.o)
                                                  c:/Espressif/ESP8266_SDK_210/lib\libpp.a(pm_for_bcn_only_mode.o)
                                                  c:/Espressif/ESP8266_SDK_210/lib\libpp.a(pm.o)
                                                  c:/Espressif/ESP8266_SDK_210/lib\libpp.a(lmac.o)
                                                  c:/Espressif/ESP8266_SDK_210/lib\libpp.a(if_hwctrl.o)
                                                  c:/Espressif/ESP8266_SDK_210/lib\libmain.a(user_interface.o)
                                                  c:/Espressif/ESP8266_SDK_210/lib\libmain.a(mem_manager.o)
                                                  c:/Espressif/ESP8266_SDK_210/lib\libmain.a(ets_timer.o)
                                                  c:/Espressif/ESP8266_SDK_210/lib\libmain.a(app_main.o)
ets_intr_unlock                                   c:/Espressif/ESP8266_SDK_210/lib\libnet80211.a(wl_cnx.o)
                                                  c:/Espressif/ESP8266_SDK_210/lib\libnet80211.a(wl_chm.o)
                                                  c:/Espressif/ESP8266_SDK_210/lib\libnet80211.a(ieee80211_scan.o)
                                                  c:/Espressif/ESP8266_SDK_210/lib\libnet80211.a(ieee80211_hostap.o)
                                                  c:/Espressif/ESP8266_SDK_210/lib\libpp.a(esf_buf.o)
                                                  c:/Espressif/ESP8266_SDK_210/lib\libpp.a(wdev.o)
                                                  c:/Espressif/ESP8266_SDK_210/lib\libpp.a(pp.o)
                                                  c:/Espressif/ESP8266_SDK_210/lib\libpp.a(pm_for_bcn_only_mode.o)
                                                  c:/Espressif/ESP8266_SDK_210/lib\libpp.a(pm.o)
                                                  c:/Espressif/ESP8266_SDK_210/lib\libpp.a(lmac.o)
                                                  c:/Espressif/ESP8266_SDK_210/lib\libpp.a(if_hwctrl.o)
                                                  c:/Espressif/ESP8266_SDK_210/lib\libmain.a(user_interface.o)
                                                  c:/Espressif/ESP8266_SDK_210/lib\libmain.a(mem_manager.o)
                                                  c:/Espressif/ESP8266_SDK_210/lib\libmain.a(ets_timer.o)
ets_isr_attach                                    build/debug/app_app.a(easygpio.o)
                                                  build/debug/app_app.a(hw_timer.o)
                                                  c:/Espressif/ESP8266_SDK_210/lib\libmain.a(ets_timer.o)
                                                  c:/Espressif/ESP8266_SDK_210/lib\libmain.a(app_main.o)
ets_isr_mask                                      build/debug/app_app.a(easygpio.o)
                                                  build/debug/app_app.a(hw_timer.o)
                                                  c:/Espressif/ESP8266_SDK_210/lib\libmain.a(user_interface.o)
ets_isr_unmask                                    build/debug/app_app.a(easygpio.o)
                                                  build/debug/app_app.a(hw_timer.o)
                                                  c:/Espressif/ESP8266_SDK_210/lib\libmain.a(ets_timer.o)
                                                  c:/Espressif/ESP8266_SDK_210/lib\libmain.a(app_main.o)
ets_memcmp                                        c:/Espressif/ESP8266_SDK_210/lib\libwpa.a(wpa_common.o)
                                                  c:/Espressif/ESP8266_SDK_210/lib\libwpa.a(wpa.o)
                                                  c:/Espressif/ESP8266_SDK_210/lib\libwpa.a(wpa_auth.o)
                                                  c:/Espressif/ESP8266_SDK_210/lib\libwpa.a(ap_config.o)
                                                  c:/Espressif/ESP8266_SDK_210/lib\liblwip.a(dhcpserver.o)
                                                  c:/Espressif/ESP8266_SDK_210/lib\libnet80211.a(ieee80211_action_vendor.o)
                                                  c:/Espressif/ESP8266_SDK_210/lib\libnet80211.a(wl_cnx.o)
                                                  c:/Espressif/ESP8266_SDK_210/lib\libnet80211.a(ieee80211_sta.o)
                                                  c:/Espressif/ESP8266_SDK_210/lib\libnet80211.a(ieee80211_scan.o)
                                                  c:/Espressif/ESP8266_SDK_210/lib\libnet80211.a(ieee80211_input.o)
                                                  c:/Espressif/ESP8266_SDK_210/lib\libnet80211.a(ieee80211_hostap.o)
                                                  c:/Espressif/ESP8266_SDK_210/lib\libpp.a(wdev.o)
                                                  c:/Espressif/ESP8266_SDK_210/lib\libpp.a(trc.o)
                                                  c:/Espressif/ESP8266_SDK_210/lib\libpp.a(pp.o)
                                                  c:/Espressif/ESP8266_SDK_210/lib\libpp.a(pm.o)
                                                  c:/Espressif/ESP8266_SDK_210/lib\libmain.a(user_interface.o)
                                                  c:/Espressif/ESP8266_SDK_210/lib\libmain.a(app_main.o)
ets_memcpy                                        c:/Espressif/ESP8266_SDK_210/lib\libcrypto.a(aes-wrap.o)
                                                  c:/Espressif/ESP8266_SDK_210/lib\libwpa.a(wpas_glue.o)
                                                  c:/Espressif/ESP8266_SDK_210/lib\libwpa.a(wpa_main.o)
                                                  c:/Espressif/ESP8266_SDK_210/lib\libwpa.a(wpa_common.o)
                                                  c:/Espressif/ESP8266_SDK_210/lib\libwpa.a(wpa.o)
                                                  c:/Espressif/ESP8266_SDK_210/lib\libwpa.a(wpa_auth_ie.o)
                                                  c:/Espressif/ESP8266_SDK_210/lib\libwpa.a(wpa_auth.o)
                                                  c:/Espressif/ESP8266_SDK_210/lib\libwpa.a(os_xtensa.o)
                                                  c:/Espressif/ESP8266_SDK_210/lib\libwpa.a(common.o)
                                                  c:/Espressif/ESP8266_SDK_210/lib\libwpa.a(ap_config.o)
                                                  c:/Espressif/ESP8266_SDK_210/lib\liblwip.a(icmp.o)
                                                  c:/Espressif/ESP8266_SDK_210/lib\liblwip.a(espconn.o)
                                                  c:/Espressif/ESP8266_SDK_210/lib\liblwip.a(espconn_buf.o)
                                                  c:/Espressif/ESP8266_SDK_210/lib\liblwip.a(tcp_out.o)
                                                  c:/Espressif/ESP8266_SDK_210/lib\liblwip.a(tcp.o)
                                                  c:/Espressif/ESP8266_SDK_210/lib\liblwip.a(pbuf.o)
                                                  c:/Espressif/ESP8266_SDK_210/lib\liblwip.a(ip.o)
                                                  c:/Espressif/ESP8266_SDK_210/lib\liblwip.a(etharp.o)
                                                  c:/Espressif/ESP8266_SDK_210/lib\liblwip.a(espconn_tcp.o)
                                                  c:/Espressif/ESP8266_SDK_210/lib\liblwip.a(dns.o)
                                                  c:/Espressif/ESP8266_SDK_210/lib\liblwip.a(dhcpserver.o)
                                                  c:/Espressif/ESP8266_SDK_210/lib\libnet80211.a(ieee80211_ie_vendor.o)
                                                  c:/Espressif/ESP8266_SDK_210/lib\libnet80211.a(ieee80211_action_vendor.o)
                                                  c:/Espressif/ESP8266_SDK_210/lib\libnet80211.a(wl_cnx.o)
                                                  c:/Espressif/ESP8266_SDK_210/lib\libnet80211.a(ieee80211_sta.o)
                                                  c:/Espressif/ESP8266_SDK_210/lib\libnet80211.a(ieee80211_scan.o)
                                                  c:/Espressif/ESP8266_SDK_210/lib\libnet80211.a(ieee80211_proto.o)
                                                  c:/Espressif/ESP8266_SDK_210/lib\libnet80211.a(ieee80211_phy.o)
                                                  c:/Espressif/ESP8266_SDK_210/lib\libnet80211.a(ieee80211_output.o)
                                                  c:/Espressif/ESP8266_SDK_210/lib\libnet80211.a(ieee80211_mesh_quick.o)
                                                  c:/Espressif/ESP8266_SDK_210/lib\libnet80211.a(ieee80211_input.o)
                                                  c:/Espressif/ESP8266_SDK_210/lib\libnet80211.a(ieee80211_hostap.o)
                                                  c:/Espressif/ESP8266_SDK_210/lib\libnet80211.a(ieee80211.o)
                                                  c:/Espressif/ESP8266_SDK_210/lib\libpp.a(wdev.o)
                                                  c:/Espressif/ESP8266_SDK_210/lib\libpp.a(trc.o)
                                                  c:/Espressif/ESP8266_SDK_210/lib\libpp.a(pm.o)
                                                  c:/Espressif/ESP8266_SDK_210/lib\libpp.a(if_hwctrl.o)
                                                  c:/Espressif/ESP8266_SDK_210/lib\libmain.a(eagle_lwip_if.o)
                                                  c:/Espressif/ESP8266_SDK_210/lib\libmain.a(user_interface.o)
                                                  c:/Espressif/ESP8266_SDK_210/lib\libmain.a(mem_manager.o)
                                                  c:/Espressif/ESP8266_SDK_210/lib\libmain.a(app_main.o)
ets_memset                                        c:/Espressif/ESP8266_SDK_210/lib\libcrypto.a(aes-internal-enc.o)
                                                  c:/Espressif/ESP8266_SDK_210/lib\libcrypto.a(aes-wrap.o)
                                                  c:/Espressif/ESP8266_SDK_210/lib\libwpa.a(wpas_glue.o)
                                                  c:/Espressif/ESP8266_SDK_210/lib\libwpa.a(wpa_ie.o)
                                                  c:/Espressif/ESP8266_SDK_210/lib\libwpa.a(wpa_common.o)
                                                  c:/Espressif/ESP8266_SDK_210/lib\libwpa.a(wpa.o)
                                                  c:/Espressif/ESP8266_SDK_210/lib\libwpa.a(wpa_auth_ie.o)
                                                  c:/Espressif/ESP8266_SDK_210/lib\libwpa.a(wpa_auth.o)
                                                  c:/Espressif/ESP8266_SDK_210/lib\liblwip.a(espconn.o)
                                                  c:/Espressif/ESP8266_SDK_210/lib\liblwip.a(espconn_buf.o)
                                                  c:/Espressif/ESP8266_SDK_210/lib\liblwip.a(udp.o)
                                                  c:/Espressif/ESP8266_SDK_210/lib\liblwip.a(tcp.o)
                                                  c:/Espressif/ESP8266_SDK_210/lib\liblwip.a(raw.o)
                                                  c:/Espressif/ESP8266_SDK_210/lib\liblwip.a(ip.o)
                                                  c:/Espressif/ESP8266_SDK_210/lib\liblwip.a(dns.o)
                                                  c:/Espressif/ESP8266_SDK_210/lib\liblwip.a(dhcpserver.o)
                                                  c:/Espressif/ESP8266_SDK_210/lib\liblwip.a(dhcp.o)
                                                  c:/Espressif/ESP8266_SDK_210/lib\libnet80211.a(wl_cnx.o)
                                                  c:/Espressif/ESP8266_SDK_210/lib\libnet80211.a(ieee80211_power.o)
                                                  c:/Espressif/ESP8266_SDK_210/lib\libnet80211.a(ieee80211_output.o)
                                                  c:/Espressif/ESP8266_SDK_210/lib\libnet80211.a(ieee80211_input.o)
                                                  c:/Espressif/ESP8266_SDK_210/lib\libnet80211.a(ieee80211_ht.o)
                                                  c:/Espressif/ESP8266_SDK_210/lib\libpp.a(esf_buf.o)
                                                  c:/Espressif/ESP8266_SDK_210/lib\libmain.a(user_interface.o)
                                                  c:/Espressif/ESP8266_SDK_210/lib\libmain.a(mem_manager.o)
                                                  c:/Espressif/ESP8266_SDK_210/lib\libmain.a(app_main.o)
ets_post                                          c:/Espressif/ESP8266_SDK_210/lib\libwpa.a(wpa_main.o)
                                                  c:/Espressif/ESP8266_SDK_210/lib\liblwip.a(espconn_tcp.o)
                                                  c:/Espressif/ESP8266_SDK_210/lib\libnet80211.a(wl_cnx.o)
                                                  c:/Espressif/ESP8266_SDK_210/lib\libnet80211.a(ieee80211_sta.o)
                                                  c:/Espressif/ESP8266_SDK_210/lib\libnet80211.a(ieee80211_input.o)
                                                  c:/Espressif/ESP8266_SDK_210/lib\libnet80211.a(ieee80211_hostap.o)
                                                  c:/Espressif/ESP8266_SDK_210/lib\libpp.a(pp.o)
                                                  c:/Espressif/ESP8266_SDK_210/lib\libpp.a(pm.o)
                                                  c:/Espressif/ESP8266_SDK_210/lib\libpp.a(lmac.o)
                                                  c:/Espressif/ESP8266_SDK_210/lib\libmain.a(user_interface.o)
                                                  c:/Espressif/ESP8266_SDK_210/lib\libmain.a(ets_timer.o)
ets_printf                                        c:/Espressif/ESP8266_SDK_210/lib\libpp.a(wdev.o)
                                                  c:/Espressif/ESP8266_SDK_210/lib\libpp.a(pp.o)
                                                  c:/Espressif/ESP8266_SDK_210/lib\libpp.a(pm_for_bcn_only_mode.o)
                                                  c:/Espressif/ESP8266_SDK_210/lib\libpp.a(pm.o)
                                                  c:/Espressif/ESP8266_SDK_210/lib\libpp.a(lmac.o)
                                                  c:/Espressif/ESP8266_SDK_210/lib\libmain.a(mem_manager.o)
                                                  c:/Espressif/ESP8266_SDK_210/lib\libmain.a(ets_timer.o)
                                                  c:/Espressif/ESP8266_SDK_210/lib\libmain.a(app_main.o)
ets_run                                           c:/Espressif/ESP8266_SDK_210/lib\libmain.a(app_main.o)
ets_set_idle_cb                                   c:/Espressif/ESP8266_SDK_210/lib\libpp.a(pm_for_bcn_only_mode.o)
                                                  c:/Espressif/ESP8266_SDK_210/lib\libpp.a(pm.o)
ets_snprintf                                      c:/Espressif/ESP8266_SDK_210/lib\libmain.a(eagle_lib.o)
ets_sprintf                                       c:/Espressif/ESP8266_SDK_210/lib\libmain.a(eagle_lib.o)
                                                  c:/Espressif/ESP8266_SDK_210/lib\libmain.a(user_interface.o)
ets_strcat                                        c:/Espressif/ESP8266_SDK_210/lib\libmain.a(eagle_lib.o)
ets_strchr                                        c:/Espressif/ESP8266_SDK_210/lib\libmain.a(eagle_lib.o)
ets_strcpy                                        c:/Espressif/ESP8266_SDK_210/lib\libmain.a(user_interface.o)
ets_strdup                                        c:/Espressif/ESP8266_SDK_210/lib\libwpa.a(os_xtensa.o)
ets_strlen                                        c:/Espressif/ESP8266_SDK_210/lib\libwpa.a(wpa.o)
                                                  c:/Espressif/ESP8266_SDK_210/lib\libwpa.a(os_xtensa.o)
                                                  c:/Espressif/ESP8266_SDK_210/lib\libwpa.a(common.o)
                                                  c:/Espressif/ESP8266_SDK_210/lib\libwpa.a(ap_config.o)
                                                  c:/Espressif/ESP8266_SDK_210/lib\liblwip.a(pbuf.o)
                                                  c:/Espressif/ESP8266_SDK_210/lib\liblwip.a(dns.o)
                                                  c:/Espressif/ESP8266_SDK_210/lib\liblwip.a(dhcp.o)
                                                  c:/Espressif/ESP8266_SDK_210/lib\libnet80211.a(wl_cnx.o)
                                                  c:/Espressif/ESP8266_SDK_210/lib\libnet80211.a(ieee80211_scan.o)
                                                  c:/Espressif/ESP8266_SDK_210/lib\libnet80211.a(ieee80211_hostap.o)
                                                  c:/Espressif/ESP8266_SDK_210/lib\libmain.a(eagle_lib.o)
                                                  c:/Espressif/ESP8266_SDK_210/lib\libmain.a(user_interface.o)
                                                  c:/Espressif/ESP8266_SDK_210/lib\libmain.a(mem_manager.o)
ets_strncmp                                       c:/Espressif/ESP8266_SDK_210/lib\libnet80211.a(ieee80211_scan.o)
                                                  c:/Espressif/ESP8266_SDK_210/lib\libmain.a(user_interface.o)
ets_strncpy                                       c:/Espressif/ESP8266_SDK_210/lib\libnet80211.a(ieee80211_scan.o)
ets_strrchr                                       c:/Espressif/ESP8266_SDK_210/lib\libmain.a(eagle_lib.o)
                                                  c:/Espressif/ESP8266_SDK_210/lib\libwpa.a(common.o)
ets_task                                          c:/Espressif/ESP8266_SDK_210/lib\liblwip.a(espconn_tcp.o)
                                                  c:/Espressif/ESP8266_SDK_210/lib\libpp.a(pp.o)
                                                  c:/Espressif/ESP8266_SDK_210/lib\libpp.a(pm.o)
                                                  c:/Espressif/ESP8266_SDK_210/lib\libmain.a(eagle_lwip_if.o)
                                                  c:/Espressif/ESP8266_SDK_210/lib\libmain.a(user_interface.o)
                                                  c:/Espressif/ESP8266_SDK_210/lib\libmain.a(ets_timer.o)
ets_timer_arm_new                                 c:/Espressif/ESP8266_SDK_210/lib\libmain.a(ets_timer.o)
                                                  c:/Espressif/ESP8266_SDK_210/lib\libwpa.a(wpa_main.o)
                                                  c:/Espressif/ESP8266_SDK_210/lib\libwpa.a(wpa.o)
                                                  c:/Espressif/ESP8266_SDK_210/lib\libnet80211.a(wl_cnx.o)
                                                  c:/Espressif/ESP8266_SDK_210/lib\libnet80211.a(wl_chm.o)
                                                  c:/Espressif/ESP8266_SDK_210/lib\libnet80211.a(ieee80211_sta.o)
                                                  c:/Espressif/ESP8266_SDK_210/lib\libnet80211.a(ieee80211_scan.o)
                                                  c:/Espressif/ESP8266_SDK_210/lib\libnet80211.a(ieee80211_proto.o)
                                                  c:/Espressif/ESP8266_SDK_210/lib\libnet80211.a(ieee80211_hostap.o)
                                                  c:/Espressif/ESP8266_SDK_210/lib\libpp.a(pp.o)
                                                  c:/Espressif/ESP8266_SDK_210/lib\libpp.a(pm_for_bcn_only_mode.o)
                                                  c:/Espressif/ESP8266_SDK_210/lib\libpp.a(pm.o)
                                                  c:/Espressif/ESP8266_SDK_210/lib\libpp.a(if_hwctrl.o)
                                                  build/debug/app_app.a(user_main.o)
                                                  c:/Espressif/ESP8266_SDK_210/lib\libmain.a(user_interface.o)
                                                  c:/Espressif/ESP8266_SDK_210/lib\libmain.a(app_main.o)
ets_timer_disarm                                  c:/Espressif/ESP8266_SDK_210/lib\libmain.a(ets_timer.o)
                                                  c:/Espressif/ESP8266_SDK_210/lib\libwpa.a(wpa_main.o)
                                                  c:/Espressif/ESP8266_SDK_210/lib\libwpa.a(wpa.o)
                                                  c:/Espressif/ESP8266_SDK_210/lib\libnet80211.a(wl_cnx.o)
                                                  c:/Espressif/ESP8266_SDK_210/lib\libnet80211.a(wl_chm.o)
                                                  c:/Espressif/ESP8266_SDK_210/lib\libnet80211.a(ieee80211_sta.o)
                                                  c:/Espressif/ESP8266_SDK_210/lib\libnet80211.a(ieee80211_scan.o)
                                                  c:/Espressif/ESP8266_SDK_210/lib\libnet80211.a(ieee80211_proto.o)
                                                  c:/Espressif/ESP8266_SDK_210/lib\libnet80211.a(ieee80211_hostap.o)
                                                  c:/Espressif/ESP8266_SDK_210/lib\libpp.a(pp.o)
                                                  c:/Espressif/ESP8266_SDK_210/lib\libpp.a(pm_for_bcn_only_mode.o)
                                                  c:/Espressif/ESP8266_SDK_210/lib\libpp.a(pm.o)
                                                  c:/Espressif/ESP8266_SDK_210/lib\libpp.a(if_hwctrl.o)
                                                  build/debug/app_app.a(user_main.o)
                                                  c:/Espressif/ESP8266_SDK_210/lib\libmain.a(user_interface.o)
                                                  c:/Espressif/ESP8266_SDK_210/lib\libmain.a(app_main.o)
ets_timer_done                                    c:/Espressif/ESP8266_SDK_210/lib\libmain.a(ets_timer.o)
ets_timer_handler_isr                             c:/Espressif/ESP8266_SDK_210/lib\libmain.a(ets_timer.o)
ets_timer_init                                    c:/Espressif/ESP8266_SDK_210/lib\libmain.a(ets_timer.o)
                                                  c:/Espressif/ESP8266_SDK_210/lib\libmain.a(app_main.o)
ets_timer_setfn                                   c:/Espressif/ESP8266_SDK_210/lib\libmain.a(ets_timer.o)
                                                  c:/Espressif/ESP8266_SDK_210/lib\libwpa.a(wpa_main.o)
                                                  c:/Espressif/ESP8266_SDK_210/lib\libwpa.a(wpa.o)
                                                  c:/Espressif/ESP8266_SDK_210/lib\libnet80211.a(wl_cnx.o)
                                                  c:/Espressif/ESP8266_SDK_210/lib\libnet80211.a(wl_chm.o)
                                                  c:/Espressif/ESP8266_SDK_210/lib\libnet80211.a(ieee80211_sta.o)
                                                  c:/Espressif/ESP8266_SDK_210/lib\libnet80211.a(ieee80211_scan.o)
                                                  c:/Espressif/ESP8266_SDK_210/lib\libnet80211.a(ieee80211_proto.o)
                                                  c:/Espressif/ESP8266_SDK_210/lib\libnet80211.a(ieee80211_hostap.o)
                                                  c:/Espressif/ESP8266_SDK_210/lib\libpp.a(pp.o)
                                                  c:/Espressif/ESP8266_SDK_210/lib\libpp.a(pm_for_bcn_only_mode.o)
                                                  c:/Espressif/ESP8266_SDK_210/lib\libpp.a(pm.o)
                                                  c:/Espressif/ESP8266_SDK_210/lib\libpp.a(if_hwctrl.o)
                                                  build/debug/app_app.a(user_main.o)
                                                  c:/Espressif/ESP8266_SDK_210/lib\libmain.a(user_interface.o)
                                                  c:/Espressif/ESP8266_SDK_210/lib\libmain.a(app_main.o)
ets_update_cpu_frequency                          c:/Espressif/ESP8266_SDK_210/lib\libpp.a(pm_for_bcn_only_mode.o)
                                                  c:/Espressif/ESP8266_SDK_210/lib\libpp.a(pm.o)
                                                  c:/Espressif/ESP8266_SDK_210/lib\libphy.a(phy_chip_v6.o)
                                                  c:/Espressif/ESP8266_SDK_210/lib\libmain.a(user_interface.o)
ets_vprintf                                       c:/Espressif/ESP8266_SDK_210/lib\libmain.a(user_interface.o)
ets_vsnprintf                                     c:/Espressif/ESP8266_SDK_210/lib\libmain.a(eagle_lib.o)
                                                  c:/Espressif/ESP8266_SDK_210/lib\libwpa.a(wpa_debug.o)
ets_vsprintf                                      c:/Espressif/ESP8266_SDK_210/lib\libmain.a(eagle_lib.o)
ets_write_char                                    c:/Espressif/ESP8266_SDK_210/lib\libmain.a(user_interface.o)
event_TaskQueue                                   c:/Espressif/ESP8266_SDK_210/lib\libmain.a(user_interface.o)
event_cb                                          c:/Espressif/ESP8266_SDK_210/lib\libmain.a(user_interface.o)
                                                  c:/Espressif/ESP8266_SDK_210/lib\libwpa.a(wpa_main.o)
                                                  c:/Espressif/ESP8266_SDK_210/lib\libnet80211.a(wl_cnx.o)
                                                  c:/Espressif/ESP8266_SDK_210/lib\libnet80211.a(ieee80211_sta.o)
                                                  c:/Espressif/ESP8266_SDK_210/lib\libnet80211.a(ieee80211_hostap.o)
flash_data_check                                  c:/Espressif/ESP8266_SDK_210/lib\libmain.a(app_main.o)
flash_gd25q32c_enable_QIO_mode                    c:/Espressif/ESP8266_SDK_210/lib\libmain.a(spi_flash.o)
flash_gd25q32c_read_status                        c:/Espressif/ESP8266_SDK_210/lib\libmain.a(spi_flash.o)
flash_gd25q32c_write_status                       c:/Espressif/ESP8266_SDK_210/lib\libmain.a(spi_flash.o)
flash_read                                        c:/Espressif/ESP8266_SDK_210/lib\libmain.a(spi_flash.o)
flashchip                                         c:/Espressif/ESP8266_SDK_210/lib\libpp.a(pp.o)
                                                  c:/Espressif/ESP8266_SDK_210/lib\libpp.a(pm_for_bcn_only_mode.o)
                                                  c:/Espressif/ESP8266_SDK_210/lib\libpp.a(pm.o)
                                                  c:/Espressif/ESP8266_SDK_210/lib\libmain.a(spi_flash.o)
                                                  c:/Espressif/ESP8266_SDK_210/lib\libmain.a(user_interface.o)
                                                  c:/Espressif/ESP8266_SDK_210/lib\libmain.a(mem_manager.o)
                                                  c:/Espressif/ESP8266_SDK_210/lib\libmain.a(app_main.o)
fpm_allow_tx                                      c:/Espressif/ESP8266_SDK_210/lib\libpp.a(pm_for_bcn_only_mode.o)
                                                  c:/Espressif/ESP8266_SDK_210/lib\libnet80211.a(ieee80211_scan.o)
                                                  c:/Espressif/ESP8266_SDK_210/lib\libpp.a(pp.o)
                                                  c:/Espressif/ESP8266_SDK_210/lib\libmain.a(user_interface.o)
fpm_attach                                        c:/Espressif/ESP8266_SDK_210/lib\libpp.a(pm_for_bcn_only_mode.o)
                                                  c:/Espressif/ESP8266_SDK_210/lib\libmain.a(app_main.o)
fpm_auto_sleep_set_in_null_mode                   c:/Espressif/ESP8266_SDK_210/lib\libpp.a(pm_for_bcn_only_mode.o)
fpm_close                                         c:/Espressif/ESP8266_SDK_210/lib\libpp.a(pm_for_bcn_only_mode.o)
                                                  c:/Espressif/ESP8266_SDK_210/lib\libnet80211.a(ieee80211_hostap.o)
                                                  c:/Espressif/ESP8266_SDK_210/lib\libpp.a(pm.o)
fpm_do_sleep                                      c:/Espressif/ESP8266_SDK_210/lib\libpp.a(pm_for_bcn_only_mode.o)
                                                  c:/Espressif/ESP8266_SDK_210/lib\libnet80211.a(ieee80211_hostap.o)
fpm_do_wakeup                                     c:/Espressif/ESP8266_SDK_210/lib\libpp.a(pm_for_bcn_only_mode.o)
                                                  c:/Espressif/ESP8266_SDK_210/lib\libnet80211.a(ieee80211_scan.o)
                                                  c:/Espressif/ESP8266_SDK_210/lib\libpp.a(pp.o)
                                                  c:/Espressif/ESP8266_SDK_210/lib\libmain.a(user_interface.o)
fpm_get_slp_type                                  c:/Espressif/ESP8266_SDK_210/lib\libpp.a(pm_for_bcn_only_mode.o)
fpm_is_open                                       c:/Espressif/ESP8266_SDK_210/lib\libpp.a(pm_for_bcn_only_mode.o)
                                                  c:/Espressif/ESP8266_SDK_210/lib\libnet80211.a(ieee80211_hostap.o)
                                                  c:/Espressif/ESP8266_SDK_210/lib\libpp.a(pm.o)
fpm_open                                          c:/Espressif/ESP8266_SDK_210/lib\libpp.a(pm_for_bcn_only_mode.o)
                                                  c:/Espressif/ESP8266_SDK_210/lib\libnet80211.a(ieee80211_hostap.o)
fpm_rf_is_closed                                  c:/Espressif/ESP8266_SDK_210/lib\libpp.a(pm_for_bcn_only_mode.o)
                                                  c:/Espressif/ESP8266_SDK_210/lib\libpp.a(pp.o)
fpm_set_type_from_upper                           c:/Espressif/ESP8266_SDK_210/lib\libpp.a(pm_for_bcn_only_mode.o)
fpm_set_wakeup_cb                                 c:/Espressif/ESP8266_SDK_210/lib\libpp.a(pm_for_bcn_only_mode.o)
freq_change_check_scan_done                       c:/Espressif/ESP8266_SDK_210/lib\libpp.a(pp.o)
                                                  c:/Espressif/ESP8266_SDK_210/lib\libnet80211.a(ieee80211_scan.o)
freq_change_check_scan_start                      c:/Espressif/ESP8266_SDK_210/lib\libpp.a(pp.o)
                                                  c:/Espressif/ESP8266_SDK_210/lib\libnet80211.a(ieee80211_scan.o)
freq_change_check_scan_work                       c:/Espressif/ESP8266_SDK_210/lib\libpp.a(pp.o)
freq_change_check_softap_link_enable              c:/Espressif/ESP8266_SDK_210/lib\libnet80211.a(ieee80211_scan.o)
freq_change_sta_scan                              c:/Espressif/ESP8266_SDK_210/lib\libpp.a(pp.o)
freq_change_sta_scan_force_enable                 c:/Espressif/ESP8266_SDK_210/lib\libpp.a(pp.o)
                                                  c:/Espressif/ESP8266_SDK_210/lib\libnet80211.a(ieee80211_scan.o)
freq_changle_enable_softap_link_check             c:/Espressif/ESP8266_SDK_210/lib\libnet80211.a(ieee80211_scan.o)
freq_changle_scan_start                           c:/Espressif/ESP8266_SDK_210/lib\libnet80211.a(ieee80211_scan.o)
freq_changle_sta_scan_do_cb                       c:/Espressif/ESP8266_SDK_210/lib\libpp.a(pp.o)
                                                  c:/Espressif/ESP8266_SDK_210/lib\libnet80211.a(ieee80211_scan.o)
freq_trace_enable                                 c:/Espressif/ESP8266_SDK_210/lib\libmain.a(app_main.o)
freqcal_scan_done                                 c:/Espressif/ESP8266_SDK_210/lib\libnet80211.a(ieee80211_hostap.o)
gScanStruct                                       c:/Espressif/ESP8266_SDK_210/lib\libnet80211.a(ieee80211_scan.o)
                                                  c:/Espressif/ESP8266_SDK_210/lib\libnet80211.a(wl_cnx.o)
                                                  c:/Espressif/ESP8266_SDK_210/lib\libnet80211.a(ieee80211_sta.o)
                                                  c:/Espressif/ESP8266_SDK_210/lib\libpp.a(pp.o)
g_cnx_probe_rc_list_cb                            c:/Espressif/ESP8266_SDK_210/lib\libnet80211.a(wl_cnx.o)
g_ic                                              c:/Espressif/ESP8266_SDK_210/lib\libnet80211.a(ieee80211.o)
                                                  c:/Espressif/ESP8266_SDK_210/lib\libnet80211.a(ieee80211_crypto_tkip.o)
                                                  c:/Espressif/ESP8266_SDK_210/lib\libwpa.a(wpa_main.o)
                                                  c:/Espressif/ESP8266_SDK_210/lib\libwpa.a(wpa.o)
                                                  c:/Espressif/ESP8266_SDK_210/lib\libwpa.a(wpa_auth.o)
                                                  c:/Espressif/ESP8266_SDK_210/lib\libwpa.a(ap_config.o)
                                                  c:/Espressif/ESP8266_SDK_210/lib\libnet80211.a(ieee80211_action_vendor.o)
                                                  c:/Espressif/ESP8266_SDK_210/lib\libnet80211.a(wl_cnx.o)
                                                  c:/Espressif/ESP8266_SDK_210/lib\libnet80211.a(wl_chm.o)
                                                  c:/Espressif/ESP8266_SDK_210/lib\libnet80211.a(ieee80211_sta.o)
                                                  c:/Espressif/ESP8266_SDK_210/lib\libnet80211.a(ieee80211_scan.o)
                                                  c:/Espressif/ESP8266_SDK_210/lib\libnet80211.a(ieee80211_rfid.o)
                                                  c:/Espressif/ESP8266_SDK_210/lib\libnet80211.a(ieee80211_regdomain.o)
                                                  c:/Espressif/ESP8266_SDK_210/lib\libnet80211.a(ieee80211_proto.o)
                                                  c:/Espressif/ESP8266_SDK_210/lib\libnet80211.a(ieee80211_power.o)
                                                  c:/Espressif/ESP8266_SDK_210/lib\libnet80211.a(ieee80211_phy.o)
                                                  c:/Espressif/ESP8266_SDK_210/lib\libnet80211.a(ieee80211_output.o)
                                                  c:/Espressif/ESP8266_SDK_210/lib\libnet80211.a(ieee80211_mesh_quick.o)
                                                  c:/Espressif/ESP8266_SDK_210/lib\libnet80211.a(ieee80211_input.o)
                                                  c:/Espressif/ESP8266_SDK_210/lib\libnet80211.a(ieee80211_ht.o)
                                                  c:/Espressif/ESP8266_SDK_210/lib\libnet80211.a(ieee80211_hostap.o)
                                                  c:/Espressif/ESP8266_SDK_210/lib\libnet80211.a(ieee80211_crypto.o)
                                                  c:/Espressif/ESP8266_SDK_210/lib\libpp.a(wdev.o)
                                                  c:/Espressif/ESP8266_SDK_210/lib\libpp.a(trc.o)
                                                  c:/Espressif/ESP8266_SDK_210/lib\libpp.a(pp.o)
                                                  c:/Espressif/ESP8266_SDK_210/lib\libpp.a(pm.o)
                                                  c:/Espressif/ESP8266_SDK_210/lib\libpp.a(if_hwctrl.o)
                                                  c:/Espressif/ESP8266_SDK_210/lib\libmain.a(eagle_lwip_if.o)
                                                  c:/Espressif/ESP8266_SDK_210/lib\libmain.a(user_interface.o)
                                                  c:/Espressif/ESP8266_SDK_210/lib\libmain.a(app_main.o)
g_phyFuns                                         c:/Espressif/ESP8266_SDK_210/lib\libphy.a(phy_chip_v6.o)
                                                  c:/Espressif/ESP8266_SDK_210/lib\libpp.a(pm.o)
                                                  c:/Espressif/ESP8266_SDK_210/lib\libphy.a(phy_sleep.o)
                                                  c:/Espressif/ESP8266_SDK_210/lib\libphy.a(phy_chip_v6_cal.o)
                                                  c:/Espressif/ESP8266_SDK_210/lib\libphy.a(phy_chip_v6_ana.o)
gen_rx_gain_table                                 c:/Espressif/ESP8266_SDK_210/lib\libphy.a(phy_chip_v6.o)
get_adc_rand                                      c:/Espressif/ESP8266_SDK_210/lib\libphy.a(phy_chip_v6.o)
                                                  c:/Espressif/ESP8266_SDK_210/lib\libphy.a(phy_sleep.o)
get_chip_version                                  c:/Espressif/ESP8266_SDK_210/lib\libphy.a(phy_sleep.o)
                                                  c:/Espressif/ESP8266_SDK_210/lib\libphy.a(phy_chip_v6.o)
get_data_from_rtc                                 c:/Espressif/ESP8266_SDK_210/lib\libphy.a(phy_chip_v6.o)
                                                  c:/Espressif/ESP8266_SDK_210/lib\libmain.a(app_main.o)
get_fcc_1m2m_pwr_offset                           c:/Espressif/ESP8266_SDK_210/lib\libphy.a(phy_chip_v6_cal.o)
get_flash_bin_len                                 c:/Espressif/ESP8266_SDK_210/lib\libmain.a(user_interface.o)
get_fpm_auto_sleep_flag                           c:/Espressif/ESP8266_SDK_210/lib\libpp.a(pm_for_bcn_only_mode.o)
                                                  c:/Espressif/ESP8266_SDK_210/lib\libmain.a(user_interface.o)
get_iav_key                                       c:/Espressif/ESP8266_SDK_210/lib\libnet80211.a(ieee80211_action_vendor.o)
get_irom0_bin_len                                 c:/Espressif/ESP8266_SDK_210/lib\libmain.a(user_interface.o)
get_noisefloor_sat                                c:/Espressif/ESP8266_SDK_210/lib\libphy.a(phy_chip_v6.o)
get_phy_target_power                              c:/Espressif/ESP8266_SDK_210/lib\libphy.a(phy_chip_v6.o)
                                                  c:/Espressif/ESP8266_SDK_210/lib\libphy.a(phy_chip_v6_cal.o)
get_pwctrl_correct                                c:/Espressif/ESP8266_SDK_210/lib\libphy.a(phy_chip_v6_cal.o)
get_rf_gain_qdb                                   c:/Espressif/ESP8266_SDK_210/lib\libphy.a(phy_chip_v6_cal.o)
                                                  c:/Espressif/ESP8266_SDK_210/lib\libphy.a(phy_chip_v6.o)
get_sar_dout                                      c:/Espressif/ESP8266_SDK_210/lib\libphy.a(phy_chip_v6_cal.o)
get_target_power_offset                           c:/Espressif/ESP8266_SDK_210/lib\libphy.a(phy_chip_v6_cal.o)
get_vdd33_offset                                  c:/Espressif/ESP8266_SDK_210/lib\libphy.a(phy_chip_v6.o)
gpio_init                                         build/debug/app_app.a(user_main.o)
gpio_input_get                                    c:/Espressif/ESP8266_SDK_210/lib\libpp.a(pm.o)
                                                  build/debug/app_app.a(easygpio.o)
                                                  build/debug/app_app.a(user_main.o)
gpio_output_set                                   c:/Espressif/ESP8266_SDK_210/lib\libnet80211.a(wl_cnx.o)
                                                  c:/Espressif/ESP8266_SDK_210/lib\libnet80211.a(ieee80211_hostap.o)
                                                  c:/Espressif/ESP8266_SDK_210/lib\libphy.a(phy_sleep.o)
                                                  c:/Espressif/ESP8266_SDK_210/lib\libphy.a(phy_chip_v6.o)
                                                  build/debug/app_app.a(easygpio.o)
                                                  c:/Espressif/ESP8266_SDK_210/lib\libmain.a(user_interface.o)
gpio_pin_intr_state_set                           build/debug/app_app.a(easygpio.o)
gpio_pin_wakeup_disable                           c:/Espressif/ESP8266_SDK_210/lib\libmain.a(user_interface.o)
gpio_pin_wakeup_enable                            c:/Espressif/ESP8266_SDK_210/lib\libmain.a(user_interface.o)
gpio_register_set                                 build/debug/app_app.a(easygpio.o)
hardware_reject                                   c:/Espressif/ESP8266_SDK_210/lib\libphy.a(phy_sleep.o)
hex2byte                                          c:/Espressif/ESP8266_SDK_210/lib\libwpa.a(common.o)
hexstr2bin                                        c:/Espressif/ESP8266_SDK_210/lib\libwpa.a(common.o)
                                                  c:/Espressif/ESP8266_SDK_210/lib\libwpa.a(wpa.o)
                                                  c:/Espressif/ESP8266_SDK_210/lib\libmain.a(user_interface.o)
hmac_md5                                          c:/Espressif/ESP8266_SDK_210/lib\libwpa.a(wpa_common.o)
hmac_sha1                                         c:/Espressif/ESP8266_SDK_210/lib\libwpa.a(wpa_common.o)
hmac_sha1_vector                                  c:/Espressif/ESP8266_SDK_210/lib\libwpa.a(wpa_common.o)
hostap_handle_timer                               c:/Espressif/ESP8266_SDK_210/lib\libnet80211.a(ieee80211_hostap.o)
hostap_input                                      c:/Espressif/ESP8266_SDK_210/lib\libnet80211.a(ieee80211_hostap.o)
                                                  c:/Espressif/ESP8266_SDK_210/lib\libpp.a(pp.o)
hostapd_config_defaults                           c:/Espressif/ESP8266_SDK_210/lib\libwpa.a(ap_config.o)
hostapd_config_defaults_bss                       c:/Espressif/ESP8266_SDK_210/lib\libwpa.a(ap_config.o)
hostapd_get_psk                                   c:/Espressif/ESP8266_SDK_210/lib\libwpa.a(ap_config.o)
                                                  c:/Espressif/ESP8266_SDK_210/lib\libwpa.a(wpa_auth.o)
hostapd_mac_comp                                  c:/Espressif/ESP8266_SDK_210/lib\libwpa.a(ap_config.o)
hostapd_mac_comp_empty                            c:/Espressif/ESP8266_SDK_210/lib\libwpa.a(ap_config.o)
hostapd_maclist_found                             c:/Espressif/ESP8266_SDK_210/lib\libwpa.a(ap_config.o)
hostapd_rate_found                                c:/Espressif/ESP8266_SDK_210/lib\libwpa.a(ap_config.o)
hostapd_setup_wpa_psk                             c:/Espressif/ESP8266_SDK_210/lib\libwpa.a(ap_config.o)
                                                  c:/Espressif/ESP8266_SDK_210/lib\libnet80211.a(ieee80211_hostap.o)
hostapd_wep_key_cmp                               c:/Espressif/ESP8266_SDK_210/lib\libwpa.a(ap_config.o)
hostname                                          c:/Espressif/ESP8266_SDK_210/lib\libmain.a(eagle_lwip_if.o)
                                                  c:/Espressif/ESP8266_SDK_210/lib\libmain.a(user_interface.o)
hw_timer_disable                                  build/debug/app_app.a(hw_timer.o)
                                                  build/debug/app_app.a(user_main.o)
hw_timer_restart                                  build/debug/app_app.a(hw_timer.o)
                                                  build/debug/app_app.a(user_main.o)
hw_timer_set_func                                 build/debug/app_app.a(hw_timer.o)
                                                  build/debug/app_app.a(user_main.o)
ic_bss_info_update                                c:/Espressif/ESP8266_SDK_210/lib\libpp.a(if_hwctrl.o)
                                                  c:/Espressif/ESP8266_SDK_210/lib\libnet80211.a(ieee80211_sta.o)
                                                  c:/Espressif/ESP8266_SDK_210/lib\libnet80211.a(ieee80211_hostap.o)
ic_disable_interface                              c:/Espressif/ESP8266_SDK_210/lib\libpp.a(if_hwctrl.o)
ic_enable_interface                               c:/Espressif/ESP8266_SDK_210/lib\libpp.a(if_hwctrl.o)
ic_get_addr                                       c:/Espressif/ESP8266_SDK_210/lib\libpp.a(if_hwctrl.o)
                                                  c:/Espressif/ESP8266_SDK_210/lib\libpp.a(pm.o)
ic_get_gtk_alg                                    c:/Espressif/ESP8266_SDK_210/lib\libpp.a(if_hwctrl.o)
                                                  c:/Espressif/ESP8266_SDK_210/lib\libpp.a(pp.o)
ic_get_ptk_alg                                    c:/Espressif/ESP8266_SDK_210/lib\libpp.a(if_hwctrl.o)
                                                  c:/Espressif/ESP8266_SDK_210/lib\libpp.a(pp.o)
ic_get_rssi                                       c:/Espressif/ESP8266_SDK_210/lib\libpp.a(if_hwctrl.o)
                                                  c:/Espressif/ESP8266_SDK_210/lib\libmain.a(user_interface.o)
ic_interface_enabled                              c:/Espressif/ESP8266_SDK_210/lib\libpp.a(if_hwctrl.o)
ic_interface_is_p2p                               c:/Espressif/ESP8266_SDK_210/lib\libpp.a(if_hwctrl.o)
ic_is_pure_sta                                    c:/Espressif/ESP8266_SDK_210/lib\libpp.a(if_hwctrl.o)
                                                  c:/Espressif/ESP8266_SDK_210/lib\libpp.a(pp.o)
ic_remove_key                                     c:/Espressif/ESP8266_SDK_210/lib\libpp.a(if_hwctrl.o)
                                                  c:/Espressif/ESP8266_SDK_210/lib\libwpa.a(wpa_auth.o)
ic_set_gtk_alg                                    c:/Espressif/ESP8266_SDK_210/lib\libpp.a(if_hwctrl.o)
ic_set_key                                        c:/Espressif/ESP8266_SDK_210/lib\libpp.a(if_hwctrl.o)
                                                  c:/Espressif/ESP8266_SDK_210/lib\libwpa.a(wpa_main.o)
                                                  c:/Espressif/ESP8266_SDK_210/lib\libwpa.a(wpa_auth.o)
ic_set_opmode                                     c:/Espressif/ESP8266_SDK_210/lib\libpp.a(if_hwctrl.o)
ic_set_ptk_alg                                    c:/Espressif/ESP8266_SDK_210/lib\libpp.a(if_hwctrl.o)
ic_set_sta                                        c:/Espressif/ESP8266_SDK_210/lib\libpp.a(if_hwctrl.o)
                                                  c:/Espressif/ESP8266_SDK_210/lib\libnet80211.a(wl_cnx.o)
ic_set_vif                                        c:/Espressif/ESP8266_SDK_210/lib\libpp.a(if_hwctrl.o)
                                                  c:/Espressif/ESP8266_SDK_210/lib\libnet80211.a(ieee80211_sta.o)
                                                  c:/Espressif/ESP8266_SDK_210/lib\libnet80211.a(ieee80211_hostap.o)
                                                  c:/Espressif/ESP8266_SDK_210/lib\libmain.a(user_interface.o)
icmp_dest_unreach                                 c:/Espressif/ESP8266_SDK_210/lib\liblwip.a(icmp.o)
                                                  c:/Espressif/ESP8266_SDK_210/lib\liblwip.a(udp.o)
                                                  c:/Espressif/ESP8266_SDK_210/lib\liblwip.a(ip.o)
icmp_input                                        c:/Espressif/ESP8266_SDK_210/lib\liblwip.a(icmp.o)
                                                  c:/Espressif/ESP8266_SDK_210/lib\liblwip.a(ip.o)
idle_timer_reopen_flag                            c:/Espressif/ESP8266_SDK_210/lib\libpp.a(pp.o)
                                                  c:/Espressif/ESP8266_SDK_210/lib\libpp.a(pm.o)
ieee80211_action_vendor_spec_attach               c:/Espressif/ESP8266_SDK_210/lib\libnet80211.a(ieee80211_action_vendor.o)
                                                  c:/Espressif/ESP8266_SDK_210/lib\libnet80211.a(ieee80211.o)
ieee80211_add_action_vendor_spec_esp              c:/Espressif/ESP8266_SDK_210/lib\libnet80211.a(ieee80211_action_vendor.o)
ieee80211_add_htcap                               c:/Espressif/ESP8266_SDK_210/lib\libnet80211.a(ieee80211_ht.o)
                                                  c:/Espressif/ESP8266_SDK_210/lib\libnet80211.a(ieee80211_output.o)
ieee80211_add_htcap_vendor                        c:/Espressif/ESP8266_SDK_210/lib\libnet80211.a(ieee80211_ht.o)
                                                  c:/Espressif/ESP8266_SDK_210/lib\libnet80211.a(ieee80211_output.o)
ieee80211_add_htinfo                              c:/Espressif/ESP8266_SDK_210/lib\libnet80211.a(ieee80211_ht.o)
                                                  c:/Espressif/ESP8266_SDK_210/lib\libnet80211.a(ieee80211_output.o)
ieee80211_add_htinfo_vendor                       c:/Espressif/ESP8266_SDK_210/lib\libnet80211.a(ieee80211_ht.o)
                                                  c:/Espressif/ESP8266_SDK_210/lib\libnet80211.a(ieee80211_output.o)
ieee80211_add_ie_vendor_esp_freq_annon            c:/Espressif/ESP8266_SDK_210/lib\libnet80211.a(ieee80211_ie_vendor.o)
                                                  c:/Espressif/ESP8266_SDK_210/lib\libnet80211.a(ieee80211_output.o)
ieee80211_add_ie_vendor_esp_head                  c:/Espressif/ESP8266_SDK_210/lib\libnet80211.a(ieee80211_ie_vendor.o)
ieee80211_add_ie_vendor_esp_manufacturer          c:/Espressif/ESP8266_SDK_210/lib\libnet80211.a(ieee80211_ie_vendor.o)
                                                  c:/Espressif/ESP8266_SDK_210/lib\libnet80211.a(ieee80211_output.o)
ieee80211_add_ie_vendor_esp_mesh_assoc            c:/Espressif/ESP8266_SDK_210/lib\libnet80211.a(ieee80211_ie_vendor.o)
                                                  c:/Espressif/ESP8266_SDK_210/lib\libnet80211.a(ieee80211_mesh_quick.o)
ieee80211_add_ie_vendor_esp_mesh_group            c:/Espressif/ESP8266_SDK_210/lib\libnet80211.a(ieee80211_ie_vendor.o)
ieee80211_add_ie_vendor_esp_now                   c:/Espressif/ESP8266_SDK_210/lib\libnet80211.a(ieee80211_ie_vendor.o)
ieee80211_add_ie_vendor_esp_simple_pair           c:/Espressif/ESP8266_SDK_210/lib\libnet80211.a(ieee80211_ie_vendor.o)
                                                  c:/Espressif/ESP8266_SDK_210/lib\libnet80211.a(ieee80211_output.o)
ieee80211_add_ie_vendor_esp_ssid                  c:/Espressif/ESP8266_SDK_210/lib\libnet80211.a(ieee80211_ie_vendor.o)
                                                  c:/Espressif/ESP8266_SDK_210/lib\libnet80211.a(ieee80211_output.o)
ieee80211_add_rates                               c:/Espressif/ESP8266_SDK_210/lib\libnet80211.a(ieee80211_output.o)
ieee80211_add_xrates                              c:/Espressif/ESP8266_SDK_210/lib\libnet80211.a(ieee80211_output.o)
ieee80211_alloc_action_vendor_spec                c:/Espressif/ESP8266_SDK_210/lib\libnet80211.a(ieee80211_action_vendor.o)
ieee80211_alloc_challenge                         c:/Espressif/ESP8266_SDK_210/lib\libnet80211.a(ieee80211_input.o)
                                                  c:/Espressif/ESP8266_SDK_210/lib\libnet80211.a(ieee80211_sta.o)
ieee80211_alloc_countryie                         c:/Espressif/ESP8266_SDK_210/lib\libnet80211.a(ieee80211_regdomain.o)
                                                  c:/Espressif/ESP8266_SDK_210/lib\libnet80211.a(ieee80211_output.o)
ieee80211_alloc_deauth                            c:/Espressif/ESP8266_SDK_210/lib\libnet80211.a(ieee80211_output.o)
ieee80211_alloc_proberesp                         c:/Espressif/ESP8266_SDK_210/lib\libnet80211.a(ieee80211_output.o)
ieee80211_avs_clear_key_idx                       c:/Espressif/ESP8266_SDK_210/lib\libnet80211.a(ieee80211_action_vendor.o)
ieee80211_avs_fetch_key_idx                       c:/Espressif/ESP8266_SDK_210/lib\libnet80211.a(ieee80211_action_vendor.o)
ieee80211_beacon_alloc                            c:/Espressif/ESP8266_SDK_210/lib\libnet80211.a(ieee80211_output.o)
                                                  c:/Espressif/ESP8266_SDK_210/lib\libnet80211.a(ieee80211_hostap.o)
ieee80211_chan2ieee                               c:/Espressif/ESP8266_SDK_210/lib\libnet80211.a(ieee80211.o)
                                                  c:/Espressif/ESP8266_SDK_210/lib\libnet80211.a(wl_cnx.o)
                                                  c:/Espressif/ESP8266_SDK_210/lib\libnet80211.a(wl_chm.o)
                                                  c:/Espressif/ESP8266_SDK_210/lib\libnet80211.a(ieee80211_sta.o)
                                                  c:/Espressif/ESP8266_SDK_210/lib\libnet80211.a(ieee80211_scan.o)
                                                  c:/Espressif/ESP8266_SDK_210/lib\libnet80211.a(ieee80211_output.o)
                                                  c:/Espressif/ESP8266_SDK_210/lib\libnet80211.a(ieee80211_input.o)
                                                  c:/Espressif/ESP8266_SDK_210/lib\libnet80211.a(ieee80211_ht.o)
                                                  c:/Espressif/ESP8266_SDK_210/lib\libnet80211.a(ieee80211_hostap.o)
ieee80211_chan_in_regdomain                       c:/Espressif/ESP8266_SDK_210/lib\libnet80211.a(ieee80211_regdomain.o)
                                                  c:/Espressif/ESP8266_SDK_210/lib\libmain.a(user_interface.o)
                                                  c:/Espressif/ESP8266_SDK_210/lib\libmain.a(app_main.o)
ieee80211_crypto_attach                           c:/Espressif/ESP8266_SDK_210/lib\libnet80211.a(ieee80211_crypto.o)
                                                  c:/Espressif/ESP8266_SDK_210/lib\libnet80211.a(ieee80211.o)
ieee80211_crypto_available                        c:/Espressif/ESP8266_SDK_210/lib\libnet80211.a(ieee80211_crypto.o)
ieee80211_crypto_decap                            c:/Espressif/ESP8266_SDK_210/lib\libnet80211.a(ieee80211_crypto.o)
                                                  c:/Espressif/ESP8266_SDK_210/lib\libnet80211.a(ieee80211_sta.o)
                                                  c:/Espressif/ESP8266_SDK_210/lib\libnet80211.a(ieee80211_hostap.o)
ieee80211_crypto_encap                            c:/Espressif/ESP8266_SDK_210/lib\libnet80211.a(ieee80211_crypto.o)
                                                  c:/Espressif/ESP8266_SDK_210/lib\libnet80211.a(ieee80211_output.o)
ieee80211_crypto_setkey                           c:/Espressif/ESP8266_SDK_210/lib\libnet80211.a(ieee80211_crypto.o)
ieee80211_decap                                   c:/Espressif/ESP8266_SDK_210/lib\libnet80211.a(ieee80211_input.o)
                                                  c:/Espressif/ESP8266_SDK_210/lib\libnet80211.a(ieee80211_sta.o)
                                                  c:/Espressif/ESP8266_SDK_210/lib\libnet80211.a(ieee80211_hostap.o)
ieee80211_deliver_data                            c:/Espressif/ESP8266_SDK_210/lib\libnet80211.a(ieee80211_input.o)
                                                  c:/Espressif/ESP8266_SDK_210/lib\libnet80211.a(ieee80211_sta.o)
ieee80211_find_channel                            c:/Espressif/ESP8266_SDK_210/lib\libnet80211.a(ieee80211.o)
                                                  c:/Espressif/ESP8266_SDK_210/lib\libnet80211.a(ieee80211_ht.o)
ieee80211_find_channel_byieee                     c:/Espressif/ESP8266_SDK_210/lib\libnet80211.a(ieee80211.o)
ieee80211_freedom_init                            c:/Espressif/ESP8266_SDK_210/lib\libnet80211.a(ieee80211.o)
ieee80211_freedom_inside_cb                       c:/Espressif/ESP8266_SDK_210/lib\libnet80211.a(ieee80211.o)
ieee80211_freedom_output                          c:/Espressif/ESP8266_SDK_210/lib\libnet80211.a(ieee80211_output.o)
                                                  c:/Espressif/ESP8266_SDK_210/lib\libmain.a(user_interface.o)
ieee80211_getcapinfo                              c:/Espressif/ESP8266_SDK_210/lib\libnet80211.a(ieee80211_output.o)
ieee80211_getmgtframe                             c:/Espressif/ESP8266_SDK_210/lib\libnet80211.a(ieee80211_ets.o)
                                                  c:/Espressif/ESP8266_SDK_210/lib\libnet80211.a(ieee80211_action_vendor.o)
                                                  c:/Espressif/ESP8266_SDK_210/lib\libnet80211.a(ieee80211_output.o)
                                                  c:/Espressif/ESP8266_SDK_210/lib\libnet80211.a(ieee80211_ht.o)
                                                  c:/Espressif/ESP8266_SDK_210/lib\libpp.a(pm.o)
ieee80211_hostap_attach                           c:/Espressif/ESP8266_SDK_210/lib\libnet80211.a(ieee80211_hostap.o)
ieee80211_ht_attach                               c:/Espressif/ESP8266_SDK_210/lib\libnet80211.a(ieee80211_ht.o)
                                                  c:/Espressif/ESP8266_SDK_210/lib\libnet80211.a(ieee80211.o)
                                                  c:/Espressif/ESP8266_SDK_210/lib\libmain.a(user_interface.o)
ieee80211_ht_node_cleanup                         c:/Espressif/ESP8266_SDK_210/lib\libnet80211.a(ieee80211_ht.o)
ieee80211_ht_node_init                            c:/Espressif/ESP8266_SDK_210/lib\libnet80211.a(ieee80211_ht.o)
                                                  c:/Espressif/ESP8266_SDK_210/lib\libnet80211.a(ieee80211_sta.o)
ieee80211_ht_updateparams                         c:/Espressif/ESP8266_SDK_210/lib\libnet80211.a(ieee80211_ht.o)
                                                  c:/Espressif/ESP8266_SDK_210/lib\libnet80211.a(wl_cnx.o)
                                                  c:/Espressif/ESP8266_SDK_210/lib\libnet80211.a(ieee80211_sta.o)
ieee80211_ieee2mhz                                c:/Espressif/ESP8266_SDK_210/lib\libnet80211.a(ieee80211.o)
ieee80211_ifattach                                c:/Espressif/ESP8266_SDK_210/lib\libnet80211.a(ieee80211.o)
                                                  c:/Espressif/ESP8266_SDK_210/lib\libmain.a(app_main.o)
ieee80211_iserp_rateset                           c:/Espressif/ESP8266_SDK_210/lib\libnet80211.a(ieee80211_proto.o)
ieee80211_mesh_quick_deinit                       c:/Espressif/ESP8266_SDK_210/lib\libnet80211.a(ieee80211_mesh_quick.o)
ieee80211_mesh_quick_get                          c:/Espressif/ESP8266_SDK_210/lib\libnet80211.a(ieee80211_mesh_quick.o)
                                                  c:/Espressif/ESP8266_SDK_210/lib\libnet80211.a(ieee80211_output.o)
                                                  c:/Espressif/ESP8266_SDK_210/lib\libnet80211.a(ieee80211_hostap.o)
ieee80211_mesh_quick_ie_add                       c:/Espressif/ESP8266_SDK_210/lib\libnet80211.a(ieee80211_mesh_quick.o)
                                                  c:/Espressif/ESP8266_SDK_210/lib\libnet80211.a(ieee80211_output.o)
ieee80211_mesh_quick_init                         c:/Espressif/ESP8266_SDK_210/lib\libnet80211.a(ieee80211_mesh_quick.o)
ieee80211_mesh_quick_set                          c:/Espressif/ESP8266_SDK_210/lib\libnet80211.a(ieee80211_mesh_quick.o)
ieee80211_mgmt_output                             c:/Espressif/ESP8266_SDK_210/lib\libnet80211.a(ieee80211_output.o)
                                                  c:/Espressif/ESP8266_SDK_210/lib\libnet80211.a(ieee80211_ht.o)
ieee80211_mhz2ieee                                c:/Espressif/ESP8266_SDK_210/lib\libnet80211.a(ieee80211.o)
ieee80211_mlme_connect_bss                        c:/Espressif/ESP8266_SDK_210/lib\libnet80211.a(ieee80211_proto.o)
                                                  c:/Espressif/ESP8266_SDK_210/lib\libnet80211.a(wl_cnx.o)
ieee80211_node_pwrsave                            c:/Espressif/ESP8266_SDK_210/lib\libnet80211.a(ieee80211_power.o)
                                                  c:/Espressif/ESP8266_SDK_210/lib\libnet80211.a(ieee80211_hostap.o)
ieee80211_opcap                                   c:/Espressif/ESP8266_SDK_210/lib\libnet80211.a(ieee80211.o)
ieee80211_output_pbuf                             c:/Espressif/ESP8266_SDK_210/lib\libnet80211.a(ieee80211_output.o)
                                                  c:/Espressif/ESP8266_SDK_210/lib\libwpa.a(wpa_main.o)
                                                  c:/Espressif/ESP8266_SDK_210/lib\libwpa.a(wpa_auth.o)
                                                  c:/Espressif/ESP8266_SDK_210/lib\libnet80211.a(ieee80211_hostap.o)
                                                  c:/Espressif/ESP8266_SDK_210/lib\libmain.a(eagle_lwip_if.o)
ieee80211_parse_action                            c:/Espressif/ESP8266_SDK_210/lib\libnet80211.a(ieee80211_input.o)
                                                  c:/Espressif/ESP8266_SDK_210/lib\libnet80211.a(ieee80211_sta.o)
ieee80211_parse_beacon                            c:/Espressif/ESP8266_SDK_210/lib\libnet80211.a(ieee80211_input.o)
                                                  c:/Espressif/ESP8266_SDK_210/lib\libnet80211.a(ieee80211_sta.o)
                                                  c:/Espressif/ESP8266_SDK_210/lib\libnet80211.a(ieee80211_hostap.o)
ieee80211_parse_htcap                             c:/Espressif/ESP8266_SDK_210/lib\libnet80211.a(ieee80211_ht.o)
ieee80211_parse_rsn                               c:/Espressif/ESP8266_SDK_210/lib\libnet80211.a(ieee80211_input.o)
                                                  c:/Espressif/ESP8266_SDK_210/lib\libnet80211.a(ieee80211_scan.o)
ieee80211_parse_wmeparams                         c:/Espressif/ESP8266_SDK_210/lib\libnet80211.a(ieee80211_sta.o)
                                                  c:/Espressif/ESP8266_SDK_210/lib\libnet80211.a(wl_cnx.o)
ieee80211_parse_wpa                               c:/Espressif/ESP8266_SDK_210/lib\libnet80211.a(ieee80211_input.o)
                                                  c:/Espressif/ESP8266_SDK_210/lib\libnet80211.a(ieee80211_scan.o)
ieee80211_phy_init                                c:/Espressif/ESP8266_SDK_210/lib\libnet80211.a(ieee80211_phy.o)
                                                  c:/Espressif/ESP8266_SDK_210/lib\libmain.a(user_interface.o)
                                                  c:/Espressif/ESP8266_SDK_210/lib\libmain.a(app_main.o)
ieee80211_phy_type_get                            c:/Espressif/ESP8266_SDK_210/lib\libnet80211.a(ieee80211_phy.o)
                                                  c:/Espressif/ESP8266_SDK_210/lib\libnet80211.a(wl_cnx.o)
ieee80211_proto_attach                            c:/Espressif/ESP8266_SDK_210/lib\libnet80211.a(ieee80211_proto.o)
                                                  c:/Espressif/ESP8266_SDK_210/lib\libnet80211.a(ieee80211.o)
ieee80211_psq_cleanup                             c:/Espressif/ESP8266_SDK_210/lib\libnet80211.a(ieee80211_power.o)
ieee80211_psq_init                                c:/Espressif/ESP8266_SDK_210/lib\libnet80211.a(ieee80211_power.o)
                                                  c:/Espressif/ESP8266_SDK_210/lib\libnet80211.a(ieee80211_hostap.o)
ieee80211_pwrsave                                 c:/Espressif/ESP8266_SDK_210/lib\libnet80211.a(ieee80211_power.o)
                                                  c:/Espressif/ESP8266_SDK_210/lib\libnet80211.a(ieee80211_output.o)
ieee80211_rate_ref_init                           c:/Espressif/ESP8266_SDK_210/lib\libnet80211.a(ieee80211.o)
ieee80211_recv_action                             c:/Espressif/ESP8266_SDK_210/lib\libnet80211.a(ieee80211_action.o)
                                                  c:/Espressif/ESP8266_SDK_210/lib\libnet80211.a(ieee80211_sta.o)
                                                  c:/Espressif/ESP8266_SDK_210/lib\libnet80211.a(ieee80211_hostap.o)
ieee80211_recv_action_register                    c:/Espressif/ESP8266_SDK_210/lib\libnet80211.a(ieee80211_action.o)
                                                  c:/Espressif/ESP8266_SDK_210/lib\libnet80211.a(ieee80211_action_vendor.o)
                                                  c:/Espressif/ESP8266_SDK_210/lib\libnet80211.a(ieee80211_ht.o)
ieee80211_recv_action_unregister                  c:/Espressif/ESP8266_SDK_210/lib\libnet80211.a(ieee80211_action.o)
ieee80211_recv_action_vendor_spec                 c:/Espressif/ESP8266_SDK_210/lib\libnet80211.a(ieee80211_action_vendor.o)
ieee80211_regdomain_attach                        c:/Espressif/ESP8266_SDK_210/lib\libnet80211.a(ieee80211_regdomain.o)
ieee80211_regdomain_detach                        c:/Espressif/ESP8266_SDK_210/lib\libnet80211.a(ieee80211_regdomain.o)
ieee80211_rfid_locp_recv                          c:/Espressif/ESP8266_SDK_210/lib\libnet80211.a(ieee80211_rfid.o)
                                                  c:/Espressif/ESP8266_SDK_210/lib\libnet80211.a(ieee80211_hostap.o)
ieee80211_rfid_locp_recv_close                    c:/Espressif/ESP8266_SDK_210/lib\libnet80211.a(ieee80211_rfid.o)
                                                  c:/Espressif/ESP8266_SDK_210/lib\libmain.a(user_interface.o)
ieee80211_rfid_locp_recv_open                     c:/Espressif/ESP8266_SDK_210/lib\libnet80211.a(ieee80211_rfid.o)
                                                  c:/Espressif/ESP8266_SDK_210/lib\libmain.a(user_interface.o)
ieee80211_rfid_locp_recv_reset                    c:/Espressif/ESP8266_SDK_210/lib\libnet80211.a(ieee80211_rfid.o)
                                                  c:/Espressif/ESP8266_SDK_210/lib\libnet80211.a(ieee80211.o)
ieee80211_scan_attach                             c:/Espressif/ESP8266_SDK_210/lib\libnet80211.a(ieee80211_scan.o)
                                                  c:/Espressif/ESP8266_SDK_210/lib\libnet80211.a(ieee80211.o)
ieee80211_send_action                             c:/Espressif/ESP8266_SDK_210/lib\libnet80211.a(ieee80211_action.o)
                                                  c:/Espressif/ESP8266_SDK_210/lib\libnet80211.a(ieee80211_ht.o)
ieee80211_send_action_register                    c:/Espressif/ESP8266_SDK_210/lib\libnet80211.a(ieee80211_action.o)
                                                  c:/Espressif/ESP8266_SDK_210/lib\libnet80211.a(ieee80211_ht.o)
ieee80211_send_action_unregister                  c:/Espressif/ESP8266_SDK_210/lib\libnet80211.a(ieee80211_action.o)
ieee80211_send_action_vendor_spec                 c:/Espressif/ESP8266_SDK_210/lib\libnet80211.a(ieee80211_action_vendor.o)
ieee80211_send_deauth                             c:/Espressif/ESP8266_SDK_210/lib\libnet80211.a(ieee80211_output.o)
                                                  c:/Espressif/ESP8266_SDK_210/lib\libnet80211.a(ieee80211_hostap.o)
ieee80211_send_mgmt                               c:/Espressif/ESP8266_SDK_210/lib\libnet80211.a(ieee80211_output.o)
                                                  c:/Espressif/ESP8266_SDK_210/lib\libwpa.a(wpa_main.o)
                                                  c:/Espressif/ESP8266_SDK_210/lib\libnet80211.a(wl_cnx.o)
                                                  c:/Espressif/ESP8266_SDK_210/lib\libnet80211.a(ieee80211_sta.o)
                                                  c:/Espressif/ESP8266_SDK_210/lib\libnet80211.a(ieee80211_proto.o)
                                                  c:/Espressif/ESP8266_SDK_210/lib\libnet80211.a(ieee80211_hostap.o)
                                                  c:/Espressif/ESP8266_SDK_210/lib\libmain.a(user_interface.o)
ieee80211_send_nulldata                           c:/Espressif/ESP8266_SDK_210/lib\libnet80211.a(ieee80211_output.o)
                                                  c:/Espressif/ESP8266_SDK_210/lib\libnet80211.a(ieee80211_hostap.o)
ieee80211_send_probereq                           c:/Espressif/ESP8266_SDK_210/lib\libnet80211.a(ieee80211_output.o)
                                                  c:/Espressif/ESP8266_SDK_210/lib\libnet80211.a(wl_cnx.o)
                                                  c:/Espressif/ESP8266_SDK_210/lib\libnet80211.a(ieee80211_scan.o)
ieee80211_send_proberesp                          c:/Espressif/ESP8266_SDK_210/lib\libnet80211.a(ieee80211_output.o)
                                                  c:/Espressif/ESP8266_SDK_210/lib\libnet80211.a(ieee80211_hostap.o)
ieee80211_send_setup                              c:/Espressif/ESP8266_SDK_210/lib\libnet80211.a(ieee80211_output.o)
                                                  c:/Espressif/ESP8266_SDK_210/lib\libnet80211.a(ieee80211_action_vendor.o)
                                                  c:/Espressif/ESP8266_SDK_210/lib\libpp.a(pm.o)
ieee80211_set_shortslottime                       c:/Espressif/ESP8266_SDK_210/lib\libnet80211.a(ieee80211_proto.o)
                                                  c:/Espressif/ESP8266_SDK_210/lib\libnet80211.a(wl_cnx.o)
                                                  c:/Espressif/ESP8266_SDK_210/lib\libnet80211.a(ieee80211_sta.o)
ieee80211_set_tim                                 c:/Espressif/ESP8266_SDK_210/lib\libnet80211.a(ieee80211_power.o)
                                                  c:/Espressif/ESP8266_SDK_210/lib\libnet80211.a(ieee80211_hostap.o)
ieee80211_setup_basic_htrates                     c:/Espressif/ESP8266_SDK_210/lib\libnet80211.a(ieee80211_ht.o)
                                                  c:/Espressif/ESP8266_SDK_210/lib\libnet80211.a(ieee80211_sta.o)
ieee80211_setup_htrates                           c:/Espressif/ESP8266_SDK_210/lib\libnet80211.a(ieee80211_ht.o)
                                                  c:/Espressif/ESP8266_SDK_210/lib\libnet80211.a(ieee80211_sta.o)
ieee80211_setup_rates                             c:/Espressif/ESP8266_SDK_210/lib\libnet80211.a(ieee80211_input.o)
                                                  c:/Espressif/ESP8266_SDK_210/lib\libnet80211.a(ieee80211_sta.o)
                                                  c:/Espressif/ESP8266_SDK_210/lib\libnet80211.a(ieee80211_hostap.o)
ieee80211_setup_rateset                           c:/Espressif/ESP8266_SDK_210/lib\libnet80211.a(ieee80211_input.o)
                                                  c:/Espressif/ESP8266_SDK_210/lib\libnet80211.a(wl_cnx.o)
ieee80211_setup_ratetable                         c:/Espressif/ESP8266_SDK_210/lib\libnet80211.a(ieee80211_phy.o)
ieee80211_sta_new_state                           c:/Espressif/ESP8266_SDK_210/lib\libnet80211.a(ieee80211_sta.o)
                                                  c:/Espressif/ESP8266_SDK_210/lib\libwpa.a(wpa_main.o)
                                                  c:/Espressif/ESP8266_SDK_210/lib\libnet80211.a(wl_cnx.o)
                                                  c:/Espressif/ESP8266_SDK_210/lib\libnet80211.a(ieee80211_proto.o)
                                                  c:/Espressif/ESP8266_SDK_210/lib\libmain.a(user_interface.o)
ieee80211_tx_mgt_cb                               c:/Espressif/ESP8266_SDK_210/lib\libnet80211.a(ieee80211_output.o)
                                                  c:/Espressif/ESP8266_SDK_210/lib\libnet80211.a(ieee80211_proto.o)
ieee80211_update_regdomain                        c:/Espressif/ESP8266_SDK_210/lib\libnet80211.a(ieee80211_regdomain.o)
                                                  c:/Espressif/ESP8266_SDK_210/lib\libnet80211.a(wl_cnx.o)
ieee80211_user_ie_init                            c:/Espressif/ESP8266_SDK_210/lib\libnet80211.a(ieee80211.o)
ieee80211_wme_initparams                          c:/Espressif/ESP8266_SDK_210/lib\libnet80211.a(ieee80211_proto.o)
ieee80211_wme_updateparams                        c:/Espressif/ESP8266_SDK_210/lib\libnet80211.a(ieee80211_proto.o)
                                                  c:/Espressif/ESP8266_SDK_210/lib\libnet80211.a(wl_cnx.o)
                                                  c:/Espressif/ESP8266_SDK_210/lib\libnet80211.a(ieee80211_sta.o)
if_ctrl                                           c:/Espressif/ESP8266_SDK_210/lib\libpp.a(if_hwctrl.o)
igmp_init                                         c:/Espressif/ESP8266_SDK_210/lib\liblwip.a(igmp.o)
                                                  c:/Espressif/ESP8266_SDK_210/lib\liblwip.a(init.o)
igmp_input                                        c:/Espressif/ESP8266_SDK_210/lib\liblwip.a(igmp.o)
                                                  c:/Espressif/ESP8266_SDK_210/lib\liblwip.a(ip.o)
igmp_joingroup                                    c:/Espressif/ESP8266_SDK_210/lib\liblwip.a(igmp.o)
                                                  c:/Espressif/ESP8266_SDK_210/lib\liblwip.a(espconn_udp.o)
igmp_leavegroup                                   c:/Espressif/ESP8266_SDK_210/lib\liblwip.a(igmp.o)
                                                  c:/Espressif/ESP8266_SDK_210/lib\liblwip.a(espconn_udp.o)
igmp_lookfor_group                                c:/Espressif/ESP8266_SDK_210/lib\liblwip.a(igmp.o)
                                                  c:/Espressif/ESP8266_SDK_210/lib\liblwip.a(ip.o)
igmp_report_groups                                c:/Espressif/ESP8266_SDK_210/lib\liblwip.a(igmp.o)
                                                  c:/Espressif/ESP8266_SDK_210/lib\liblwip.a(netif.o)
igmp_start                                        c:/Espressif/ESP8266_SDK_210/lib\liblwip.a(igmp.o)
                                                  c:/Espressif/ESP8266_SDK_210/lib\liblwip.a(netif.o)
igmp_stop                                         c:/Espressif/ESP8266_SDK_210/lib\liblwip.a(igmp.o)
                                                  c:/Espressif/ESP8266_SDK_210/lib\liblwip.a(netif.o)
igmp_tmr                                          c:/Espressif/ESP8266_SDK_210/lib\liblwip.a(igmp.o)
                                                  c:/Espressif/ESP8266_SDK_210/lib\liblwip.a(timers.o)
inc_byte_array                                    c:/Espressif/ESP8266_SDK_210/lib\libwpa.a(common.o)
                                                  c:/Espressif/ESP8266_SDK_210/lib\libwpa.a(wpa.o)
                                                  c:/Espressif/ESP8266_SDK_210/lib\libwpa.a(wpa_auth.o)
inet_chksum                                       c:/Espressif/ESP8266_SDK_210/lib\liblwip.a(inet_chksum.o)
                                                  c:/Espressif/ESP8266_SDK_210/lib\liblwip.a(igmp.o)
                                                  c:/Espressif/ESP8266_SDK_210/lib\liblwip.a(icmp.o)
                                                  c:/Espressif/ESP8266_SDK_210/lib\liblwip.a(ip.o)
inet_chksum_pbuf                                  c:/Espressif/ESP8266_SDK_210/lib\liblwip.a(inet_chksum.o)
                                                  c:/Espressif/ESP8266_SDK_210/lib\liblwip.a(icmp.o)
inet_chksum_pseudo                                c:/Espressif/ESP8266_SDK_210/lib\liblwip.a(inet_chksum.o)
                                                  c:/Espressif/ESP8266_SDK_210/lib\liblwip.a(udp.o)
                                                  c:/Espressif/ESP8266_SDK_210/lib\liblwip.a(tcp_out.o)
                                                  c:/Espressif/ESP8266_SDK_210/lib\liblwip.a(tcp_in.o)
inet_chksum_pseudo_partial                        c:/Espressif/ESP8266_SDK_210/lib\liblwip.a(inet_chksum.o)
info                                              c:/Espressif/ESP8266_SDK_210/lib\libmain.a(app_main.o)
                                                  c:/Espressif/ESP8266_SDK_210/lib\libwpa.a(wpa_main.o)
                                                  c:/Espressif/ESP8266_SDK_210/lib\libnet80211.a(ieee80211_sta.o)
                                                  c:/Espressif/ESP8266_SDK_210/lib\libnet80211.a(ieee80211_hostap.o)
                                                  c:/Espressif/ESP8266_SDK_210/lib\libnet80211.a(ieee80211.o)
                                                  c:/Espressif/ESP8266_SDK_210/lib\libmain.a(user_interface.o)
init_cal_dcoffset                                 c:/Espressif/ESP8266_SDK_210/lib\libphy.a(phy_chip_v6_cal.o)
                                                  c:/Espressif/ESP8266_SDK_210/lib\libphy.a(phy_chip_v6.o)
init_rf_no_cal                                    c:/Espressif/ESP8266_SDK_210/lib\libphy.a(phy_chip_v6.o)
                                                  c:/Espressif/ESP8266_SDK_210/lib\libphy.a(phy_chip_v6_ana.o)
interface_mask                                    c:/Espressif/ESP8266_SDK_210/lib\libpp.a(if_hwctrl.o)
ip4_addr_isbroadcast                              c:/Espressif/ESP8266_SDK_210/lib\liblwip.a(ip_addr.o)
                                                  c:/Espressif/ESP8266_SDK_210/lib\liblwip.a(icmp.o)
                                                  c:/Espressif/ESP8266_SDK_210/lib\liblwip.a(espconn_udp.o)
                                                  c:/Espressif/ESP8266_SDK_210/lib\liblwip.a(udp.o)
                                                  c:/Espressif/ESP8266_SDK_210/lib\liblwip.a(tcp_in.o)
                                                  c:/Espressif/ESP8266_SDK_210/lib\liblwip.a(ip.o)
                                                  c:/Espressif/ESP8266_SDK_210/lib\liblwip.a(etharp.o)
ip4_addr_netmask_valid                            c:/Espressif/ESP8266_SDK_210/lib\liblwip.a(ip_addr.o)
ip_addr_any                                       c:/Espressif/ESP8266_SDK_210/lib\liblwip.a(ip_addr.o)
                                                  c:/Espressif/ESP8266_SDK_210/lib\liblwip.a(igmp.o)
                                                  c:/Espressif/ESP8266_SDK_210/lib\liblwip.a(espconn_udp.o)
                                                  c:/Espressif/ESP8266_SDK_210/lib\liblwip.a(espconn_tcp.o)
                                                  c:/Espressif/ESP8266_SDK_210/lib\liblwip.a(dns.o)
                                                  c:/Espressif/ESP8266_SDK_210/lib\liblwip.a(dhcpserver.o)
                                                  c:/Espressif/ESP8266_SDK_210/lib\liblwip.a(dhcp.o)
ip_addr_broadcast                                 c:/Espressif/ESP8266_SDK_210/lib\liblwip.a(ip_addr.o)
                                                  c:/Espressif/ESP8266_SDK_210/lib\liblwip.a(dhcp.o)
ip_input                                          c:/Espressif/ESP8266_SDK_210/lib\liblwip.a(ip.o)
                                                  c:/Espressif/ESP8266_SDK_210/lib\liblwip.a(etharp.o)
ip_output                                         c:/Espressif/ESP8266_SDK_210/lib\liblwip.a(ip.o)
                                                  c:/Espressif/ESP8266_SDK_210/lib\liblwip.a(icmp.o)
                                                  c:/Espressif/ESP8266_SDK_210/lib\liblwip.a(tcp_out.o)
ip_output_if                                      c:/Espressif/ESP8266_SDK_210/lib\liblwip.a(ip.o)
                                                  c:/Espressif/ESP8266_SDK_210/lib\liblwip.a(icmp.o)
                                                  c:/Espressif/ESP8266_SDK_210/lib\liblwip.a(udp.o)
                                                  c:/Espressif/ESP8266_SDK_210/lib\liblwip.a(raw.o)
ip_output_if_opt                                  c:/Espressif/ESP8266_SDK_210/lib\liblwip.a(ip.o)
                                                  c:/Espressif/ESP8266_SDK_210/lib\liblwip.a(igmp.o)
ip_route                                          c:/Espressif/ESP8266_SDK_210/lib\liblwip.a(ip.o)
                                                  c:/Espressif/ESP8266_SDK_210/lib\liblwip.a(udp.o)
                                                  c:/Espressif/ESP8266_SDK_210/lib\liblwip.a(tcp_out.o)
                                                  c:/Espressif/ESP8266_SDK_210/lib\liblwip.a(tcp.o)
                                                  c:/Espressif/ESP8266_SDK_210/lib\liblwip.a(raw.o)
ip_router                                         c:/Espressif/ESP8266_SDK_210/lib\liblwip.a(ip.o)
ipaddr_addr                                       c:/Espressif/ESP8266_SDK_210/lib\liblwip.a(ip_addr.o)
                                                  c:/Espressif/ESP8266_SDK_210/lib\liblwip.a(dns.o)
ipaddr_aton                                       c:/Espressif/ESP8266_SDK_210/lib\liblwip.a(ip_addr.o)
ipaddr_ntoa                                       c:/Espressif/ESP8266_SDK_210/lib\liblwip.a(ip_addr.o)
ipaddr_ntoa_r                                     c:/Espressif/ESP8266_SDK_210/lib\liblwip.a(ip_addr.o)
lldesc_build_chain                                c:/Espressif/ESP8266_SDK_210/lib\libpp.a(wdev.o)
lldesc_num2link                                   c:/Espressif/ESP8266_SDK_210/lib\libpp.a(pp.o)
lmacConfMib                                       c:/Espressif/ESP8266_SDK_210/lib\libpp.a(lmac.o)
                                                  c:/Espressif/ESP8266_SDK_210/lib\libpp.a(trc.o)
lmacDiscardAgedMSDU                               c:/Espressif/ESP8266_SDK_210/lib\libpp.a(lmac.o)
                                                  c:/Espressif/ESP8266_SDK_210/lib\libpp.a(pp.o)
lmacInit                                          c:/Espressif/ESP8266_SDK_210/lib\libpp.a(lmac.o)
                                                  c:/Espressif/ESP8266_SDK_210/lib\libmain.a(app_main.o)
lmacInitAc                                        c:/Espressif/ESP8266_SDK_210/lib\libpp.a(lmac.o)
lmacIsActive                                      c:/Espressif/ESP8266_SDK_210/lib\libpp.a(lmac.o)
lmacIsIdle                                        c:/Espressif/ESP8266_SDK_210/lib\libpp.a(lmac.o)
                                                  c:/Espressif/ESP8266_SDK_210/lib\libpp.a(pp.o)
lmacMSDUAged                                      c:/Espressif/ESP8266_SDK_210/lib\libpp.a(lmac.o)
                                                  c:/Espressif/ESP8266_SDK_210/lib\libpp.a(pp.o)
lmacProcessAckTimeout                             c:/Espressif/ESP8266_SDK_210/lib\libpp.a(lmac.o)
                                                  c:/Espressif/ESP8266_SDK_210/lib\libpp.a(wdev.o)
lmacProcessAllTxTimeout                           c:/Espressif/ESP8266_SDK_210/lib\libpp.a(lmac.o)
                                                  c:/Espressif/ESP8266_SDK_210/lib\libpp.a(wdev.o)
lmacProcessCollision                              c:/Espressif/ESP8266_SDK_210/lib\libpp.a(lmac.o)
lmacProcessCollisions                             c:/Espressif/ESP8266_SDK_210/lib\libpp.a(lmac.o)
                                                  c:/Espressif/ESP8266_SDK_210/lib\libpp.a(wdev.o)
lmacProcessCtsTimeout                             c:/Espressif/ESP8266_SDK_210/lib\libpp.a(lmac.o)
                                                  c:/Espressif/ESP8266_SDK_210/lib\libpp.a(wdev.o)
lmacProcessRtsStart                               c:/Espressif/ESP8266_SDK_210/lib\libpp.a(lmac.o)
                                                  c:/Espressif/ESP8266_SDK_210/lib\libpp.a(wdev.o)
lmacProcessTXStartData                            c:/Espressif/ESP8266_SDK_210/lib\libpp.a(lmac.o)
                                                  c:/Espressif/ESP8266_SDK_210/lib\libpp.a(wdev.o)
lmacProcessTxError                                c:/Espressif/ESP8266_SDK_210/lib\libpp.a(lmac.o)
                                                  c:/Espressif/ESP8266_SDK_210/lib\libpp.a(wdev.o)
lmacProcessTxRtsError                             c:/Espressif/ESP8266_SDK_210/lib\libpp.a(lmac.o)
                                                  c:/Espressif/ESP8266_SDK_210/lib\libpp.a(wdev.o)
lmacProcessTxSuccess                              c:/Espressif/ESP8266_SDK_210/lib\libpp.a(lmac.o)
                                                  c:/Espressif/ESP8266_SDK_210/lib\libpp.a(wdev.o)
lmacProcessTxTimeout                              c:/Espressif/ESP8266_SDK_210/lib\libpp.a(lmac.o)
                                                  c:/Espressif/ESP8266_SDK_210/lib\libpp.a(pp.o)
lmacRecycleMPDU                                   c:/Espressif/ESP8266_SDK_210/lib\libpp.a(lmac.o)
lmacRxDone                                        c:/Espressif/ESP8266_SDK_210/lib\libpp.a(lmac.o)
                                                  c:/Espressif/ESP8266_SDK_210/lib\libpp.a(wdev.o)
lmacSetAcParam                                    c:/Espressif/ESP8266_SDK_210/lib\libpp.a(lmac.o)
lmacSetRetryLimit                                 c:/Espressif/ESP8266_SDK_210/lib\libpp.a(lmac.o)
lmacTxFrame                                       c:/Espressif/ESP8266_SDK_210/lib\libpp.a(lmac.o)
                                                  c:/Espressif/ESP8266_SDK_210/lib\libpp.a(pp.o)
low_power_set                                     c:/Espressif/ESP8266_SDK_210/lib\libphy.a(phy_chip_v6_ana.o)
                                                  c:/Espressif/ESP8266_SDK_210/lib\libphy.a(phy_chip_v6.o)
lslp_mem_opt_8266                                 c:/Espressif/ESP8266_SDK_210/lib\libphy.a(phy_sleep.o)
lwip_init                                         c:/Espressif/ESP8266_SDK_210/lib\liblwip.a(init.o)
                                                  c:/Espressif/ESP8266_SDK_210/lib\libmain.a(app_main.o)
lwip_timer_interval                               c:/Espressif/ESP8266_SDK_210/lib\libmain.a(app_main.o)
                                                  c:/Espressif/ESP8266_SDK_210/lib\libpp.a(pm.o)
manual_set_flag                                   c:/Espressif/ESP8266_SDK_210/lib\liblwip.a(dhcp.o)
                                                  c:/Espressif/ESP8266_SDK_210/lib\liblwip.a(espconn.o)
meas_tone_pwr_db                                  c:/Espressif/ESP8266_SDK_210/lib\libphy.a(phy_chip_v6_cal.o)
memchr                                            c:/Espressif/ESP8266_SDK_210/lib\libc.a(lib_a-memchr.o)
                                                  c:/Espressif/ESP8266_SDK_210/lib\liblwip.a(espconn_buf.o)
memp_sizes                                        c:/Espressif/ESP8266_SDK_210/lib\liblwip.a(memp.o)
                                                  c:/Espressif/ESP8266_SDK_210/lib\liblwip.a(igmp.o)
                                                  c:/Espressif/ESP8266_SDK_210/lib\liblwip.a(udp.o)
                                                  c:/Espressif/ESP8266_SDK_210/lib\liblwip.a(timers.o)
                                                  c:/Espressif/ESP8266_SDK_210/lib\liblwip.a(tcp_out.o)
                                                  c:/Espressif/ESP8266_SDK_210/lib\liblwip.a(tcp.o)
                                                  c:/Espressif/ESP8266_SDK_210/lib\liblwip.a(raw.o)
                                                  c:/Espressif/ESP8266_SDK_210/lib\liblwip.a(pbuf.o)
                                                  c:/Espressif/ESP8266_SDK_210/lib\liblwip.a(etharp.o)
memp_sizes_test                                   c:/Espressif/ESP8266_SDK_210/lib\liblwip.a(memp.o)
netif_add                                         c:/Espressif/ESP8266_SDK_210/lib\liblwip.a(netif.o)
                                                  c:/Espressif/ESP8266_SDK_210/lib\libmain.a(eagle_lwip_if.o)
netif_default                                     c:/Espressif/ESP8266_SDK_210/lib\liblwip.a(netif.o)
                                                  c:/Espressif/ESP8266_SDK_210/lib\liblwip.a(ip.o)
                                                  c:/Espressif/ESP8266_SDK_210/lib\libmain.a(user_interface.o)
netif_find                                        c:/Espressif/ESP8266_SDK_210/lib\liblwip.a(netif.o)
netif_init                                        c:/Espressif/ESP8266_SDK_210/lib\liblwip.a(netif.o)
                                                  c:/Espressif/ESP8266_SDK_210/lib\liblwip.a(init.o)
netif_list                                        c:/Espressif/ESP8266_SDK_210/lib\liblwip.a(netif.o)
                                                  c:/Espressif/ESP8266_SDK_210/lib\liblwip.a(igmp.o)
                                                  c:/Espressif/ESP8266_SDK_210/lib\liblwip.a(ip.o)
                                                  c:/Espressif/ESP8266_SDK_210/lib\liblwip.a(dhcp.o)
netif_remove                                      c:/Espressif/ESP8266_SDK_210/lib\liblwip.a(netif.o)
                                                  c:/Espressif/ESP8266_SDK_210/lib\libmain.a(eagle_lwip_if.o)
netif_set_addr                                    c:/Espressif/ESP8266_SDK_210/lib\liblwip.a(netif.o)
                                                  c:/Espressif/ESP8266_SDK_210/lib\libwpa.a(wpa_main.o)
                                                  c:/Espressif/ESP8266_SDK_210/lib\libmain.a(eagle_lwip_if.o)
                                                  c:/Espressif/ESP8266_SDK_210/lib\libmain.a(user_interface.o)
netif_set_default                                 c:/Espressif/ESP8266_SDK_210/lib\liblwip.a(netif.o)
                                                  c:/Espressif/ESP8266_SDK_210/lib\liblwip.a(espconn_udp.o)
                                                  c:/Espressif/ESP8266_SDK_210/lib\libnet80211.a(ieee80211_hostap.o)
                                                  c:/Espressif/ESP8266_SDK_210/lib\libmain.a(user_interface.o)
                                                  c:/Espressif/ESP8266_SDK_210/lib\libmain.a(app_main.o)
netif_set_down                                    c:/Espressif/ESP8266_SDK_210/lib\liblwip.a(netif.o)
                                                  c:/Espressif/ESP8266_SDK_210/lib\liblwip.a(dhcp.o)
                                                  c:/Espressif/ESP8266_SDK_210/lib\libnet80211.a(wl_cnx.o)
                                                  c:/Espressif/ESP8266_SDK_210/lib\libnet80211.a(ieee80211_hostap.o)
netif_set_gw                                      c:/Espressif/ESP8266_SDK_210/lib\liblwip.a(netif.o)
                                                  c:/Espressif/ESP8266_SDK_210/lib\liblwip.a(dhcp.o)
netif_set_ipaddr                                  c:/Espressif/ESP8266_SDK_210/lib\liblwip.a(netif.o)
                                                  c:/Espressif/ESP8266_SDK_210/lib\liblwip.a(dhcp.o)
netif_set_link_down                               c:/Espressif/ESP8266_SDK_210/lib\liblwip.a(netif.o)
netif_set_link_up                                 c:/Espressif/ESP8266_SDK_210/lib\liblwip.a(netif.o)
netif_set_netmask                                 c:/Espressif/ESP8266_SDK_210/lib\liblwip.a(netif.o)
                                                  c:/Espressif/ESP8266_SDK_210/lib\liblwip.a(dhcp.o)
netif_set_up                                      c:/Espressif/ESP8266_SDK_210/lib\liblwip.a(netif.o)
                                                  c:/Espressif/ESP8266_SDK_210/lib\libwpa.a(wpa_main.o)
                                                  c:/Espressif/ESP8266_SDK_210/lib\liblwip.a(dhcp.o)
                                                  c:/Espressif/ESP8266_SDK_210/lib\libnet80211.a(ieee80211_hostap.o)
no_ap_found_index                                 c:/Espressif/ESP8266_SDK_210/lib\libnet80211.a(wl_cnx.o)
                                                  c:/Espressif/ESP8266_SDK_210/lib\libwpa.a(wpa_main.o)
                                                  c:/Espressif/ESP8266_SDK_210/lib\libmain.a(user_interface.o)
node_insert_to_list                               c:/Espressif/ESP8266_SDK_210/lib\liblwip.a(dhcpserver.o)
node_remove_from_list                             c:/Espressif/ESP8266_SDK_210/lib\liblwip.a(dhcpserver.o)
noise_array                                       c:/Espressif/ESP8266_SDK_210/lib\libphy.a(phy_chip_v6.o)
noise_check_loop                                  c:/Espressif/ESP8266_SDK_210/lib\libphy.a(phy_chip_v6.o)
                                                  c:/Espressif/ESP8266_SDK_210/lib\libnet80211.a(ieee80211_hostap.o)
                                                  c:/Espressif/ESP8266_SDK_210/lib\libpp.a(pp.o)
                                                  c:/Espressif/ESP8266_SDK_210/lib\libpp.a(pm_for_bcn_only_mode.o)
                                                  c:/Espressif/ESP8266_SDK_210/lib\libpp.a(pm.o)
                                                  c:/Espressif/ESP8266_SDK_210/lib\libphy.a(phy_sleep.o)
noise_init                                        c:/Espressif/ESP8266_SDK_210/lib\libphy.a(phy_chip_v6.o)
os_get_random                                     c:/Espressif/ESP8266_SDK_210/lib\libwpa.a(os_xtensa.o)
                                                  c:/Espressif/ESP8266_SDK_210/lib\libwpa.a(wpa.o)
                                                  c:/Espressif/ESP8266_SDK_210/lib\libwpa.a(wpa_auth.o)
os_get_time                                       c:/Espressif/ESP8266_SDK_210/lib\libwpa.a(os_xtensa.o)
                                                  c:/Espressif/ESP8266_SDK_210/lib\libwpa.a(common.o)
os_printf_plus                                    c:/Espressif/ESP8266_SDK_210/lib\libmain.a(user_interface.o)
                                                  c:/Espressif/ESP8266_SDK_210/lib\libwpa.a(wpa_main.o)
                                                  c:/Espressif/ESP8266_SDK_210/lib\liblwip.a(espconn_buf.o)
                                                  c:/Espressif/ESP8266_SDK_210/lib\liblwip.a(ip.o)
                                                  c:/Espressif/ESP8266_SDK_210/lib\liblwip.a(espconn_tcp.o)
                                                  c:/Espressif/ESP8266_SDK_210/lib\liblwip.a(dhcpserver.o)
                                                  c:/Espressif/ESP8266_SDK_210/lib\liblwip.a(dhcp.o)
                                                  c:/Espressif/ESP8266_SDK_210/lib\libnet80211.a(ieee80211_action_vendor.o)
                                                  c:/Espressif/ESP8266_SDK_210/lib\libnet80211.a(wl_cnx.o)
                                                  c:/Espressif/ESP8266_SDK_210/lib\libnet80211.a(ieee80211_sta.o)
                                                  c:/Espressif/ESP8266_SDK_210/lib\libnet80211.a(ieee80211_scan.o)
                                                  c:/Espressif/ESP8266_SDK_210/lib\libnet80211.a(ieee80211_regdomain.o)
                                                  c:/Espressif/ESP8266_SDK_210/lib\libnet80211.a(ieee80211_output.o)
                                                  c:/Espressif/ESP8266_SDK_210/lib\libnet80211.a(ieee80211_mesh_quick.o)
                                                  c:/Espressif/ESP8266_SDK_210/lib\libnet80211.a(ieee80211_ht.o)
                                                  c:/Espressif/ESP8266_SDK_210/lib\libnet80211.a(ieee80211_hostap.o)
                                                  c:/Espressif/ESP8266_SDK_210/lib\libnet80211.a(ieee80211.o)
                                                  c:/Espressif/ESP8266_SDK_210/lib\libpp.a(trc.o)
                                                  c:/Espressif/ESP8266_SDK_210/lib\libpp.a(pp.o)
                                                  c:/Espressif/ESP8266_SDK_210/lib\libpp.a(pm_for_bcn_only_mode.o)
                                                  c:/Espressif/ESP8266_SDK_210/lib\libpp.a(pm.o)
                                                  c:/Espressif/ESP8266_SDK_210/lib\libpp.a(lmac.o)
                                                  c:/Espressif/ESP8266_SDK_210/lib\libpp.a(if_hwctrl.o)
                                                  c:/Espressif/ESP8266_SDK_210/lib\libphy.a(phy_chip_v6_cal.o)
                                                  c:/Espressif/ESP8266_SDK_210/lib\libphy.a(phy_chip_v6.o)
                                                  c:/Espressif/ESP8266_SDK_210/lib\libphy.a(phy_chip_v6_ana.o)
                                                  build/debug/app_app.a(easygpio.o)
                                                  build/debug/app_app.a(user_main.o)
                                                  c:/Espressif/ESP8266_SDK_210/lib\libmain.a(eagle_lwip_if.o)
                                                  c:/Espressif/ESP8266_SDK_210/lib\libmain.a(spi_flash.o)
                                                  c:/Espressif/ESP8266_SDK_210/lib\libmain.a(ets_timer.o)
                                                  c:/Espressif/ESP8266_SDK_210/lib\libmain.a(app_main.o)
os_random                                         c:/Espressif/ESP8266_SDK_210/lib\libwpa.a(os_xtensa.o)
                                                  c:/Espressif/ESP8266_SDK_210/lib\liblwip.a(espconn.o)
                                                  c:/Espressif/ESP8266_SDK_210/lib\liblwip.a(tcp.o)
                                                  c:/Espressif/ESP8266_SDK_210/lib\liblwip.a(dns.o)
our_tx_eb                                         c:/Espressif/ESP8266_SDK_210/lib\libpp.a(lmac.o)
                                                  c:/Espressif/ESP8266_SDK_210/lib\libpp.a(wdev.o)
pbkdf2_sha1                                       c:/Espressif/ESP8266_SDK_210/lib\libwpa.a(wpa.o)
                                                  c:/Espressif/ESP8266_SDK_210/lib\libmain.a(user_interface.o)
pbuf_alloc                                        c:/Espressif/ESP8266_SDK_210/lib\liblwip.a(pbuf.o)
                                                  c:/Espressif/ESP8266_SDK_210/lib\libwpa.a(wpas_glue.o)
                                                  c:/Espressif/ESP8266_SDK_210/lib\libwpa.a(wpa_auth.o)
                                                  c:/Espressif/ESP8266_SDK_210/lib\liblwip.a(igmp.o)
                                                  c:/Espressif/ESP8266_SDK_210/lib\liblwip.a(icmp.o)
                                                  c:/Espressif/ESP8266_SDK_210/lib\liblwip.a(espconn_udp.o)
                                                  c:/Espressif/ESP8266_SDK_210/lib\liblwip.a(udp.o)
                                                  c:/Espressif/ESP8266_SDK_210/lib\liblwip.a(tcp_out.o)
                                                  c:/Espressif/ESP8266_SDK_210/lib\liblwip.a(raw.o)
                                                  c:/Espressif/ESP8266_SDK_210/lib\liblwip.a(etharp.o)
                                                  c:/Espressif/ESP8266_SDK_210/lib\liblwip.a(dns.o)
                                                  c:/Espressif/ESP8266_SDK_210/lib\liblwip.a(dhcpserver.o)
                                                  c:/Espressif/ESP8266_SDK_210/lib\liblwip.a(dhcp.o)
                                                  c:/Espressif/ESP8266_SDK_210/lib\libnet80211.a(ieee80211_input.o)
                                                  c:/Espressif/ESP8266_SDK_210/lib\libnet80211.a(ieee80211_hostap.o)
pbuf_cat                                          c:/Espressif/ESP8266_SDK_210/lib\liblwip.a(pbuf.o)
                                                  c:/Espressif/ESP8266_SDK_210/lib\liblwip.a(tcp_out.o)
                                                  c:/Espressif/ESP8266_SDK_210/lib\liblwip.a(tcp_in.o)
pbuf_chain                                        c:/Espressif/ESP8266_SDK_210/lib\liblwip.a(pbuf.o)
                                                  c:/Espressif/ESP8266_SDK_210/lib\liblwip.a(udp.o)
                                                  c:/Espressif/ESP8266_SDK_210/lib\liblwip.a(raw.o)
pbuf_clen                                         c:/Espressif/ESP8266_SDK_210/lib\liblwip.a(pbuf.o)
                                                  c:/Espressif/ESP8266_SDK_210/lib\liblwip.a(tcp_out.o)
                                                  c:/Espressif/ESP8266_SDK_210/lib\liblwip.a(tcp_in.o)
pbuf_coalesce                                     c:/Espressif/ESP8266_SDK_210/lib\liblwip.a(pbuf.o)
pbuf_copy                                         c:/Espressif/ESP8266_SDK_210/lib\liblwip.a(pbuf.o)
                                                  c:/Espressif/ESP8266_SDK_210/lib\liblwip.a(icmp.o)
                                                  c:/Espressif/ESP8266_SDK_210/lib\liblwip.a(espconn_udp.o)
                                                  c:/Espressif/ESP8266_SDK_210/lib\liblwip.a(etharp.o)
pbuf_copy_partial                                 c:/Espressif/ESP8266_SDK_210/lib\liblwip.a(pbuf.o)
                                                  c:/Espressif/ESP8266_SDK_210/lib\liblwip.a(espconn_udp.o)
                                                  c:/Espressif/ESP8266_SDK_210/lib\liblwip.a(tcp_out.o)
                                                  c:/Espressif/ESP8266_SDK_210/lib\liblwip.a(espconn_tcp.o)
                                                  c:/Espressif/ESP8266_SDK_210/lib\liblwip.a(dns.o)
                                                  c:/Espressif/ESP8266_SDK_210/lib\liblwip.a(dhcp.o)
pbuf_dechain                                      c:/Espressif/ESP8266_SDK_210/lib\liblwip.a(pbuf.o)
pbuf_free                                         c:/Espressif/ESP8266_SDK_210/lib\liblwip.a(pbuf.o)
                                                  c:/Espressif/ESP8266_SDK_210/lib\liblwip.a(igmp.o)
                                                  c:/Espressif/ESP8266_SDK_210/lib\liblwip.a(icmp.o)
                                                  c:/Espressif/ESP8266_SDK_210/lib\liblwip.a(espconn_udp.o)
                                                  c:/Espressif/ESP8266_SDK_210/lib\liblwip.a(udp.o)
                                                  c:/Espressif/ESP8266_SDK_210/lib\liblwip.a(tcp_out.o)
                                                  c:/Espressif/ESP8266_SDK_210/lib\liblwip.a(tcp.o)
                                                  c:/Espressif/ESP8266_SDK_210/lib\liblwip.a(tcp_in.o)
                                                  c:/Espressif/ESP8266_SDK_210/lib\liblwip.a(raw.o)
                                                  c:/Espressif/ESP8266_SDK_210/lib\liblwip.a(ip.o)
                                                  c:/Espressif/ESP8266_SDK_210/lib\liblwip.a(etharp.o)
                                                  c:/Espressif/ESP8266_SDK_210/lib\liblwip.a(espconn_tcp.o)
                                                  c:/Espressif/ESP8266_SDK_210/lib\liblwip.a(dns.o)
                                                  c:/Espressif/ESP8266_SDK_210/lib\liblwip.a(dhcpserver.o)
                                                  c:/Espressif/ESP8266_SDK_210/lib\liblwip.a(dhcp.o)
                                                  c:/Espressif/ESP8266_SDK_210/lib\libnet80211.a(ieee80211_power.o)
                                                  c:/Espressif/ESP8266_SDK_210/lib\libnet80211.a(ieee80211_output.o)
                                                  c:/Espressif/ESP8266_SDK_210/lib\libnet80211.a(ieee80211_hostap.o)
                                                  c:/Espressif/ESP8266_SDK_210/lib\libpp.a(pp.o)
                                                  c:/Espressif/ESP8266_SDK_210/lib\libmain.a(eagle_lwip_if.o)
pbuf_free_ooseq_new                               c:/Espressif/ESP8266_SDK_210/lib\liblwip.a(pbuf.o)
                                                  c:/Espressif/ESP8266_SDK_210/lib\liblwip.a(tcp_in.o)
pbuf_get_at                                       c:/Espressif/ESP8266_SDK_210/lib\liblwip.a(pbuf.o)
pbuf_header                                       c:/Espressif/ESP8266_SDK_210/lib\liblwip.a(pbuf.o)
                                                  c:/Espressif/ESP8266_SDK_210/lib\liblwip.a(igmp.o)
                                                  c:/Espressif/ESP8266_SDK_210/lib\liblwip.a(icmp.o)
                                                  c:/Espressif/ESP8266_SDK_210/lib\liblwip.a(udp.o)
                                                  c:/Espressif/ESP8266_SDK_210/lib\liblwip.a(tcp_out.o)
                                                  c:/Espressif/ESP8266_SDK_210/lib\liblwip.a(tcp_in.o)
                                                  c:/Espressif/ESP8266_SDK_210/lib\liblwip.a(raw.o)
                                                  c:/Espressif/ESP8266_SDK_210/lib\liblwip.a(ip.o)
                                                  c:/Espressif/ESP8266_SDK_210/lib\liblwip.a(etharp.o)
pbuf_memcmp                                       c:/Espressif/ESP8266_SDK_210/lib\liblwip.a(pbuf.o)
pbuf_memfind                                      c:/Espressif/ESP8266_SDK_210/lib\liblwip.a(pbuf.o)
pbuf_realloc                                      c:/Espressif/ESP8266_SDK_210/lib\liblwip.a(pbuf.o)
                                                  c:/Espressif/ESP8266_SDK_210/lib\liblwip.a(tcp_in.o)
                                                  c:/Espressif/ESP8266_SDK_210/lib\liblwip.a(ip.o)
                                                  c:/Espressif/ESP8266_SDK_210/lib\liblwip.a(dns.o)
                                                  c:/Espressif/ESP8266_SDK_210/lib\liblwip.a(dhcp.o)
pbuf_ref                                          c:/Espressif/ESP8266_SDK_210/lib\liblwip.a(pbuf.o)
                                                  c:/Espressif/ESP8266_SDK_210/lib\liblwip.a(tcp.o)
                                                  c:/Espressif/ESP8266_SDK_210/lib\liblwip.a(etharp.o)
                                                  c:/Espressif/ESP8266_SDK_210/lib\libnet80211.a(ieee80211_output.o)
pbuf_strstr                                       c:/Espressif/ESP8266_SDK_210/lib\liblwip.a(pbuf.o)
pbuf_take                                         c:/Espressif/ESP8266_SDK_210/lib\liblwip.a(pbuf.o)
pbus_set_rxbbgain                                 c:/Espressif/ESP8266_SDK_210/lib\libphy.a(phy_chip_v6.o)
pend_flag_noise_check                             c:/Espressif/ESP8266_SDK_210/lib\libpp.a(pp.o)
                                                  c:/Espressif/ESP8266_SDK_210/lib\libpp.a(pm_for_bcn_only_mode.o)
                                                  c:/Espressif/ESP8266_SDK_210/lib\libpp.a(pm.o)
pend_flag_periodic_cal                            c:/Espressif/ESP8266_SDK_210/lib\libpp.a(pp.o)
                                                  c:/Espressif/ESP8266_SDK_210/lib\libpp.a(pm_for_bcn_only_mode.o)
                                                  c:/Espressif/ESP8266_SDK_210/lib\libpp.a(pm.o)
periodic_cal                                      c:/Espressif/ESP8266_SDK_210/lib\libphy.a(phy_chip_v6.o)
                                                  c:/Espressif/ESP8266_SDK_210/lib\libphy.a(phy_sleep.o)
periodic_cal_flag                                 c:/Espressif/ESP8266_SDK_210/lib\libphy.a(phy_chip_v6.o)
                                                  c:/Espressif/ESP8266_SDK_210/lib\libphy.a(phy_sleep.o)
periodic_cal_sat                                  c:/Espressif/ESP8266_SDK_210/lib\libphy.a(phy_sleep.o)
periodic_cal_top                                  c:/Espressif/ESP8266_SDK_210/lib\libphy.a(phy_chip_v6.o)
                                                  c:/Espressif/ESP8266_SDK_210/lib\libnet80211.a(ieee80211_hostap.o)
                                                  c:/Espressif/ESP8266_SDK_210/lib\libpp.a(pp.o)
                                                  c:/Espressif/ESP8266_SDK_210/lib\libpp.a(pm_for_bcn_only_mode.o)
                                                  c:/Espressif/ESP8266_SDK_210/lib\libpp.a(pm.o)
                                                  c:/Espressif/ESP8266_SDK_210/lib\libphy.a(phy_chip_v6_cal.o)
phy_adc_read_fast                                 c:/Espressif/ESP8266_SDK_210/lib\libphy.a(phy_chip_v6_ana.o)
                                                  c:/Espressif/ESP8266_SDK_210/lib\libmain.a(user_interface.o)
phy_after_init_enrx                               c:/Espressif/ESP8266_SDK_210/lib\libphy.a(phy_chip_v6.o)
                                                  c:/Espressif/ESP8266_SDK_210/lib\libphy.a(phy_chip_v6_ana.o)
phy_afterwake_set_rfoption                        c:/Espressif/ESP8266_SDK_210/lib\libphy.a(phy_chip_v6.o)
                                                  c:/Espressif/ESP8266_SDK_210/lib\libmain.a(user_interface.o)
                                                  c:/Espressif/ESP8266_SDK_210/lib\libmain.a(app_main.o)
phy_bb_rx_cfg                                     c:/Espressif/ESP8266_SDK_210/lib\libphy.a(phy_chip_v6.o)
phy_change_channel                                c:/Espressif/ESP8266_SDK_210/lib\libphy.a(phy.o)
                                                  c:/Espressif/ESP8266_SDK_210/lib\libnet80211.a(wl_chm.o)
phy_check_data_table                              c:/Espressif/ESP8266_SDK_210/lib\libphy.a(phy_chip_v6.o)
                                                  c:/Espressif/ESP8266_SDK_210/lib\libmain.a(app_main.o)
phy_debug_print                                   c:/Espressif/ESP8266_SDK_210/lib\libphy.a(phy_chip_v6.o)
phy_delete_channel                                c:/Espressif/ESP8266_SDK_210/lib\libphy.a(phy.o)
phy_dig_spur_prot                                 c:/Espressif/ESP8266_SDK_210/lib\libphy.a(phy_chip_v6.o)
                                                  c:/Espressif/ESP8266_SDK_210/lib\libphy.a(phy_chip_v6_ana.o)
phy_dig_spur_set                                  c:/Espressif/ESP8266_SDK_210/lib\libphy.a(phy_chip_v6.o)
                                                  c:/Espressif/ESP8266_SDK_210/lib\libphy.a(phy_chip_v6_ana.o)
phy_disable_agc                                   c:/Espressif/ESP8266_SDK_210/lib\libphy.a(phy.o)
                                                  c:/Espressif/ESP8266_SDK_210/lib\libmain.a(app_main.o)
phy_enable_agc                                    c:/Espressif/ESP8266_SDK_210/lib\libphy.a(phy.o)
                                                  c:/Espressif/ESP8266_SDK_210/lib\libmain.a(app_main.o)
phy_freq_offset                                   c:/Espressif/ESP8266_SDK_210/lib\libphy.a(phy_chip_v6.o)
                                                  c:/Espressif/ESP8266_SDK_210/lib\libphy.a(phy_chip_v6_ana.o)
phy_get_bb_evm                                    c:/Espressif/ESP8266_SDK_210/lib\libphy.a(phy_chip_v6_cal.o)
                                                  c:/Espressif/ESP8266_SDK_210/lib\libmain.a(app_main.o)
phy_get_bb_freqoffset                             c:/Espressif/ESP8266_SDK_210/lib\libphy.a(phy_chip_v6_cal.o)
                                                  c:/Espressif/ESP8266_SDK_210/lib\libpp.a(wdev.o)
phy_get_check_flag                                c:/Espressif/ESP8266_SDK_210/lib\libphy.a(phy_chip_v6_ana.o)
                                                  c:/Espressif/ESP8266_SDK_210/lib\libmain.a(user_interface.o)
phy_get_freq_param                                c:/Espressif/ESP8266_SDK_210/lib\libphy.a(phy_chip_v6.o)
phy_get_mactime                                   c:/Espressif/ESP8266_SDK_210/lib\libphy.a(phy.o)
phy_get_rand                                      c:/Espressif/ESP8266_SDK_210/lib\libphy.a(phy_chip_v6.o)
                                                  c:/Espressif/ESP8266_SDK_210/lib\libwpa.a(os_xtensa.o)
phy_get_romfuncs                                  c:/Espressif/ESP8266_SDK_210/lib\libphy.a(phy_chip_v6.o)
phy_get_rxnf_param                                c:/Espressif/ESP8266_SDK_210/lib\libphy.a(phy_chip_v6.o)
phy_get_txpwr_param                               c:/Espressif/ESP8266_SDK_210/lib\libphy.a(phy_chip_v6.o)
phy_get_vdd33                                     c:/Espressif/ESP8266_SDK_210/lib\libphy.a(phy_chip_v6_ana.o)
                                                  c:/Espressif/ESP8266_SDK_210/lib\libmain.a(user_interface.o)
phy_gpio_cfg                                      c:/Espressif/ESP8266_SDK_210/lib\libphy.a(phy_chip_v6.o)
phy_in_most_power                                 c:/Espressif/ESP8266_SDK_210/lib\libphy.a(phy_chip_v6.o)
phy_in_vdd33_offset                               c:/Espressif/ESP8266_SDK_210/lib\libphy.a(phy_chip_v6.o)
                                                  c:/Espressif/ESP8266_SDK_210/lib\libphy.a(phy_chip_v6_cal.o)
phy_init                                          c:/Espressif/ESP8266_SDK_210/lib\libphy.a(phy.o)
phy_initialize_bb                                 c:/Espressif/ESP8266_SDK_210/lib\libphy.a(phy.o)
phy_meas_freq_offset                              c:/Espressif/ESP8266_SDK_210/lib\libphy.a(phy_chip_v6_cal.o)
                                                  c:/Espressif/ESP8266_SDK_210/lib\libphy.a(phy_chip_v6.o)
phy_pbus_soc_cfg                                  c:/Espressif/ESP8266_SDK_210/lib\libphy.a(phy_chip_v6.o)
phy_rx_gain_dc_flag                               c:/Espressif/ESP8266_SDK_210/lib\libphy.a(phy_chip_v6.o)
                                                  c:/Espressif/ESP8266_SDK_210/lib\libpp.a(pm_for_bcn_only_mode.o)
phy_rx_gain_dc_table                              c:/Espressif/ESP8266_SDK_210/lib\libphy.a(phy_chip_v6.o)
                                                  c:/Espressif/ESP8266_SDK_210/lib\libpp.a(pm_for_bcn_only_mode.o)
                                                  c:/Espressif/ESP8266_SDK_210/lib\libpp.a(pm.o)
                                                  c:/Espressif/ESP8266_SDK_210/lib\libmain.a(app_main.o)
phy_set_most_tpw                                  c:/Espressif/ESP8266_SDK_210/lib\libphy.a(phy_chip_v6.o)
                                                  c:/Espressif/ESP8266_SDK_210/lib\libmain.a(user_interface.o)
phy_set_most_tpw_disbg                            c:/Espressif/ESP8266_SDK_210/lib\libphy.a(phy_chip_v6.o)
                                                  c:/Espressif/ESP8266_SDK_210/lib\libphy.a(phy_chip_v6_cal.o)
phy_set_most_tpw_index                            c:/Espressif/ESP8266_SDK_210/lib\libphy.a(phy_chip_v6.o)
                                                  c:/Espressif/ESP8266_SDK_210/lib\libphy.a(phy_chip_v6_cal.o)
phy_set_powerup_option                            c:/Espressif/ESP8266_SDK_210/lib\libphy.a(phy_chip_v6.o)
                                                  c:/Espressif/ESP8266_SDK_210/lib\libmain.a(user_interface.o)
phy_set_rx11b_reg                                 c:/Espressif/ESP8266_SDK_210/lib\libphy.a(phy_chip_v6.o)
phy_set_sense                                     c:/Espressif/ESP8266_SDK_210/lib\libphy.a(phy.o)
phy_tx_power_out                                  c:/Espressif/ESP8266_SDK_210/lib\libphy.a(phy_chip_v6_cal.o)
phy_tx_pwctrl_cali                                c:/Espressif/ESP8266_SDK_210/lib\libphy.a(phy_chip_v6.o)
phy_tx_pwr_error                                  c:/Espressif/ESP8266_SDK_210/lib\libphy.a(phy_chip_v6_cal.o)
                                                  c:/Espressif/ESP8266_SDK_210/lib\libphy.a(phy_chip_v6.o)
phy_txpwr_diff_flash                              c:/Espressif/ESP8266_SDK_210/lib\libphy.a(phy_chip_v6.o)
phy_vdd33_set_tpw                                 c:/Espressif/ESP8266_SDK_210/lib\libphy.a(phy_chip_v6.o)
                                                  c:/Espressif/ESP8266_SDK_210/lib\libmain.a(user_interface.o)
phytype2mode                                      c:/Espressif/ESP8266_SDK_210/lib\libpp.a(trc.o)
pktinfo                                           c:/Espressif/ESP8266_SDK_210/lib\liblwip.a(espconn.o)
                                                  c:/Espressif/ESP8266_SDK_210/lib\liblwip.a(espconn_tcp.o)
pktnum_sta_freqcal                                c:/Espressif/ESP8266_SDK_210/lib\libpp.a(pp.o)
plink_active                                      c:/Espressif/ESP8266_SDK_210/lib\liblwip.a(espconn.o)
                                                  c:/Espressif/ESP8266_SDK_210/lib\liblwip.a(espconn_udp.o)
                                                  c:/Espressif/ESP8266_SDK_210/lib\liblwip.a(espconn_tcp.o)
pm_allow_tx                                       c:/Espressif/ESP8266_SDK_210/lib\libpp.a(pm.o)
                                                  c:/Espressif/ESP8266_SDK_210/lib\libpp.a(pp.o)
pm_assoc_parse                                    c:/Espressif/ESP8266_SDK_210/lib\libpp.a(pm.o)
                                                  c:/Espressif/ESP8266_SDK_210/lib\libpp.a(pp.o)
pm_attach                                         c:/Espressif/ESP8266_SDK_210/lib\libpp.a(pm.o)
                                                  c:/Espressif/ESP8266_SDK_210/lib\libmain.a(app_main.o)
pm_check_mac_idle                                 c:/Espressif/ESP8266_SDK_210/lib\libphy.a(phy_sleep.o)
pm_clear_gpio_wakeup_pin                          c:/Espressif/ESP8266_SDK_210/lib\libpp.a(pm.o)
                                                  c:/Espressif/ESP8266_SDK_210/lib\libmain.a(user_interface.o)
pm_enable_gpio_wakeup                             c:/Espressif/ESP8266_SDK_210/lib\libpp.a(pm.o)
                                                  c:/Espressif/ESP8266_SDK_210/lib\libpp.a(pp.o)
pm_force_scan_unlock                              c:/Espressif/ESP8266_SDK_210/lib\libpp.a(pm.o)
                                                  c:/Espressif/ESP8266_SDK_210/lib\libnet80211.a(ieee80211_scan.o)
                                                  c:/Espressif/ESP8266_SDK_210/lib\libpp.a(if_hwctrl.o)
pm_get_ck170_period                               c:/Espressif/ESP8266_SDK_210/lib\libpp.a(pm.o)
                                                  c:/Espressif/ESP8266_SDK_210/lib\libpp.a(pm_for_bcn_only_mode.o)
pm_get_idle_wait_time                             c:/Espressif/ESP8266_SDK_210/lib\libpp.a(pm.o)
pm_get_sleep_type                                 c:/Espressif/ESP8266_SDK_210/lib\libpp.a(pm.o)
                                                  c:/Espressif/ESP8266_SDK_210/lib\libmain.a(user_interface.o)
pm_goto_sleep                                     c:/Espressif/ESP8266_SDK_210/lib\libphy.a(phy_sleep.o)
                                                  c:/Espressif/ESP8266_SDK_210/lib\libpp.a(pm_for_bcn_only_mode.o)
                                                  c:/Espressif/ESP8266_SDK_210/lib\libpp.a(pm.o)
pm_idle_sleep                                     c:/Espressif/ESP8266_SDK_210/lib\libpp.a(pm.o)
pm_is_gpio_int_trig                               c:/Espressif/ESP8266_SDK_210/lib\libpp.a(pm.o)
pm_is_open                                        c:/Espressif/ESP8266_SDK_210/lib\libpp.a(pm.o)
                                                  c:/Espressif/ESP8266_SDK_210/lib\libnet80211.a(ieee80211_scan.o)
                                                  c:/Espressif/ESP8266_SDK_210/lib\libpp.a(pm_for_bcn_only_mode.o)
                                                  c:/Espressif/ESP8266_SDK_210/lib\libmain.a(user_interface.o)
pm_is_waked                                       c:/Espressif/ESP8266_SDK_210/lib\libpp.a(pm.o)
                                                  c:/Espressif/ESP8266_SDK_210/lib\libnet80211.a(ieee80211_scan.o)
                                                  c:/Espressif/ESP8266_SDK_210/lib\libpp.a(pp.o)
                                                  c:/Espressif/ESP8266_SDK_210/lib\libmain.a(user_interface.o)
pm_onBcnRx                                        c:/Espressif/ESP8266_SDK_210/lib\libpp.a(pm.o)
                                                  c:/Espressif/ESP8266_SDK_210/lib\libpp.a(pp.o)
pm_open                                           c:/Espressif/ESP8266_SDK_210/lib\libpp.a(pm.o)
                                                  c:/Espressif/ESP8266_SDK_210/lib\libpp.a(if_hwctrl.o)
pm_open_rf                                        c:/Espressif/ESP8266_SDK_210/lib\libphy.a(phy_sleep.o)
                                                  c:/Espressif/ESP8266_SDK_210/lib\libmain.a(user_interface.o)
pm_post                                           c:/Espressif/ESP8266_SDK_210/lib\libpp.a(pm.o)
                                                  c:/Espressif/ESP8266_SDK_210/lib\libnet80211.a(ieee80211_scan.o)
                                                  c:/Espressif/ESP8266_SDK_210/lib\libpp.a(pp.o)
                                                  c:/Espressif/ESP8266_SDK_210/lib\libmain.a(user_interface.o)
pm_prepare_to_sleep                               c:/Espressif/ESP8266_SDK_210/lib\libphy.a(phy_sleep.o)
pm_reset_idle_sleep                               c:/Espressif/ESP8266_SDK_210/lib\libpp.a(pm.o)
pm_rf_is_closed                                   c:/Espressif/ESP8266_SDK_210/lib\libpp.a(pm.o)
                                                  c:/Espressif/ESP8266_SDK_210/lib\libpp.a(pp.o)
pm_rtc2usec                                       c:/Espressif/ESP8266_SDK_210/lib\libphy.a(phy_sleep.o)
                                                  c:/Espressif/ESP8266_SDK_210/lib\libpp.a(pm_for_bcn_only_mode.o)
                                                  c:/Espressif/ESP8266_SDK_210/lib\libpp.a(pm.o)
pm_rtc_clock_cali                                 c:/Espressif/ESP8266_SDK_210/lib\libphy.a(phy_sleep.o)
                                                  c:/Espressif/ESP8266_SDK_210/lib\libpp.a(pm.o)
pm_rtc_clock_cali_proc                            c:/Espressif/ESP8266_SDK_210/lib\libpp.a(pm.o)
                                                  c:/Espressif/ESP8266_SDK_210/lib\libpp.a(pm_for_bcn_only_mode.o)
                                                  c:/Espressif/ESP8266_SDK_210/lib\libmain.a(user_interface.o)
pm_scan_lock                                      c:/Espressif/ESP8266_SDK_210/lib\libpp.a(pm.o)
                                                  c:/Espressif/ESP8266_SDK_210/lib\libnet80211.a(ieee80211_scan.o)
pm_scan_unlocked                                  c:/Espressif/ESP8266_SDK_210/lib\libpp.a(pm.o)
                                                  c:/Espressif/ESP8266_SDK_210/lib\libpp.a(pp.o)
pm_sdio_nidle                                     c:/Espressif/ESP8266_SDK_210/lib\libphy.a(phy_sleep.o)
pm_send_nullfunc                                  c:/Espressif/ESP8266_SDK_210/lib\libpp.a(pm.o)
pm_set_addr                                       c:/Espressif/ESP8266_SDK_210/lib\libpp.a(pm.o)
                                                  c:/Espressif/ESP8266_SDK_210/lib\libpp.a(pp.o)
pm_set_gpio_wakeup_pin                            c:/Espressif/ESP8266_SDK_210/lib\libpp.a(pm.o)
                                                  c:/Espressif/ESP8266_SDK_210/lib\libmain.a(user_interface.o)
pm_set_pll_xtal_wait_time                         c:/Espressif/ESP8266_SDK_210/lib\libphy.a(phy_sleep.o)
pm_set_sleep_btco                                 c:/Espressif/ESP8266_SDK_210/lib\libphy.a(phy_sleep.o)
pm_set_sleep_cycles                               c:/Espressif/ESP8266_SDK_210/lib\libphy.a(phy_sleep.o)
                                                  c:/Espressif/ESP8266_SDK_210/lib\libpp.a(pm_for_bcn_only_mode.o)
                                                  c:/Espressif/ESP8266_SDK_210/lib\libpp.a(pm.o)
                                                  c:/Espressif/ESP8266_SDK_210/lib\libphy.a(phy_chip_v6.o)
                                                  c:/Espressif/ESP8266_SDK_210/lib\libmain.a(user_interface.o)
pm_set_sleep_mode                                 c:/Espressif/ESP8266_SDK_210/lib\libphy.a(phy_sleep.o)
                                                  c:/Espressif/ESP8266_SDK_210/lib\libpp.a(pm_for_bcn_only_mode.o)
                                                  c:/Espressif/ESP8266_SDK_210/lib\libpp.a(pm.o)
                                                  c:/Espressif/ESP8266_SDK_210/lib\libphy.a(phy_chip_v6.o)
                                                  c:/Espressif/ESP8266_SDK_210/lib\libphy.a(phy_chip_v6_ana.o)
pm_set_sleep_time                                 c:/Espressif/ESP8266_SDK_210/lib\libpp.a(pm.o)
pm_set_sleep_type_from_upper                      c:/Espressif/ESP8266_SDK_210/lib\libpp.a(pm.o)
                                                  c:/Espressif/ESP8266_SDK_210/lib\libmain.a(user_interface.o)
pm_set_wakeup_btco                                c:/Espressif/ESP8266_SDK_210/lib\libphy.a(phy_sleep.o)
pm_set_wakeup_mac                                 c:/Espressif/ESP8266_SDK_210/lib\libphy.a(phy_sleep.o)
pm_shutdown                                       c:/Espressif/ESP8266_SDK_210/lib\libpp.a(pm.o)
                                                  c:/Espressif/ESP8266_SDK_210/lib\libpp.a(pm_for_bcn_only_mode.o)
                                                  c:/Espressif/ESP8266_SDK_210/lib\libpp.a(if_hwctrl.o)
pm_sleep_for                                      c:/Espressif/ESP8266_SDK_210/lib\libpp.a(pm.o)
                                                  c:/Espressif/ESP8266_SDK_210/lib\libpp.a(pp.o)
pm_sleep_opt                                      c:/Espressif/ESP8266_SDK_210/lib\libphy.a(phy_sleep.o)
pm_sleep_opt_bb_off                               c:/Espressif/ESP8266_SDK_210/lib\libphy.a(phy_sleep.o)
pm_sleep_opt_bb_on                                c:/Espressif/ESP8266_SDK_210/lib\libphy.a(phy_sleep.o)
pm_sleep_set_mac                                  c:/Espressif/ESP8266_SDK_210/lib\libphy.a(phy_sleep.o)
pm_suspend                                        c:/Espressif/ESP8266_SDK_210/lib\libpp.a(pm.o)
pm_try_scan_unlock                                c:/Espressif/ESP8266_SDK_210/lib\libpp.a(pm.o)
pm_unmask_bt                                      c:/Espressif/ESP8266_SDK_210/lib\libphy.a(phy_sleep.o)
pm_usec2rtc                                       c:/Espressif/ESP8266_SDK_210/lib\libphy.a(phy_sleep.o)
                                                  c:/Espressif/ESP8266_SDK_210/lib\libpp.a(pm_for_bcn_only_mode.o)
                                                  c:/Espressif/ESP8266_SDK_210/lib\libpp.a(pm.o)
pm_usec2rtc_64                                    c:/Espressif/ESP8266_SDK_210/lib\libphy.a(phy_sleep.o)
                                                  c:/Espressif/ESP8266_SDK_210/lib\libmain.a(user_interface.o)
pm_wait4wakeup                                    c:/Espressif/ESP8266_SDK_210/lib\libphy.a(phy_sleep.o)
                                                  c:/Espressif/ESP8266_SDK_210/lib\libpp.a(pm_for_bcn_only_mode.o)
                                                  c:/Espressif/ESP8266_SDK_210/lib\libpp.a(pm.o)
                                                  c:/Espressif/ESP8266_SDK_210/lib\libphy.a(phy_chip_v6.o)
pm_wakeup_init                                    c:/Espressif/ESP8266_SDK_210/lib\libphy.a(phy_sleep.o)
                                                  c:/Espressif/ESP8266_SDK_210/lib\libpp.a(pm_for_bcn_only_mode.o)
                                                  c:/Espressif/ESP8266_SDK_210/lib\libpp.a(pm.o)
                                                  c:/Espressif/ESP8266_SDK_210/lib\libphy.a(phy_chip_v6.o)
                                                  c:/Espressif/ESP8266_SDK_210/lib\libphy.a(phy_chip_v6_ana.o)
pm_wakeup_opt                                     c:/Espressif/ESP8266_SDK_210/lib\libphy.a(phy_sleep.o)
                                                  c:/Espressif/ESP8266_SDK_210/lib\libpp.a(pm_for_bcn_only_mode.o)
                                                  c:/Espressif/ESP8266_SDK_210/lib\libpp.a(pm.o)
                                                  c:/Espressif/ESP8266_SDK_210/lib\libphy.a(phy_chip_v6.o)
pmc                                               c:/Espressif/ESP8266_SDK_210/lib\libpp.a(pm.o)
ppCalFrameTimes                                   c:/Espressif/ESP8266_SDK_210/lib\libpp.a(pp.o)
                                                  c:/Espressif/ESP8266_SDK_210/lib\libpp.a(lmac.o)
ppCalTxop                                         c:/Espressif/ESP8266_SDK_210/lib\libpp.a(pp.o)
                                                  c:/Espressif/ESP8266_SDK_210/lib\libpp.a(lmac.o)
ppCheckTxIdle                                     c:/Espressif/ESP8266_SDK_210/lib\libpp.a(pp.o)
                                                  c:/Espressif/ESP8266_SDK_210/lib\libnet80211.a(ieee80211_scan.o)
                                                  c:/Espressif/ESP8266_SDK_210/lib\libpp.a(pm_for_bcn_only_mode.o)
                                                  c:/Espressif/ESP8266_SDK_210/lib\libpp.a(pm.o)
ppDequeueTxQ                                      c:/Espressif/ESP8266_SDK_210/lib\libpp.a(pp.o)
                                                  c:/Espressif/ESP8266_SDK_210/lib\libpp.a(lmac.o)
ppDiscardMPDU                                     c:/Espressif/ESP8266_SDK_210/lib\libpp.a(pp.o)
ppEnqueueRxq                                      c:/Espressif/ESP8266_SDK_210/lib\libpp.a(pp.o)
                                                  c:/Espressif/ESP8266_SDK_210/lib\libpp.a(lmac.o)
ppEnqueueTxDone                                   c:/Espressif/ESP8266_SDK_210/lib\libpp.a(pp.o)
                                                  c:/Espressif/ESP8266_SDK_210/lib\libpp.a(lmac.o)
ppFetchTxQFirstAvail                              c:/Espressif/ESP8266_SDK_210/lib\libpp.a(pp.o)
                                                  c:/Espressif/ESP8266_SDK_210/lib\libpp.a(lmac.o)
ppGetTxQFirstAvail_Locked                         c:/Espressif/ESP8266_SDK_210/lib\libpp.a(pp.o)
                                                  c:/Espressif/ESP8266_SDK_210/lib\libpp.a(lmac.o)
ppInstallKey                                      c:/Espressif/ESP8266_SDK_210/lib\libwpa.a(wpa_main.o)
                                                  c:/Espressif/ESP8266_SDK_210/lib\libnet80211.a(wl_cnx.o)
ppPeocessRxPktHdr                                 c:/Espressif/ESP8266_SDK_210/lib\libpp.a(pp.o)
ppProcessTxQ                                      c:/Espressif/ESP8266_SDK_210/lib\libpp.a(pp.o)
ppProcessWaitQ                                    c:/Espressif/ESP8266_SDK_210/lib\libpp.a(pp.o)
                                                  c:/Espressif/ESP8266_SDK_210/lib\libpp.a(pm_for_bcn_only_mode.o)
                                                  c:/Espressif/ESP8266_SDK_210/lib\libpp.a(pm.o)
ppRecordBarRRC                                    c:/Espressif/ESP8266_SDK_210/lib\libpp.a(pp.o)
                                                  c:/Espressif/ESP8266_SDK_210/lib\libpp.a(lmac.o)
ppRecycleRxPkt                                    c:/Espressif/ESP8266_SDK_210/lib\libpp.a(pp.o)
                                                  c:/Espressif/ESP8266_SDK_210/lib\libnet80211.a(ieee80211_sta.o)
                                                  c:/Espressif/ESP8266_SDK_210/lib\libnet80211.a(ieee80211_input.o)
                                                  c:/Espressif/ESP8266_SDK_210/lib\libnet80211.a(ieee80211_hostap.o)
                                                  c:/Espressif/ESP8266_SDK_210/lib\libmain.a(eagle_lwip_if.o)
                                                  c:/Espressif/ESP8266_SDK_210/lib\libmain.a(user_interface.o)
ppRegisterTxCallback                              c:/Espressif/ESP8266_SDK_210/lib\libpp.a(pp.o)
                                                  c:/Espressif/ESP8266_SDK_210/lib\libwpa.a(wpa_main.o)
                                                  c:/Espressif/ESP8266_SDK_210/lib\libnet80211.a(wl_cnx.o)
                                                  c:/Espressif/ESP8266_SDK_210/lib\libnet80211.a(ieee80211_proto.o)
                                                  c:/Espressif/ESP8266_SDK_210/lib\libnet80211.a(ieee80211_hostap.o)
                                                  c:/Espressif/ESP8266_SDK_210/lib\libnet80211.a(ieee80211.o)
                                                  c:/Espressif/ESP8266_SDK_210/lib\libpp.a(pm.o)
ppRollBackTxQ                                     c:/Espressif/ESP8266_SDK_210/lib\libpp.a(pp.o)
                                                  c:/Espressif/ESP8266_SDK_210/lib\libpp.a(lmac.o)
ppTxPkt                                           c:/Espressif/ESP8266_SDK_210/lib\libpp.a(pp.o)
                                                  c:/Espressif/ESP8266_SDK_210/lib\libnet80211.a(ieee80211_action_vendor.o)
                                                  c:/Espressif/ESP8266_SDK_210/lib\libnet80211.a(ieee80211_scan.o)
                                                  c:/Espressif/ESP8266_SDK_210/lib\libnet80211.a(ieee80211_power.o)
                                                  c:/Espressif/ESP8266_SDK_210/lib\libnet80211.a(ieee80211_output.o)
                                                  c:/Espressif/ESP8266_SDK_210/lib\libnet80211.a(ieee80211_hostap.o)
                                                  c:/Espressif/ESP8266_SDK_210/lib\libpp.a(pm.o)
ppTxqUpdateBitmap                                 c:/Espressif/ESP8266_SDK_210/lib\libpp.a(pp.o)
                                                  c:/Espressif/ESP8266_SDK_210/lib\libpp.a(lmac.o)
ppUnregisterTxCallback                            c:/Espressif/ESP8266_SDK_210/lib\libpp.a(pp.o)
pp_attach                                         c:/Espressif/ESP8266_SDK_210/lib\libpp.a(pp.o)
                                                  c:/Espressif/ESP8266_SDK_210/lib\libmain.a(app_main.o)
pp_disable_idle_timer                             c:/Espressif/ESP8266_SDK_210/lib\libpp.a(pp.o)
                                                  c:/Espressif/ESP8266_SDK_210/lib\libpp.a(pm.o)
pp_disable_noise_timer                            c:/Espressif/ESP8266_SDK_210/lib\libpp.a(pp.o)
                                                  c:/Espressif/ESP8266_SDK_210/lib\libnet80211.a(ieee80211_hostap.o)
                                                  c:/Espressif/ESP8266_SDK_210/lib\libpp.a(pm_for_bcn_only_mode.o)
pp_enable_idle_timer                              c:/Espressif/ESP8266_SDK_210/lib\libpp.a(pp.o)
                                                  c:/Espressif/ESP8266_SDK_210/lib\libpp.a(pm.o)
pp_enable_noise_timer                             c:/Espressif/ESP8266_SDK_210/lib\libpp.a(pp.o)
pp_michael_mic_failure                            c:/Espressif/ESP8266_SDK_210/lib\libwpa.a(wpa.o)
pp_noise_test                                     c:/Espressif/ESP8266_SDK_210/lib\libpp.a(pp.o)
pp_post                                           c:/Espressif/ESP8266_SDK_210/lib\libpp.a(pp.o)
                                                  c:/Espressif/ESP8266_SDK_210/lib\libpp.a(lmac.o)
pp_post2                                          c:/Espressif/ESP8266_SDK_210/lib\libpp.a(pp.o)
                                                  c:/Espressif/ESP8266_SDK_210/lib\libpp.a(wdev.o)
pp_soft_wdt_feed                                  c:/Espressif/ESP8266_SDK_210/lib\libpp.a(pp.o)
                                                  c:/Espressif/ESP8266_SDK_210/lib\libmain.a(spi_flash.o)
pp_soft_wdt_feed_local                            c:/Espressif/ESP8266_SDK_210/lib\libpp.a(pp.o)
pp_soft_wdt_init                                  c:/Espressif/ESP8266_SDK_210/lib\libpp.a(pp.o)
                                                  c:/Espressif/ESP8266_SDK_210/lib\libmain.a(app_main.o)
pp_soft_wdt_restart                               c:/Espressif/ESP8266_SDK_210/lib\libpp.a(pp.o)
                                                  c:/Espressif/ESP8266_SDK_210/lib\libpp.a(pm_for_bcn_only_mode.o)
                                                  c:/Espressif/ESP8266_SDK_210/lib\libpp.a(pm.o)
pp_soft_wdt_stop                                  c:/Espressif/ESP8266_SDK_210/lib\libpp.a(pp.o)
                                                  c:/Espressif/ESP8266_SDK_210/lib\libpp.a(pm_for_bcn_only_mode.o)
                                                  c:/Espressif/ESP8266_SDK_210/lib\libpp.a(pm.o)
pp_try_enable_idle_timer                          c:/Espressif/ESP8266_SDK_210/lib\libpp.a(pp.o)
                                                  c:/Espressif/ESP8266_SDK_210/lib\libpp.a(pm.o)
pp_tx_idle_timeout                                c:/Espressif/ESP8266_SDK_210/lib\libpp.a(pp.o)
premot                                            c:/Espressif/ESP8266_SDK_210/lib\liblwip.a(espconn.o)
promiscuous_cb                                    c:/Espressif/ESP8266_SDK_210/lib\libmain.a(user_interface.o)
                                                  c:/Espressif/ESP8266_SDK_210/lib\libpp.a(pp.o)
protect_flag                                      c:/Espressif/ESP8266_SDK_210/lib\libmain.a(user_interface.o)
                                                  c:/Espressif/ESP8266_SDK_210/lib\libmain.a(spi_flash.o)
prvInsertBlockIntoUsedList                        c:/Espressif/ESP8266_SDK_210/lib\libmain.a(mem_manager.o)
prvRemoveBlockFromUsedList                        c:/Espressif/ESP8266_SDK_210/lib\libmain.a(mem_manager.o)
pserver_list                                      c:/Espressif/ESP8266_SDK_210/lib\liblwip.a(espconn.o)
                                                  c:/Espressif/ESP8266_SDK_210/lib\liblwip.a(espconn_tcp.o)
pvPortCalloc                                      c:/Espressif/ESP8266_SDK_210/lib\libmain.a(mem_manager.o)
pvPortMalloc                                      c:/Espressif/ESP8266_SDK_210/lib\libmain.a(mem_manager.o)
                                                  c:/Espressif/ESP8266_SDK_210/lib\libcrypto.a(aes-internal-enc.o)
                                                  c:/Espressif/ESP8266_SDK_210/lib\libwpa.a(wpa_main.o)
                                                  c:/Espressif/ESP8266_SDK_210/lib\libwpa.a(wpa_auth_ie.o)
                                                  c:/Espressif/ESP8266_SDK_210/lib\libwpa.a(wpa_auth.o)
                                                  c:/Espressif/ESP8266_SDK_210/lib\libwpa.a(os_xtensa.o)
                                                  c:/Espressif/ESP8266_SDK_210/lib\libwpa.a(common.o)
                                                  c:/Espressif/ESP8266_SDK_210/lib\liblwip.a(igmp.o)
                                                  c:/Espressif/ESP8266_SDK_210/lib\liblwip.a(udp.o)
                                                  c:/Espressif/ESP8266_SDK_210/lib\liblwip.a(timers.o)
                                                  c:/Espressif/ESP8266_SDK_210/lib\liblwip.a(tcp_out.o)
                                                  c:/Espressif/ESP8266_SDK_210/lib\liblwip.a(tcp.o)
                                                  c:/Espressif/ESP8266_SDK_210/lib\liblwip.a(raw.o)
                                                  c:/Espressif/ESP8266_SDK_210/lib\liblwip.a(pbuf.o)
                                                  c:/Espressif/ESP8266_SDK_210/lib\liblwip.a(etharp.o)
                                                  c:/Espressif/ESP8266_SDK_210/lib\liblwip.a(dhcp.o)
                                                  c:/Espressif/ESP8266_SDK_210/lib\libnet80211.a(ieee80211_regdomain.o)
                                                  c:/Espressif/ESP8266_SDK_210/lib\libnet80211.a(ieee80211_input.o)
                                                  c:/Espressif/ESP8266_SDK_210/lib\libpp.a(esf_buf.o)
                                                  c:/Espressif/ESP8266_SDK_210/lib\libpp.a(wdev.o)
                                                  c:/Espressif/ESP8266_SDK_210/lib\libmain.a(eagle_lwip_if.o)
                                                  c:/Espressif/ESP8266_SDK_210/lib\libmain.a(user_interface.o)
pvPortRealloc                                     c:/Espressif/ESP8266_SDK_210/lib\libmain.a(mem_manager.o)
pvPortZalloc                                      c:/Espressif/ESP8266_SDK_210/lib\libmain.a(mem_manager.o)
                                                  c:/Espressif/ESP8266_SDK_210/lib\libwpa.a(wpa_main.o)
                                                  c:/Espressif/ESP8266_SDK_210/lib\libwpa.a(wpa_auth.o)
                                                  c:/Espressif/ESP8266_SDK_210/lib\libwpa.a(ap_config.o)
                                                  c:/Espressif/ESP8266_SDK_210/lib\liblwip.a(espconn_udp.o)
                                                  c:/Espressif/ESP8266_SDK_210/lib\liblwip.a(espconn.o)
                                                  c:/Espressif/ESP8266_SDK_210/lib\liblwip.a(espconn_buf.o)
                                                  c:/Espressif/ESP8266_SDK_210/lib\liblwip.a(espconn_tcp.o)
                                                  c:/Espressif/ESP8266_SDK_210/lib\liblwip.a(dns.o)
                                                  c:/Espressif/ESP8266_SDK_210/lib\liblwip.a(dhcpserver.o)
                                                  c:/Espressif/ESP8266_SDK_210/lib\libnet80211.a(wl_cnx.o)
                                                  c:/Espressif/ESP8266_SDK_210/lib\libnet80211.a(ieee80211_sta.o)
                                                  c:/Espressif/ESP8266_SDK_210/lib\libnet80211.a(ieee80211_scan.o)
                                                  c:/Espressif/ESP8266_SDK_210/lib\libnet80211.a(ieee80211_phy.o)
                                                  c:/Espressif/ESP8266_SDK_210/lib\libnet80211.a(ieee80211_mesh_quick.o)
                                                  c:/Espressif/ESP8266_SDK_210/lib\libnet80211.a(ieee80211_hostap.o)
                                                  c:/Espressif/ESP8266_SDK_210/lib\libnet80211.a(ieee80211.o)
                                                  c:/Espressif/ESP8266_SDK_210/lib\libpp.a(esf_buf.o)
                                                  c:/Espressif/ESP8266_SDK_210/lib\libpp.a(pm_for_bcn_only_mode.o)
                                                  c:/Espressif/ESP8266_SDK_210/lib\libpp.a(pm.o)
                                                  c:/Espressif/ESP8266_SDK_210/lib\libmain.a(user_interface.o)
                                                  c:/Espressif/ESP8266_SDK_210/lib\libmain.a(app_main.o)
pvShowMalloc                                      c:/Espressif/ESP8266_SDK_210/lib\libmain.a(mem_manager.o)
pwrsave_flushq                                    c:/Espressif/ESP8266_SDK_210/lib\libnet80211.a(ieee80211_power.o)
                                                  c:/Espressif/ESP8266_SDK_210/lib\libnet80211.a(wl_cnx.o)
                                                  c:/Espressif/ESP8266_SDK_210/lib\libnet80211.a(ieee80211_hostap.o)
r_rand                                            c:/Espressif/ESP8266_SDK_210/lib\libwpa.a(os_xtensa.o)
                                                  c:/Espressif/ESP8266_SDK_210/lib\liblwip.a(igmp.o)
ram_ana_inf_gating_en                             c:/Espressif/ESP8266_SDK_210/lib\libphy.a(phy_chip_v6_ana.o)
                                                  c:/Espressif/ESP8266_SDK_210/lib\libphy.a(phy_chip_v6.o)
ram_cal_tos_v60                                   c:/Espressif/ESP8266_SDK_210/lib\libphy.a(phy_chip_v6_cal.o)
                                                  c:/Espressif/ESP8266_SDK_210/lib\libphy.a(phy_chip_v6.o)
ram_chip_v6_rx_init                               c:/Espressif/ESP8266_SDK_210/lib\libphy.a(phy_chip_v6_ana.o)
                                                  c:/Espressif/ESP8266_SDK_210/lib\libphy.a(phy_chip_v6.o)
ram_get_bb_atten                                  c:/Espressif/ESP8266_SDK_210/lib\libphy.a(phy_chip_v6_cal.o)
ram_get_corr_power                                c:/Espressif/ESP8266_SDK_210/lib\libphy.a(phy_chip_v6.o)
ram_get_fm_sar_dout                               c:/Espressif/ESP8266_SDK_210/lib\libphy.a(phy_chip_v6_cal.o)
                                                  c:/Espressif/ESP8266_SDK_210/lib\libphy.a(phy_chip_v6.o)
ram_get_noisefloor                                c:/Espressif/ESP8266_SDK_210/lib\libphy.a(phy_chip_v6.o)
ram_pbus_debugmode                                c:/Espressif/ESP8266_SDK_210/lib\libphy.a(phy_chip_v6_ana.o)
                                                  c:/Espressif/ESP8266_SDK_210/lib\libphy.a(phy_chip_v6.o)
ram_pbus_set_rxgain                               c:/Espressif/ESP8266_SDK_210/lib\libphy.a(phy_chip_v6_ana.o)
                                                  c:/Espressif/ESP8266_SDK_210/lib\libphy.a(phy_chip_v6.o)
ram_pbus_xpd_tx_on                                c:/Espressif/ESP8266_SDK_210/lib\libphy.a(phy_chip_v6_ana.o)
                                                  c:/Espressif/ESP8266_SDK_210/lib\libphy.a(phy_chip_v6_cal.o)
                                                  c:/Espressif/ESP8266_SDK_210/lib\libphy.a(phy_chip_v6.o)
ram_restart_cal                                   c:/Espressif/ESP8266_SDK_210/lib\libphy.a(phy_chip_v6_ana.o)
                                                  c:/Espressif/ESP8266_SDK_210/lib\libphy.a(phy_chip_v6.o)
ram_rfcal_pwrctrl                                 c:/Espressif/ESP8266_SDK_210/lib\libphy.a(phy_chip_v6_cal.o)
                                                  c:/Espressif/ESP8266_SDK_210/lib\libphy.a(phy_chip_v6.o)
ram_rfcal_rxiq                                    c:/Espressif/ESP8266_SDK_210/lib\libphy.a(phy_chip_v6_cal.o)
                                                  c:/Espressif/ESP8266_SDK_210/lib\libphy.a(phy_chip_v6.o)
ram_rfcal_txcap                                   c:/Espressif/ESP8266_SDK_210/lib\libphy.a(phy_chip_v6_cal.o)
                                                  c:/Espressif/ESP8266_SDK_210/lib\libphy.a(phy_chip_v6.o)
ram_rfcal_txiq                                    c:/Espressif/ESP8266_SDK_210/lib\libphy.a(phy_chip_v6_cal.o)
                                                  c:/Espressif/ESP8266_SDK_210/lib\libphy.a(phy_chip_v6.o)
ram_rfpll_set_freq                                c:/Espressif/ESP8266_SDK_210/lib\libphy.a(phy_chip_v6_ana.o)
ram_rxiq_cover_mg_mp                              c:/Espressif/ESP8266_SDK_210/lib\libphy.a(phy_chip_v6_cal.o)
                                                  c:/Espressif/ESP8266_SDK_210/lib\libphy.a(phy_chip_v6.o)
ram_rxiq_get_mis                                  c:/Espressif/ESP8266_SDK_210/lib\libphy.a(phy_chip_v6_cal.o)
                                                  c:/Espressif/ESP8266_SDK_210/lib\libphy.a(phy_chip_v6.o)
ram_set_channel_freq                              c:/Espressif/ESP8266_SDK_210/lib\libphy.a(phy_chip_v6_ana.o)
ram_set_noise_floor                               c:/Espressif/ESP8266_SDK_210/lib\libphy.a(phy_chip_v6.o)
ram_set_txbb_atten                                c:/Espressif/ESP8266_SDK_210/lib\libphy.a(phy_chip_v6_cal.o)
                                                  c:/Espressif/ESP8266_SDK_210/lib\libphy.a(phy_chip_v6.o)
ram_start_noisefloor                              c:/Espressif/ESP8266_SDK_210/lib\libphy.a(phy_chip_v6.o)
ram_tx_mac_disable                                c:/Espressif/ESP8266_SDK_210/lib\libphy.a(phy_chip_v6.o)
ram_tx_mac_enable                                 c:/Espressif/ESP8266_SDK_210/lib\libphy.a(phy_chip_v6.o)
raw_bind                                          c:/Espressif/ESP8266_SDK_210/lib\liblwip.a(raw.o)
raw_connect                                       c:/Espressif/ESP8266_SDK_210/lib\liblwip.a(raw.o)
raw_input                                         c:/Espressif/ESP8266_SDK_210/lib\liblwip.a(raw.o)
                                                  c:/Espressif/ESP8266_SDK_210/lib\liblwip.a(ip.o)
raw_new                                           c:/Espressif/ESP8266_SDK_210/lib\liblwip.a(raw.o)
raw_recv                                          c:/Espressif/ESP8266_SDK_210/lib\liblwip.a(raw.o)
raw_remove                                        c:/Espressif/ESP8266_SDK_210/lib\liblwip.a(raw.o)
raw_send                                          c:/Espressif/ESP8266_SDK_210/lib\liblwip.a(raw.o)
raw_sendto                                        c:/Espressif/ESP8266_SDK_210/lib\liblwip.a(raw.o)
rc4_skip                                          c:/Espressif/ESP8266_SDK_210/lib\libwpa.a(wpa.o)
                                                  c:/Espressif/ESP8266_SDK_210/lib\libwpa.a(wpa_auth.o)
rcAttach                                          c:/Espressif/ESP8266_SDK_210/lib\libpp.a(trc.o)
                                                  c:/Espressif/ESP8266_SDK_210/lib\libpp.a(lmac.o)
rcGetRate                                         c:/Espressif/ESP8266_SDK_210/lib\libpp.a(trc.o)
                                                  c:/Espressif/ESP8266_SDK_210/lib\libpp.a(lmac.o)
rcGetSched                                        c:/Espressif/ESP8266_SDK_210/lib\libpp.a(trc.o)
                                                  c:/Espressif/ESP8266_SDK_210/lib\libpp.a(pp.o)
rcGetTrc                                          c:/Espressif/ESP8266_SDK_210/lib\libpp.a(trc.o)
rcReachRetryLimit                                 c:/Espressif/ESP8266_SDK_210/lib\libpp.a(trc.o)
                                                  c:/Espressif/ESP8266_SDK_210/lib\libpp.a(lmac.o)
rcUpdateDataRxDone                                c:/Espressif/ESP8266_SDK_210/lib\libpp.a(trc.o)
                                                  c:/Espressif/ESP8266_SDK_210/lib\libpp.a(wdev.o)
rcUpdatePhyMode                                   c:/Espressif/ESP8266_SDK_210/lib\libpp.a(trc.o)
                                                  c:/Espressif/ESP8266_SDK_210/lib\libpp.a(if_hwctrl.o)
rcUpdateRxDone                                    c:/Espressif/ESP8266_SDK_210/lib\libpp.a(trc.o)
                                                  c:/Espressif/ESP8266_SDK_210/lib\libpp.a(pp.o)
rcUpdateTxDone                                    c:/Espressif/ESP8266_SDK_210/lib\libpp.a(trc.o)
                                                  c:/Espressif/ESP8266_SDK_210/lib\libpp.a(lmac.o)
rc_cal                                            c:/Espressif/ESP8266_SDK_210/lib\libphy.a(phy_chip_v6_cal.o)
                                                  c:/Espressif/ESP8266_SDK_210/lib\libphy.a(phy_chip_v6.o)
rc_disable_trc                                    c:/Espressif/ESP8266_SDK_210/lib\libpp.a(trc.o)
                                                  c:/Espressif/ESP8266_SDK_210/lib\libpp.a(if_hwctrl.o)
rc_disable_trc_by_interface                       c:/Espressif/ESP8266_SDK_210/lib\libpp.a(trc.o)
                                                  c:/Espressif/ESP8266_SDK_210/lib\libpp.a(if_hwctrl.o)
rc_enable_trc                                     c:/Espressif/ESP8266_SDK_210/lib\libpp.a(trc.o)
                                                  c:/Espressif/ESP8266_SDK_210/lib\libpp.a(if_hwctrl.o)
rc_get_mask                                       c:/Espressif/ESP8266_SDK_210/lib\libpp.a(trc.o)
                                                  c:/Espressif/ESP8266_SDK_210/lib\libpp.a(pm.o)
rc_get_sta_trc                                    c:/Espressif/ESP8266_SDK_210/lib\libpp.a(trc.o)
                                                  c:/Espressif/ESP8266_SDK_210/lib\libpp.a(pm.o)
rc_get_trc                                        c:/Espressif/ESP8266_SDK_210/lib\libpp.a(trc.o)
                                                  c:/Espressif/ESP8266_SDK_210/lib\libpp.a(pp.o)
                                                  c:/Espressif/ESP8266_SDK_210/lib\libpp.a(pm.o)
                                                  c:/Espressif/ESP8266_SDK_210/lib\libpp.a(if_hwctrl.o)
rc_get_trc_by_index                               c:/Espressif/ESP8266_SDK_210/lib\libpp.a(trc.o)
                                                  c:/Espressif/ESP8266_SDK_210/lib\libnet80211.a(ieee80211_output.o)
                                                  c:/Espressif/ESP8266_SDK_210/lib\libnet80211.a(ieee80211_ht.o)
rc_only_sta_trc                                   c:/Espressif/ESP8266_SDK_210/lib\libpp.a(trc.o)
                                                  c:/Espressif/ESP8266_SDK_210/lib\libpp.a(if_hwctrl.o)
rc_set_rate_limit_id                              c:/Espressif/ESP8266_SDK_210/lib\libpp.a(trc.o)
                                                  c:/Espressif/ESP8266_SDK_210/lib\libmain.a(user_interface.o)
rcons                                             c:/Espressif/ESP8266_SDK_210/lib\libcrypto.a(aes-internal.o)
read_hw_noisefloor                                c:/Espressif/ESP8266_SDK_210/lib\libphy.a(phy_chip_v6.o)
                                                  c:/Espressif/ESP8266_SDK_210/lib\libpp.a(pp.o)
read_sar_dout                                     c:/Espressif/ESP8266_SDK_210/lib\libphy.a(phy_chip_v6_cal.o)
                                                  c:/Espressif/ESP8266_SDK_210/lib\libphy.a(phy_chip_v6_ana.o)
readvdd33                                         c:/Espressif/ESP8266_SDK_210/lib\libphy.a(phy_chip_v6_ana.o)
reconnect_flag                                    c:/Espressif/ESP8266_SDK_210/lib\libnet80211.a(wl_cnx.o)
                                                  c:/Espressif/ESP8266_SDK_210/lib\libnet80211.a(ieee80211_sta.o)
reconnect_internal                                c:/Espressif/ESP8266_SDK_210/lib\libmain.a(user_interface.o)
reduce_current_init                               c:/Espressif/ESP8266_SDK_210/lib\libphy.a(phy_chip_v6.o)
register_chipv6_phy                               c:/Espressif/ESP8266_SDK_210/lib\libphy.a(phy_chip_v6.o)
                                                  c:/Espressif/ESP8266_SDK_210/lib\libphy.a(phy_sleep.o)
                                                  c:/Espressif/ESP8266_SDK_210/lib\libmain.a(app_main.o)
register_chipv6_phy_init_param                    c:/Espressif/ESP8266_SDK_210/lib\libphy.a(phy_chip_v6.o)
register_get_phy_addr                             c:/Espressif/ESP8266_SDK_210/lib\libphy.a(phy.o)
                                                  c:/Espressif/ESP8266_SDK_210/lib\libphy.a(phy_chip_v6.o)
register_ieee80211_action_vendor_get_key_cb       c:/Espressif/ESP8266_SDK_210/lib\libnet80211.a(ieee80211_action_vendor.o)
register_ieee80211_action_vendor_spec_cb          c:/Espressif/ESP8266_SDK_210/lib\libnet80211.a(ieee80211_action_vendor.o)
register_ieee80211_rfid_locp_recv_cb              c:/Espressif/ESP8266_SDK_210/lib\libnet80211.a(ieee80211_rfid.o)
                                                  c:/Espressif/ESP8266_SDK_210/lib\libmain.a(user_interface.o)
register_phy_ops                                  c:/Espressif/ESP8266_SDK_210/lib\libphy.a(phy.o)
                                                  c:/Espressif/ESP8266_SDK_210/lib\libphy.a(phy_chip_v6.o)
reset_noise_timer                                 c:/Espressif/ESP8266_SDK_210/lib\libpp.a(pp.o)
                                                  c:/Espressif/ESP8266_SDK_210/lib\libnet80211.a(ieee80211_hostap.o)
                                                  c:/Espressif/ESP8266_SDK_210/lib\libpp.a(pm_for_bcn_only_mode.o)
                                                  c:/Espressif/ESP8266_SDK_210/lib\libpp.a(pm.o)
rf_cal_sec                                        c:/Espressif/ESP8266_SDK_210/lib\libmain.a(app_main.o)
                                                  c:/Espressif/ESP8266_SDK_210/lib\libpp.a(pm_for_bcn_only_mode.o)
                                                  c:/Espressif/ESP8266_SDK_210/lib\libpp.a(pm.o)
rf_init                                           c:/Espressif/ESP8266_SDK_210/lib\libphy.a(phy.o)
rfcal_bb_atten_init                               c:/Espressif/ESP8266_SDK_210/lib\libphy.a(phy_chip_v6_cal.o)
                                                  c:/Espressif/ESP8266_SDK_210/lib\libphy.a(phy_chip_v6.o)
rijndaelEncrypt                                   c:/Espressif/ESP8266_SDK_210/lib\libcrypto.a(aes-internal-enc.o)
rijndaelKeySetupEnc                               c:/Espressif/ESP8266_SDK_210/lib\libcrypto.a(aes-internal.o)
                                                  c:/Espressif/ESP8266_SDK_210/lib\libcrypto.a(aes-internal-enc.o)
ringbuf_buffer_size                               c:/Espressif/ESP8266_SDK_210/lib\liblwip.a(espconn_buf.o)
ringbuf_bytes_free                                c:/Espressif/ESP8266_SDK_210/lib\liblwip.a(espconn_buf.o)
ringbuf_bytes_used                                c:/Espressif/ESP8266_SDK_210/lib\liblwip.a(espconn_buf.o)
                                                  c:/Espressif/ESP8266_SDK_210/lib\liblwip.a(espconn.o)
ringbuf_capacity                                  c:/Espressif/ESP8266_SDK_210/lib\liblwip.a(espconn_buf.o)
ringbuf_findchr                                   c:/Espressif/ESP8266_SDK_210/lib\liblwip.a(espconn_buf.o)
ringbuf_free                                      c:/Espressif/ESP8266_SDK_210/lib\liblwip.a(espconn_buf.o)
                                                  c:/Espressif/ESP8266_SDK_210/lib\liblwip.a(espconn_tcp.o)
ringbuf_head                                      c:/Espressif/ESP8266_SDK_210/lib\liblwip.a(espconn_buf.o)
ringbuf_is_empty                                  c:/Espressif/ESP8266_SDK_210/lib\liblwip.a(espconn_buf.o)
ringbuf_is_full                                   c:/Espressif/ESP8266_SDK_210/lib\liblwip.a(espconn_buf.o)
ringbuf_memcpy_from                               c:/Espressif/ESP8266_SDK_210/lib\liblwip.a(espconn_buf.o)
                                                  c:/Espressif/ESP8266_SDK_210/lib\liblwip.a(espconn.o)
ringbuf_memcpy_into                               c:/Espressif/ESP8266_SDK_210/lib\liblwip.a(espconn_buf.o)
                                                  c:/Espressif/ESP8266_SDK_210/lib\liblwip.a(espconn_tcp.o)
ringbuf_memset                                    c:/Espressif/ESP8266_SDK_210/lib\liblwip.a(espconn_buf.o)
ringbuf_new                                       c:/Espressif/ESP8266_SDK_210/lib\liblwip.a(espconn_buf.o)
                                                  c:/Espressif/ESP8266_SDK_210/lib\liblwip.a(espconn_tcp.o)
ringbuf_reset                                     c:/Espressif/ESP8266_SDK_210/lib\liblwip.a(espconn_buf.o)
ringbuf_tail                                      c:/Espressif/ESP8266_SDK_210/lib\liblwip.a(espconn_buf.o)
rom_chip_v5_disable_cca                           c:/Espressif/ESP8266_SDK_210/lib\libphy.a(phy_chip_v6.o)
rom_chip_v5_enable_cca                            c:/Espressif/ESP8266_SDK_210/lib\libphy.a(phy_chip_v6.o)
roundup2                                          c:/Espressif/ESP8266_SDK_210/lib\libnet80211.a(ieee80211_ets.o)
                                                  c:/Espressif/ESP8266_SDK_210/lib\libpp.a(wdev.o)
rsn_cipher_put_suites                             c:/Espressif/ESP8266_SDK_210/lib\libwpa.a(wpa_common.o)
                                                  c:/Espressif/ESP8266_SDK_210/lib\libwpa.a(wpa_auth_ie.o)
rsn_pmkid                                         c:/Espressif/ESP8266_SDK_210/lib\libwpa.a(wpa_common.o)
                                                  c:/Espressif/ESP8266_SDK_210/lib\libwpa.a(wpa_auth.o)
rst_if                                            c:/Espressif/ESP8266_SDK_210/lib\libmain.a(user_interface.o)
                                                  c:/Espressif/ESP8266_SDK_210/lib\libmain.a(app_main.o)
rtc_get_reset_reason                              c:/Espressif/ESP8266_SDK_210/lib\libmain.a(app_main.o)
rtc_mem_backup                                    c:/Espressif/ESP8266_SDK_210/lib\libphy.a(phy_chip_v6.o)
                                                  c:/Espressif/ESP8266_SDK_210/lib\libphy.a(phy_chip_v6_cal.o)
rtc_mem_check                                     c:/Espressif/ESP8266_SDK_210/lib\libphy.a(phy_chip_v6.o)
rtc_mem_recovery                                  c:/Espressif/ESP8266_SDK_210/lib\libphy.a(phy_chip_v6.o)
rx_gain_swp                                       c:/Espressif/ESP8266_SDK_210/lib\libphy.a(phy_chip_v6.o)
rx_table_renew_en                                 c:/Espressif/ESP8266_SDK_210/lib\libphy.a(phy_chip_v6.o)
rxiq_compute_num                                  c:/Espressif/ESP8266_SDK_210/lib\libphy.a(phy_chip_v6.o)
rxiq_cover_fail_num                               c:/Espressif/ESP8266_SDK_210/lib\libphy.a(phy_chip_v6_cal.o)
rxmax_ext_level                                   c:/Espressif/ESP8266_SDK_210/lib\libphy.a(phy_chip_v6.o)
                                                  c:/Espressif/ESP8266_SDK_210/lib\libphy.a(phy_chip_v6_ana.o)
scan_add_bssid                                    c:/Espressif/ESP8266_SDK_210/lib\libnet80211.a(ieee80211_scan.o)
                                                  c:/Espressif/ESP8266_SDK_210/lib\libnet80211.a(wl_cnx.o)
scan_add_probe_ssid                               c:/Espressif/ESP8266_SDK_210/lib\libnet80211.a(ieee80211_scan.o)
                                                  c:/Espressif/ESP8266_SDK_210/lib\libnet80211.a(wl_cnx.o)
scan_cancel                                       c:/Espressif/ESP8266_SDK_210/lib\libnet80211.a(ieee80211_scan.o)
                                                  c:/Espressif/ESP8266_SDK_210/lib\libmain.a(user_interface.o)
scan_check_hidden                                 c:/Espressif/ESP8266_SDK_210/lib\libnet80211.a(ieee80211_scan.o)
                                                  c:/Espressif/ESP8266_SDK_210/lib\libnet80211.a(ieee80211_input.o)
scan_clear_channles                               c:/Espressif/ESP8266_SDK_210/lib\libnet80211.a(ieee80211_scan.o)
scan_connect_state                                c:/Espressif/ESP8266_SDK_210/lib\libnet80211.a(ieee80211_scan.o)
                                                  c:/Espressif/ESP8266_SDK_210/lib\libpp.a(pp.o)
scan_get_type                                     c:/Espressif/ESP8266_SDK_210/lib\libnet80211.a(ieee80211_scan.o)
                                                  c:/Espressif/ESP8266_SDK_210/lib\libnet80211.a(wl_cnx.o)
scan_hidden_ssid                                  c:/Espressif/ESP8266_SDK_210/lib\libnet80211.a(ieee80211_scan.o)
                                                  c:/Espressif/ESP8266_SDK_210/lib\libnet80211.a(wl_cnx.o)
                                                  c:/Espressif/ESP8266_SDK_210/lib\libpp.a(pp.o)
scan_parse_beacon                                 c:/Espressif/ESP8266_SDK_210/lib\libnet80211.a(ieee80211_scan.o)
                                                  c:/Espressif/ESP8266_SDK_210/lib\libnet80211.a(ieee80211_sta.o)
scan_pm_channel_op_cb                             c:/Espressif/ESP8266_SDK_210/lib\libnet80211.a(ieee80211_scan.o)
scan_profile_check                                c:/Espressif/ESP8266_SDK_210/lib\libnet80211.a(ieee80211_scan.o)
scan_remove_bssid                                 c:/Espressif/ESP8266_SDK_210/lib\libnet80211.a(ieee80211_scan.o)
                                                  c:/Espressif/ESP8266_SDK_210/lib\libnet80211.a(wl_cnx.o)
scan_remove_probe_ssid                            c:/Espressif/ESP8266_SDK_210/lib\libnet80211.a(ieee80211_scan.o)
                                                  c:/Espressif/ESP8266_SDK_210/lib\libnet80211.a(wl_cnx.o)
scan_set_desChan                                  c:/Espressif/ESP8266_SDK_210/lib\libnet80211.a(ieee80211_scan.o)
                                                  c:/Espressif/ESP8266_SDK_210/lib\libnet80211.a(wl_cnx.o)
scan_start                                        c:/Espressif/ESP8266_SDK_210/lib\libnet80211.a(ieee80211_scan.o)
                                                  c:/Espressif/ESP8266_SDK_210/lib\libnet80211.a(wl_cnx.o)
                                                  c:/Espressif/ESP8266_SDK_210/lib\libnet80211.a(ieee80211_hostap.o)
                                                  c:/Espressif/ESP8266_SDK_210/lib\libpp.a(pp.o)
scannum                                           c:/Espressif/ESP8266_SDK_210/lib\libnet80211.a(ieee80211_scan.o)
                                                  c:/Espressif/ESP8266_SDK_210/lib\libmain.a(user_interface.o)
sdt_on_noise_start                                c:/Espressif/ESP8266_SDK_210/lib\libphy.a(phy_chip_v6.o)
set_cal_rxdc                                      c:/Espressif/ESP8266_SDK_210/lib\libphy.a(phy_chip_v6.o)
set_cca                                           c:/Espressif/ESP8266_SDK_210/lib\libphy.a(phy_chip_v6.o)
set_crystal_uart                                  c:/Espressif/ESP8266_SDK_210/lib\libphy.a(phy_chip_v6.o)
set_dpd_bypass                                    c:/Espressif/ESP8266_SDK_210/lib\libphy.a(phy_chip_v6.o)
set_most_pwr_reg                                  c:/Espressif/ESP8266_SDK_210/lib\libphy.a(phy_chip_v6.o)
set_rf_freq_offset                                c:/Espressif/ESP8266_SDK_210/lib\libphy.a(phy_chip_v6_ana.o)
set_rf_gain_stage10                               c:/Espressif/ESP8266_SDK_210/lib\libphy.a(phy_chip_v6.o)
set_rfanagain_dc_reg                              c:/Espressif/ESP8266_SDK_210/lib\libphy.a(phy_chip_v6_cal.o)
                                                  c:/Espressif/ESP8266_SDK_210/lib\libphy.a(phy_chip_v6.o)
set_rx_gain_cal_iq                                c:/Espressif/ESP8266_SDK_210/lib\libphy.a(phy_chip_v6.o)
set_rx_gain_testchip_50                           c:/Espressif/ESP8266_SDK_210/lib\libphy.a(phy_chip_v6.o)
set_txcap_reg                                     c:/Espressif/ESP8266_SDK_210/lib\libphy.a(phy_chip_v6_ana.o)
                                                  c:/Espressif/ESP8266_SDK_210/lib\libphy.a(phy_chip_v6.o)
set_txdc_pbus                                     c:/Espressif/ESP8266_SDK_210/lib\libphy.a(phy_chip_v6_cal.o)
                                                  c:/Espressif/ESP8266_SDK_210/lib\libphy.a(phy_chip_v6.o)
sha1_prf                                          c:/Espressif/ESP8266_SDK_210/lib\libwpa.a(wpa_common.o)
                                                  c:/Espressif/ESP8266_SDK_210/lib\libwpa.a(wpa_auth.o)
skip_atoi                                         c:/Espressif/ESP8266_SDK_210/lib\libmain.a(eagle_lib.o)
sleep_mode_flag                                   c:/Espressif/ESP8266_SDK_210/lib\libphy.a(phy_chip_v6_ana.o)
                                                  c:/Espressif/ESP8266_SDK_210/lib\libphy.a(phy_sleep.o)
sleep_opt_8266                                    c:/Espressif/ESP8266_SDK_210/lib\libphy.a(phy_sleep.o)
sleep_opt_bb_on_8266                              c:/Espressif/ESP8266_SDK_210/lib\libphy.a(phy_sleep.o)
sleep_reset_analog_rtcreg_8266                    c:/Espressif/ESP8266_SDK_210/lib\libphy.a(phy_sleep.o)
                                                  c:/Espressif/ESP8266_SDK_210/lib\libmain.a(app_main.o)
sleep_start_wait_time                             c:/Espressif/ESP8266_SDK_210/lib\libpp.a(pp.o)
                                                  c:/Espressif/ESP8266_SDK_210/lib\libpp.a(pm.o)
soft_wdt_interval                                 c:/Espressif/ESP8266_SDK_210/lib\libpp.a(pp.o)
software_slp_reject                               c:/Espressif/ESP8266_SDK_210/lib\libphy.a(phy_sleep.o)
spi_flash_check_wr_protect                        c:/Espressif/ESP8266_SDK_210/lib\libmain.a(spi_flash.o)
spi_flash_enable_qmode                            c:/Espressif/ESP8266_SDK_210/lib\libmain.a(spi_flash.o)
spi_flash_erase_protect_disable                   c:/Espressif/ESP8266_SDK_210/lib\libmain.a(user_interface.o)
spi_flash_erase_protect_enable                    c:/Espressif/ESP8266_SDK_210/lib\libmain.a(user_interface.o)
spi_flash_erase_sector                            c:/Espressif/ESP8266_SDK_210/lib\libmain.a(spi_flash.o)
                                                  c:/Espressif/ESP8266_SDK_210/lib\libmain.a(user_interface.o)
spi_flash_erase_sector_check                      c:/Espressif/ESP8266_SDK_210/lib\libmain.a(user_interface.o)
                                                  c:/Espressif/ESP8266_SDK_210/lib\libmain.a(spi_flash.o)
spi_flash_get_id                                  c:/Espressif/ESP8266_SDK_210/lib\libmain.a(spi_flash.o)
spi_flash_get_unique_id                           c:/Espressif/ESP8266_SDK_210/lib\libmain.a(spi_flash.o)
spi_flash_issi_enable_QIO_mode                    c:/Espressif/ESP8266_SDK_210/lib\libmain.a(spi_flash.o)
spi_flash_read                                    c:/Espressif/ESP8266_SDK_210/lib\libmain.a(spi_flash.o)
                                                  c:/Espressif/ESP8266_SDK_210/lib\libpp.a(pm_for_bcn_only_mode.o)
                                                  c:/Espressif/ESP8266_SDK_210/lib\libpp.a(pm.o)
                                                  c:/Espressif/ESP8266_SDK_210/lib\libmain.a(user_interface.o)
                                                  c:/Espressif/ESP8266_SDK_210/lib\libmain.a(app_main.o)
spi_flash_read_status                             c:/Espressif/ESP8266_SDK_210/lib\libmain.a(spi_flash.o)
spi_flash_set_read_func                           c:/Espressif/ESP8266_SDK_210/lib\libmain.a(spi_flash.o)
spi_flash_write                                   c:/Espressif/ESP8266_SDK_210/lib\libmain.a(spi_flash.o)
                                                  c:/Espressif/ESP8266_SDK_210/lib\libmain.a(user_interface.o)
spi_flash_write_status                            c:/Espressif/ESP8266_SDK_210/lib\libmain.a(spi_flash.o)
sta_con_timer                                     c:/Espressif/ESP8266_SDK_210/lib\libnet80211.a(wl_cnx.o)
                                                  c:/Espressif/ESP8266_SDK_210/lib\libmain.a(user_interface.o)
sta_input                                         c:/Espressif/ESP8266_SDK_210/lib\libnet80211.a(ieee80211_sta.o)
                                                  c:/Espressif/ESP8266_SDK_210/lib\libpp.a(pp.o)
sta_status_set                                    c:/Espressif/ESP8266_SDK_210/lib\libnet80211.a(ieee80211_sta.o)
                                                  c:/Espressif/ESP8266_SDK_210/lib\libnet80211.a(wl_cnx.o)
start_dig_rx                                      c:/Espressif/ESP8266_SDK_210/lib\libphy.a(phy_chip_v6.o)
                                                  c:/Espressif/ESP8266_SDK_210/lib\libphy.a(phy_chip_v6_ana.o)
status_led_output_level                           c:/Espressif/ESP8266_SDK_210/lib\libmain.a(user_interface.o)
stdout_init                                       build/debug/app_app.a(stdout.o)
                                                  build/debug/app_app.a(user_main.o)
stop_dig_rx                                       c:/Espressif/ESP8266_SDK_210/lib\libphy.a(phy_chip_v6.o)
                                                  c:/Espressif/ESP8266_SDK_210/lib\libphy.a(phy_chip_v6_ana.o)
sw_scan_mode                                      c:/Espressif/ESP8266_SDK_210/lib\libphy.a(phy_chip_v6.o)
sys_check_timeouts                                c:/Espressif/ESP8266_SDK_210/lib\liblwip.a(timers.o)
                                                  c:/Espressif/ESP8266_SDK_210/lib\libmain.a(app_main.o)
sys_restart_timeouts                              c:/Espressif/ESP8266_SDK_210/lib\liblwip.a(timers.o)
sys_timeout                                       c:/Espressif/ESP8266_SDK_210/lib\liblwip.a(timers.o)
sys_timeouts_init                                 c:/Espressif/ESP8266_SDK_210/lib\liblwip.a(timers.o)
                                                  c:/Espressif/ESP8266_SDK_210/lib\liblwip.a(init.o)
sys_untimeout                                     c:/Espressif/ESP8266_SDK_210/lib\liblwip.a(timers.o)
system_adc_read                                   c:/Espressif/ESP8266_SDK_210/lib\libmain.a(user_interface.o)
system_adc_read_fast                              c:/Espressif/ESP8266_SDK_210/lib\libmain.a(user_interface.o)
system_deep_sleep                                 c:/Espressif/ESP8266_SDK_210/lib\libmain.a(user_interface.o)
system_deep_sleep_instant                         c:/Espressif/ESP8266_SDK_210/lib\libmain.a(user_interface.o)
system_deep_sleep_local_2                         c:/Espressif/ESP8266_SDK_210/lib\libmain.a(user_interface.o)
system_deep_sleep_set_option                      c:/Espressif/ESP8266_SDK_210/lib\libmain.a(user_interface.o)
                                                  build/debug/app_app.a(user_main.o)
system_get_boot_mode                              c:/Espressif/ESP8266_SDK_210/lib\libmain.a(user_interface.o)
system_get_boot_version                           c:/Espressif/ESP8266_SDK_210/lib\libmain.a(user_interface.o)
system_get_checksum                               c:/Espressif/ESP8266_SDK_210/lib\libmain.a(user_interface.o)
                                                  c:/Espressif/ESP8266_SDK_210/lib\libmain.a(app_main.o)
system_get_chip_id                                c:/Espressif/ESP8266_SDK_210/lib\libmain.a(user_interface.o)
system_get_cpu_freq                               c:/Espressif/ESP8266_SDK_210/lib\libmain.a(user_interface.o)
system_get_current_sumlength                      c:/Espressif/ESP8266_SDK_210/lib\libmain.a(user_interface.o)
system_get_data_of_array_16                       c:/Espressif/ESP8266_SDK_210/lib\libmain.a(user_interface.o)
system_get_data_of_array_8                        c:/Espressif/ESP8266_SDK_210/lib\libmain.a(user_interface.o)
                                                  c:/Espressif/ESP8266_SDK_210/lib\liblwip.a(tcp.o)
system_get_flash_size_map                         c:/Espressif/ESP8266_SDK_210/lib\libmain.a(user_interface.o)
                                                  build/debug/app_app.a(user_main.o)
system_get_free_heap_size                         c:/Espressif/ESP8266_SDK_210/lib\libmain.a(user_interface.o)
system_get_os_print                               c:/Espressif/ESP8266_SDK_210/lib\libmain.a(user_interface.o)
system_get_rst_info                               c:/Espressif/ESP8266_SDK_210/lib\libmain.a(user_interface.o)
system_get_rtc_time                               c:/Espressif/ESP8266_SDK_210/lib\libmain.a(user_interface.o)
system_get_sdk_version                            c:/Espressif/ESP8266_SDK_210/lib\libmain.a(user_interface.o)
                                                  build/debug/app_app.a(user_main.o)
system_get_string_from_flash                      c:/Espressif/ESP8266_SDK_210/lib\libmain.a(user_interface.o)
                                                  c:/Espressif/ESP8266_SDK_210/lib\libwpa.a(wpa_common.o)
                                                  c:/Espressif/ESP8266_SDK_210/lib\libwpa.a(wpa.o)
                                                  c:/Espressif/ESP8266_SDK_210/lib\libwpa.a(wpa_auth.o)
                                                  c:/Espressif/ESP8266_SDK_210/lib\libmain.a(mem_manager.o)
system_get_test_result                            c:/Espressif/ESP8266_SDK_210/lib\libmain.a(user_interface.o)
system_get_time                                   c:/Espressif/ESP8266_SDK_210/lib\libmain.a(user_interface.o)
                                                  c:/Espressif/ESP8266_SDK_210/lib\libmain.a(app_main.o)
system_get_userbin_addr                           c:/Espressif/ESP8266_SDK_210/lib\libmain.a(user_interface.o)
system_get_vdd33                                  c:/Espressif/ESP8266_SDK_210/lib\libmain.a(user_interface.o)
system_init_done_cb                               c:/Espressif/ESP8266_SDK_210/lib\libmain.a(user_interface.o)
                                                  build/debug/app_app.a(user_main.o)
system_mktime                                     c:/Espressif/ESP8266_SDK_210/lib\libmain.a(user_interface.o)
system_os_post                                    c:/Espressif/ESP8266_SDK_210/lib\libmain.a(user_interface.o)
system_os_task                                    c:/Espressif/ESP8266_SDK_210/lib\libmain.a(user_interface.o)
system_overclock                                  c:/Espressif/ESP8266_SDK_210/lib\libmain.a(user_interface.o)
                                                  c:/Espressif/ESP8266_SDK_210/lib\libwpa.a(wpa.o)
system_param_load                                 c:/Espressif/ESP8266_SDK_210/lib\libmain.a(user_interface.o)
system_param_save_with_protect                    c:/Espressif/ESP8266_SDK_210/lib\libmain.a(user_interface.o)
                                                  c:/Espressif/ESP8266_SDK_210/lib\libmain.a(app_main.o)
system_phy_freq_trace_enable                      c:/Espressif/ESP8266_SDK_210/lib\libmain.a(app_main.o)
system_phy_set_max_tpw                            c:/Espressif/ESP8266_SDK_210/lib\libmain.a(user_interface.o)
system_phy_set_powerup_option                     c:/Espressif/ESP8266_SDK_210/lib\libmain.a(user_interface.o)
system_phy_set_rfoption                           c:/Espressif/ESP8266_SDK_210/lib\libmain.a(user_interface.o)
                                                  build/debug/app_app.a(user_main.o)
system_phy_set_tpw_via_vdd33                      c:/Espressif/ESP8266_SDK_210/lib\libmain.a(user_interface.o)
system_phy_temperature_alert                      c:/Espressif/ESP8266_SDK_210/lib\libmain.a(user_interface.o)
system_pp_recycle_rx_pkt                          c:/Espressif/ESP8266_SDK_210/lib\libmain.a(user_interface.o)
                                                  c:/Espressif/ESP8266_SDK_210/lib\liblwip.a(pbuf.o)
system_print_meminfo                              c:/Espressif/ESP8266_SDK_210/lib\libmain.a(user_interface.o)
system_relative_time                              c:/Espressif/ESP8266_SDK_210/lib\libmain.a(user_interface.o)
system_restart                                    c:/Espressif/ESP8266_SDK_210/lib\libmain.a(user_interface.o)
system_restart_core                               c:/Espressif/ESP8266_SDK_210/lib\libmain.a(user_interface.o)
system_restart_enhance                            c:/Espressif/ESP8266_SDK_210/lib\libmain.a(user_interface.o)
system_restart_hook                               c:/Espressif/ESP8266_SDK_210/lib\libmain.a(user_interface.o)
system_restart_local                              c:/Espressif/ESP8266_SDK_210/lib\libmain.a(user_interface.o)
                                                  c:/Espressif/ESP8266_SDK_210/lib\libpp.a(pp.o)
                                                  c:/Espressif/ESP8266_SDK_210/lib\libmain.a(app_main.o)
system_restore                                    c:/Espressif/ESP8266_SDK_210/lib\libmain.a(user_interface.o)
system_restoreclock                               c:/Espressif/ESP8266_SDK_210/lib\libmain.a(user_interface.o)
                                                  c:/Espressif/ESP8266_SDK_210/lib\libwpa.a(wpa.o)
system_rtc_clock_cali_proc                        c:/Espressif/ESP8266_SDK_210/lib\libmain.a(user_interface.o)
system_rtc_mem_read                               c:/Espressif/ESP8266_SDK_210/lib\libmain.a(user_interface.o)
                                                  c:/Espressif/ESP8266_SDK_210/lib\libmain.a(app_main.o)
system_rtc_mem_write                              c:/Espressif/ESP8266_SDK_210/lib\libmain.a(user_interface.o)
                                                  c:/Espressif/ESP8266_SDK_210/lib\libpp.a(pp.o)
                                                  c:/Espressif/ESP8266_SDK_210/lib\libmain.a(app_main.o)
system_save_sys_param                             c:/Espressif/ESP8266_SDK_210/lib\libmain.a(user_interface.o)
                                                  c:/Espressif/ESP8266_SDK_210/lib\libmain.a(app_main.o)
system_set_os_print                               c:/Espressif/ESP8266_SDK_210/lib\libmain.a(user_interface.o)
system_show_malloc                                c:/Espressif/ESP8266_SDK_210/lib\libmain.a(mem_manager.o)
system_soft_wdt_feed                              c:/Espressif/ESP8266_SDK_210/lib\libpp.a(pp.o)
system_soft_wdt_restart                           c:/Espressif/ESP8266_SDK_210/lib\libpp.a(pp.o)
system_soft_wdt_stop                              c:/Espressif/ESP8266_SDK_210/lib\libpp.a(pp.o)
system_station_got_ip_set                         c:/Espressif/ESP8266_SDK_210/lib\libmain.a(user_interface.o)
                                                  c:/Espressif/ESP8266_SDK_210/lib\libwpa.a(wpa_main.o)
                                                  c:/Espressif/ESP8266_SDK_210/lib\liblwip.a(dhcp.o)
system_timer_reinit                               c:/Espressif/ESP8266_SDK_210/lib\libmain.a(user_interface.o)
system_uart_de_swap                               c:/Espressif/ESP8266_SDK_210/lib\libmain.a(user_interface.o)
                                                  c:/Espressif/ESP8266_SDK_210/lib\libmain.a(app_main.o)
system_uart_swap                                  c:/Espressif/ESP8266_SDK_210/lib\libmain.a(user_interface.o)
                                                  c:/Espressif/ESP8266_SDK_210/lib\libmain.a(app_main.o)
system_update_cpu_freq                            c:/Espressif/ESP8266_SDK_210/lib\libmain.a(user_interface.o)
system_upgrade_flag_check                         c:/Espressif/ESP8266_SDK_210/lib\libmain.a(user_interface.o)
system_upgrade_flag_set                           c:/Espressif/ESP8266_SDK_210/lib\libmain.a(user_interface.o)
system_upgrade_reboot                             c:/Espressif/ESP8266_SDK_210/lib\libmain.a(user_interface.o)
system_upgrade_userbin_check                      c:/Espressif/ESP8266_SDK_210/lib\libmain.a(user_interface.o)
system_upgrade_userbin_set                        c:/Espressif/ESP8266_SDK_210/lib\libmain.a(user_interface.o)
target_power_add_backoff                          c:/Espressif/ESP8266_SDK_210/lib\libphy.a(phy_chip_v6.o)
target_power_backoff                              c:/Espressif/ESP8266_SDK_210/lib\libphy.a(phy_chip_v6.o)
tcb                                               c:/Espressif/ESP8266_SDK_210/lib\libpp.a(pp.o)
tcp_abandon                                       c:/Espressif/ESP8266_SDK_210/lib\liblwip.a(tcp.o)
                                                  c:/Espressif/ESP8266_SDK_210/lib\liblwip.a(tcp_in.o)
                                                  c:/Espressif/ESP8266_SDK_210/lib\liblwip.a(espconn_tcp.o)
tcp_abort                                         c:/Espressif/ESP8266_SDK_210/lib\liblwip.a(tcp.o)
                                                  c:/Espressif/ESP8266_SDK_210/lib\liblwip.a(tcp_in.o)
                                                  c:/Espressif/ESP8266_SDK_210/lib\liblwip.a(netif.o)
                                                  c:/Espressif/ESP8266_SDK_210/lib\liblwip.a(espconn_tcp.o)
tcp_accept                                        c:/Espressif/ESP8266_SDK_210/lib\liblwip.a(tcp.o)
                                                  c:/Espressif/ESP8266_SDK_210/lib\liblwip.a(espconn_tcp.o)
tcp_active_pcbs                                   c:/Espressif/ESP8266_SDK_210/lib\liblwip.a(tcp.o)
                                                  c:/Espressif/ESP8266_SDK_210/lib\liblwip.a(timers.o)
                                                  c:/Espressif/ESP8266_SDK_210/lib\liblwip.a(tcp_in.o)
                                                  c:/Espressif/ESP8266_SDK_210/lib\liblwip.a(pbuf.o)
                                                  c:/Espressif/ESP8266_SDK_210/lib\liblwip.a(netif.o)
                                                  c:/Espressif/ESP8266_SDK_210/lib\liblwip.a(espconn_tcp.o)
tcp_alloc                                         c:/Espressif/ESP8266_SDK_210/lib\liblwip.a(tcp.o)
                                                  c:/Espressif/ESP8266_SDK_210/lib\liblwip.a(tcp_in.o)
tcp_arg                                           c:/Espressif/ESP8266_SDK_210/lib\liblwip.a(tcp.o)
                                                  c:/Espressif/ESP8266_SDK_210/lib\liblwip.a(espconn_tcp.o)
tcp_backoff                                       c:/Espressif/ESP8266_SDK_210/lib\liblwip.a(tcp.o)
tcp_bind                                          c:/Espressif/ESP8266_SDK_210/lib\liblwip.a(tcp.o)
                                                  c:/Espressif/ESP8266_SDK_210/lib\liblwip.a(espconn_tcp.o)
tcp_bound_pcbs                                    c:/Espressif/ESP8266_SDK_210/lib\liblwip.a(tcp.o)
tcp_close                                         c:/Espressif/ESP8266_SDK_210/lib\liblwip.a(tcp.o)
                                                  c:/Espressif/ESP8266_SDK_210/lib\liblwip.a(espconn_tcp.o)
tcp_connect                                       c:/Espressif/ESP8266_SDK_210/lib\liblwip.a(tcp.o)
                                                  c:/Espressif/ESP8266_SDK_210/lib\liblwip.a(espconn_tcp.o)
tcp_eff_send_mss                                  c:/Espressif/ESP8266_SDK_210/lib\liblwip.a(tcp.o)
                                                  c:/Espressif/ESP8266_SDK_210/lib\liblwip.a(tcp_in.o)
tcp_enqueue_flags                                 c:/Espressif/ESP8266_SDK_210/lib\liblwip.a(tcp_out.o)
                                                  c:/Espressif/ESP8266_SDK_210/lib\liblwip.a(tcp.o)
                                                  c:/Espressif/ESP8266_SDK_210/lib\liblwip.a(tcp_in.o)
tcp_err                                           c:/Espressif/ESP8266_SDK_210/lib\liblwip.a(tcp.o)
                                                  c:/Espressif/ESP8266_SDK_210/lib\liblwip.a(espconn_tcp.o)
tcp_fasttmr                                       c:/Espressif/ESP8266_SDK_210/lib\liblwip.a(tcp.o)
tcp_input                                         c:/Espressif/ESP8266_SDK_210/lib\liblwip.a(tcp_in.o)
                                                  c:/Espressif/ESP8266_SDK_210/lib\liblwip.a(ip.o)
tcp_input_pcb                                     c:/Espressif/ESP8266_SDK_210/lib\liblwip.a(tcp_in.o)
                                                  c:/Espressif/ESP8266_SDK_210/lib\liblwip.a(tcp_out.o)
tcp_keepalive                                     c:/Espressif/ESP8266_SDK_210/lib\liblwip.a(tcp_out.o)
                                                  c:/Espressif/ESP8266_SDK_210/lib\liblwip.a(tcp.o)
tcp_listen_pcbs                                   c:/Espressif/ESP8266_SDK_210/lib\liblwip.a(tcp.o)
                                                  c:/Espressif/ESP8266_SDK_210/lib\liblwip.a(tcp_in.o)
                                                  c:/Espressif/ESP8266_SDK_210/lib\liblwip.a(netif.o)
tcp_listen_with_backlog                           c:/Espressif/ESP8266_SDK_210/lib\liblwip.a(tcp.o)
                                                  c:/Espressif/ESP8266_SDK_210/lib\liblwip.a(espconn_tcp.o)
tcp_new                                           c:/Espressif/ESP8266_SDK_210/lib\liblwip.a(tcp.o)
                                                  c:/Espressif/ESP8266_SDK_210/lib\liblwip.a(espconn_tcp.o)
tcp_next_iss                                      c:/Espressif/ESP8266_SDK_210/lib\liblwip.a(tcp.o)
tcp_output                                        c:/Espressif/ESP8266_SDK_210/lib\liblwip.a(tcp_out.o)
                                                  c:/Espressif/ESP8266_SDK_210/lib\liblwip.a(tcp.o)
                                                  c:/Espressif/ESP8266_SDK_210/lib\liblwip.a(tcp_in.o)
                                                  c:/Espressif/ESP8266_SDK_210/lib\liblwip.a(espconn_tcp.o)
tcp_pcb_lists                                     c:/Espressif/ESP8266_SDK_210/lib\liblwip.a(tcp.o)
                                                  c:/Espressif/ESP8266_SDK_210/lib\liblwip.a(espconn_tcp.o)
tcp_pcb_purge                                     c:/Espressif/ESP8266_SDK_210/lib\liblwip.a(tcp.o)
                                                  c:/Espressif/ESP8266_SDK_210/lib\liblwip.a(tcp_in.o)
                                                  c:/Espressif/ESP8266_SDK_210/lib\liblwip.a(espconn_tcp.o)
tcp_pcb_remove                                    c:/Espressif/ESP8266_SDK_210/lib\liblwip.a(tcp.o)
                                                  c:/Espressif/ESP8266_SDK_210/lib\liblwip.a(tcp_in.o)
                                                  c:/Espressif/ESP8266_SDK_210/lib\liblwip.a(espconn_tcp.o)
tcp_persist_backoff                               c:/Espressif/ESP8266_SDK_210/lib\liblwip.a(tcp.o)
tcp_poll                                          c:/Espressif/ESP8266_SDK_210/lib\liblwip.a(tcp.o)
                                                  c:/Espressif/ESP8266_SDK_210/lib\liblwip.a(espconn_tcp.o)
tcp_recv                                          c:/Espressif/ESP8266_SDK_210/lib\liblwip.a(tcp.o)
                                                  c:/Espressif/ESP8266_SDK_210/lib\liblwip.a(espconn_tcp.o)
tcp_recv_null                                     c:/Espressif/ESP8266_SDK_210/lib\liblwip.a(tcp.o)
                                                  c:/Espressif/ESP8266_SDK_210/lib\liblwip.a(tcp_in.o)
tcp_recved                                        c:/Espressif/ESP8266_SDK_210/lib\liblwip.a(tcp.o)
                                                  c:/Espressif/ESP8266_SDK_210/lib\liblwip.a(espconn_tcp.o)
tcp_rexmit                                        c:/Espressif/ESP8266_SDK_210/lib\liblwip.a(tcp_out.o)
                                                  c:/Espressif/ESP8266_SDK_210/lib\liblwip.a(tcp_in.o)
tcp_rexmit_fast                                   c:/Espressif/ESP8266_SDK_210/lib\liblwip.a(tcp_out.o)
                                                  c:/Espressif/ESP8266_SDK_210/lib\liblwip.a(tcp_in.o)
tcp_rexmit_rto                                    c:/Espressif/ESP8266_SDK_210/lib\liblwip.a(tcp_out.o)
                                                  c:/Espressif/ESP8266_SDK_210/lib\liblwip.a(tcp.o)
tcp_rst                                           c:/Espressif/ESP8266_SDK_210/lib\liblwip.a(tcp_out.o)
                                                  c:/Espressif/ESP8266_SDK_210/lib\liblwip.a(tcp.o)
                                                  c:/Espressif/ESP8266_SDK_210/lib\liblwip.a(tcp_in.o)
tcp_seg_copy                                      c:/Espressif/ESP8266_SDK_210/lib\liblwip.a(tcp.o)
                                                  c:/Espressif/ESP8266_SDK_210/lib\liblwip.a(tcp_in.o)
tcp_seg_free                                      c:/Espressif/ESP8266_SDK_210/lib\liblwip.a(tcp.o)
                                                  c:/Espressif/ESP8266_SDK_210/lib\liblwip.a(tcp_out.o)
                                                  c:/Espressif/ESP8266_SDK_210/lib\liblwip.a(tcp_in.o)
                                                  c:/Espressif/ESP8266_SDK_210/lib\liblwip.a(pbuf.o)
tcp_segs_free                                     c:/Espressif/ESP8266_SDK_210/lib\liblwip.a(tcp.o)
                                                  c:/Espressif/ESP8266_SDK_210/lib\liblwip.a(tcp_out.o)
                                                  c:/Espressif/ESP8266_SDK_210/lib\liblwip.a(tcp_in.o)
tcp_send_empty_ack                                c:/Espressif/ESP8266_SDK_210/lib\liblwip.a(tcp_out.o)
                                                  c:/Espressif/ESP8266_SDK_210/lib\liblwip.a(tcp_in.o)
tcp_send_fin                                      c:/Espressif/ESP8266_SDK_210/lib\liblwip.a(tcp_out.o)
                                                  c:/Espressif/ESP8266_SDK_210/lib\liblwip.a(tcp.o)
tcp_sent                                          c:/Espressif/ESP8266_SDK_210/lib\liblwip.a(tcp.o)
                                                  c:/Espressif/ESP8266_SDK_210/lib\liblwip.a(espconn_tcp.o)
tcp_setprio                                       c:/Espressif/ESP8266_SDK_210/lib\liblwip.a(tcp.o)
tcp_shutdown                                      c:/Espressif/ESP8266_SDK_210/lib\liblwip.a(tcp.o)
tcp_slowtmr                                       c:/Espressif/ESP8266_SDK_210/lib\liblwip.a(tcp.o)
tcp_ticks                                         c:/Espressif/ESP8266_SDK_210/lib\liblwip.a(tcp.o)
                                                  c:/Espressif/ESP8266_SDK_210/lib\liblwip.a(tcp_out.o)
                                                  c:/Espressif/ESP8266_SDK_210/lib\liblwip.a(tcp_in.o)
                                                  c:/Espressif/ESP8266_SDK_210/lib\liblwip.a(espconn_tcp.o)
tcp_timer_needed                                  c:/Espressif/ESP8266_SDK_210/lib\liblwip.a(timers.o)
                                                  c:/Espressif/ESP8266_SDK_210/lib\liblwip.a(tcp.o)
                                                  c:/Espressif/ESP8266_SDK_210/lib\liblwip.a(tcp_in.o)
tcp_tmp_pcb                                       c:/Espressif/ESP8266_SDK_210/lib\liblwip.a(tcp.o)
                                                  c:/Espressif/ESP8266_SDK_210/lib\liblwip.a(tcp_in.o)
tcp_tmr                                           c:/Espressif/ESP8266_SDK_210/lib\liblwip.a(tcp.o)
                                                  c:/Espressif/ESP8266_SDK_210/lib\liblwip.a(timers.o)
tcp_tw_pcbs                                       c:/Espressif/ESP8266_SDK_210/lib\liblwip.a(tcp.o)
                                                  c:/Espressif/ESP8266_SDK_210/lib\liblwip.a(timers.o)
                                                  c:/Espressif/ESP8266_SDK_210/lib\liblwip.a(tcp_in.o)
                                                  c:/Espressif/ESP8266_SDK_210/lib\liblwip.a(espconn_tcp.o)
tcp_update_rcv_ann_wnd                            c:/Espressif/ESP8266_SDK_210/lib\liblwip.a(tcp.o)
                                                  c:/Espressif/ESP8266_SDK_210/lib\liblwip.a(tcp_in.o)
tcp_write                                         c:/Espressif/ESP8266_SDK_210/lib\liblwip.a(tcp_out.o)
                                                  c:/Espressif/ESP8266_SDK_210/lib\liblwip.a(espconn_tcp.o)
tcp_zero_window_probe                             c:/Espressif/ESP8266_SDK_210/lib\liblwip.a(tcp_out.o)
                                                  c:/Espressif/ESP8266_SDK_210/lib\liblwip.a(tcp.o)
test_freq_val_first                               c:/Espressif/ESP8266_SDK_210/lib\libpp.a(pp.o)
                                                  c:/Espressif/ESP8266_SDK_210/lib\libnet80211.a(ieee80211_hostap.o)
test_freq_val_force_flag                          c:/Espressif/ESP8266_SDK_210/lib\libpp.a(pp.o)
                                                  c:/Espressif/ESP8266_SDK_210/lib\libnet80211.a(ieee80211_scan.o)
                                                  c:/Espressif/ESP8266_SDK_210/lib\libnet80211.a(ieee80211_hostap.o)
test_print_time                                   c:/Espressif/ESP8266_SDK_210/lib\libphy.a(phy_chip_v6.o)
test_rffreq_txcap                                 c:/Espressif/ESP8266_SDK_210/lib\libphy.a(phy_chip_v6.o)
test_tout                                         c:/Espressif/ESP8266_SDK_210/lib\libphy.a(phy_chip_v6_ana.o)
                                                  c:/Espressif/ESP8266_SDK_210/lib\libmain.a(user_interface.o)
timer2_ms_flag                                    c:/Espressif/ESP8266_SDK_210/lib\libmain.a(user_interface.o)
                                                  c:/Espressif/ESP8266_SDK_210/lib\liblwip.a(timers.o)
                                                  c:/Espressif/ESP8266_SDK_210/lib\libpp.a(pm_for_bcn_only_mode.o)
                                                  c:/Espressif/ESP8266_SDK_210/lib\libpp.a(pm.o)
                                                  c:/Espressif/ESP8266_SDK_210/lib\libmain.a(ets_timer.o)
timer_list                                        c:/Espressif/ESP8266_SDK_210/lib\libmain.a(ets_timer.o)
                                                  c:/Espressif/ESP8266_SDK_210/lib\libpp.a(pm_for_bcn_only_mode.o)
                                                  c:/Espressif/ESP8266_SDK_210/lib\libpp.a(pm.o)
tkip                                              c:/Espressif/ESP8266_SDK_210/lib\libnet80211.a(ieee80211_crypto_tkip.o)
                                                  c:/Espressif/ESP8266_SDK_210/lib\libwpa.a(wpa_main.o)
                                                  c:/Espressif/ESP8266_SDK_210/lib\libwpa.a(wpa_auth.o)
total_buffed_eb_num                               c:/Espressif/ESP8266_SDK_210/lib\libpp.a(pp.o)
                                                  c:/Espressif/ESP8266_SDK_210/lib\libnet80211.a(ieee80211_hostap.o)
tout_dis_txpwr_track                              c:/Espressif/ESP8266_SDK_210/lib\libphy.a(phy_chip_v6_ana.o)
                                                  c:/Espressif/ESP8266_SDK_210/lib\libphy.a(phy_chip_v6_cal.o)
trc_NeedRTS                                       c:/Espressif/ESP8266_SDK_210/lib\libpp.a(trc.o)
trc_onDisconnect                                  c:/Espressif/ESP8266_SDK_210/lib\libpp.a(trc.o)
trc_onScanDone                                    c:/Espressif/ESP8266_SDK_210/lib\libpp.a(trc.o)
trc_onScanStart                                   c:/Espressif/ESP8266_SDK_210/lib\libpp.a(trc.o)
tsen_meas                                         c:/Espressif/ESP8266_SDK_210/lib\libphy.a(phy_chip_v6_ana.o)
tx_atten_set_interp                               c:/Espressif/ESP8266_SDK_210/lib\libphy.a(phy_chip_v6.o)
                                                  c:/Espressif/ESP8266_SDK_210/lib\libphy.a(phy_chip_v6_cal.o)
                                                  c:/Espressif/ESP8266_SDK_210/lib\libphy.a(phy_chip_v6_ana.o)
tx_cap_init                                       c:/Espressif/ESP8266_SDK_210/lib\libphy.a(phy_chip_v6.o)
tx_cont_cfg                                       c:/Espressif/ESP8266_SDK_210/lib\libphy.a(phy_chip_v6.o)
tx_cont_dis                                       c:/Espressif/ESP8266_SDK_210/lib\libphy.a(phy_chip_v6.o)
tx_cont_en                                        c:/Espressif/ESP8266_SDK_210/lib\libphy.a(phy_chip_v6.o)
tx_data1                                          c:/Espressif/ESP8266_SDK_210/lib\libphy.a(phy_chip_v6.o)
tx_data2                                          c:/Espressif/ESP8266_SDK_210/lib\libphy.a(phy_chip_v6.o)
tx_data3                                          c:/Espressif/ESP8266_SDK_210/lib\libphy.a(phy_chip_v6.o)
tx_data4                                          c:/Espressif/ESP8266_SDK_210/lib\libphy.a(phy_chip_v6.o)
tx_pwctrl_background                              c:/Espressif/ESP8266_SDK_210/lib\libphy.a(phy_chip_v6_cal.o)
                                                  c:/Espressif/ESP8266_SDK_210/lib\libpp.a(pp.o)
tx_pwctrl_bg_init                                 c:/Espressif/ESP8266_SDK_210/lib\libphy.a(phy_chip_v6_cal.o)
                                                  c:/Espressif/ESP8266_SDK_210/lib\libphy.a(phy_chip_v6.o)
tx_pwctrl_cal                                     c:/Espressif/ESP8266_SDK_210/lib\libphy.a(phy_chip_v6_cal.o)
tx_pwctrl_init                                    c:/Espressif/ESP8266_SDK_210/lib\libphy.a(phy_chip_v6.o)
tx_pwctrl_init_cal                                c:/Espressif/ESP8266_SDK_210/lib\libphy.a(phy_chip_v6.o)
tx_pwctrl_pk_num                                  c:/Espressif/ESP8266_SDK_210/lib\libphy.a(phy_chip_v6_cal.o)
tx_pwctrl_track_num                               c:/Espressif/ESP8266_SDK_210/lib\libphy.a(phy_chip_v6_cal.o)
tx_pwr_backoff                                    c:/Espressif/ESP8266_SDK_210/lib\libphy.a(phy_chip_v6_cal.o)
                                                  c:/Espressif/ESP8266_SDK_210/lib\libphy.a(phy_chip_v6.o)
tx_pwr_backoff_old                                c:/Espressif/ESP8266_SDK_210/lib\libphy.a(phy_chip_v6_cal.o)
tx_rf_ana_gain                                    c:/Espressif/ESP8266_SDK_210/lib\libphy.a(phy_chip_v6.o)
                                                  c:/Espressif/ESP8266_SDK_210/lib\libphy.a(phy_chip_v6_cal.o)
txbbgain2dcoindex                                 c:/Espressif/ESP8266_SDK_210/lib\libphy.a(phy_chip_v6_cal.o)
txbk_dpdby_flag                                   c:/Espressif/ESP8266_SDK_210/lib\libphy.a(phy_chip_v6.o)
txiq_cover                                        c:/Espressif/ESP8266_SDK_210/lib\libphy.a(phy_chip_v6_cal.o)
txiq_get_mis_pwr                                  c:/Espressif/ESP8266_SDK_210/lib\libphy.a(phy_chip_v6_cal.o)
txpwr_offset                                      c:/Espressif/ESP8266_SDK_210/lib\libphy.a(phy_chip_v6_ana.o)
                                                  c:/Espressif/ESP8266_SDK_210/lib\libphy.a(phy_chip_v6.o)
uart_buff_switch                                  c:/Espressif/ESP8266_SDK_210/lib\libphy.a(phy_chip_v6.o)
uart_div_modify                                   c:/Espressif/ESP8266_SDK_210/lib\libmain.a(app_main.o)
                                                  build/debug/app_app.a(stdout.o)
uart_tx_flush                                     c:/Espressif/ESP8266_SDK_210/lib\libpp.a(pm.o)
                                                  c:/Espressif/ESP8266_SDK_210/lib\libphy.a(phy_chip_v6.o)
uart_wait_idle                                    c:/Espressif/ESP8266_SDK_210/lib\libphy.a(phy_chip_v6.o)
udp_bind                                          c:/Espressif/ESP8266_SDK_210/lib\liblwip.a(udp.o)
                                                  c:/Espressif/ESP8266_SDK_210/lib\liblwip.a(espconn_udp.o)
                                                  c:/Espressif/ESP8266_SDK_210/lib\liblwip.a(dns.o)
                                                  c:/Espressif/ESP8266_SDK_210/lib\liblwip.a(dhcpserver.o)
                                                  c:/Espressif/ESP8266_SDK_210/lib\liblwip.a(dhcp.o)
udp_connect                                       c:/Espressif/ESP8266_SDK_210/lib\liblwip.a(udp.o)
                                                  c:/Espressif/ESP8266_SDK_210/lib\liblwip.a(dns.o)
                                                  c:/Espressif/ESP8266_SDK_210/lib\liblwip.a(dhcp.o)
udp_disconnect                                    c:/Espressif/ESP8266_SDK_210/lib\liblwip.a(udp.o)
                                                  c:/Espressif/ESP8266_SDK_210/lib\liblwip.a(espconn_udp.o)
                                                  c:/Espressif/ESP8266_SDK_210/lib\liblwip.a(dhcpserver.o)
udp_input                                         c:/Espressif/ESP8266_SDK_210/lib\liblwip.a(udp.o)
                                                  c:/Espressif/ESP8266_SDK_210/lib\liblwip.a(ip.o)
udp_new                                           c:/Espressif/ESP8266_SDK_210/lib\liblwip.a(udp.o)
                                                  c:/Espressif/ESP8266_SDK_210/lib\liblwip.a(espconn_udp.o)
                                                  c:/Espressif/ESP8266_SDK_210/lib\liblwip.a(dns.o)
                                                  c:/Espressif/ESP8266_SDK_210/lib\liblwip.a(dhcpserver.o)
                                                  c:/Espressif/ESP8266_SDK_210/lib\liblwip.a(dhcp.o)
udp_pcbs                                          c:/Espressif/ESP8266_SDK_210/lib\liblwip.a(udp.o)
udp_recv                                          c:/Espressif/ESP8266_SDK_210/lib\liblwip.a(udp.o)
                                                  c:/Espressif/ESP8266_SDK_210/lib\liblwip.a(espconn_udp.o)
                                                  c:/Espressif/ESP8266_SDK_210/lib\liblwip.a(dns.o)
                                                  c:/Espressif/ESP8266_SDK_210/lib\liblwip.a(dhcpserver.o)
                                                  c:/Espressif/ESP8266_SDK_210/lib\liblwip.a(dhcp.o)
udp_remove                                        c:/Espressif/ESP8266_SDK_210/lib\liblwip.a(udp.o)
                                                  c:/Espressif/ESP8266_SDK_210/lib\liblwip.a(espconn_udp.o)
                                                  c:/Espressif/ESP8266_SDK_210/lib\liblwip.a(dhcpserver.o)
                                                  c:/Espressif/ESP8266_SDK_210/lib\liblwip.a(dhcp.o)
udp_send                                          c:/Espressif/ESP8266_SDK_210/lib\liblwip.a(udp.o)
                                                  c:/Espressif/ESP8266_SDK_210/lib\liblwip.a(espconn_udp.o)
udp_sendto                                        c:/Espressif/ESP8266_SDK_210/lib\liblwip.a(udp.o)
                                                  c:/Espressif/ESP8266_SDK_210/lib\liblwip.a(espconn_udp.o)
                                                  c:/Espressif/ESP8266_SDK_210/lib\liblwip.a(dns.o)
                                                  c:/Espressif/ESP8266_SDK_210/lib\liblwip.a(dhcpserver.o)
udp_sendto_if                                     c:/Espressif/ESP8266_SDK_210/lib\liblwip.a(udp.o)
                                                  c:/Espressif/ESP8266_SDK_210/lib\liblwip.a(dhcp.o)
unregister_ieee80211_action_vendor_get_key_cb     c:/Espressif/ESP8266_SDK_210/lib\libnet80211.a(ieee80211_action_vendor.o)
unregister_ieee80211_action_vendor_spec_cb        c:/Espressif/ESP8266_SDK_210/lib\libnet80211.a(ieee80211_action_vendor.o)
unregister_ieee80211_rfid_locp_recv_cb            c:/Espressif/ESP8266_SDK_210/lib\libnet80211.a(ieee80211_rfid.o)
                                                  c:/Espressif/ESP8266_SDK_210/lib\libmain.a(user_interface.o)
unsign_to_sign                                    c:/Espressif/ESP8266_SDK_210/lib\libphy.a(phy_chip_v6_cal.o)
user_init                                         build/debug/app_app.a(user_main.o)
                                                  c:/Espressif/ESP8266_SDK_210/lib\libmain.a(app_main.o)
user_init_flag                                    c:/Espressif/ESP8266_SDK_210/lib\libmain.a(app_main.o)
                                                  c:/Espressif/ESP8266_SDK_210/lib\libmain.a(user_interface.o)
user_rf_cal_sector_set                            build/debug/app_app.a(user_main.o)
                                                  c:/Espressif/ESP8266_SDK_210/lib\libmain.a(app_main.o)
user_rf_pre_init                                  build/debug/app_app.a(user_main.o)
                                                  c:/Espressif/ESP8266_SDK_210/lib\libmain.a(app_main.o)
user_spi_flash_dio_to_qio_pre_init                c:/Espressif/ESP8266_SDK_210/lib\libmain.a(spi_flash.o)
                                                  c:/Espressif/ESP8266_SDK_210/lib\libmain.a(app_main.o)
user_uart_wait_tx_fifo_empty                      c:/Espressif/ESP8266_SDK_210/lib\libmain.a(app_main.o)
                                                  c:/Espressif/ESP8266_SDK_210/lib\libmain.a(user_interface.o)
vPortFree                                         c:/Espressif/ESP8266_SDK_210/lib\libmain.a(mem_manager.o)
                                                  c:/Espressif/ESP8266_SDK_210/lib\libcrypto.a(aes-internal-enc.o)
                                                  c:/Espressif/ESP8266_SDK_210/lib\libwpa.a(wpa_main.o)
                                                  c:/Espressif/ESP8266_SDK_210/lib\libwpa.a(wpa_auth_ie.o)
                                                  c:/Espressif/ESP8266_SDK_210/lib\libwpa.a(wpa_auth.o)
                                                  c:/Espressif/ESP8266_SDK_210/lib\libwpa.a(common.o)
                                                  c:/Espressif/ESP8266_SDK_210/lib\libwpa.a(ap_config.o)
                                                  c:/Espressif/ESP8266_SDK_210/lib\liblwip.a(igmp.o)
                                                  c:/Espressif/ESP8266_SDK_210/lib\liblwip.a(espconn_udp.o)
                                                  c:/Espressif/ESP8266_SDK_210/lib\liblwip.a(espconn_buf.o)
                                                  c:/Espressif/ESP8266_SDK_210/lib\liblwip.a(udp.o)
                                                  c:/Espressif/ESP8266_SDK_210/lib\liblwip.a(timers.o)
                                                  c:/Espressif/ESP8266_SDK_210/lib\liblwip.a(tcp.o)
                                                  c:/Espressif/ESP8266_SDK_210/lib\liblwip.a(tcp_in.o)
                                                  c:/Espressif/ESP8266_SDK_210/lib\liblwip.a(raw.o)
                                                  c:/Espressif/ESP8266_SDK_210/lib\liblwip.a(pbuf.o)
                                                  c:/Espressif/ESP8266_SDK_210/lib\liblwip.a(etharp.o)
                                                  c:/Espressif/ESP8266_SDK_210/lib\liblwip.a(espconn_tcp.o)
                                                  c:/Espressif/ESP8266_SDK_210/lib\liblwip.a(dns.o)
                                                  c:/Espressif/ESP8266_SDK_210/lib\liblwip.a(dhcpserver.o)
                                                  c:/Espressif/ESP8266_SDK_210/lib\liblwip.a(dhcp.o)
                                                  c:/Espressif/ESP8266_SDK_210/lib\libnet80211.a(wl_cnx.o)
                                                  c:/Espressif/ESP8266_SDK_210/lib\libnet80211.a(ieee80211_sta.o)
                                                  c:/Espressif/ESP8266_SDK_210/lib\libnet80211.a(ieee80211_scan.o)
                                                  c:/Espressif/ESP8266_SDK_210/lib\libnet80211.a(ieee80211_regdomain.o)
                                                  c:/Espressif/ESP8266_SDK_210/lib\libnet80211.a(ieee80211_phy.o)
                                                  c:/Espressif/ESP8266_SDK_210/lib\libnet80211.a(ieee80211_output.o)
                                                  c:/Espressif/ESP8266_SDK_210/lib\libnet80211.a(ieee80211_mesh_quick.o)
                                                  c:/Espressif/ESP8266_SDK_210/lib\libnet80211.a(ieee80211_hostap.o)
                                                  c:/Espressif/ESP8266_SDK_210/lib\libnet80211.a(ieee80211.o)
                                                  c:/Espressif/ESP8266_SDK_210/lib\libpp.a(esf_buf.o)
                                                  c:/Espressif/ESP8266_SDK_210/lib\libpp.a(wdev.o)
                                                  c:/Espressif/ESP8266_SDK_210/lib\libpp.a(pp.o)
                                                  c:/Espressif/ESP8266_SDK_210/lib\libpp.a(pm_for_bcn_only_mode.o)
                                                  c:/Espressif/ESP8266_SDK_210/lib\libpp.a(pm.o)
                                                  c:/Espressif/ESP8266_SDK_210/lib\libmain.a(eagle_lwip_if.o)
                                                  c:/Espressif/ESP8266_SDK_210/lib\libmain.a(user_interface.o)
                                                  c:/Espressif/ESP8266_SDK_210/lib\libmain.a(app_main.o)
vPortInitialiseBlocks                             c:/Espressif/ESP8266_SDK_210/lib\libmain.a(mem_manager.o)
version                                           build/debug/app_app.a(user_main.o)
wDevCtrl                                          c:/Espressif/ESP8266_SDK_210/lib\libpp.a(wdev.o)
                                                  c:/Espressif/ESP8266_SDK_210/lib\libpp.a(esf_buf.o)
                                                  c:/Espressif/ESP8266_SDK_210/lib\libpp.a(pp.o)
wDevDisableRx                                     c:/Espressif/ESP8266_SDK_210/lib\libpp.a(wdev.o)
                                                  c:/Espressif/ESP8266_SDK_210/lib\libnet80211.a(ieee80211_hostap.o)
                                                  c:/Espressif/ESP8266_SDK_210/lib\libpp.a(if_hwctrl.o)
                                                  c:/Espressif/ESP8266_SDK_210/lib\libmain.a(user_interface.o)
wDevEnableRx                                      c:/Espressif/ESP8266_SDK_210/lib\libpp.a(wdev.o)
                                                  c:/Espressif/ESP8266_SDK_210/lib\libpp.a(if_hwctrl.o)
                                                  c:/Espressif/ESP8266_SDK_210/lib\libmain.a(user_interface.o)
                                                  c:/Espressif/ESP8266_SDK_210/lib\libmain.a(app_main.o)
wDevForceAck6M                                    c:/Espressif/ESP8266_SDK_210/lib\libpp.a(wdev.o)
wDev_AppendRxAmpduLensBlocks                      c:/Espressif/ESP8266_SDK_210/lib\libpp.a(wdev.o)
wDev_AppendRxBlocks                               c:/Espressif/ESP8266_SDK_210/lib\libpp.a(wdev.o)
                                                  c:/Espressif/ESP8266_SDK_210/lib\libpp.a(pp.o)
wDev_ClearBssid                                   c:/Espressif/ESP8266_SDK_210/lib\libpp.a(wdev.o)
wDev_ClearTxqCollisions                           c:/Espressif/ESP8266_SDK_210/lib\libpp.a(wdev.o)
                                                  c:/Espressif/ESP8266_SDK_210/lib\libpp.a(lmac.o)
wDev_ClearWaitingQueue                            c:/Espressif/ESP8266_SDK_210/lib\libpp.a(wdev.o)
                                                  c:/Espressif/ESP8266_SDK_210/lib\libpp.a(lmac.o)
wDev_Crypto_Conf                                  c:/Espressif/ESP8266_SDK_210/lib\libpp.a(wdev.o)
                                                  c:/Espressif/ESP8266_SDK_210/lib\libpp.a(if_hwctrl.o)
wDev_Crypto_Disable                               c:/Espressif/ESP8266_SDK_210/lib\libpp.a(wdev.o)
                                                  c:/Espressif/ESP8266_SDK_210/lib\libpp.a(if_hwctrl.o)
wDev_DisableTransmit                              c:/Espressif/ESP8266_SDK_210/lib\libpp.a(wdev.o)
wDev_DisableUcRx                                  c:/Espressif/ESP8266_SDK_210/lib\libpp.a(wdev.o)
                                                  c:/Espressif/ESP8266_SDK_210/lib\libnet80211.a(ieee80211_sta.o)
                                                  c:/Espressif/ESP8266_SDK_210/lib\libnet80211.a(ieee80211_hostap.o)
wDev_Disable_Beacon_Tsf                           c:/Espressif/ESP8266_SDK_210/lib\libpp.a(wdev.o)
wDev_EnableTransmit                               c:/Espressif/ESP8266_SDK_210/lib\libpp.a(wdev.o)
                                                  c:/Espressif/ESP8266_SDK_210/lib\libpp.a(lmac.o)
wDev_EnableUcRx                                   c:/Espressif/ESP8266_SDK_210/lib\libpp.a(wdev.o)
                                                  c:/Espressif/ESP8266_SDK_210/lib\libnet80211.a(ieee80211_sta.o)
                                                  c:/Espressif/ESP8266_SDK_210/lib\libnet80211.a(ieee80211_hostap.o)
wDev_Enable_Beacon_Tsf                            c:/Espressif/ESP8266_SDK_210/lib\libpp.a(wdev.o)
wDev_GetBAInfo                                    c:/Espressif/ESP8266_SDK_210/lib\libpp.a(wdev.o)
                                                  c:/Espressif/ESP8266_SDK_210/lib\libpp.a(lmac.o)
wDev_GetTxqCollisions                             c:/Espressif/ESP8266_SDK_210/lib\libpp.a(wdev.o)
                                                  c:/Espressif/ESP8266_SDK_210/lib\libpp.a(lmac.o)
wDev_Get_Next_TBTT                                c:/Espressif/ESP8266_SDK_210/lib\libpp.a(wdev.o)
                                                  c:/Espressif/ESP8266_SDK_210/lib\libnet80211.a(ieee80211_hostap.o)
wDev_Initialize                                   c:/Espressif/ESP8266_SDK_210/lib\libpp.a(wdev.o)
                                                  c:/Espressif/ESP8266_SDK_210/lib\libmain.a(app_main.o)
wDev_Insert_KeyEntry                              c:/Espressif/ESP8266_SDK_210/lib\libpp.a(wdev.o)
                                                  c:/Espressif/ESP8266_SDK_210/lib\libpp.a(if_hwctrl.o)
wDev_Is_Mac_Key_Exist                             c:/Espressif/ESP8266_SDK_210/lib\libpp.a(wdev.o)
wDev_MacTim1Arm                                   c:/Espressif/ESP8266_SDK_210/lib\libpp.a(wdev.o)
                                                  c:/Espressif/ESP8266_SDK_210/lib\libpp.a(pp.o)
wDev_MacTim1SetFunc                               c:/Espressif/ESP8266_SDK_210/lib\libpp.a(wdev.o)
                                                  c:/Espressif/ESP8266_SDK_210/lib\libpp.a(pp.o)
wDev_Option_Init                                  c:/Espressif/ESP8266_SDK_210/lib\libpp.a(wdev.o)
wDev_ProcessCollision                             c:/Espressif/ESP8266_SDK_210/lib\libpp.a(wdev.o)
                                                  c:/Espressif/ESP8266_SDK_210/lib\libpp.a(lmac.o)
wDev_ProcessFiq                                   c:/Espressif/ESP8266_SDK_210/lib\libpp.a(wdev.o)
                                                  c:/Espressif/ESP8266_SDK_210/lib\libmain.a(app_main.o)
wDev_Reset_TBTT                                   c:/Espressif/ESP8266_SDK_210/lib\libpp.a(wdev.o)
                                                  c:/Espressif/ESP8266_SDK_210/lib\libnet80211.a(ieee80211_hostap.o)
wDev_SetBssid                                     c:/Espressif/ESP8266_SDK_210/lib\libpp.a(wdev.o)
wDev_SetFrameAckType                              c:/Espressif/ESP8266_SDK_210/lib\libpp.a(wdev.o)
                                                  c:/Espressif/ESP8266_SDK_210/lib\libpp.a(lmac.o)
wDev_SetMacAddress                                c:/Espressif/ESP8266_SDK_210/lib\libpp.a(wdev.o)
                                                  c:/Espressif/ESP8266_SDK_210/lib\libpp.a(if_hwctrl.o)
                                                  c:/Espressif/ESP8266_SDK_210/lib\libmain.a(user_interface.o)
wDev_SetRxPolicy                                  c:/Espressif/ESP8266_SDK_210/lib\libpp.a(wdev.o)
                                                  c:/Espressif/ESP8266_SDK_210/lib\libnet80211.a(wl_cnx.o)
                                                  c:/Espressif/ESP8266_SDK_210/lib\libnet80211.a(ieee80211_scan.o)
                                                  c:/Espressif/ESP8266_SDK_210/lib\libnet80211.a(ieee80211_hostap.o)
                                                  c:/Espressif/ESP8266_SDK_210/lib\libpp.a(if_hwctrl.o)
wDev_SetWaitingQueue                              c:/Espressif/ESP8266_SDK_210/lib\libpp.a(wdev.o)
                                                  c:/Espressif/ESP8266_SDK_210/lib\libpp.a(lmac.o)
wDev_Set_Beacon_Int                               c:/Espressif/ESP8266_SDK_210/lib\libpp.a(wdev.o)
                                                  c:/Espressif/ESP8266_SDK_210/lib\libnet80211.a(ieee80211_hostap.o)
                                                  c:/Espressif/ESP8266_SDK_210/lib\libmain.a(user_interface.o)
                                                  c:/Espressif/ESP8266_SDK_210/lib\libmain.a(app_main.o)
wDev_remove_KeyEntry                              c:/Espressif/ESP8266_SDK_210/lib\libpp.a(wdev.o)
                                                  c:/Espressif/ESP8266_SDK_210/lib\libwpa.a(wpa_main.o)
                                                  c:/Espressif/ESP8266_SDK_210/lib\libnet80211.a(wl_cnx.o)
                                                  c:/Espressif/ESP8266_SDK_210/lib\libpp.a(if_hwctrl.o)
wDev_remove_KeyEntry_all_cnx                      c:/Espressif/ESP8266_SDK_210/lib\libpp.a(wdev.o)
                                                  c:/Espressif/ESP8266_SDK_210/lib\libnet80211.a(wl_cnx.o)
                                                  c:/Espressif/ESP8266_SDK_210/lib\libnet80211.a(ieee80211_hostap.o)
wait_rfpll_cal_end                                c:/Espressif/ESP8266_SDK_210/lib\libphy.a(phy_chip_v6_ana.o)
                                                  c:/Espressif/ESP8266_SDK_210/lib\libphy.a(phy_chip_v6.o)
wdev_exit_sniffer                                 c:/Espressif/ESP8266_SDK_210/lib\libpp.a(wdev.o)
                                                  c:/Espressif/ESP8266_SDK_210/lib\libmain.a(user_interface.o)
wdev_go_sniffer                                   c:/Espressif/ESP8266_SDK_210/lib\libpp.a(wdev.o)
                                                  c:/Espressif/ESP8266_SDK_210/lib\libmain.a(user_interface.o)
wdev_set_sniffer_addr                             c:/Espressif/ESP8266_SDK_210/lib\libpp.a(wdev.o)
wdt_feed                                          c:/Espressif/ESP8266_SDK_210/lib\libmain.a(app_main.o)
wdt_init                                          c:/Espressif/ESP8266_SDK_210/lib\libmain.a(app_main.o)
wep                                               c:/Espressif/ESP8266_SDK_210/lib\libnet80211.a(ieee80211_crypto_wep.o)
                                                  c:/Espressif/ESP8266_SDK_210/lib\libwpa.a(wpa_main.o)
                                                  c:/Espressif/ESP8266_SDK_210/lib\libwpa.a(wpa_auth.o)
wifi_check_regdomain_param                        c:/Espressif/ESP8266_SDK_210/lib\libmain.a(user_interface.o)
wifi_disable_gpio_wakeup                          c:/Espressif/ESP8266_SDK_210/lib\libmain.a(user_interface.o)
wifi_enable_6m_rate                               c:/Espressif/ESP8266_SDK_210/lib\libmain.a(user_interface.o)
wifi_enable_gpio_wakeup                           c:/Espressif/ESP8266_SDK_210/lib\libmain.a(user_interface.o)
wifi_fpm_auto_sleep_set_in_null_mode              c:/Espressif/ESP8266_SDK_210/lib\libpp.a(pm_for_bcn_only_mode.o)
wifi_fpm_close                                    c:/Espressif/ESP8266_SDK_210/lib\libpp.a(pm_for_bcn_only_mode.o)
wifi_fpm_do_sleep                                 c:/Espressif/ESP8266_SDK_210/lib\libpp.a(pm_for_bcn_only_mode.o)
                                                  c:/Espressif/ESP8266_SDK_210/lib\libmain.a(user_interface.o)
wifi_fpm_do_wakeup                                c:/Espressif/ESP8266_SDK_210/lib\libpp.a(pm_for_bcn_only_mode.o)
wifi_fpm_get_sleep_type                           c:/Espressif/ESP8266_SDK_210/lib\libpp.a(pm_for_bcn_only_mode.o)
wifi_fpm_open                                     c:/Espressif/ESP8266_SDK_210/lib\libpp.a(pm_for_bcn_only_mode.o)
                                                  c:/Espressif/ESP8266_SDK_210/lib\libmain.a(user_interface.o)
wifi_fpm_set_sleep_type                           c:/Espressif/ESP8266_SDK_210/lib\libpp.a(pm_for_bcn_only_mode.o)
                                                  c:/Espressif/ESP8266_SDK_210/lib\libmain.a(user_interface.o)
wifi_fpm_set_wakeup_cb                            c:/Espressif/ESP8266_SDK_210/lib\libpp.a(pm_for_bcn_only_mode.o)
wifi_get_broadcast_if                             c:/Espressif/ESP8266_SDK_210/lib\libmain.a(user_interface.o)
wifi_get_channel                                  c:/Espressif/ESP8266_SDK_210/lib\libmain.a(user_interface.o)
wifi_get_ip_info                                  c:/Espressif/ESP8266_SDK_210/lib\libmain.a(user_interface.o)
                                                  c:/Espressif/ESP8266_SDK_210/lib\liblwip.a(espconn_udp.o)
                                                  c:/Espressif/ESP8266_SDK_210/lib\liblwip.a(espconn.o)
                                                  c:/Espressif/ESP8266_SDK_210/lib\liblwip.a(dhcpserver.o)
wifi_get_macaddr                                  c:/Espressif/ESP8266_SDK_210/lib\libmain.a(user_interface.o)
                                                  c:/Espressif/ESP8266_SDK_210/lib\libnet80211.a(ieee80211_output.o)
                                                  c:/Espressif/ESP8266_SDK_210/lib\libnet80211.a(ieee80211_hostap.o)
wifi_get_opmode                                   c:/Espressif/ESP8266_SDK_210/lib\libmain.a(user_interface.o)
                                                  c:/Espressif/ESP8266_SDK_210/lib\liblwip.a(espconn_udp.o)
                                                  c:/Espressif/ESP8266_SDK_210/lib\liblwip.a(espconn.o)
                                                  c:/Espressif/ESP8266_SDK_210/lib\liblwip.a(dhcpserver.o)
                                                  c:/Espressif/ESP8266_SDK_210/lib\libnet80211.a(ieee80211_action_vendor.o)
                                                  c:/Espressif/ESP8266_SDK_210/lib\libnet80211.a(wl_cnx.o)
                                                  c:/Espressif/ESP8266_SDK_210/lib\libnet80211.a(ieee80211_scan.o)
                                                  c:/Espressif/ESP8266_SDK_210/lib\libnet80211.a(ieee80211_hostap.o)
                                                  c:/Espressif/ESP8266_SDK_210/lib\libpp.a(pm_for_bcn_only_mode.o)
wifi_get_opmode_default                           c:/Espressif/ESP8266_SDK_210/lib\libmain.a(user_interface.o)
wifi_get_phy_mode                                 c:/Espressif/ESP8266_SDK_210/lib\libmain.a(user_interface.o)
wifi_get_regdomain                                c:/Espressif/ESP8266_SDK_210/lib\libmain.a(user_interface.o)
wifi_get_sleep_type                               c:/Espressif/ESP8266_SDK_210/lib\libmain.a(user_interface.o)
wifi_get_user_fixed_rate                          c:/Espressif/ESP8266_SDK_210/lib\libmain.a(user_interface.o)
wifi_get_user_ie                                  c:/Espressif/ESP8266_SDK_210/lib\libmain.a(user_interface.o)
wifi_get_user_limit_rate_mask                     c:/Espressif/ESP8266_SDK_210/lib\libmain.a(user_interface.o)
wifi_mode_set                                     c:/Espressif/ESP8266_SDK_210/lib\libnet80211.a(ieee80211.o)
                                                  c:/Espressif/ESP8266_SDK_210/lib\libmain.a(user_interface.o)
                                                  c:/Espressif/ESP8266_SDK_210/lib\libmain.a(app_main.o)
wifi_param_save_protect_with_check                c:/Espressif/ESP8266_SDK_210/lib\libmain.a(user_interface.o)
                                                  c:/Espressif/ESP8266_SDK_210/lib\libmain.a(app_main.o)
wifi_promiscuous_enable                           c:/Espressif/ESP8266_SDK_210/lib\libmain.a(user_interface.o)
wifi_promiscuous_set_mac                          c:/Espressif/ESP8266_SDK_210/lib\libmain.a(user_interface.o)
wifi_regdomain_need_update                        c:/Espressif/ESP8266_SDK_210/lib\libmain.a(user_interface.o)
wifi_register_rfid_locp_recv_cb                   c:/Espressif/ESP8266_SDK_210/lib\libmain.a(user_interface.o)
wifi_register_send_pkt_freedom_cb                 c:/Espressif/ESP8266_SDK_210/lib\libmain.a(user_interface.o)
wifi_register_user_ie_manufacturer_recv_cb        c:/Espressif/ESP8266_SDK_210/lib\libmain.a(user_interface.o)
wifi_rfid_locp_recv_close                         c:/Espressif/ESP8266_SDK_210/lib\libmain.a(user_interface.o)
wifi_rfid_locp_recv_open                          c:/Espressif/ESP8266_SDK_210/lib\libmain.a(user_interface.o)
wifi_send_pkt_freedom                             c:/Espressif/ESP8266_SDK_210/lib\libmain.a(user_interface.o)
wifi_set_backup_mac                               c:/Espressif/ESP8266_SDK_210/lib\libmain.a(app_main.o)
wifi_set_broadcast_if                             c:/Espressif/ESP8266_SDK_210/lib\libmain.a(user_interface.o)
wifi_set_channel                                  c:/Espressif/ESP8266_SDK_210/lib\libmain.a(user_interface.o)
wifi_set_event_handler_cb                         c:/Espressif/ESP8266_SDK_210/lib\libmain.a(user_interface.o)
wifi_set_ip_info                                  c:/Espressif/ESP8266_SDK_210/lib\libmain.a(user_interface.o)
wifi_set_macaddr                                  c:/Espressif/ESP8266_SDK_210/lib\libmain.a(user_interface.o)
wifi_set_opmode                                   c:/Espressif/ESP8266_SDK_210/lib\libmain.a(user_interface.o)
wifi_set_opmode_current                           c:/Espressif/ESP8266_SDK_210/lib\libmain.a(user_interface.o)
wifi_set_phy_mode                                 c:/Espressif/ESP8266_SDK_210/lib\libmain.a(user_interface.o)
wifi_set_promiscuous_rx_cb                        c:/Espressif/ESP8266_SDK_210/lib\libmain.a(user_interface.o)
wifi_set_regdomain                                c:/Espressif/ESP8266_SDK_210/lib\libmain.a(user_interface.o)
wifi_set_sleep_type                               c:/Espressif/ESP8266_SDK_210/lib\libmain.a(user_interface.o)
wifi_set_status_led_output_level                  c:/Espressif/ESP8266_SDK_210/lib\libmain.a(user_interface.o)
wifi_set_user_fixed_rate                          c:/Espressif/ESP8266_SDK_210/lib\libmain.a(user_interface.o)
wifi_set_user_ie                                  c:/Espressif/ESP8266_SDK_210/lib\libmain.a(user_interface.o)
wifi_set_user_limit_rate_mask                     c:/Espressif/ESP8266_SDK_210/lib\libmain.a(user_interface.o)
wifi_set_user_rate_limit                          c:/Espressif/ESP8266_SDK_210/lib\libmain.a(user_interface.o)
wifi_set_user_sup_rate                            c:/Espressif/ESP8266_SDK_210/lib\libmain.a(user_interface.o)
wifi_softap_cacl_mac                              c:/Espressif/ESP8266_SDK_210/lib\libmain.a(user_interface.o)
                                                  c:/Espressif/ESP8266_SDK_210/lib\libmain.a(app_main.o)
wifi_softap_deauth                                c:/Espressif/ESP8266_SDK_210/lib\libmain.a(user_interface.o)
                                                  c:/Espressif/ESP8266_SDK_210/lib\libnet80211.a(ieee80211_scan.o)
wifi_softap_dhcps_client_leave                    c:/Espressif/ESP8266_SDK_210/lib\liblwip.a(dhcpserver.o)
wifi_softap_dhcps_client_update                   c:/Espressif/ESP8266_SDK_210/lib\liblwip.a(dhcpserver.o)
wifi_softap_dhcps_start                           c:/Espressif/ESP8266_SDK_210/lib\libmain.a(user_interface.o)
wifi_softap_dhcps_status                          c:/Espressif/ESP8266_SDK_210/lib\libmain.a(user_interface.o)
                                                  c:/Espressif/ESP8266_SDK_210/lib\liblwip.a(dhcpserver.o)
wifi_softap_dhcps_stop                            c:/Espressif/ESP8266_SDK_210/lib\libmain.a(user_interface.o)
wifi_softap_free_station_info                     c:/Espressif/ESP8266_SDK_210/lib\libmain.a(user_interface.o)
wifi_softap_get_beacon_only_mode                  c:/Espressif/ESP8266_SDK_210/lib\libmain.a(user_interface.o)
wifi_softap_get_config                            c:/Espressif/ESP8266_SDK_210/lib\libmain.a(user_interface.o)
wifi_softap_get_config_default                    c:/Espressif/ESP8266_SDK_210/lib\libmain.a(user_interface.o)
wifi_softap_get_dhcps_lease                       c:/Espressif/ESP8266_SDK_210/lib\liblwip.a(dhcpserver.o)
wifi_softap_get_dhcps_lease_time                  c:/Espressif/ESP8266_SDK_210/lib\liblwip.a(dhcpserver.o)
wifi_softap_get_station_info                      c:/Espressif/ESP8266_SDK_210/lib\libmain.a(user_interface.o)
wifi_softap_get_station_num                       c:/Espressif/ESP8266_SDK_210/lib\libmain.a(user_interface.o)
wifi_softap_reset_dhcps_lease_time                c:/Espressif/ESP8266_SDK_210/lib\liblwip.a(dhcpserver.o)
wifi_softap_set_beacon_only_mode                  c:/Espressif/ESP8266_SDK_210/lib\libmain.a(user_interface.o)
wifi_softap_set_config                            c:/Espressif/ESP8266_SDK_210/lib\libmain.a(user_interface.o)
wifi_softap_set_config_current                    c:/Espressif/ESP8266_SDK_210/lib\libmain.a(user_interface.o)
wifi_softap_set_default_ssid                      c:/Espressif/ESP8266_SDK_210/lib\libmain.a(user_interface.o)
                                                  c:/Espressif/ESP8266_SDK_210/lib\libmain.a(app_main.o)
wifi_softap_set_dhcps_lease                       c:/Espressif/ESP8266_SDK_210/lib\liblwip.a(dhcpserver.o)
wifi_softap_set_dhcps_lease_time                  c:/Espressif/ESP8266_SDK_210/lib\liblwip.a(dhcpserver.o)
wifi_softap_set_dhcps_offer_option                c:/Espressif/ESP8266_SDK_210/lib\liblwip.a(dhcpserver.o)
wifi_softap_set_station_info                      c:/Espressif/ESP8266_SDK_210/lib\libmain.a(user_interface.o)
                                                  c:/Espressif/ESP8266_SDK_210/lib\liblwip.a(dhcpserver.o)
wifi_softap_staconnected_event_policy             c:/Espressif/ESP8266_SDK_210/lib\libnet80211.a(wl_cnx.o)
wifi_softap_start                                 c:/Espressif/ESP8266_SDK_210/lib\libnet80211.a(ieee80211_hostap.o)
                                                  c:/Espressif/ESP8266_SDK_210/lib\libmain.a(user_interface.o)
                                                  c:/Espressif/ESP8266_SDK_210/lib\libmain.a(app_main.o)
wifi_softap_stop                                  c:/Espressif/ESP8266_SDK_210/lib\libnet80211.a(ieee80211_hostap.o)
                                                  c:/Espressif/ESP8266_SDK_210/lib\libmain.a(user_interface.o)
wifi_softap_toomany_deny                          c:/Espressif/ESP8266_SDK_210/lib\libnet80211.a(wl_cnx.o)
wifi_station_ap_change                            c:/Espressif/ESP8266_SDK_210/lib\libmain.a(user_interface.o)
wifi_station_ap_check                             c:/Espressif/ESP8266_SDK_210/lib\libmain.a(user_interface.o)
wifi_station_ap_number_set                        c:/Espressif/ESP8266_SDK_210/lib\libmain.a(user_interface.o)
wifi_station_connect                              c:/Espressif/ESP8266_SDK_210/lib\libmain.a(user_interface.o)
                                                  c:/Espressif/ESP8266_SDK_210/lib\libmain.a(app_main.o)
wifi_station_dhcpc_event                          c:/Espressif/ESP8266_SDK_210/lib\libmain.a(user_interface.o)
                                                  c:/Espressif/ESP8266_SDK_210/lib\libmain.a(eagle_lwip_if.o)
wifi_station_dhcpc_set_maxtry                     c:/Espressif/ESP8266_SDK_210/lib\libmain.a(user_interface.o)
wifi_station_dhcpc_start                          c:/Espressif/ESP8266_SDK_210/lib\libmain.a(user_interface.o)
wifi_station_dhcpc_status                         c:/Espressif/ESP8266_SDK_210/lib\libmain.a(user_interface.o)
                                                  c:/Espressif/ESP8266_SDK_210/lib\libmain.a(eagle_lwip_if.o)
wifi_station_dhcpc_stop                           c:/Espressif/ESP8266_SDK_210/lib\libmain.a(user_interface.o)
wifi_station_disconnect                           c:/Espressif/ESP8266_SDK_210/lib\libmain.a(user_interface.o)
                                                  c:/Espressif/ESP8266_SDK_210/lib\libnet80211.a(ieee80211_sta.o)
                                                  c:/Espressif/ESP8266_SDK_210/lib\libnet80211.a(ieee80211_scan.o)
wifi_station_get_ap_info                          c:/Espressif/ESP8266_SDK_210/lib\libmain.a(user_interface.o)
wifi_station_get_auto_connect                     c:/Espressif/ESP8266_SDK_210/lib\libmain.a(user_interface.o)
                                                  c:/Espressif/ESP8266_SDK_210/lib\libmain.a(app_main.o)
wifi_station_get_config                           c:/Espressif/ESP8266_SDK_210/lib\libmain.a(user_interface.o)
                                                  c:/Espressif/ESP8266_SDK_210/lib\libnet80211.a(wl_cnx.o)
wifi_station_get_config_default                   c:/Espressif/ESP8266_SDK_210/lib\libmain.a(user_interface.o)
wifi_station_get_connect_status                   c:/Espressif/ESP8266_SDK_210/lib\libmain.a(user_interface.o)
                                                  c:/Espressif/ESP8266_SDK_210/lib\liblwip.a(espconn.o)
wifi_station_get_current_ap_id                    c:/Espressif/ESP8266_SDK_210/lib\libmain.a(user_interface.o)
wifi_station_get_hostname                         c:/Espressif/ESP8266_SDK_210/lib\libmain.a(user_interface.o)
wifi_station_get_reconnect_policy                 c:/Espressif/ESP8266_SDK_210/lib\libmain.a(user_interface.o)
                                                  c:/Espressif/ESP8266_SDK_210/lib\libnet80211.a(wl_cnx.o)
                                                  c:/Espressif/ESP8266_SDK_210/lib\libnet80211.a(ieee80211_sta.o)
                                                  c:/Espressif/ESP8266_SDK_210/lib\libnet80211.a(ieee80211_scan.o)
wifi_station_get_rssi                             c:/Espressif/ESP8266_SDK_210/lib\libmain.a(user_interface.o)
wifi_station_restore_config                       c:/Espressif/ESP8266_SDK_210/lib\libmain.a(user_interface.o)
wifi_station_save_bssid                           c:/Espressif/ESP8266_SDK_210/lib\libmain.a(user_interface.o)
                                                  c:/Espressif/ESP8266_SDK_210/lib\libwpa.a(wpa_main.o)
wifi_station_save_pmk2cache                       c:/Espressif/ESP8266_SDK_210/lib\libmain.a(user_interface.o)
                                                  c:/Espressif/ESP8266_SDK_210/lib\libwpa.a(wpa.o)
wifi_station_scan                                 c:/Espressif/ESP8266_SDK_210/lib\libmain.a(user_interface.o)
wifi_station_set_auto_connect                     c:/Espressif/ESP8266_SDK_210/lib\libmain.a(user_interface.o)
wifi_station_set_config                           c:/Espressif/ESP8266_SDK_210/lib\libmain.a(user_interface.o)
wifi_station_set_config_current                   c:/Espressif/ESP8266_SDK_210/lib\libmain.a(user_interface.o)
                                                  c:/Espressif/ESP8266_SDK_210/lib\libnet80211.a(wl_cnx.o)
wifi_station_set_default_hostname                 c:/Espressif/ESP8266_SDK_210/lib\libmain.a(user_interface.o)
                                                  c:/Espressif/ESP8266_SDK_210/lib\libmain.a(eagle_lwip_if.o)
                                                  c:/Espressif/ESP8266_SDK_210/lib\libmain.a(app_main.o)
wifi_station_set_hostname                         c:/Espressif/ESP8266_SDK_210/lib\libmain.a(user_interface.o)
wifi_station_set_reconnect_policy                 c:/Espressif/ESP8266_SDK_210/lib\libmain.a(user_interface.o)
wifi_station_start                                c:/Espressif/ESP8266_SDK_210/lib\libnet80211.a(ieee80211_sta.o)
                                                  c:/Espressif/ESP8266_SDK_210/lib\libmain.a(user_interface.o)
                                                  c:/Espressif/ESP8266_SDK_210/lib\libmain.a(app_main.o)
wifi_station_stop                                 c:/Espressif/ESP8266_SDK_210/lib\libnet80211.a(ieee80211_sta.o)
                                                  c:/Espressif/ESP8266_SDK_210/lib\libmain.a(user_interface.o)
wifi_status_led_install                           c:/Espressif/ESP8266_SDK_210/lib\libmain.a(user_interface.o)
wifi_status_led_uninstall                         c:/Espressif/ESP8266_SDK_210/lib\libmain.a(user_interface.o)
wifi_unregister_rfid_locp_recv_cb                 c:/Espressif/ESP8266_SDK_210/lib\libmain.a(user_interface.o)
wifi_unregister_send_pkt_freedom_cb               c:/Espressif/ESP8266_SDK_210/lib\libmain.a(user_interface.o)
wifi_unregister_user_ie_manufacturer_recv_cb      c:/Espressif/ESP8266_SDK_210/lib\libmain.a(user_interface.o)
wordBitCount                                      build/debug/app_app.a(user_main.o)
wpa_add_kde                                       c:/Espressif/ESP8266_SDK_210/lib\libwpa.a(wpa_auth_ie.o)
                                                  c:/Espressif/ESP8266_SDK_210/lib\libwpa.a(wpa_auth.o)
wpa_attach                                        c:/Espressif/ESP8266_SDK_210/lib\libwpa.a(wpa_main.o)
                                                  c:/Espressif/ESP8266_SDK_210/lib\libnet80211.a(ieee80211_sta.o)
wpa_auth_for_each_sta                             c:/Espressif/ESP8266_SDK_210/lib\libwpa.a(wpa_auth.o)
wpa_auth_gen_wpa_ie                               c:/Espressif/ESP8266_SDK_210/lib\libwpa.a(wpa_auth_ie.o)
                                                  c:/Espressif/ESP8266_SDK_210/lib\libwpa.a(wpa_auth.o)
wpa_auth_sm_event                                 c:/Espressif/ESP8266_SDK_210/lib\libwpa.a(wpa_auth.o)
wpa_auth_sta_associated                           c:/Espressif/ESP8266_SDK_210/lib\libwpa.a(wpa_auth.o)
                                                  c:/Espressif/ESP8266_SDK_210/lib\libnet80211.a(wl_cnx.o)
wpa_auth_sta_deinit                               c:/Espressif/ESP8266_SDK_210/lib\libwpa.a(wpa_auth.o)
                                                  c:/Espressif/ESP8266_SDK_210/lib\libnet80211.a(wl_cnx.o)
wpa_auth_sta_init                                 c:/Espressif/ESP8266_SDK_210/lib\libwpa.a(wpa_auth.o)
                                                  c:/Espressif/ESP8266_SDK_210/lib\libnet80211.a(wl_cnx.o)
wpa_auth_sta_no_wpa                               c:/Espressif/ESP8266_SDK_210/lib\libwpa.a(wpa_auth.o)
wpa_auth_uses_mfp                                 c:/Espressif/ESP8266_SDK_210/lib\libwpa.a(wpa_auth_ie.o)
wpa_cipher_key_len                                c:/Espressif/ESP8266_SDK_210/lib\libwpa.a(wpa_common.o)
                                                  c:/Espressif/ESP8266_SDK_210/lib\libwpa.a(wpa_auth.o)
wpa_cipher_put_suites                             c:/Espressif/ESP8266_SDK_210/lib\libwpa.a(wpa_common.o)
                                                  c:/Espressif/ESP8266_SDK_210/lib\libwpa.a(wpa_auth_ie.o)
wpa_cipher_to_alg                                 c:/Espressif/ESP8266_SDK_210/lib\libwpa.a(wpa_common.o)
                                                  c:/Espressif/ESP8266_SDK_210/lib\libwpa.a(wpa_auth.o)
wpa_cipher_to_suite                               c:/Espressif/ESP8266_SDK_210/lib\libwpa.a(wpa_common.o)
                                                  c:/Espressif/ESP8266_SDK_210/lib\libwpa.a(wpa_auth_ie.o)
wpa_compare_rsn_ie                                c:/Espressif/ESP8266_SDK_210/lib\libwpa.a(wpa_common.o)
                                                  c:/Espressif/ESP8266_SDK_210/lib\libwpa.a(wpa.o)
                                                  c:/Espressif/ESP8266_SDK_210/lib\libwpa.a(wpa_auth.o)
wpa_config_assoc_ie                               c:/Espressif/ESP8266_SDK_210/lib\libwpa.a(wpa_main.o)
wpa_config_bss                                    c:/Espressif/ESP8266_SDK_210/lib\libwpa.a(wpa_main.o)
                                                  c:/Espressif/ESP8266_SDK_210/lib\libnet80211.a(wl_cnx.o)
                                                  c:/Espressif/ESP8266_SDK_210/lib\libnet80211.a(ieee80211_sta.o)
wpa_config_parse_string                           c:/Espressif/ESP8266_SDK_210/lib\libwpa.a(common.o)
                                                  c:/Espressif/ESP8266_SDK_210/lib\libnet80211.a(ieee80211_scan.o)
wpa_config_profile                                c:/Espressif/ESP8266_SDK_210/lib\libwpa.a(wpa_main.o)
                                                  c:/Espressif/ESP8266_SDK_210/lib\libnet80211.a(wl_cnx.o)
wpa_eapol_key_mic                                 c:/Espressif/ESP8266_SDK_210/lib\libwpa.a(wpa_common.o)
                                                  c:/Espressif/ESP8266_SDK_210/lib\libwpa.a(wpa.o)
                                                  c:/Espressif/ESP8266_SDK_210/lib\libwpa.a(wpa_auth.o)
wpa_gen_wpa_ie                                    c:/Espressif/ESP8266_SDK_210/lib\libwpa.a(wpa_ie.o)
                                                  c:/Espressif/ESP8266_SDK_210/lib\libwpa.a(wpa.o)
wpa_get_ntp_timestamp                             c:/Espressif/ESP8266_SDK_210/lib\libwpa.a(common.o)
                                                  c:/Espressif/ESP8266_SDK_210/lib\libwpa.a(wpa_auth.o)
wpa_init                                          c:/Espressif/ESP8266_SDK_210/lib\libwpa.a(wpa_auth.o)
                                                  c:/Espressif/ESP8266_SDK_210/lib\libnet80211.a(ieee80211_hostap.o)
wpa_neg_complete                                  c:/Espressif/ESP8266_SDK_210/lib\libwpa.a(wpa_main.o)
wpa_parse_kde_ies                                 c:/Espressif/ESP8266_SDK_210/lib\libwpa.a(wpa_auth_ie.o)
                                                  c:/Espressif/ESP8266_SDK_210/lib\libwpa.a(wpa_auth.o)
wpa_parse_wpa_ie                                  c:/Espressif/ESP8266_SDK_210/lib\libwpa.a(wpa_ie.o)
                                                  c:/Espressif/ESP8266_SDK_210/lib\libnet80211.a(ieee80211_scan.o)
wpa_parse_wpa_ie_rsn                              c:/Espressif/ESP8266_SDK_210/lib\libwpa.a(wpa_common.o)
                                                  c:/Espressif/ESP8266_SDK_210/lib\libwpa.a(wpa_ie.o)
                                                  c:/Espressif/ESP8266_SDK_210/lib\libwpa.a(wpa_auth_ie.o)
wpa_parse_wpa_ie_wpa                              c:/Espressif/ESP8266_SDK_210/lib\libwpa.a(wpa_common.o)
                                                  c:/Espressif/ESP8266_SDK_210/lib\libwpa.a(wpa_ie.o)
                                                  c:/Espressif/ESP8266_SDK_210/lib\libwpa.a(wpa_auth_ie.o)
wpa_pmk_to_ptk                                    c:/Espressif/ESP8266_SDK_210/lib\libwpa.a(wpa_common.o)
                                                  c:/Espressif/ESP8266_SDK_210/lib\libwpa.a(wpa.o)
                                                  c:/Espressif/ESP8266_SDK_210/lib\libwpa.a(wpa_auth.o)
wpa_receive                                       c:/Espressif/ESP8266_SDK_210/lib\libwpa.a(wpa_auth.o)
                                                  c:/Espressif/ESP8266_SDK_210/lib\libnet80211.a(ieee80211_hostap.o)
wpa_register                                      c:/Espressif/ESP8266_SDK_210/lib\libwpa.a(wpa.o)
                                                  c:/Espressif/ESP8266_SDK_210/lib\libwpa.a(wpa_main.o)
wpa_remove_ptk                                    c:/Espressif/ESP8266_SDK_210/lib\libwpa.a(wpa_auth.o)
wpa_set_bss                                       c:/Espressif/ESP8266_SDK_210/lib\libwpa.a(wpa.o)
                                                  c:/Espressif/ESP8266_SDK_210/lib\libwpa.a(wpa_main.o)
wpa_set_pmk                                       c:/Espressif/ESP8266_SDK_210/lib\libwpa.a(wpa.o)
wpa_set_profile                                   c:/Espressif/ESP8266_SDK_210/lib\libwpa.a(wpa.o)
                                                  c:/Espressif/ESP8266_SDK_210/lib\libwpa.a(wpa_main.o)
wpa_sm_alloc_eapol                                c:/Espressif/ESP8266_SDK_210/lib\libwpa.a(wpas_glue.o)
                                                  c:/Espressif/ESP8266_SDK_210/lib\libwpa.a(wpa.o)
wpa_sm_deauthenticate                             c:/Espressif/ESP8266_SDK_210/lib\libwpa.a(wpas_glue.o)
                                                  c:/Espressif/ESP8266_SDK_210/lib\libwpa.a(wpa.o)
wpa_sm_disassociate                               c:/Espressif/ESP8266_SDK_210/lib\libwpa.a(wpas_glue.o)
                                                  c:/Espressif/ESP8266_SDK_210/lib\libwpa.a(wpa.o)
wpa_sm_get_beacon_ie                              c:/Espressif/ESP8266_SDK_210/lib\libwpa.a(wpas_glue.o)
                                                  c:/Espressif/ESP8266_SDK_210/lib\libwpa.a(wpa.o)
wpa_sm_mlme_setprotection                         c:/Espressif/ESP8266_SDK_210/lib\libwpa.a(wpas_glue.o)
                                                  c:/Espressif/ESP8266_SDK_210/lib\libwpa.a(wpa.o)
wpa_sm_rx_eapol                                   c:/Espressif/ESP8266_SDK_210/lib\libwpa.a(wpa.o)
                                                  c:/Espressif/ESP8266_SDK_210/lib\libnet80211.a(ieee80211_sta.o)
wpa_sm_set_state                                  c:/Espressif/ESP8266_SDK_210/lib\libwpa.a(wpa.o)
wpa_snprintf_hex                                  c:/Espressif/ESP8266_SDK_210/lib\libwpa.a(wpa_debug.o)
wpa_snprintf_hex_uppercase                        c:/Espressif/ESP8266_SDK_210/lib\libwpa.a(wpa_debug.o)
wpa_supplicant_parse_ies                          c:/Espressif/ESP8266_SDK_210/lib\libwpa.a(wpa_ie.o)
                                                  c:/Espressif/ESP8266_SDK_210/lib\libwpa.a(wpa.o)
wpa_validate_wpa_ie                               c:/Espressif/ESP8266_SDK_210/lib\libwpa.a(wpa_auth_ie.o)
                                                  c:/Espressif/ESP8266_SDK_210/lib\libnet80211.a(wl_cnx.o)
wpa_write_rsn_ie                                  c:/Espressif/ESP8266_SDK_210/lib\libwpa.a(wpa_auth_ie.o)
write_data_to_rtc                                 c:/Espressif/ESP8266_SDK_210/lib\libphy.a(phy_chip_v6.o)
                                                  c:/Espressif/ESP8266_SDK_210/lib\libmain.a(app_main.o)
xPortGetFreeHeapSize                              c:/Espressif/ESP8266_SDK_210/lib\libmain.a(mem_manager.o)
                                                  c:/Espressif/ESP8266_SDK_210/lib\libmain.a(user_interface.o)
xPortWantedSizeAlign                              c:/Espressif/ESP8266_SDK_210/lib\libmain.a(mem_manager.o)
                                                  c:/Espressif/ESP8266_SDK_210/lib\libmain.a(user_interface.o)
xthal_set_intclear                                c:/espressif/xtensa-lx106-elf/bin/../lib/gcc/xtensa-lx106-elf/5.1.0/../../../../xtensa-lx106-elf/lib\libhal.a(int_asm--set_intclear.o)
                                                  c:/Espressif/ESP8266_SDK_210/lib\libmain.a(app_main.o)
