Archive member included because of file (symbol)

c:/Espressif/ESP8266_SDK_200/lib\libmain.a(debug-vector.o)
                              (_DebugExceptionVector)
c:/Espressif/ESP8266_SDK_200/lib\libmain.a(double-vector.o)
                              (_DoubleExceptionVector)
c:/Espressif/ESP8266_SDK_200/lib\libmain.a(kernel-vector.o)
                              (_KernelExceptionVector)
c:/Espressif/ESP8266_SDK_200/lib\libmain.a(nmi-vector.o)
                              (_NMIExceptionVector)
c:/Espressif/ESP8266_SDK_200/lib\libmain.a(user-vector.o)
                              (_UserExceptionVector)
c:/Espressif/ESP8266_SDK_200/lib\libmain.a(vector.o)
                              (call_user_start)
c:/Espressif/ESP8266_SDK_200/lib\libmain.a(app_main.o)
                              c:/Espressif/ESP8266_SDK_200/lib\libmain.a(nmi-vector.o) (NMI_Handler)
c:/Espressif/ESP8266_SDK_200/lib\libmain.a(ets_timer.o)
                              c:/Espressif/ESP8266_SDK_200/lib\libmain.a(app_main.o) (ets_timer_setfn)
c:/Espressif/ESP8266_SDK_200/lib\libmain.a(mem_manager.o)
                              c:/Espressif/ESP8266_SDK_200/lib\libmain.a(app_main.o) (vPortFree)
c:/Espressif/ESP8266_SDK_200/lib\libmain.a(spi_flash.o)
                              c:/Espressif/ESP8266_SDK_200/lib\libmain.a(app_main.o) (spi_flash_get_id)
c:/Espressif/ESP8266_SDK_200/lib\libmain.a(user_interface.o)
                              c:/Espressif/ESP8266_SDK_200/lib\libmain.a(app_main.o) (done_cb)
c:/Espressif/ESP8266_SDK_200/lib\libmain.a(eagle_lib.o)
                              c:/Espressif/ESP8266_SDK_200/lib\libmain.a(user_interface.o) (ets_sprintf)
c:/Espressif/ESP8266_SDK_200/lib\libmain.a(eagle_lwip_if.o)
                              c:/Espressif/ESP8266_SDK_200/lib\libmain.a(user_interface.o) (hostname)
build/debug/app_app.a(user_main.o)
                              c:/Espressif/ESP8266_SDK_200/lib\libmain.a(app_main.o) (user_rf_cal_sector_set)
build/debug/app_app.a(config.o)
                              build/debug/app_app.a(user_main.o) (sysCfg)
build/debug/app_app.a(io.o)   build/debug/app_app.a(user_main.o) (initOutputs)
build/debug/app_app.a(switch.o)
                              build/debug/app_app.a(user_main.o) (initSwitch)
build/debug/app_app.a(http.o)
                              build/debug/app_app.a(user_main.o) (tcp_listen)
build/debug/app_app.a(easygpio.o)
                              build/debug/app_app.a(io.o) (easygpio_pinMode)
build/debug/app_app.a(wifi.o)
                              build/debug/app_app.a(user_main.o) (getBestSSID)
build/debug/app_app.a(flash.o)
                              build/debug/app_app.a(http.o) (stopFlash)
build/debug/app_app.a(doSmartConfig.o)
                              build/debug/app_app.a(user_main.o) (checkSmartConfig)
build/debug/app_app.a(stdout.o)
                              build/debug/app_app.a(user_main.o) (stdout_init)
build/debug/app_app.a(check.o)
                              build/debug/app_app.a(user_main.o) (checkMinHeap)
build/debug/app_app.a(mqtt.o)
                              build/debug/app_app.a(user_main.o) (MQTT_InitConnection)
build/debug/app_app.a(publish.o)
                              build/debug/app_app.a(user_main.o) (publishError)
build/debug/app_app.a(temperature.o)
                              build/debug/app_app.a(publish.o) (getUnmappedTemperature)
build/debug/app_app.a(dht22.o)
                              build/debug/app_app.a(user_main.o) (dhtRead)
build/debug/app_app.a(ds18b20.o)
                              build/debug/app_app.a(temperature.o) (ds_init)
build/debug/app_app.a(decodeMessage.o)
                              build/debug/app_app.a(user_main.o) (decodeMessage)
build/debug/app_app.a(jsmn.o)
                              build/debug/app_app.a(decodeMessage.o) (jsoneq)
build/debug/app_app.a(dtoa.o)
                              build/debug/app_app.a(temperature.o) (dtoStr)
build/debug/app_app.a(utils.o)
                              build/debug/app_app.a(mqtt.o) (UTILS_StrToIP)
build/debug/app_app.a(queue.o)
                              build/debug/app_app.a(mqtt.o) (QUEUE_Init)
build/debug/app_app.a(mqtt_msg.o)
                              build/debug/app_app.a(mqtt.o) (mqtt_msg_init)
build/debug/app_app.a(ringbuf.o)
                              build/debug/app_app.a(queue.o) (RINGBUF_Init)
build/debug/app_app.a(proto.o)
                              build/debug/app_app.a(queue.o) (PROTO_AddRb)
c:/espressif/xtensa-lx106-elf/bin/../lib/gcc/xtensa-lx106-elf/5.1.0/../../../../xtensa-lx106-elf/lib\libc.a(lib_a-atoi.o)
                              build/debug/app_app.a(user_main.o) (atoi)
c:/espressif/xtensa-lx106-elf/bin/../lib/gcc/xtensa-lx106-elf/5.1.0/../../../../xtensa-lx106-elf/lib\libc.a(lib_a-lcltime.o)
                              build/debug/app_app.a(user_main.o) (localtime)
c:/espressif/xtensa-lx106-elf/bin/../lib/gcc/xtensa-lx106-elf/5.1.0/../../../../xtensa-lx106-elf/lib\libc.a(lib_a-lcltime_r.o)
                              c:/espressif/xtensa-lx106-elf/bin/../lib/gcc/xtensa-lx106-elf/5.1.0/../../../../xtensa-lx106-elf/lib\libc.a(lib_a-lcltime.o) (localtime_r)
c:/espressif/xtensa-lx106-elf/bin/../lib/gcc/xtensa-lx106-elf/5.1.0/../../../../xtensa-lx106-elf/lib\libc.a(lib_a-memcpy.o)
                              build/debug/app_app.a(publish.o) (memcpy)
c:/espressif/xtensa-lx106-elf/bin/../lib/gcc/xtensa-lx106-elf/5.1.0/../../../../xtensa-lx106-elf/lib\libc.a(lib_a-memset.o)
                              build/debug/app_app.a(http.o) (memset)
c:/espressif/xtensa-lx106-elf/bin/../lib/gcc/xtensa-lx106-elf/5.1.0/../../../../xtensa-lx106-elf/lib\libc.a(lib_a-mktm_r.o)
                              c:/espressif/xtensa-lx106-elf/bin/../lib/gcc/xtensa-lx106-elf/5.1.0/../../../../xtensa-lx106-elf/lib\libc.a(lib_a-lcltime_r.o) (_mktm_r)
c:/espressif/xtensa-lx106-elf/bin/../lib/gcc/xtensa-lx106-elf/5.1.0/../../../../xtensa-lx106-elf/lib\libc.a(lib_a-strcmp.o)
                              build/debug/app_app.a(http.o) (strcmp)
c:/espressif/xtensa-lx106-elf/bin/../lib/gcc/xtensa-lx106-elf/5.1.0/../../../../xtensa-lx106-elf/lib\libc.a(lib_a-strlen.o)
                              build/debug/app_app.a(user_main.o) (strlen)
c:/espressif/xtensa-lx106-elf/bin/../lib/gcc/xtensa-lx106-elf/5.1.0/../../../../xtensa-lx106-elf/lib\libc.a(lib_a-strtol.o)
                              c:/espressif/xtensa-lx106-elf/bin/../lib/gcc/xtensa-lx106-elf/5.1.0/../../../../xtensa-lx106-elf/lib\libc.a(lib_a-atoi.o) (_strtol_r)
c:/espressif/xtensa-lx106-elf/bin/../lib/gcc/xtensa-lx106-elf/5.1.0/../../../../xtensa-lx106-elf/lib\libc.a(lib_a-tzlock.o)
                              c:/espressif/xtensa-lx106-elf/bin/../lib/gcc/xtensa-lx106-elf/5.1.0/../../../../xtensa-lx106-elf/lib\libc.a(lib_a-mktm_r.o) (__tz_lock)
c:/espressif/xtensa-lx106-elf/bin/../lib/gcc/xtensa-lx106-elf/5.1.0/../../../../xtensa-lx106-elf/lib\libc.a(lib_a-tzvars.o)
                              c:/espressif/xtensa-lx106-elf/bin/../lib/gcc/xtensa-lx106-elf/5.1.0/../../../../xtensa-lx106-elf/lib\libc.a(lib_a-mktm_r.o) (_daylight)
c:/espressif/xtensa-lx106-elf/bin/../lib/gcc/xtensa-lx106-elf/5.1.0/../../../../xtensa-lx106-elf/lib\libc.a(lib_a-ctype_.o)
                              c:/espressif/xtensa-lx106-elf/bin/../lib/gcc/xtensa-lx106-elf/5.1.0/../../../../xtensa-lx106-elf/lib\libc.a(lib_a-strtol.o) (__ctype_ptr__)
c:/espressif/xtensa-lx106-elf/bin/../lib/gcc/xtensa-lx106-elf/5.1.0/../../../../xtensa-lx106-elf/lib\libc.a(lib_a-gettzinfo.o)
                              c:/espressif/xtensa-lx106-elf/bin/../lib/gcc/xtensa-lx106-elf/5.1.0/../../../../xtensa-lx106-elf/lib\libc.a(lib_a-mktm_r.o) (__gettzinfo)
c:/espressif/xtensa-lx106-elf/bin/../lib/gcc/xtensa-lx106-elf/5.1.0/../../../../xtensa-lx106-elf/lib\libc.a(lib_a-impure.o)
                              c:/espressif/xtensa-lx106-elf/bin/../lib/gcc/xtensa-lx106-elf/5.1.0/../../../../xtensa-lx106-elf/lib\libc.a(lib_a-lcltime.o) (_impure_ptr)
c:/Espressif/ESP8266_SDK_200/lib\libgcc.a(_modsi3.o)
                              c:/espressif/xtensa-lx106-elf/bin/../lib/gcc/xtensa-lx106-elf/5.1.0/../../../../xtensa-lx106-elf/lib\libc.a(lib_a-mktm_r.o) (__modsi3)
c:/Espressif/ESP8266_SDK_200/lib\libgcc.a(_mulsf3.o)
                              build/debug/app_app.a(dht22.o) (__mulsf3)
c:/Espressif/ESP8266_SDK_200/lib\libgcc.a(_divsf3.o)
                              build/debug/app_app.a(dht22.o) (__divsf3)
c:/Espressif/ESP8266_SDK_200/lib\libgcc.a(_cmpsf2.o)
                              build/debug/app_app.a(user_main.o) (__gtsf2)
c:/Espressif/ESP8266_SDK_200/lib\libgcc.a(_fixsfsi.o)
                              build/debug/app_app.a(user_main.o) (__fixsfsi)
c:/Espressif/ESP8266_SDK_200/lib\libgcc.a(_cmpdf2.o)
                              build/debug/app_app.a(temperature.o) (__eqdf2)
c:/espressif/xtensa-lx106-elf/bin/../lib/gcc/xtensa-lx106-elf/5.1.0/../../../../xtensa-lx106-elf/lib\libhal.a(int_asm--set_intclear.o)
                              c:/Espressif/ESP8266_SDK_200/lib\libmain.a(app_main.o) (xthal_set_intclear)
c:/Espressif/ESP8266_SDK_200/lib\libphy.a(phy.o)
                              c:/Espressif/ESP8266_SDK_200/lib\libmain.a(app_main.o) (phy_enable_agc)
c:/Espressif/ESP8266_SDK_200/lib\libphy.a(phy_chip_v6_ana.o)
                              c:/Espressif/ESP8266_SDK_200/lib\libmain.a(app_main.o) (chip_v6_set_chan_offset)
c:/Espressif/ESP8266_SDK_200/lib\libphy.a(phy_chip_v6.o)
                              c:/Espressif/ESP8266_SDK_200/lib\libphy.a(phy_chip_v6_ana.o) (g_phyFuns)
c:/Espressif/ESP8266_SDK_200/lib\libphy.a(phy_chip_v6_cal.o)
                              c:/Espressif/ESP8266_SDK_200/lib\libphy.a(phy_chip_v6.o) (phy_tx_pwr_error)
c:/Espressif/ESP8266_SDK_200/lib\libphy.a(phy_chip_v6_unused.o)
                              c:/Espressif/ESP8266_SDK_200/lib\libphy.a(phy_chip_v6.o) (chip_v6_set_sense)
c:/Espressif/ESP8266_SDK_200/lib\libphy.a(phy_sleep.o)
                              c:/Espressif/ESP8266_SDK_200/lib\libphy.a(phy_chip_v6.o) (pm_set_sleep_cycles)
c:/Espressif/ESP8266_SDK_200/lib\libpp.a(if_hwctrl.o)
                              c:/Espressif/ESP8266_SDK_200/lib\libmain.a(user_interface.o) (ic_set_vif)
c:/Espressif/ESP8266_SDK_200/lib\libpp.a(lmac.o)
                              c:/Espressif/ESP8266_SDK_200/lib\libmain.a(app_main.o) (lmacInit)
c:/Espressif/ESP8266_SDK_200/lib\libpp.a(pm.o)
                              c:/Espressif/ESP8266_SDK_200/lib\libmain.a(user_interface.o) (pm_set_gpio_wakeup_pin)
c:/Espressif/ESP8266_SDK_200/lib\libpp.a(pm_for_bcn_only_mode.o)
                              c:/Espressif/ESP8266_SDK_200/lib\libpp.a(pm.o) (fpm_is_open)
c:/Espressif/ESP8266_SDK_200/lib\libpp.a(pp.o)
                              c:/Espressif/ESP8266_SDK_200/lib\libpp.a(pm.o) (pend_flag_noise_check)
c:/Espressif/ESP8266_SDK_200/lib\libpp.a(rate_control.o)
                              c:/Espressif/ESP8266_SDK_200/lib\libpp.a(lmac.o) (RC_SetBasicRate)
c:/Espressif/ESP8266_SDK_200/lib\libpp.a(trc.o)
                              c:/Espressif/ESP8266_SDK_200/lib\libmain.a(user_interface.o) (rc_set_rate_limit_id)
c:/Espressif/ESP8266_SDK_200/lib\libpp.a(wdev.o)
                              c:/Espressif/ESP8266_SDK_200/lib\libpp.a(pp.o) (wDevCtrl)
c:/Espressif/ESP8266_SDK_200/lib\libpp.a(esf_buf.o)
                              c:/Espressif/ESP8266_SDK_200/lib\libpp.a(wdev.o) (esf_rx_buf_alloc)
c:/Espressif/ESP8266_SDK_200/lib\libnet80211.a(ieee80211.o)
                              c:/Espressif/ESP8266_SDK_200/lib\libmain.a(app_main.o) (g_ic)
c:/Espressif/ESP8266_SDK_200/lib\libnet80211.a(ieee80211_crypto.o)
                              c:/Espressif/ESP8266_SDK_200/lib\libnet80211.a(ieee80211.o) (ieee80211_crypto_attach)
c:/Espressif/ESP8266_SDK_200/lib\libnet80211.a(ieee80211_ets.o)
                              c:/Espressif/ESP8266_SDK_200/lib\libpp.a(pm.o) (ieee80211_getmgtframe)
c:/Espressif/ESP8266_SDK_200/lib\libnet80211.a(ieee80211_hostap.o)
                              c:/Espressif/ESP8266_SDK_200/lib\libmain.a(user_interface.o) (BcnEb_update)
c:/Espressif/ESP8266_SDK_200/lib\libnet80211.a(ieee80211_ht.o)
                              c:/Espressif/ESP8266_SDK_200/lib\libmain.a(user_interface.o) (ieee80211_ht_attach)
c:/Espressif/ESP8266_SDK_200/lib\libnet80211.a(ieee80211_input.o)
                              c:/Espressif/ESP8266_SDK_200/lib\libnet80211.a(ieee80211_hostap.o) (ieee80211_decap)
c:/Espressif/ESP8266_SDK_200/lib\libnet80211.a(ieee80211_mesh_quick.o)
                              c:/Espressif/ESP8266_SDK_200/lib\libnet80211.a(ieee80211_hostap.o) (ieee80211_mesh_quick_get)
c:/Espressif/ESP8266_SDK_200/lib\libnet80211.a(ieee80211_output.o)
                              c:/Espressif/ESP8266_SDK_200/lib\libmain.a(eagle_lwip_if.o) (ieee80211_output_pbuf)
c:/Espressif/ESP8266_SDK_200/lib\libnet80211.a(ieee80211_phy.o)
                              c:/Espressif/ESP8266_SDK_200/lib\libmain.a(app_main.o) (ieee80211_phy_init)
c:/Espressif/ESP8266_SDK_200/lib\libnet80211.a(ieee80211_power.o)
                              c:/Espressif/ESP8266_SDK_200/lib\libnet80211.a(ieee80211_hostap.o) (ieee80211_psq_init)
c:/Espressif/ESP8266_SDK_200/lib\libnet80211.a(ieee80211_proto.o)
                              c:/Espressif/ESP8266_SDK_200/lib\libnet80211.a(ieee80211.o) (ieee80211_proto_attach)
c:/Espressif/ESP8266_SDK_200/lib\libnet80211.a(ieee80211_regdomain.o)
                              c:/Espressif/ESP8266_SDK_200/lib\libnet80211.a(ieee80211_output.o) (ieee80211_alloc_countryie)
c:/Espressif/ESP8266_SDK_200/lib\libnet80211.a(ieee80211_rfid.o)
                              c:/Espressif/ESP8266_SDK_200/lib\libmain.a(user_interface.o) (ieee80211_rfid_locp_recv_open)
c:/Espressif/ESP8266_SDK_200/lib\libnet80211.a(ieee80211_scan.o)
                              c:/Espressif/ESP8266_SDK_200/lib\libpp.a(pp.o) (gScanStruct)
c:/Espressif/ESP8266_SDK_200/lib\libnet80211.a(ieee80211_sta.o)
                              c:/Espressif/ESP8266_SDK_200/lib\libmain.a(user_interface.o) (ieee80211_sta_new_state)
c:/Espressif/ESP8266_SDK_200/lib\libnet80211.a(wl_chm.o)
                              c:/Espressif/ESP8266_SDK_200/lib\libnet80211.a(ieee80211.o) (chm_init)
c:/Espressif/ESP8266_SDK_200/lib\libnet80211.a(wl_cnx.o)
                              c:/Espressif/ESP8266_SDK_200/lib\libmain.a(user_interface.o) (sta_con_timer)
c:/Espressif/ESP8266_SDK_200/lib\libnet80211.a(ieee80211_action.o)
                              c:/Espressif/ESP8266_SDK_200/lib\libnet80211.a(ieee80211_ht.o) (ieee80211_send_action_register)
c:/Espressif/ESP8266_SDK_200/lib\libnet80211.a(ieee80211_action_vendor.o)
                              c:/Espressif/ESP8266_SDK_200/lib\libnet80211.a(ieee80211.o) (ieee80211_action_vendor_spec_attach)
c:/Espressif/ESP8266_SDK_200/lib\libnet80211.a(ieee80211_crypto_ccmp.o)
                              c:/Espressif/ESP8266_SDK_200/lib\libnet80211.a(ieee80211_input.o) (ccmp)
c:/Espressif/ESP8266_SDK_200/lib\libnet80211.a(ieee80211_ie_vendor.o)
                              c:/Espressif/ESP8266_SDK_200/lib\libnet80211.a(ieee80211_mesh_quick.o) (ieee80211_add_ie_vendor_esp_mesh_assoc)
c:/Espressif/ESP8266_SDK_200/lib\liblwip.a(dhcp.o)
                              c:/Espressif/ESP8266_SDK_200/lib\libnet80211.a(wl_cnx.o) (dhcp_release)
c:/Espressif/ESP8266_SDK_200/lib\liblwip.a(dhcpserver.o)
                              c:/Espressif/ESP8266_SDK_200/lib\libmain.a(user_interface.o) (dhcps_start)
c:/Espressif/ESP8266_SDK_200/lib\liblwip.a(dns.o)
                              c:/Espressif/ESP8266_SDK_200/lib\liblwip.a(dhcp.o) (dns_setserver)
c:/Espressif/ESP8266_SDK_200/lib\liblwip.a(espconn.o)
                              build/debug/app_app.a(mqtt.o) (espconn_connect)
c:/Espressif/ESP8266_SDK_200/lib\liblwip.a(espconn_tcp.o)
                              c:/Espressif/ESP8266_SDK_200/lib\liblwip.a(espconn.o) (espconn_tcp_disconnect)
c:/Espressif/ESP8266_SDK_200/lib\liblwip.a(espconn_udp.o)
                              c:/Espressif/ESP8266_SDK_200/lib\liblwip.a(espconn.o) (espconn_udp_sent)
c:/Espressif/ESP8266_SDK_200/lib\liblwip.a(etharp.o)
                              c:/Espressif/ESP8266_SDK_200/lib\libmain.a(user_interface.o) (ethbroadcast)
c:/Espressif/ESP8266_SDK_200/lib\liblwip.a(igmp.o)
                              c:/Espressif/ESP8266_SDK_200/lib\liblwip.a(espconn_udp.o) (igmp_joingroup)
c:/Espressif/ESP8266_SDK_200/lib\liblwip.a(inet_chksum.o)
                              c:/Espressif/ESP8266_SDK_200/lib\liblwip.a(igmp.o) (inet_chksum)
c:/Espressif/ESP8266_SDK_200/lib\liblwip.a(init.o)
                              c:/Espressif/ESP8266_SDK_200/lib\libmain.a(app_main.o) (lwip_init)
c:/Espressif/ESP8266_SDK_200/lib\liblwip.a(ip_addr.o)
                              c:/Espressif/ESP8266_SDK_200/lib\liblwip.a(dhcp.o) (ip_addr_any)
c:/Espressif/ESP8266_SDK_200/lib\liblwip.a(ip.o)
                              c:/Espressif/ESP8266_SDK_200/lib\liblwip.a(etharp.o) (ip_input)
c:/Espressif/ESP8266_SDK_200/lib\liblwip.a(memp.o)
                              c:/Espressif/ESP8266_SDK_200/lib\liblwip.a(etharp.o) (memp_sizes)
c:/Espressif/ESP8266_SDK_200/lib\liblwip.a(netif.o)
                              c:/Espressif/ESP8266_SDK_200/lib\liblwip.a(dhcp.o) (netif_list)
c:/Espressif/ESP8266_SDK_200/lib\liblwip.a(pbuf.o)
                              c:/Espressif/ESP8266_SDK_200/lib\libnet80211.a(ieee80211_hostap.o) (pbuf_alloc)
c:/Espressif/ESP8266_SDK_200/lib\liblwip.a(raw.o)
                              c:/Espressif/ESP8266_SDK_200/lib\liblwip.a(ip.o) (raw_input)
c:/Espressif/ESP8266_SDK_200/lib\liblwip.a(tcp_in.o)
                              c:/Espressif/ESP8266_SDK_200/lib\liblwip.a(ip.o) (tcp_input)
c:/Espressif/ESP8266_SDK_200/lib\liblwip.a(tcp.o)
                              c:/Espressif/ESP8266_SDK_200/lib\liblwip.a(espconn_tcp.o) (tcp_active_pcbs)
c:/Espressif/ESP8266_SDK_200/lib\liblwip.a(tcp_out.o)
                              c:/Espressif/ESP8266_SDK_200/lib\liblwip.a(tcp.o) (tcp_send_fin)
c:/Espressif/ESP8266_SDK_200/lib\liblwip.a(timers.o)
                              c:/Espressif/ESP8266_SDK_200/lib\liblwip.a(tcp_in.o) (tcp_timer_needed)
c:/Espressif/ESP8266_SDK_200/lib\liblwip.a(udp.o)
                              c:/Espressif/ESP8266_SDK_200/lib\liblwip.a(ip.o) (udp_input)
c:/Espressif/ESP8266_SDK_200/lib\liblwip.a(espconn_buf.o)
                              c:/Espressif/ESP8266_SDK_200/lib\liblwip.a(espconn_tcp.o) (ringbuf_new)
c:/Espressif/ESP8266_SDK_200/lib\liblwip.a(icmp.o)
                              c:/Espressif/ESP8266_SDK_200/lib\liblwip.a(ip.o) (icmp_input)
c:/Espressif/ESP8266_SDK_200/lib\libwpa.a(ap_config.o)
                              c:/Espressif/ESP8266_SDK_200/lib\libnet80211.a(ieee80211_hostap.o) (hostapd_setup_wpa_psk)
c:/Espressif/ESP8266_SDK_200/lib\libwpa.a(common.o)
                              c:/Espressif/ESP8266_SDK_200/lib\libmain.a(user_interface.o) (hexstr2bin)
c:/Espressif/ESP8266_SDK_200/lib\libwpa.a(os_xtensa.o)
                              c:/Espressif/ESP8266_SDK_200/lib\libwpa.a(common.o) (os_get_time)
c:/Espressif/ESP8266_SDK_200/lib\libwpa.a(wpa_auth.o)
                              c:/Espressif/ESP8266_SDK_200/lib\libnet80211.a(ieee80211_hostap.o) (wpa_init)
c:/Espressif/ESP8266_SDK_200/lib\libwpa.a(wpa_auth_ie.o)
                              c:/Espressif/ESP8266_SDK_200/lib\libwpa.a(wpa_auth.o) (wpa_auth_gen_wpa_ie)
c:/Espressif/ESP8266_SDK_200/lib\libwpa.a(wpa.o)
                              c:/Espressif/ESP8266_SDK_200/lib\libnet80211.a(ieee80211_sta.o) (wpa_sm_rx_eapol)
c:/Espressif/ESP8266_SDK_200/lib\libwpa.a(wpa_common.o)
                              c:/Espressif/ESP8266_SDK_200/lib\libwpa.a(wpa_auth_ie.o) (wpa_parse_wpa_ie_rsn)
c:/Espressif/ESP8266_SDK_200/lib\libwpa.a(wpa_debug.o)
                              c:/Espressif/ESP8266_SDK_200/lib\libwpa.a(wpa_auth.o) (eloop_cancel_timeout)
c:/Espressif/ESP8266_SDK_200/lib\libwpa.a(wpa_ie.o)
                              c:/Espressif/ESP8266_SDK_200/lib\libnet80211.a(ieee80211_scan.o) (wpa_parse_wpa_ie)
c:/Espressif/ESP8266_SDK_200/lib\libwpa.a(wpa_main.o)
                              c:/Espressif/ESP8266_SDK_200/lib\libnet80211.a(wl_cnx.o) (ppInstallKey)
c:/Espressif/ESP8266_SDK_200/lib\libwpa.a(wpas_glue.o)
                              c:/Espressif/ESP8266_SDK_200/lib\libwpa.a(wpa.o) (wpa_sm_alloc_eapol)
c:/Espressif/ESP8266_SDK_200/lib\libsmartconfig.a(sc_sniffer.o)
                              build/debug/app_app.a(doSmartConfig.o) (smartconfig_stop)
c:/Espressif/ESP8266_SDK_200/lib\libsmartconfig.a(sc_airkiss.o)
                              c:/Espressif/ESP8266_SDK_200/lib\libsmartconfig.a(sc_sniffer.o) (pAKGuideGlob)
c:/Espressif/ESP8266_SDK_200/lib\libsmartconfig.a(sc_esptouch.o)
                              c:/Espressif/ESP8266_SDK_200/lib\libsmartconfig.a(sc_sniffer.o) (pETGuideGlob)
c:/Espressif/ESP8266_SDK_200/lib\libcrypto.a(aes-wrap.o)
                              c:/Espressif/ESP8266_SDK_200/lib\libwpa.a(wpa_auth.o) (aes_wrap)
c:/Espressif/ESP8266_SDK_200/lib\libcrypto.a(aes-internal-enc.o)
                              c:/Espressif/ESP8266_SDK_200/lib\libcrypto.a(aes-wrap.o) (aes_encrypt_init)
c:/Espressif/ESP8266_SDK_200/lib\libcrypto.a(aes-internal.o)
                              c:/Espressif/ESP8266_SDK_200/lib\libcrypto.a(aes-internal-enc.o) (rijndaelKeySetupEnc)
c:/espressif/xtensa-lx106-elf/bin/../lib/gcc/xtensa-lx106-elf/5.1.0/../../../../xtensa-lx106-elf/lib\libc.a(lib_a-memchr.o)
                              c:/Espressif/ESP8266_SDK_200/lib\liblwip.a(espconn_buf.o) (memchr)
c:/Espressif/ESP8266_SDK_200/lib\libgcc.a(_ashrdi3.o)
                              c:/Espressif/ESP8266_SDK_200/lib\libphy.a(phy_chip_v6.o) (__ashrdi3)
c:/Espressif/ESP8266_SDK_200/lib\libnet80211.a(ieee80211_crypto_tkip.o)
                              c:/Espressif/ESP8266_SDK_200/lib\libwpa.a(wpa_auth.o) (tkip)
c:/Espressif/ESP8266_SDK_200/lib\libnet80211.a(ieee80211_crypto_wep.o)
                              c:/Espressif/ESP8266_SDK_200/lib\libwpa.a(wpa_auth.o) (wep)

Allocating common symbols
Common symbol       size              file

default_private_key
                    0x4               build/debug/app_app.a(mqtt.o)
flashState          0x4               build/debug/app_app.a(flash.o)
savedLastAction     0x4               build/debug/app_app.a(user_main.o)
taskQueue           0xa0              build/debug/app_app.a(user_main.o)
mqttClient          0xd0              build/debug/app_app.a(user_main.o)
default_certificate
                    0x4               build/debug/app_app.a(mqtt.o)
mqttConnected       0x1               build/debug/app_app.a(user_main.o)
flashFinishedCb     0x4               build/debug/app_app.a(flash.o)
transmit_timer      0x14              build/debug/app_app.a(user_main.o)
sysCfg              0x1b0             build/debug/app_app.a(config.o)
mqtt_procTaskQueue  0x8               build/debug/app_app.a(mqtt.o)
saveFlag            0x4               build/debug/app_app.a(config.o)

Memory Configuration

Name             Origin             Length             Attributes
dport0_0_seg     0x3ff00000         0x00000010
dram0_0_seg      0x3ffe8000         0x00014000
iram1_0_seg      0x40100000         0x00008000
irom0_0_seg      0x40210000         0x0005c000
*default*        0x00000000         0xffffffff

Linker script and memory map

START GROUP
LOAD c:/espressif/xtensa-lx106-elf/bin/../lib/gcc/xtensa-lx106-elf/5.1.0/../../../../xtensa-lx106-elf/lib\libc.a
LOAD c:/Espressif/ESP8266_SDK_200/lib\libgcc.a
LOAD c:/espressif/xtensa-lx106-elf/bin/../lib/gcc/xtensa-lx106-elf/5.1.0/../../../../xtensa-lx106-elf/lib\libhal.a
LOAD c:/Espressif/ESP8266_SDK_200/lib\libphy.a
LOAD c:/Espressif/ESP8266_SDK_200/lib\libpp.a
LOAD c:/Espressif/ESP8266_SDK_200/lib\libnet80211.a
LOAD c:/Espressif/ESP8266_SDK_200/lib\liblwip.a
LOAD c:/Espressif/ESP8266_SDK_200/lib\libwpa.a
LOAD c:/Espressif/ESP8266_SDK_200/lib\libmain.a
LOAD c:/Espressif/ESP8266_SDK_200/lib\libupgrade.a
LOAD c:/Espressif/ESP8266_SDK_200/lib\libssl.a
LOAD c:/Espressif/ESP8266_SDK_200/lib\libsmartconfig.a
LOAD c:/Espressif/ESP8266_SDK_200/lib\libcrypto.a
LOAD build/debug/app_app.a
END GROUP
                0x40000000                PROVIDE (_memmap_vecbase_reset, 0x40000000)
                0x00000110                _memmap_cacheattr_wb_base = 0x110
                0x00000110                _memmap_cacheattr_wt_base = 0x110
                0x00000220                _memmap_cacheattr_bp_base = 0x220
                0xfffff00f                _memmap_cacheattr_unused_mask = 0xfffff00f
                0x2222211f                _memmap_cacheattr_wb_trapnull = 0x2222211f
                0x2222211f                _memmap_cacheattr_wba_trapnull = 0x2222211f
                0x2222211f                _memmap_cacheattr_wbna_trapnull = 0x2222211f
                0x2222211f                _memmap_cacheattr_wt_trapnull = 0x2222211f
                0x2222222f                _memmap_cacheattr_bp_trapnull = 0x2222222f
                0xfffff11f                _memmap_cacheattr_wb_strict = 0xfffff11f
                0xfffff11f                _memmap_cacheattr_wt_strict = 0xfffff11f
                0xfffff22f                _memmap_cacheattr_bp_strict = 0xfffff22f
                0x22222112                _memmap_cacheattr_wb_allvalid = 0x22222112
                0x22222112                _memmap_cacheattr_wt_allvalid = 0x22222112
                0x22222222                _memmap_cacheattr_bp_allvalid = 0x22222222
                0x2222211f                PROVIDE (_memmap_cacheattr_reset, _memmap_cacheattr_wb_trapnull)

.dport0.rodata  0x3ff00000        0x0
                0x3ff00000                _dport0_rodata_start = ABSOLUTE (.)
 *(.dport0.rodata)
 *(.dport.rodata)
                0x3ff00000                _dport0_rodata_end = ABSOLUTE (.)

.dport0.literal
                0x3ff00000        0x0
                0x3ff00000                _dport0_literal_start = ABSOLUTE (.)
 *(.dport0.literal)
 *(.dport.literal)
                0x3ff00000                _dport0_literal_end = ABSOLUTE (.)

.dport0.data    0x3ff00000        0x0
                0x3ff00000                _dport0_data_start = ABSOLUTE (.)
 *(.dport0.data)
 *(.dport.data)
                0x3ff00000                _dport0_data_end = ABSOLUTE (.)

.data           0x3ffe8000      0x821
                0x3ffe8000                _data_start = ABSOLUTE (.)
 *(.data)
 .data          0x3ffe8000        0x0 c:/Espressif/ESP8266_SDK_200/lib\libmain.a(debug-vector.o)
 .data          0x3ffe8000        0x0 c:/Espressif/ESP8266_SDK_200/lib\libmain.a(double-vector.o)
 .data          0x3ffe8000        0x0 c:/Espressif/ESP8266_SDK_200/lib\libmain.a(kernel-vector.o)
 .data          0x3ffe8000        0x4 c:/Espressif/ESP8266_SDK_200/lib\libmain.a(nmi-vector.o)
                0x3ffe8000                _Pri_3_HandlerAddress
 .data          0x3ffe8004        0x0 c:/Espressif/ESP8266_SDK_200/lib\libmain.a(user-vector.o)
 .data          0x3ffe8004        0x0 c:/Espressif/ESP8266_SDK_200/lib\libmain.a(vector.o)
 .data          0x3ffe8004        0x1 c:/Espressif/ESP8266_SDK_200/lib\libmain.a(app_main.o)
 .data          0x3ffe8005        0x0 c:/Espressif/ESP8266_SDK_200/lib\libmain.a(ets_timer.o)
 .data          0x3ffe8005        0x0 c:/Espressif/ESP8266_SDK_200/lib\libmain.a(mem_manager.o)
 .data          0x3ffe8005        0x0 c:/Espressif/ESP8266_SDK_200/lib\libmain.a(spi_flash.o)
 *fill*         0x3ffe8005        0x3 
 .data          0x3ffe8008        0x6 c:/Espressif/ESP8266_SDK_200/lib\libmain.a(user_interface.o)
                0x3ffe8009                timer2_ms_flag
                0x3ffe800a                dhcps_flag
                0x3ffe800b                dhcpc_flag
                0x3ffe800d                reconnect_internal
 .data          0x3ffe800e        0x0 c:/Espressif/ESP8266_SDK_200/lib\libmain.a(eagle_lib.o)
 *fill*         0x3ffe800e        0x2 
 .data          0x3ffe8010        0x1 c:/Espressif/ESP8266_SDK_200/lib\libmain.a(eagle_lwip_if.o)
                0x3ffe8010                default_hostname
 *fill*         0x3ffe8011        0x3 
 .data          0x3ffe8014        0x8 build/debug/app_app.a(user_main.o)
                0x3ffe8018                version
 .data          0x3ffe801c        0x0 build/debug/app_app.a(config.o)
 .data          0x3ffe801c        0x3 build/debug/app_app.a(io.o)
                0x3ffe801c                pirPins
 .data          0x3ffe801f        0x0 build/debug/app_app.a(switch.o)
 .data          0x3ffe801f        0x0 build/debug/app_app.a(http.o)
 .data          0x3ffe801f        0x0 build/debug/app_app.a(easygpio.o)
 *fill*         0x3ffe801f        0x1 
 .data          0x3ffe8020        0x4 build/debug/app_app.a(wifi.o)
 .data          0x3ffe8024        0x0 build/debug/app_app.a(flash.o)
 .data          0x3ffe8024        0x0 build/debug/app_app.a(doSmartConfig.o)
 .data          0x3ffe8024        0x0 build/debug/app_app.a(stdout.o)
 .data          0x3ffe8024        0x4 build/debug/app_app.a(check.o)
 .data          0x3ffe8028        0x0 build/debug/app_app.a(mqtt.o)
 .data          0x3ffe8028        0x5 build/debug/app_app.a(publish.o)
 .data          0x3ffe802d        0x0 build/debug/app_app.a(temperature.o)
 .data          0x3ffe802d        0x0 build/debug/app_app.a(dht22.o)
 .data          0x3ffe802d        0x0 build/debug/app_app.a(ds18b20.o)
 .data          0x3ffe802d        0x0 build/debug/app_app.a(decodeMessage.o)
 .data          0x3ffe802d        0x0 build/debug/app_app.a(jsmn.o)
 .data          0x3ffe802d        0x0 build/debug/app_app.a(dtoa.o)
 .data          0x3ffe802d        0x0 build/debug/app_app.a(utils.o)
 .data          0x3ffe802d        0x0 build/debug/app_app.a(queue.o)
 .data          0x3ffe802d        0x0 build/debug/app_app.a(mqtt_msg.o)
 .data          0x3ffe802d        0x0 build/debug/app_app.a(ringbuf.o)
 .data          0x3ffe802d        0x0 build/debug/app_app.a(proto.o)
 .data          0x3ffe802d        0x0 c:/espressif/xtensa-lx106-elf/bin/../lib/gcc/xtensa-lx106-elf/5.1.0/../../../../xtensa-lx106-elf/lib\libc.a(lib_a-atoi.o)
 .data          0x3ffe802d        0x0 c:/espressif/xtensa-lx106-elf/bin/../lib/gcc/xtensa-lx106-elf/5.1.0/../../../../xtensa-lx106-elf/lib\libc.a(lib_a-lcltime.o)
 .data          0x3ffe802d        0x0 c:/espressif/xtensa-lx106-elf/bin/../lib/gcc/xtensa-lx106-elf/5.1.0/../../../../xtensa-lx106-elf/lib\libc.a(lib_a-lcltime_r.o)
 .data          0x3ffe802d        0x0 c:/espressif/xtensa-lx106-elf/bin/../lib/gcc/xtensa-lx106-elf/5.1.0/../../../../xtensa-lx106-elf/lib\libc.a(lib_a-memcpy.o)
 .data          0x3ffe802d        0x0 c:/espressif/xtensa-lx106-elf/bin/../lib/gcc/xtensa-lx106-elf/5.1.0/../../../../xtensa-lx106-elf/lib\libc.a(lib_a-memset.o)
 .data          0x3ffe802d        0x0 c:/espressif/xtensa-lx106-elf/bin/../lib/gcc/xtensa-lx106-elf/5.1.0/../../../../xtensa-lx106-elf/lib\libc.a(lib_a-mktm_r.o)
 .data          0x3ffe802d        0x0 c:/espressif/xtensa-lx106-elf/bin/../lib/gcc/xtensa-lx106-elf/5.1.0/../../../../xtensa-lx106-elf/lib\libc.a(lib_a-strcmp.o)
 .data          0x3ffe802d        0x0 c:/espressif/xtensa-lx106-elf/bin/../lib/gcc/xtensa-lx106-elf/5.1.0/../../../../xtensa-lx106-elf/lib\libc.a(lib_a-strlen.o)
 .data          0x3ffe802d        0x0 c:/espressif/xtensa-lx106-elf/bin/../lib/gcc/xtensa-lx106-elf/5.1.0/../../../../xtensa-lx106-elf/lib\libc.a(lib_a-strtol.o)
 .data          0x3ffe802d        0x0 c:/espressif/xtensa-lx106-elf/bin/../lib/gcc/xtensa-lx106-elf/5.1.0/../../../../xtensa-lx106-elf/lib\libc.a(lib_a-tzlock.o)
 *fill*         0x3ffe802d        0x3 
 .data          0x3ffe8030        0x8 c:/espressif/xtensa-lx106-elf/bin/../lib/gcc/xtensa-lx106-elf/5.1.0/../../../../xtensa-lx106-elf/lib\libc.a(lib_a-tzvars.o)
                0x3ffe8030                _tzname
 .data          0x3ffe8038        0x4 c:/espressif/xtensa-lx106-elf/bin/../lib/gcc/xtensa-lx106-elf/5.1.0/../../../../xtensa-lx106-elf/lib\libc.a(lib_a-ctype_.o)
                0x3ffe8038                __ctype_ptr__
 .data          0x3ffe803c       0x40 c:/espressif/xtensa-lx106-elf/bin/../lib/gcc/xtensa-lx106-elf/5.1.0/../../../../xtensa-lx106-elf/lib\libc.a(lib_a-gettzinfo.o)
 *fill*         0x3ffe807c        0x4 
 .data          0x3ffe8080      0x430 c:/espressif/xtensa-lx106-elf/bin/../lib/gcc/xtensa-lx106-elf/5.1.0/../../../../xtensa-lx106-elf/lib\libc.a(lib_a-impure.o)
                0x3ffe8080                _impure_ptr
 .data          0x3ffe84b0        0x0 c:/Espressif/ESP8266_SDK_200/lib\libgcc.a(_modsi3.o)
 .data          0x3ffe84b0        0x0 c:/Espressif/ESP8266_SDK_200/lib\libgcc.a(_mulsf3.o)
 .data          0x3ffe84b0        0x0 c:/Espressif/ESP8266_SDK_200/lib\libgcc.a(_divsf3.o)
 .data          0x3ffe84b0        0x0 c:/Espressif/ESP8266_SDK_200/lib\libgcc.a(_cmpsf2.o)
 .data          0x3ffe84b0        0x0 c:/Espressif/ESP8266_SDK_200/lib\libgcc.a(_fixsfsi.o)
 .data          0x3ffe84b0        0x0 c:/Espressif/ESP8266_SDK_200/lib\libgcc.a(_cmpdf2.o)
 .data          0x3ffe84b0        0x0 c:/espressif/xtensa-lx106-elf/bin/../lib/gcc/xtensa-lx106-elf/5.1.0/../../../../xtensa-lx106-elf/lib\libhal.a(int_asm--set_intclear.o)
 .data          0x3ffe84b0        0x0 c:/Espressif/ESP8266_SDK_200/lib\libphy.a(phy.o)
 .data          0x3ffe84b0        0x0 c:/Espressif/ESP8266_SDK_200/lib\libphy.a(phy_chip_v6_ana.o)
 .data          0x3ffe84b0       0x53 c:/Espressif/ESP8266_SDK_200/lib\libphy.a(phy_chip_v6.o)
                0x3ffe84b2                tx_rf_ana_gain
                0x3ffe84e0                rx_gain_swp
                0x3ffe8500                test_rffreq_txcap
 *fill*         0x3ffe8503        0x1 
 .data          0x3ffe8504        0x1 c:/Espressif/ESP8266_SDK_200/lib\libphy.a(phy_chip_v6_cal.o)
                0x3ffe8504                rfcal_bb_atten_init
 .data          0x3ffe8505        0x0 c:/Espressif/ESP8266_SDK_200/lib\libphy.a(phy_chip_v6_unused.o)
 *fill*         0x3ffe8505        0x3 
 .data          0x3ffe8508        0x4 c:/Espressif/ESP8266_SDK_200/lib\libphy.a(phy_sleep.o)
                0x3ffe8508                chip_version
 .data          0x3ffe850c        0x0 c:/Espressif/ESP8266_SDK_200/lib\libpp.a(if_hwctrl.o)
 .data          0x3ffe850c        0x0 c:/Espressif/ESP8266_SDK_200/lib\libpp.a(lmac.o)
 .data          0x3ffe850c        0x1 c:/Espressif/ESP8266_SDK_200/lib\libpp.a(pm.o)
 *fill*         0x3ffe850d        0x3 
 .data          0x3ffe8510        0x1 c:/Espressif/ESP8266_SDK_200/lib\libpp.a(pm_for_bcn_only_mode.o)
 *fill*         0x3ffe8511        0x3 
 .data          0x3ffe8514       0x1c c:/Espressif/ESP8266_SDK_200/lib\libpp.a(pp.o)
                0x3ffe8514                soft_wdt_interval
                0x3ffe8518                NoiseTimerInterval
                0x3ffe8520                sleep_start_wait_time
                0x3ffe8528                CanDoFreqCal
                0x3ffe852c                tcb
 .data          0x3ffe8530       0x40 c:/Espressif/ESP8266_SDK_200/lib\libpp.a(rate_control.o)
 .data          0x3ffe8570      0x24c c:/Espressif/ESP8266_SDK_200/lib\libpp.a(trc.o)
 .data          0x3ffe87bc        0x8 c:/Espressif/ESP8266_SDK_200/lib\libpp.a(wdev.o)
 .data          0x3ffe87c4        0x0 c:/Espressif/ESP8266_SDK_200/lib\libpp.a(esf_buf.o)
 .data          0x3ffe87c4        0x0 c:/Espressif/ESP8266_SDK_200/lib\libnet80211.a(ieee80211.o)
 .data          0x3ffe87c4        0x0 c:/Espressif/ESP8266_SDK_200/lib\libnet80211.a(ieee80211_crypto.o)
 .data          0x3ffe87c4        0x0 c:/Espressif/ESP8266_SDK_200/lib\libnet80211.a(ieee80211_ets.o)
 .data          0x3ffe87c4        0x1 c:/Espressif/ESP8266_SDK_200/lib\libnet80211.a(ieee80211_hostap.o)
                0x3ffe87c4                TmpSTAAPCloseAP
 .data          0x3ffe87c5        0x0 c:/Espressif/ESP8266_SDK_200/lib\libnet80211.a(ieee80211_ht.o)
 .data          0x3ffe87c5        0x0 c:/Espressif/ESP8266_SDK_200/lib\libnet80211.a(ieee80211_input.o)
 .data          0x3ffe87c5        0x0 c:/Espressif/ESP8266_SDK_200/lib\libnet80211.a(ieee80211_mesh_quick.o)
 .data          0x3ffe87c5        0x0 c:/Espressif/ESP8266_SDK_200/lib\libnet80211.a(ieee80211_output.o)
 .data          0x3ffe87c5        0x0 c:/Espressif/ESP8266_SDK_200/lib\libnet80211.a(ieee80211_phy.o)
 .data          0x3ffe87c5        0x0 c:/Espressif/ESP8266_SDK_200/lib\libnet80211.a(ieee80211_power.o)
 .data          0x3ffe87c5        0x0 c:/Espressif/ESP8266_SDK_200/lib\libnet80211.a(ieee80211_proto.o)
 .data          0x3ffe87c5        0x0 c:/Espressif/ESP8266_SDK_200/lib\libnet80211.a(ieee80211_regdomain.o)
 .data          0x3ffe87c5        0x0 c:/Espressif/ESP8266_SDK_200/lib\libnet80211.a(ieee80211_rfid.o)
 .data          0x3ffe87c5        0x0 c:/Espressif/ESP8266_SDK_200/lib\libnet80211.a(ieee80211_scan.o)
 .data          0x3ffe87c5        0x0 c:/Espressif/ESP8266_SDK_200/lib\libnet80211.a(ieee80211_sta.o)
 .data          0x3ffe87c5        0x0 c:/Espressif/ESP8266_SDK_200/lib\libnet80211.a(wl_chm.o)
 *fill*         0x3ffe87c5        0x3 
 .data          0x3ffe87c8        0x1 c:/Espressif/ESP8266_SDK_200/lib\libnet80211.a(wl_cnx.o)
 *fill*         0x3ffe87c9        0x7 
 .data          0x3ffe87d0       0x1c c:/Espressif/ESP8266_SDK_200/lib\libnet80211.a(ieee80211_action.o)
 .data          0x3ffe87ec        0x0 c:/Espressif/ESP8266_SDK_200/lib\libnet80211.a(ieee80211_action_vendor.o)
 .data          0x3ffe87ec        0x0 c:/Espressif/ESP8266_SDK_200/lib\libnet80211.a(ieee80211_crypto_ccmp.o)
 .data          0x3ffe87ec        0x0 c:/Espressif/ESP8266_SDK_200/lib\libnet80211.a(ieee80211_ie_vendor.o)
 .data          0x3ffe87ec        0x4 c:/Espressif/ESP8266_SDK_200/lib\liblwip.a(dhcp.o)
 .data          0x3ffe87f0        0x5 c:/Espressif/ESP8266_SDK_200/lib\liblwip.a(dhcpserver.o)
                0x3ffe87f0                dhcps_lease_time
 .data          0x3ffe87f5        0x0 c:/Espressif/ESP8266_SDK_200/lib\liblwip.a(dns.o)
 .data          0x3ffe87f5        0x0 c:/Espressif/ESP8266_SDK_200/lib\liblwip.a(espconn.o)
 .data          0x3ffe87f5        0x0 c:/Espressif/ESP8266_SDK_200/lib\liblwip.a(espconn_tcp.o)
 .data          0x3ffe87f5        0x0 c:/Espressif/ESP8266_SDK_200/lib\liblwip.a(espconn_udp.o)
 .data          0x3ffe87f5        0x0 c:/Espressif/ESP8266_SDK_200/lib\liblwip.a(etharp.o)
 .data          0x3ffe87f5        0x0 c:/Espressif/ESP8266_SDK_200/lib\liblwip.a(igmp.o)
 .data          0x3ffe87f5        0x0 c:/Espressif/ESP8266_SDK_200/lib\liblwip.a(inet_chksum.o)
 .data          0x3ffe87f5        0x0 c:/Espressif/ESP8266_SDK_200/lib\liblwip.a(init.o)
 .data          0x3ffe87f5        0x0 c:/Espressif/ESP8266_SDK_200/lib\liblwip.a(ip_addr.o)
 .data          0x3ffe87f5        0x0 c:/Espressif/ESP8266_SDK_200/lib\liblwip.a(ip.o)
 *fill*         0x3ffe87f5        0x3 
 .data          0x3ffe87f8        0x2 c:/Espressif/ESP8266_SDK_200/lib\liblwip.a(memp.o)
                0x3ffe87f8                memp_sizes_test
 .data          0x3ffe87fa        0x0 c:/Espressif/ESP8266_SDK_200/lib\liblwip.a(netif.o)
 .data          0x3ffe87fa        0x0 c:/Espressif/ESP8266_SDK_200/lib\liblwip.a(pbuf.o)
 .data          0x3ffe87fa        0x0 c:/Espressif/ESP8266_SDK_200/lib\liblwip.a(raw.o)
 .data          0x3ffe87fa        0x0 c:/Espressif/ESP8266_SDK_200/lib\liblwip.a(tcp_in.o)
 *fill*         0x3ffe87fa        0x2 
 .data          0x3ffe87fc        0x8 c:/Espressif/ESP8266_SDK_200/lib\liblwip.a(tcp.o)
 .data          0x3ffe8804        0x0 c:/Espressif/ESP8266_SDK_200/lib\liblwip.a(tcp_out.o)
 .data          0x3ffe8804        0x0 c:/Espressif/ESP8266_SDK_200/lib\liblwip.a(timers.o)
 .data          0x3ffe8804        0x0 c:/Espressif/ESP8266_SDK_200/lib\liblwip.a(udp.o)
 .data          0x3ffe8804        0x0 c:/Espressif/ESP8266_SDK_200/lib\liblwip.a(espconn_buf.o)
 .data          0x3ffe8804        0x0 c:/Espressif/ESP8266_SDK_200/lib\liblwip.a(icmp.o)
 .data          0x3ffe8804        0x0 c:/Espressif/ESP8266_SDK_200/lib\libwpa.a(ap_config.o)
 .data          0x3ffe8804        0x0 c:/Espressif/ESP8266_SDK_200/lib\libwpa.a(common.o)
 .data          0x3ffe8804        0x0 c:/Espressif/ESP8266_SDK_200/lib\libwpa.a(os_xtensa.o)
 .data          0x3ffe8804        0x0 c:/Espressif/ESP8266_SDK_200/lib\libwpa.a(wpa_auth.o)
 .data          0x3ffe8804        0x0 c:/Espressif/ESP8266_SDK_200/lib\libwpa.a(wpa_auth_ie.o)
 .data          0x3ffe8804        0x0 c:/Espressif/ESP8266_SDK_200/lib\libwpa.a(wpa.o)
 .data          0x3ffe8804        0x0 c:/Espressif/ESP8266_SDK_200/lib\libwpa.a(wpa_common.o)
 .data          0x3ffe8804        0x0 c:/Espressif/ESP8266_SDK_200/lib\libwpa.a(wpa_debug.o)
 .data          0x3ffe8804        0x0 c:/Espressif/ESP8266_SDK_200/lib\libwpa.a(wpa_ie.o)
 .data          0x3ffe8804        0x0 c:/Espressif/ESP8266_SDK_200/lib\libwpa.a(wpa_main.o)
 .data          0x3ffe8804        0x0 c:/Espressif/ESP8266_SDK_200/lib\libwpa.a(wpas_glue.o)
 *fill*         0x3ffe8804        0x4 
 .data          0x3ffe8808        0xe c:/Espressif/ESP8266_SDK_200/lib\libsmartconfig.a(sc_sniffer.o)
                0x3ffe8808                g_SC_Select
                0x3ffe8810                ET_Group_bssid
 *fill*         0x3ffe8816        0x2 
 .data          0x3ffe8818        0x6 c:/Espressif/ESP8266_SDK_200/lib\libsmartconfig.a(sc_airkiss.o)
                0x3ffe8818                AK_Group_bssid
 *fill*         0x3ffe881e        0x2 
 .data          0x3ffe8820        0x1 c:/Espressif/ESP8266_SDK_200/lib\libsmartconfig.a(sc_esptouch.o)
                0x3ffe8820                g_ET_TimeOut
 .data          0x3ffe8821        0x0 c:/Espressif/ESP8266_SDK_200/lib\libcrypto.a(aes-wrap.o)
 .data          0x3ffe8821        0x0 c:/Espressif/ESP8266_SDK_200/lib\libcrypto.a(aes-internal-enc.o)
 .data          0x3ffe8821        0x0 c:/Espressif/ESP8266_SDK_200/lib\libcrypto.a(aes-internal.o)
 .data          0x3ffe8821        0x0 c:/espressif/xtensa-lx106-elf/bin/../lib/gcc/xtensa-lx106-elf/5.1.0/../../../../xtensa-lx106-elf/lib\libc.a(lib_a-memchr.o)
 .data          0x3ffe8821        0x0 c:/Espressif/ESP8266_SDK_200/lib\libgcc.a(_ashrdi3.o)
 .data          0x3ffe8821        0x0 c:/Espressif/ESP8266_SDK_200/lib\libnet80211.a(ieee80211_crypto_tkip.o)
 .data          0x3ffe8821        0x0 c:/Espressif/ESP8266_SDK_200/lib\libnet80211.a(ieee80211_crypto_wep.o)
 *(.data.*)
 *(.gnu.linkonce.d.*)
 *(.data1)
 *(.sdata)
 *(.sdata.*)
 *(.gnu.linkonce.s.*)
 *(.sdata2)
 *(.sdata2.*)
 *(.gnu.linkonce.s2.*)
 *(.jcr)
                0x3ffe8821                _data_end = ABSOLUTE (.)

.noinit         0x3ffe8824        0x4
 .noinit        0x3ffe8824        0x4 build/debug/app_app.a(user_main.o)
                0x3ffe8824                lastAction

.rodata         0x3ffe8830     0x19c4
                0x3ffe8830                _rodata_start = ABSOLUTE (.)
 *(.sdk.version)
 .sdk.version   0x3ffe8830        0xf c:/Espressif/ESP8266_SDK_200/lib\libmain.a(app_main.o)
                0x3ffe8830                SDK_VERSION
 *(.rodata)
 *fill*         0x3ffe883f        0x1 
 .rodata        0x3ffe8840       0x4c build/debug/app_app.a(user_main.o)
 .rodata        0x3ffe888c        0x4 build/debug/app_app.a(io.o)
                0x3ffe888c                outputMap
 .rodata        0x3ffe8890       0x40 build/debug/app_app.a(easygpio.o)
 .rodata        0x3ffe88d0       0x14 build/debug/app_app.a(wifi.o)
 .rodata        0x3ffe88e4       0x48 build/debug/app_app.a(mqtt.o)
 .rodata        0x3ffe892c       0x20 build/debug/app_app.a(ds18b20.o)
 .rodata        0x3ffe894c      0x160 build/debug/app_app.a(jsmn.o)
 .rodata        0x3ffe8aac       0x68 c:/espressif/xtensa-lx106-elf/bin/../lib/gcc/xtensa-lx106-elf/5.1.0/../../../../xtensa-lx106-elf/lib\libc.a(lib_a-mktm_r.o)
 .rodata        0x3ffe8b14      0x101 c:/espressif/xtensa-lx106-elf/bin/../lib/gcc/xtensa-lx106-elf/5.1.0/../../../../xtensa-lx106-elf/lib\libc.a(lib_a-ctype_.o)
                0x3ffe8b14                _ctype_
 *fill*         0x3ffe8c15        0x3 
 .rodata        0x3ffe8c18        0x4 c:/espressif/xtensa-lx106-elf/bin/../lib/gcc/xtensa-lx106-elf/5.1.0/../../../../xtensa-lx106-elf/lib\libc.a(lib_a-impure.o)
                0x3ffe8c18                _global_impure_ptr
 .rodata        0x3ffe8c1c        0x8 c:/Espressif/ESP8266_SDK_200/lib\libphy.a(phy_chip_v6_ana.o)
 .rodata        0x3ffe8c24        0x8 c:/Espressif/ESP8266_SDK_200/lib\libphy.a(phy_chip_v6.o)
 .rodata        0x3ffe8c2c        0x4 c:/Espressif/ESP8266_SDK_200/lib\libpp.a(pp.o)
 .rodata        0x3ffe8c30        0x8 c:/Espressif/ESP8266_SDK_200/lib\libnet80211.a(ieee80211_hostap.o)
 .rodata        0x3ffe8c38        0x9 c:/Espressif/ESP8266_SDK_200/lib\libnet80211.a(ieee80211_output.o)
 *fill*         0x3ffe8c41        0x3 
 .rodata        0x3ffe8c44        0x6 c:/Espressif/ESP8266_SDK_200/lib\liblwip.a(etharp.o)
                0x3ffe8c44                ethbroadcast
 *fill*         0x3ffe8c4a        0x6 
 .rodata        0x3ffe8c50       0x74 c:/Espressif/ESP8266_SDK_200/lib\liblwip.a(espconn_buf.o)
 *fill*         0x3ffe8cc4        0x4 
 .rodata        0x3ffe8cc8        0x7 c:/Espressif/ESP8266_SDK_200/lib\libsmartconfig.a(sc_sniffer.o)
                0x3ffe8cc8                SC_VERSION
 *fill*         0x3ffe8ccf        0x1 
 .rodata        0x3ffe8cd0        0x8 c:/Espressif/ESP8266_SDK_200/lib\libsmartconfig.a(sc_airkiss.o)
                0x3ffe8cd0                RSSI_MIN
                0x3ffe8cd1                RSSI_BEAR
                0x3ffe8cd2                DATA_RSSI_BEAR
                0x3ffe8cd4                weixin_ip
 *(.rodata.*)
 .rodata.str1.4
                0x3ffe8cd8        0xc c:/Espressif/ESP8266_SDK_200/lib\libmain.a(app_main.o)
 .rodata.str1.4
                0x3ffe8ce4        0x4 c:/Espressif/ESP8266_SDK_200/lib\libmain.a(ets_timer.o)
                                  0xc (size before relaxing)
 .rodata.str1.4
                0x3ffe8ce8       0x1a c:/Espressif/ESP8266_SDK_200/lib\libmain.a(mem_manager.o)
 *fill*         0x3ffe8d02        0x2 
 .rodata.str1.4
                0x3ffe8d04      0x3b9 build/debug/app_app.a(user_main.o)
                                0x3c9 (size before relaxing)
 *fill*         0x3ffe90bd        0x3 
 .rodata.str1.4
                0x3ffe90c0       0xcb build/debug/app_app.a(config.o)
                                 0xde (size before relaxing)
 *fill*         0x3ffe918b        0x1 
 .rodata.str1.4
                0x3ffe918c       0x8d build/debug/app_app.a(io.o)
                                 0x91 (size before relaxing)
 *fill*         0x3ffe9219        0x3 
 .rodata.str1.4
                0x3ffe921c      0x4af build/debug/app_app.a(http.o)
                                0x4bf (size before relaxing)
 *fill*         0x3ffe96cb        0x1 
 .rodata.str1.4
                0x3ffe96cc       0xd8 build/debug/app_app.a(easygpio.o)
 .rodata.str1.4
                0x3ffe97a4      0x1d9 build/debug/app_app.a(wifi.o)
 *fill*         0x3ffe997d        0x3 
 .rodata.str1.4
                0x3ffe9980       0x23 build/debug/app_app.a(flash.o)
 *fill*         0x3ffe99a3        0x1 
 .rodata.str1.4
                0x3ffe99a4       0x4e build/debug/app_app.a(check.o)
 *fill*         0x3ffe99f2        0x2 
 .rodata.str1.4
                0x3ffe99f4      0x184 build/debug/app_app.a(mqtt.o)
                                0x188 (size before relaxing)
 .rodata.str1.4
                0x3ffe9b78      0x296 build/debug/app_app.a(publish.o)
                                0x2ae (size before relaxing)
 *fill*         0x3ffe9e0e        0x2 
 .rodata.str1.4
                0x3ffe9e10      0x14d build/debug/app_app.a(temperature.o)
                                0x151 (size before relaxing)
 *fill*         0x3ffe9f5d        0x3 
 .rodata.str1.4
                0x3ffe9f60       0x7f build/debug/app_app.a(dht22.o)
 *fill*         0x3ffe9fdf        0x1 
 .rodata.str1.4
                0x3ffe9fe0       0xd8 build/debug/app_app.a(decodeMessage.o)
                                 0xe8 (size before relaxing)
 .rodata.str1.4
                0x3ffea0b8       0x6b build/debug/app_app.a(jsmn.o)
                                 0x6f (size before relaxing)
 .rodata.str1.4
                0x00000000        0x1 build/debug/app_app.a(queue.o)
 *fill*         0x3ffea123        0x1 
 .rodata.str1.4
                0x3ffea124       0x63 build/debug/app_app.a(mqtt_msg.o)
 .rodata.str1.1
                0x3ffea187        0x4 c:/espressif/xtensa-lx106-elf/bin/../lib/gcc/xtensa-lx106-elf/5.1.0/../../../../xtensa-lx106-elf/lib\libc.a(lib_a-tzvars.o)
 .rodata.str1.1
                0x3ffea18b        0x2 c:/espressif/xtensa-lx106-elf/bin/../lib/gcc/xtensa-lx106-elf/5.1.0/../../../../xtensa-lx106-elf/lib\libc.a(lib_a-impure.o)
 *fill*         0x3ffea18d        0x3 
 .rodata.str1.4
                0x3ffea190        0x4 c:/Espressif/ESP8266_SDK_200/lib\libpp.a(lmac.o)
                                  0xc (size before relaxing)
 .rodata.str1.4
                0x3ffea194        0x3 c:/Espressif/ESP8266_SDK_200/lib\libpp.a(pm.o)
                                  0xb (size before relaxing)
 *fill*         0x3ffea197        0x1 
 .rodata.str1.4
                0x3ffea198        0x4 c:/Espressif/ESP8266_SDK_200/lib\libpp.a(pm_for_bcn_only_mode.o)
                                  0xc (size before relaxing)
 .rodata.str1.4
                0x3ffea19c        0x8 c:/Espressif/ESP8266_SDK_200/lib\libpp.a(pp.o)
                                 0x10 (size before relaxing)
 .rodata.str1.4
                0x3ffea1a4        0x4 c:/Espressif/ESP8266_SDK_200/lib\libpp.a(wdev.o)
                                  0xc (size before relaxing)
 .rodata.str1.4
                0x3ffea1a8        0x3 c:/Espressif/ESP8266_SDK_200/lib\libnet80211.a(ieee80211_hostap.o)
                                  0x8 (size before relaxing)
 *fill*         0x3ffea1ab        0x1 
 .rodata.str1.4
                0x3ffea1ac        0x7 c:/Espressif/ESP8266_SDK_200/lib\libnet80211.a(ieee80211_mesh_quick.o)
 .rodata.str1.4
                0x00000000        0x4 c:/Espressif/ESP8266_SDK_200/lib\libnet80211.a(ieee80211_sta.o)
 .rodata.str1.4
                0x00000000        0x4 c:/Espressif/ESP8266_SDK_200/lib\libnet80211.a(ieee80211_action_vendor.o)
 .rodata.str1.4
                0x00000000        0x4 c:/Espressif/ESP8266_SDK_200/lib\libnet80211.a(ieee80211_ie_vendor.o)
 .rodata.str1.4
                0x00000000        0x1 c:/Espressif/ESP8266_SDK_200/lib\liblwip.a(espconn_tcp.o)
 *fill*         0x3ffea1b3        0x1 
 .rodata.str1.4
                0x3ffea1b4        0x5 c:/Espressif/ESP8266_SDK_200/lib\libwpa.a(wpa_debug.o)
                                  0xd (size before relaxing)
 *fill*         0x3ffea1b9        0x3 
 .rodata.str1.4
                0x3ffea1bc        0xd c:/Espressif/ESP8266_SDK_200/lib\libsmartconfig.a(sc_sniffer.o)
 *fill*         0x3ffea1c9        0x3 
 .rodata.str1.4
                0x3ffea1cc        0xd c:/Espressif/ESP8266_SDK_200/lib\libsmartconfig.a(sc_airkiss.o)
 *fill*         0x3ffea1d9        0x3 
 .rodata.str1.4
                0x3ffea1dc       0x10 c:/Espressif/ESP8266_SDK_200/lib\libsmartconfig.a(sc_esptouch.o)
                                  0xe (size before relaxing)
 *(.gnu.linkonce.r.*)
 *(.rodata1)
                0x3ffea1ec                __XT_EXCEPTION_TABLE__ = ABSOLUTE (.)
 *(.xt_except_table)
 *(.gcc_except_table)
 *(.gnu.linkonce.e.*)
 *(.gnu.version_r)
 *(.eh_frame)
 *crtbegin.o(.ctors)
 *(EXCLUDE_FILE(*crtend.o) .ctors)
 *(SORT(.ctors.*))
 *(.ctors)
 *crtbegin.o(.dtors)
 *(EXCLUDE_FILE(*crtend.o) .dtors)
 *(SORT(.dtors.*))
 *(.dtors)
                0x3ffea1ec                __XT_EXCEPTION_DESCS__ = ABSOLUTE (.)
 *(.xt_except_desc)
 *(.gnu.linkonce.h.*)
                0x3ffea1ec                __XT_EXCEPTION_DESCS_END__ = ABSOLUTE (.)
 *(.xt_except_desc_end)
 *(.dynamic)
 *(.gnu.version_d)
                0x3ffea1ec                . = ALIGN (0x4)
                0x3ffea1ec                _bss_table_start = ABSOLUTE (.)
                0x3ffea1ec        0x4 LONG 0x3ffea1f8 _bss_start
                0x3ffea1f0        0x4 LONG 0x3fff0c98 _bss_end
                0x3ffea1f4                _bss_table_end = ABSOLUTE (.)
                0x3ffea1f4                _rodata_end = ABSOLUTE (.)

.bss            0x3ffea1f8     0x6aa0
                0x3ffea1f8                . = ALIGN (0x8)
                0x3ffea1f8                _bss_start = ABSOLUTE (.)
 *(.dynsbss)
 *(.sbss)
 *(.sbss.*)
 *(.gnu.linkonce.sb.*)
 *(.scommon)
 *(.sbss2)
 *(.sbss2.*)
 *(.gnu.linkonce.sb2.*)
 *(.dynbss)
 *(.bss)
 .bss           0x3ffea1f8        0x0 c:/Espressif/ESP8266_SDK_200/lib\libmain.a(debug-vector.o)
 .bss           0x3ffea1f8        0x0 c:/Espressif/ESP8266_SDK_200/lib\libmain.a(double-vector.o)
 .bss           0x3ffea1f8        0x0 c:/Espressif/ESP8266_SDK_200/lib\libmain.a(kernel-vector.o)
 *fill*         0x3ffea1f8        0x8 
 .bss           0x3ffea200      0x1c0 c:/Espressif/ESP8266_SDK_200/lib\libmain.a(nmi-vector.o)
 .bss           0x3ffea3c0        0x0 c:/Espressif/ESP8266_SDK_200/lib\libmain.a(user-vector.o)
 .bss           0x3ffea3c0        0x0 c:/Espressif/ESP8266_SDK_200/lib\libmain.a(vector.o)
 .bss           0x3ffea3c0       0x45 c:/Espressif/ESP8266_SDK_200/lib\libmain.a(app_main.o)
                0x3ffea3c4                info
                0x3ffea3e8                freq_trace_enable
                0x3ffea3ea                lwip_timer_interval
                0x3ffea3ec                check_timeouts_timer
                0x3ffea400                rf_cal_sec
                0x3ffea404                user_init_flag
 *fill*         0x3ffea405        0xb 
 .bss           0x3ffea410       0x30 c:/Espressif/ESP8266_SDK_200/lib\libmain.a(ets_timer.o)
                0x3ffea410                dbg_timer_flag
                0x3ffea414                timer_list
                0x3ffea418                debug_timer
                0x3ffea41c                debug_timerfn
 .bss           0x3ffea440       0x3c c:/Espressif/ESP8266_SDK_200/lib\libmain.a(mem_manager.o)
 .bss           0x3ffea47c        0x4 c:/Espressif/ESP8266_SDK_200/lib\libmain.a(spi_flash.o)
                0x3ffea47c                flash_read
 .bss           0x3ffea480      0x242 c:/Espressif/ESP8266_SDK_200/lib\libmain.a(user_interface.o)
                0x3ffea577                deep_sleep_flag
                0x3ffea578                cpu_overclock
                0x3ffea57c                event_cb
                0x3ffea580                status_led_output_level
                0x3ffea584                done_cb
                0x3ffea588                rst_if
                0x3ffea5a4                default_interface
                0x3ffea5a5                OpmodChgIsOnGoing
                0x3ffea5a8                promiscuous_cb
                0x3ffea5c0                event_TaskQueue
 .bss           0x3ffea6c2        0x0 c:/Espressif/ESP8266_SDK_200/lib\libmain.a(eagle_lib.o)
 *fill*         0x3ffea6c2        0x2 
 .bss           0x3ffea6c4        0xc c:/Espressif/ESP8266_SDK_200/lib\libmain.a(eagle_lwip_if.o)
                0x3ffea6c4                hostname
 .bss           0x3ffea6d0       0x48 build/debug/app_app.a(user_main.o)
 .bss           0x3ffea718        0x4 build/debug/app_app.a(config.o)
 .bss           0x3ffea71c       0x54 build/debug/app_app.a(io.o)
                0x3ffea71c                oldPIRstatus
                0x3ffea720                pirStatus
 .bss           0x3ffea770       0x24 build/debug/app_app.a(switch.o)
 .bss           0x3ffea794       0x58 build/debug/app_app.a(http.o)
                0x3ffea794                httpSetupMode
 .bss           0x3ffea7ec        0x0 build/debug/app_app.a(easygpio.o)
 .bss           0x3ffea7ec       0x8c build/debug/app_app.a(wifi.o)
                0x3ffea7ec                wifiCb
 .bss           0x3ffea878       0x28 build/debug/app_app.a(flash.o)
 .bss           0x3ffea8a0        0x1 build/debug/app_app.a(doSmartConfig.o)
 .bss           0x3ffea8a1        0x0 build/debug/app_app.a(stdout.o)
 .bss           0x3ffea8a1        0x0 build/debug/app_app.a(check.o)
 *fill*         0x3ffea8a1        0x3 
 .bss           0x3ffea8a4        0x8 build/debug/app_app.a(mqtt.o)
                0x3ffea8a4                default_private_key_len
                0x3ffea8a8                default_certificate_len
 .bss           0x3ffea8ac        0x4 build/debug/app_app.a(publish.o)
 .bss           0x3ffea8b0       0x60 build/debug/app_app.a(temperature.o)
 .bss           0x3ffea910       0x9c build/debug/app_app.a(dht22.o)
 .bss           0x3ffea9ac        0xc build/debug/app_app.a(ds18b20.o)
 .bss           0x3ffea9b8        0x0 build/debug/app_app.a(decodeMessage.o)
 .bss           0x3ffea9b8        0x0 build/debug/app_app.a(jsmn.o)
 .bss           0x3ffea9b8        0x0 build/debug/app_app.a(dtoa.o)
 .bss           0x3ffea9b8        0x0 build/debug/app_app.a(utils.o)
 .bss           0x3ffea9b8        0x0 build/debug/app_app.a(queue.o)
 .bss           0x3ffea9b8        0x0 build/debug/app_app.a(mqtt_msg.o)
 .bss           0x3ffea9b8        0x0 build/debug/app_app.a(ringbuf.o)
 .bss           0x3ffea9b8        0x0 build/debug/app_app.a(proto.o)
 .bss           0x3ffea9b8        0x0 c:/espressif/xtensa-lx106-elf/bin/../lib/gcc/xtensa-lx106-elf/5.1.0/../../../../xtensa-lx106-elf/lib\libc.a(lib_a-atoi.o)
 .bss           0x3ffea9b8        0x0 c:/espressif/xtensa-lx106-elf/bin/../lib/gcc/xtensa-lx106-elf/5.1.0/../../../../xtensa-lx106-elf/lib\libc.a(lib_a-lcltime.o)
 .bss           0x3ffea9b8        0x0 c:/espressif/xtensa-lx106-elf/bin/../lib/gcc/xtensa-lx106-elf/5.1.0/../../../../xtensa-lx106-elf/lib\libc.a(lib_a-lcltime_r.o)
 .bss           0x3ffea9b8        0x0 c:/espressif/xtensa-lx106-elf/bin/../lib/gcc/xtensa-lx106-elf/5.1.0/../../../../xtensa-lx106-elf/lib\libc.a(lib_a-memcpy.o)
 .bss           0x3ffea9b8        0x0 c:/espressif/xtensa-lx106-elf/bin/../lib/gcc/xtensa-lx106-elf/5.1.0/../../../../xtensa-lx106-elf/lib\libc.a(lib_a-memset.o)
 .bss           0x3ffea9b8        0x0 c:/espressif/xtensa-lx106-elf/bin/../lib/gcc/xtensa-lx106-elf/5.1.0/../../../../xtensa-lx106-elf/lib\libc.a(lib_a-mktm_r.o)
 .bss           0x3ffea9b8        0x0 c:/espressif/xtensa-lx106-elf/bin/../lib/gcc/xtensa-lx106-elf/5.1.0/../../../../xtensa-lx106-elf/lib\libc.a(lib_a-strcmp.o)
 .bss           0x3ffea9b8        0x0 c:/espressif/xtensa-lx106-elf/bin/../lib/gcc/xtensa-lx106-elf/5.1.0/../../../../xtensa-lx106-elf/lib\libc.a(lib_a-strlen.o)
 .bss           0x3ffea9b8        0x0 c:/espressif/xtensa-lx106-elf/bin/../lib/gcc/xtensa-lx106-elf/5.1.0/../../../../xtensa-lx106-elf/lib\libc.a(lib_a-strtol.o)
 .bss           0x3ffea9b8        0x0 c:/espressif/xtensa-lx106-elf/bin/../lib/gcc/xtensa-lx106-elf/5.1.0/../../../../xtensa-lx106-elf/lib\libc.a(lib_a-tzlock.o)
 .bss           0x3ffea9b8        0x8 c:/espressif/xtensa-lx106-elf/bin/../lib/gcc/xtensa-lx106-elf/5.1.0/../../../../xtensa-lx106-elf/lib\libc.a(lib_a-tzvars.o)
                0x3ffea9b8                _timezone
                0x3ffea9bc                _daylight
 .bss           0x3ffea9c0        0x0 c:/espressif/xtensa-lx106-elf/bin/../lib/gcc/xtensa-lx106-elf/5.1.0/../../../../xtensa-lx106-elf/lib\libc.a(lib_a-ctype_.o)
 .bss           0x3ffea9c0        0x0 c:/espressif/xtensa-lx106-elf/bin/../lib/gcc/xtensa-lx106-elf/5.1.0/../../../../xtensa-lx106-elf/lib\libc.a(lib_a-gettzinfo.o)
 .bss           0x3ffea9c0        0x0 c:/espressif/xtensa-lx106-elf/bin/../lib/gcc/xtensa-lx106-elf/5.1.0/../../../../xtensa-lx106-elf/lib\libc.a(lib_a-impure.o)
 .bss           0x3ffea9c0        0x0 c:/Espressif/ESP8266_SDK_200/lib\libgcc.a(_modsi3.o)
 .bss           0x3ffea9c0        0x0 c:/Espressif/ESP8266_SDK_200/lib\libgcc.a(_mulsf3.o)
 .bss           0x3ffea9c0        0x0 c:/Espressif/ESP8266_SDK_200/lib\libgcc.a(_divsf3.o)
 .bss           0x3ffea9c0        0x0 c:/Espressif/ESP8266_SDK_200/lib\libgcc.a(_cmpsf2.o)
 .bss           0x3ffea9c0        0x0 c:/Espressif/ESP8266_SDK_200/lib\libgcc.a(_fixsfsi.o)
 .bss           0x3ffea9c0        0x0 c:/Espressif/ESP8266_SDK_200/lib\libgcc.a(_cmpdf2.o)
 .bss           0x3ffea9c0        0x0 c:/espressif/xtensa-lx106-elf/bin/../lib/gcc/xtensa-lx106-elf/5.1.0/../../../../xtensa-lx106-elf/lib\libhal.a(int_asm--set_intclear.o)
 .bss           0x3ffea9c0        0x4 c:/Espressif/ESP8266_SDK_200/lib\libphy.a(phy.o)
 .bss           0x3ffea9c4        0x2 c:/Espressif/ESP8266_SDK_200/lib\libphy.a(phy_chip_v6_ana.o)
                0x3ffea9c4                tout_dis_txpwr_track
                0x3ffea9c5                sleep_mode_flag
 *fill*         0x3ffea9c6        0x2 
 .bss           0x3ffea9c8      0x153 c:/Espressif/ESP8266_SDK_200/lib\libphy.a(phy_chip_v6.o)
                0x3ffea9c8                g_phyFuns
                0x3ffea9cc                rxiq_compute_num
                0x3ffea9d0                rx_table_renew_en
                0x3ffea9d4                check_result
                0x3ffea9d8                chip6_sleep_params
                0x3ffeaa6c                chip6_phy_init_ctrl
                0x3ffeaae0                phy_freq_offset
                0x3ffeaae2                do_pwctrl_flag
                0x3ffeaae3                txbk_dpdby_flag
                0x3ffeaae5                sw_scan_mode
                0x3ffeaae6                rxmax_ext_level
                0x3ffeaae8                phy_rx_gain_dc_table
                0x3ffeaafc                periodic_cal_flag
                0x3ffeaafd                bbpll_cal_flag
                0x3ffeaafe                phy_in_most_power
                0x3ffeaaff                init_rf_no_cal
                0x3ffeab00                test_print_time
                0x3ffeab04                phy_in_vdd33_offset
                0x3ffeab05                phy_set_most_tpw_disbg
                0x3ffeab06                phy_set_most_tpw_index
                0x3ffeab08                adc_rand_noise
                0x3ffeab0c                phy_rx_gain_dc_flag
                0x3ffeab0d                dpd_bypass_original
                0x3ffeab0e                phy_txpwr_diff_flash
                0x3ffeab10                noise_array
 *fill*         0x3ffeab1b        0x1 
 .bss           0x3ffeab1c        0x9 c:/Espressif/ESP8266_SDK_200/lib\libphy.a(phy_chip_v6_cal.o)
                0x3ffeab1c                phy_tx_power_out
                0x3ffeab1e                phy_tx_pwr_error
                0x3ffeab20                tx_pwctrl_track_num
                0x3ffeab21                rxiq_cover_fail_num
                0x3ffeab22                phy_meas_freq_offset
                0x3ffeab24                tx_pwctrl_pk_num
 .bss           0x3ffeab25        0x0 c:/Espressif/ESP8266_SDK_200/lib\libphy.a(phy_chip_v6_unused.o)
 *fill*         0x3ffeab25        0x3 
 .bss           0x3ffeab28        0x7 c:/Espressif/ESP8266_SDK_200/lib\libphy.a(phy_sleep.o)
                0x3ffeab28                periodic_cal_sat
                0x3ffeab2a                lslp_mem_opt_8266
                0x3ffeab2c                software_slp_reject
                0x3ffeab2d                SDIO_slp_reject
                0x3ffeab2e                hardware_reject
 *fill*         0x3ffeab2f        0x1 
 .bss           0x3ffeab30       0x40 c:/Espressif/ESP8266_SDK_200/lib\libpp.a(if_hwctrl.o)
                0x3ffeab30                interface_mask
                0x3ffeab50                if_ctrl
 .bss           0x3ffeab70      0x150 c:/Espressif/ESP8266_SDK_200/lib\libpp.a(lmac.o)
                0x3ffeab74                lmacConfMib
                0x3ffeab98                our_tx_eb
 .bss           0x3ffeacc0      0x12a c:/Espressif/ESP8266_SDK_200/lib\libpp.a(pm.o)
                0x3ffeacc0                pmc
 *fill*         0x3ffeadea        0x2 
 .bss           0x3ffeadec       0x38 c:/Espressif/ESP8266_SDK_200/lib\libpp.a(pm_for_bcn_only_mode.o)
 *fill*         0x3ffeae24        0xc 
 .bss           0x3ffeae30      0x322 c:/Espressif/ESP8266_SDK_200/lib\libpp.a(pp.o)
                0x3ffeae48                pend_flag_noise_check
                0x3ffeae50                pend_flag_periodic_cal
                0x3ffeae68                idle_timer_reopen_flag
                0x3ffeae6a                dbg_stop_sw_wdt
                0x3ffeae6b                dbg_stop_hw_wdt
                0x3ffeae6d                total_buffed_eb_num
                0x3ffeae70                HighestFreqOffsetInOneChk
                0x3ffeae72                LowestFreqOffsetInOneChk
                0x3ffeae74                DefFreqCalTimer
                0x3ffeae88                PktNumInOneChk
                0x3ffeb010                buffed_eb_arr
 *fill*         0x3ffeb152        0xe 
 .bss           0x3ffeb160      0x100 c:/Espressif/ESP8266_SDK_200/lib\libpp.a(rate_control.o)
 .bss           0x3ffeb260      0x46c c:/Espressif/ESP8266_SDK_200/lib\libpp.a(trc.o)
 *fill*         0x3ffeb6cc        0x4 
 .bss           0x3ffeb6d0     0x2f88 c:/Espressif/ESP8266_SDK_200/lib\libpp.a(wdev.o)
                0x3ffeb6d0                wDevCtrl
                0x3ffeb878                WdevTimOffSet
 *fill*         0x3ffee658        0x8 
 .bss           0x3ffee660      0xaa4 c:/Espressif/ESP8266_SDK_200/lib\libpp.a(esf_buf.o)
 .bss           0x3ffef104      0x6a8 c:/Espressif/ESP8266_SDK_200/lib\libnet80211.a(ieee80211.o)
                0x3ffef104                g_ic
 .bss           0x3ffef7ac        0x0 c:/Espressif/ESP8266_SDK_200/lib\libnet80211.a(ieee80211_crypto.o)
 .bss           0x3ffef7ac        0x0 c:/Espressif/ESP8266_SDK_200/lib\libnet80211.a(ieee80211_ets.o)
 *fill*         0x3ffef7ac        0x4 
 .bss           0x3ffef7b0       0x54 c:/Espressif/ESP8266_SDK_200/lib\libnet80211.a(ieee80211_hostap.o)
                0x3ffef7b0                BcnEb_update
                0x3ffef7bd                BcnWithMcastSendStart
                0x3ffef7be                BcnWithMcastSendCnt
                0x3ffef7d8                PendFreeBcnEb
                0x3ffef7dc                ApFreqCalTimer
                0x3ffef7f0                APRecvBcnStartTick
 .bss           0x3ffef804        0x0 c:/Espressif/ESP8266_SDK_200/lib\libnet80211.a(ieee80211_ht.o)
 .bss           0x3ffef804        0x0 c:/Espressif/ESP8266_SDK_200/lib\libnet80211.a(ieee80211_input.o)
 .bss           0x3ffef804        0x0 c:/Espressif/ESP8266_SDK_200/lib\libnet80211.a(ieee80211_mesh_quick.o)
 .bss           0x3ffef804        0x0 c:/Espressif/ESP8266_SDK_200/lib\libnet80211.a(ieee80211_output.o)
 .bss           0x3ffef804        0x0 c:/Espressif/ESP8266_SDK_200/lib\libnet80211.a(ieee80211_phy.o)
 .bss           0x3ffef804        0x0 c:/Espressif/ESP8266_SDK_200/lib\libnet80211.a(ieee80211_power.o)
 .bss           0x3ffef804        0x0 c:/Espressif/ESP8266_SDK_200/lib\libnet80211.a(ieee80211_proto.o)
 .bss           0x3ffef804        0x0 c:/Espressif/ESP8266_SDK_200/lib\libnet80211.a(ieee80211_regdomain.o)
 .bss           0x3ffef804        0x0 c:/Espressif/ESP8266_SDK_200/lib\libnet80211.a(ieee80211_rfid.o)
 .bss           0x3ffef804       0xc8 c:/Espressif/ESP8266_SDK_200/lib\libnet80211.a(ieee80211_scan.o)
                0x3ffef804                gScanStruct
                0x3ffef8b0                connect_scan_flag
                0x3ffef8b1                FreqCalCntForScan
                0x3ffef8b2                TestStaFreqCalValInput
                0x3ffef8b4                auth_type
                0x3ffef8b6                scannum
 *fill*         0x3ffef8cc        0x4 
 .bss           0x3ffef8d0       0x28 c:/Espressif/ESP8266_SDK_200/lib\libnet80211.a(ieee80211_sta.o)
 .bss           0x3ffef8f8       0x3c c:/Espressif/ESP8266_SDK_200/lib\libnet80211.a(wl_chm.o)
 *fill*         0x3ffef934        0x4 
 .bss           0x3ffef938      0x394 c:/Espressif/ESP8266_SDK_200/lib\libnet80211.a(wl_cnx.o)
                0x3ffefc98                sta_con_timer
                0x3ffefcac                backup_ni_connect_status
                0x3ffefcb0                g_cnx_probe_rc_list_cb
                0x3ffefcb4                reconnect_flag
                0x3ffefcb5                no_ap_found_index
 .bss           0x3ffefccc        0x0 c:/Espressif/ESP8266_SDK_200/lib\libnet80211.a(ieee80211_action.o)
 *fill*         0x3ffefccc        0x4 
 .bss           0x3ffefcd0       0x18 c:/Espressif/ESP8266_SDK_200/lib\libnet80211.a(ieee80211_action_vendor.o)
 .bss           0x3ffefce8        0x0 c:/Espressif/ESP8266_SDK_200/lib\libnet80211.a(ieee80211_crypto_ccmp.o)
 .bss           0x3ffefce8        0x0 c:/Espressif/ESP8266_SDK_200/lib\libnet80211.a(ieee80211_ie_vendor.o)
 *fill*         0x3ffefce8        0x8 
 .bss           0x3ffefcf0       0x38 c:/Espressif/ESP8266_SDK_200/lib\liblwip.a(dhcp.o)
                0x3ffefcf0                dhcp_rx_options_given
                0x3ffefd00                dhcp_rx_options_val
 .bss           0x3ffefd28       0x24 c:/Espressif/ESP8266_SDK_200/lib\liblwip.a(dhcpserver.o)
 *fill*         0x3ffefd4c        0x4 
 .bss           0x3ffefd50      0x480 c:/Espressif/ESP8266_SDK_200/lib\liblwip.a(dns.o)
 .bss           0x3fff01d0      0x104 c:/Espressif/ESP8266_SDK_200/lib\liblwip.a(espconn.o)
                0x3fff01d0                plink_active
                0x3fff01d4                pserver_list
                0x3fff01e0                premot
                0x3fff02a0                pktinfo
 *fill*         0x3fff02d4        0xc 
 .bss           0x3fff02e0       0x78 c:/Espressif/ESP8266_SDK_200/lib\liblwip.a(espconn_tcp.o)
                0x3fff02e0                espconn_TaskQueue
 .bss           0x3fff0358        0x0 c:/Espressif/ESP8266_SDK_200/lib\liblwip.a(espconn_udp.o)
 *fill*         0x3fff0358        0x8 
 .bss           0x3fff0360      0x100 c:/Espressif/ESP8266_SDK_200/lib\liblwip.a(etharp.o)
                0x3fff0364                ethzero
 .bss           0x3fff0460        0xc c:/Espressif/ESP8266_SDK_200/lib\liblwip.a(igmp.o)
 .bss           0x3fff046c        0x0 c:/Espressif/ESP8266_SDK_200/lib\liblwip.a(inet_chksum.o)
 .bss           0x3fff046c        0x0 c:/Espressif/ESP8266_SDK_200/lib\liblwip.a(init.o)
 *fill*         0x3fff046c        0x4 
 .bss           0x3fff0470       0x10 c:/Espressif/ESP8266_SDK_200/lib\liblwip.a(ip_addr.o)
 .bss           0x3fff0480       0x12 c:/Espressif/ESP8266_SDK_200/lib\liblwip.a(ip.o)
                0x3fff0480                current_iphdr_dest
                0x3fff0484                current_iphdr_src
                0x3fff0488                current_netif
                0x3fff048c                current_header
 .bss           0x3fff0492        0x0 c:/Espressif/ESP8266_SDK_200/lib\liblwip.a(memp.o)
 *fill*         0x3fff0492        0x2 
 .bss           0x3fff0494        0x9 c:/Espressif/ESP8266_SDK_200/lib\liblwip.a(netif.o)
                0x3fff0494                netif_list
                0x3fff0498                netif_default
 .bss           0x3fff049d        0x0 c:/Espressif/ESP8266_SDK_200/lib\liblwip.a(pbuf.o)
 *fill*         0x3fff049d        0x3 
 .bss           0x3fff04a0        0x4 c:/Espressif/ESP8266_SDK_200/lib\liblwip.a(raw.o)
 .bss           0x3fff04a4       0x34 c:/Espressif/ESP8266_SDK_200/lib\liblwip.a(tcp_in.o)
                0x3fff04d4                tcp_input_pcb
 .bss           0x3fff04d8       0x1c c:/Espressif/ESP8266_SDK_200/lib\liblwip.a(tcp.o)
                0x3fff04dc                tcp_active_pcbs
                0x3fff04e0                tcp_tmp_pcb
                0x3fff04e4                tcp_tw_pcbs
                0x3fff04e8                tcp_bound_pcbs
                0x3fff04ec                tcp_listen_pcbs
                0x3fff04f0                tcp_ticks
 .bss           0x3fff04f4        0x0 c:/Espressif/ESP8266_SDK_200/lib\liblwip.a(tcp_out.o)
 .bss           0x3fff04f4        0xc c:/Espressif/ESP8266_SDK_200/lib\liblwip.a(timers.o)
 .bss           0x3fff0500        0x4 c:/Espressif/ESP8266_SDK_200/lib\liblwip.a(udp.o)
                0x3fff0500                udp_pcbs
 .bss           0x3fff0504        0x0 c:/Espressif/ESP8266_SDK_200/lib\liblwip.a(espconn_buf.o)
 .bss           0x3fff0504        0x0 c:/Espressif/ESP8266_SDK_200/lib\liblwip.a(icmp.o)
 .bss           0x3fff0504        0x0 c:/Espressif/ESP8266_SDK_200/lib\libwpa.a(ap_config.o)
 .bss           0x3fff0504        0x0 c:/Espressif/ESP8266_SDK_200/lib\libwpa.a(common.o)
 .bss           0x3fff0504        0x0 c:/Espressif/ESP8266_SDK_200/lib\libwpa.a(os_xtensa.o)
 .bss           0x3fff0504        0x0 c:/Espressif/ESP8266_SDK_200/lib\libwpa.a(wpa_auth.o)
 .bss           0x3fff0504        0x0 c:/Espressif/ESP8266_SDK_200/lib\libwpa.a(wpa_auth_ie.o)
 *fill*         0x3fff0504        0xc 
 .bss           0x3fff0510      0x26a c:/Espressif/ESP8266_SDK_200/lib\libwpa.a(wpa.o)
 .bss           0x3fff077a        0x0 c:/Espressif/ESP8266_SDK_200/lib\libwpa.a(wpa_common.o)
 .bss           0x3fff077a        0x0 c:/Espressif/ESP8266_SDK_200/lib\libwpa.a(wpa_debug.o)
 .bss           0x3fff077a        0x0 c:/Espressif/ESP8266_SDK_200/lib\libwpa.a(wpa_ie.o)
 .bss           0x3fff077a        0x0 c:/Espressif/ESP8266_SDK_200/lib\libwpa.a(wpa_main.o)
 .bss           0x3fff077a        0x0 c:/Espressif/ESP8266_SDK_200/lib\libwpa.a(wpas_glue.o)
 *fill*         0x3fff077a        0x2 
 .bss           0x3fff077c       0x30 c:/Espressif/ESP8266_SDK_200/lib\libsmartconfig.a(sc_sniffer.o)
                0x3fff077c                pAPListHead
                0x3fff0780                pAPListTral
                0x3fff0784                smartconfig_cb
                0x3fff0788                SnifGlob
                0x3fff0798                channel_timer
 .bss           0x3fff07ac       0xb8 c:/Espressif/ESP8266_SDK_200/lib\libsmartconfig.a(sc_airkiss.o)
                0x3fff07ac                pAKGuideGlob
                0x3fff07b0                pAkTrans
                0x3fff07b4                pAkDiret
                0x3fff07b8                KissRes_ht20_timer
                0x3fff0834                pKissConn
                0x3fff0850                weixin_timer
 .bss           0x3fff0864       0xd4 c:/Espressif/ESP8266_SDK_200/lib\libsmartconfig.a(sc_esptouch.o)
                0x3fff0864                pETGuideGlob
                0x3fff0868                pCHListHead
                0x3fff086c                pCHListTral
                0x3fff0870                pTouchGlob
                0x3fff0874                TouchRestart_ht20_timer
                0x3fff08f0                TouchRestart_ht40_timer
                0x3fff0904                pTouchConn
                0x3fff0920                TouchUdpTimer
 .bss           0x3fff0938        0x0 c:/Espressif/ESP8266_SDK_200/lib\libcrypto.a(aes-wrap.o)
 .bss           0x3fff0938        0x0 c:/Espressif/ESP8266_SDK_200/lib\libcrypto.a(aes-internal-enc.o)
 .bss           0x3fff0938        0x0 c:/Espressif/ESP8266_SDK_200/lib\libcrypto.a(aes-internal.o)
 .bss           0x3fff0938        0x0 c:/espressif/xtensa-lx106-elf/bin/../lib/gcc/xtensa-lx106-elf/5.1.0/../../../../xtensa-lx106-elf/lib\libc.a(lib_a-memchr.o)
 .bss           0x3fff0938        0x0 c:/Espressif/ESP8266_SDK_200/lib\libgcc.a(_ashrdi3.o)
 .bss           0x3fff0938        0x8 c:/Espressif/ESP8266_SDK_200/lib\libnet80211.a(ieee80211_crypto_tkip.o)
 .bss           0x3fff0940        0x0 c:/Espressif/ESP8266_SDK_200/lib\libnet80211.a(ieee80211_crypto_wep.o)
 *(.bss.*)
 *(.gnu.linkonce.b.*)
 *(COMMON)
 COMMON         0x3fff0940      0x18c build/debug/app_app.a(user_main.o)
                0x3fff0940                savedLastAction
                0x3fff0944                taskQueue
                0x3fff09e4                mqttClient
                0x3fff0ab4                mqttConnected
                0x3fff0ab8                transmit_timer
 COMMON         0x3fff0acc      0x1b4 build/debug/app_app.a(config.o)
                0x3fff0acc                sysCfg
                0x3fff0c7c                saveFlag
 COMMON         0x3fff0c80        0x8 build/debug/app_app.a(flash.o)
                0x3fff0c80                flashState
                0x3fff0c84                flashFinishedCb
 COMMON         0x3fff0c88       0x10 build/debug/app_app.a(mqtt.o)
                0x3fff0c88                default_private_key
                0x3fff0c8c                default_certificate
                0x3fff0c90                mqtt_procTaskQueue
                0x3fff0c98                . = ALIGN (0x8)
                0x3fff0c98                _bss_end = ABSOLUTE (.)
                0x3fff0c98                _heap_start = ABSOLUTE (.)

.irom0.text     0x40210000    0x3b714
                0x40210000                _irom0_text_start = ABSOLUTE (.)
 *libmbedtls.a:(.literal .text .literal.* .text.*)
 *(.irom0.literal .irom.literal .irom.text.literal .irom0.text .irom.text)
 .irom0.text    0x40210000      0xce9 c:/Espressif/ESP8266_SDK_200/lib\libmain.a(app_main.o)
                                0xf3d (size before relaxing)
                0x402102d4                wdt_init
                0x4021037c                user_uart_wait_tx_fifo_empty
                0x40210638                system_phy_freq_trace_enable
                0x40210650                flash_data_check
 *fill*         0x40210ce9        0x3 
 .irom0.text    0x40210cec      0x186 c:/Espressif/ESP8266_SDK_200/lib\libmain.a(ets_timer.o)
                                0x1b2 (size before relaxing)
                0x40210cf4                ets_timer_done
                0x40210d40                ets_timer_handler_isr
                0x40210e10                ets_timer_init
 *fill*         0x40210e72        0x2 
 .irom0.text    0x40210e74       0xf0 c:/Espressif/ESP8266_SDK_200/lib\libmain.a(mem_manager.o)
                                 0xf8 (size before relaxing)
                0x40210e74                check_memleak_debug_enable
                0x40210ee4                xPortGetFreeHeapSize
                0x40210eec                vPortInitialiseBlocks
 .irom0.text    0x40210f64        0xb c:/Espressif/ESP8266_SDK_200/lib\libmain.a(spi_flash.o)
                0x40210f68                spi_flash_set_read_func
 *fill*         0x40210f6f        0x1 
 .irom0.text    0x40210f70     0x3d2d c:/Espressif/ESP8266_SDK_200/lib\libmain.a(user_interface.o)
                               0x48dd (size before relaxing)
                0x40210f74                system_set_os_print
                0x40210f84                system_get_os_print
                0x4021114c                system_pp_recycle_rx_pkt
                0x40211168                system_adc_read
                0x402111a8                system_adc_read_fast
                0x40211208                system_get_vdd33
                0x40211234                system_restart_hook
                0x4021124c                system_restart_local
                0x4021132c                system_restart
                0x4021138c                system_restore
                0x402113f4                system_get_flash_size_map
                0x40211414                system_get_boot_version
                0x4021144c                system_get_test_result
                0x40211474                system_get_userbin_addr
                0x4021150c                system_get_boot_mode
                0x4021153c                system_restart_enhance
                0x402116e8                system_upgrade_userbin_set
                0x40211734                system_upgrade_userbin_check
                0x40211774                system_upgrade_flag_set
                0x40211788                system_upgrade_flag_check
                0x402117b0                system_upgrade_reboot
                0x40211910                system_deep_sleep_instant
                0x40211aa8                system_deep_sleep
                0x40211b08                system_deep_sleep_set_option
                0x40211b24                system_phy_temperature_alert
                0x40211b38                system_phy_set_max_tpw
                0x40211b4c                system_phy_set_tpw_via_vdd33
                0x40211b60                system_phy_set_rfoption
                0x40211b74                system_phy_set_powerup_option
                0x40211b8c                system_update_cpu_freq
                0x40211be8                system_get_cpu_freq
                0x40211c00                system_overclock
                0x40211c2c                system_restoreclock
                0x40211c5c                system_timer_reinit
                0x40211c74                system_relative_time
                0x40211c98                system_station_got_ip_set
                0x40211dc4                system_print_meminfo
                0x40211e24                system_get_free_heap_size
                0x40211e38                system_get_chip_id
                0x40211e5c                system_rtc_clock_cali_proc
                0x40211e70                system_get_rtc_time
                0x40211e84                system_mktime
                0x40211f54                system_init_done_cb
                0x40211f5c                system_get_rst_info
                0x40211f64                system_get_data_of_array_8
                0x40211f88                system_get_data_of_array_16
                0x40211fb0                system_get_string_from_flash
                0x4021201c                wifi_softap_dhcps_start
                0x40212064                wifi_softap_dhcps_stop
                0x402120a4                wifi_softap_dhcps_status
                0x402120ac                wifi_station_dhcpc_start
                0x40212104                wifi_station_dhcpc_stop
                0x40212144                wifi_station_dhcpc_event
                0x402121b8                wifi_station_dhcpc_set_maxtry
                0x402121c8                wifi_station_dhcpc_status
                0x40212248                wifi_get_opmode
                0x4021225c                wifi_get_opmode_default
                0x402122d8                wifi_get_broadcast_if
                0x40212314                wifi_set_broadcast_if
                0x40212490                wifi_set_opmode
                0x402124a4                wifi_set_opmode_current
                0x402124b8                system_get_checksum
                0x40212500                wifi_param_save_protect_with_check
                0x402125c0                system_param_save_with_protect
                0x40212674                system_save_sys_param
                0x402126a0                system_param_load
                0x402127dc                wifi_station_get_config
                0x402127f0                wifi_station_get_config_default
                0x40212810                wifi_station_get_ap_info
                0x402128c8                wifi_station_ap_number_set
                0x40212d80                wifi_station_set_config
                0x40212d98                wifi_station_set_config_current
                0x40212db0                wifi_station_restore_config
                0x40212dc8                wifi_station_get_current_ap_id
                0x40212ddc                wifi_station_ap_check
                0x40212e2c                wifi_station_ap_change
                0x40212f44                wifi_station_scan
                0x40212f90                wifi_station_get_auto_connect
                0x40212fb0                wifi_station_set_auto_connect
                0x40213068                wifi_station_save_pmk2cache
                0x40213198                wifi_station_save_bssid
                0x40213238                wifi_station_connect
                0x402132cc                wifi_station_disconnect
                0x4021338c                wifi_station_get_connect_status
                0x402133bc                wifi_station_set_reconnect_policy
                0x402133d4                wifi_station_get_reconnect_policy
                0x402133dc                wifi_station_get_rssi
                0x4021342c                wifi_station_set_default_hostname
                0x40213494                wifi_station_get_hostname
                0x402134c4                wifi_station_set_hostname
                0x40213564                wifi_softap_cacl_mac
                0x402135d4                wifi_softap_set_default_ssid
                0x402137b4                wifi_softap_get_config
                0x402137c8                wifi_softap_get_config_default
                0x40213b04                wifi_softap_set_config
                0x40213b18                wifi_softap_set_config_current
                0x40213b2c                wifi_softap_set_station_info
                0x40213b9c                wifi_softap_get_station_info
                0x40213c48                wifi_softap_free_station_info
                0x40213c88                wifi_softap_get_station_num
                0x40213cdc                wifi_softap_deauth
                0x40213d8c                wifi_softap_get_beacon_only_mode
                0x40213da0                wifi_softap_set_beacon_only_mode
                0x40213e04                wifi_register_user_ie_manufacturer_recv_cb
                0x40213e18                wifi_unregister_user_ie_manufacturer_recv_cb
                0x40213e48                wifi_set_user_ie
                0x40213f58                wifi_get_user_ie
                0x40213f8c                wifi_get_phy_mode
                0x40213fa0                wifi_set_phy_mode
                0x40214154                wifi_check_regdomain_param
                0x402141d8                wifi_regdomain_need_update
                0x402142b4                wifi_set_regdomain
                0x402143ec                wifi_get_regdomain
                0x4021449c                wifi_set_sleep_type
                0x402144bc                wifi_enable_gpio_wakeup
                0x402144e8                wifi_disable_gpio_wakeup
                0x40214500                wifi_get_sleep_type
                0x40214518                wifi_get_channel
                0x40214530                wifi_set_channel
                0x40214588                wifi_promiscuous_set_mac
                0x402145e8                wifi_promiscuous_enable
                0x402146cc                wifi_set_promiscuous_rx_cb
                0x402146dc                wifi_get_ip_info
                0x4021475c                wifi_set_ip_info
                0x402147d0                wifi_get_macaddr
                0x40214830                wifi_set_macaddr
                0x4021494c                wifi_enable_6m_rate
                0x40214954                wifi_get_user_fixed_rate
                0x40214974                wifi_set_user_fixed_rate
                0x40214994                wifi_set_user_sup_rate
                0x402149d0                wifi_set_user_rate_limit
                0x402149f4                wifi_get_user_limit_rate_mask
                0x402149fc                wifi_set_user_limit_rate_mask
                0x40214a14                wifi_register_send_pkt_freedom_cb
                0x40214a28                wifi_unregister_send_pkt_freedom_cb
                0x40214a34                wifi_send_pkt_freedom
                0x40214a80                wifi_rfid_locp_recv_open
                0x40214a94                wifi_rfid_locp_recv_close
                0x40214aa8                wifi_register_rfid_locp_recv_cb
                0x40214abc                wifi_unregister_rfid_locp_recv_cb
                0x40214ad4                wifi_status_led_install
                0x40214b08                wifi_status_led_uninstall
                0x40214b2c                wifi_set_status_led_output_level
                0x40214b80                wifi_set_event_handler_cb
                0x40214bc8                system_os_task
                0x40214c04                system_uart_swap
                0x40214c64                system_uart_de_swap
                0x40214c98                system_get_sdk_version
 *fill*         0x40214c9d        0x3 
 .irom0.text    0x40214ca0      0x610 c:/Espressif/ESP8266_SDK_200/lib\libmain.a(eagle_lib.o)
                                0x620 (size before relaxing)
                0x40214ca4                divide
                0x40214ce0                skip_atoi
                0x40214e60                ets_vsnprintf
                0x402151c0                ets_vsprintf
                0x402151e4                ets_sprintf
                0x4021520c                ets_strcat
                0x4021522c                ets_strrchr
                0x40215258                ets_strchr
                0x40215270                bit_popcount
                0x4021528c                ets_snprintf
 .irom0.text    0x402152b0      0x31e c:/Espressif/ESP8266_SDK_200/lib\libmain.a(eagle_lwip_if.o)
                                0x3e6 (size before relaxing)
                0x40215368                eagle_lwip_if_alloc
                0x40215528                eagle_lwip_if_free
                0x402155ac                eagle_lwip_getif
 *fill*         0x402155ce        0x2 
 .irom0.text    0x402155d0      0xdc8 build/debug/app_app.a(user_main.o)
                               0x1220 (size before relaxing)
                0x40215e20                user_rf_cal_sector_set
                0x40215ff8                mqttIsConnected
                0x40216000                stopConnection
                0x40216018                startConnection
                0x40216030                publishSensorData
                0x40216050                _publishDeviceInfo
                0x402162b0                publishData
                0x402162cc                setExternalTemperature
                0x402162f0                setTime
                0x4021636c                user_init
 .irom0.text    0x40216398      0x2c9 build/debug/app_app.a(config.o)
                                0x3b5 (size before relaxing)
                0x402163ac                CFG_Save
                0x40216468                CFG_Load
                0x402165a8                CFG_print
                0x40216604                CFG_printSettings
                0x4021664c                CFG_lastSaved
                0x40216654                sysCfgUpdates
 *fill*         0x40216661        0x3 
 .irom0.text    0x40216664      0x47f build/debug/app_app.a(io.o)
                                0x54f (size before relaxing)
                0x402166f0                initOutputs
                0x40216730                initInputs
                0x40216760                setOutput
                0x4021677c                forceOutput
                0x402167d0                clrOverride
                0x4021682c                setLED
                0x402168b4                setSpeed
                0x40216940                printOutputs
                0x402169d0                clearPirActive
                0x402169ec                setPirActive
                0x40216a8c                checkPirActive
 *fill*         0x40216ae3        0x1 
 .irom0.text    0x40216ae4      0x111 build/debug/app_app.a(switch.o)
                                0x125 (size before relaxing)
                0x40216bb8                initSwitch
 *fill*         0x40216bf5        0x3 
 .irom0.text    0x40216bf8      0x7b9 build/debug/app_app.a(http.o)
                                0x991 (size before relaxing)
                0x402172bc                tcp_listen
                0x4021733c                toggleHttpSetupMode
 *fill*         0x402173b1        0x3 
 .irom0.text    0x402173b4      0x4b9 build/debug/app_app.a(easygpio.o)
                                0x4f5 (size before relaxing)
                0x402173b4                easygpio_countBits
                0x4021740c                easygpio_getGPIONameFunc
                0x40217538                easygpio_pullMode
                0x4021758c                easygpio_pinMode
                0x402176bc                easygpio_attachInterrupt
                0x4021779c                easygpio_detachInterrupt
                0x402177c8                easygpio_outputDisable
                0x40217808                easygpio_outputEnable
 *fill*         0x4021786d        0x3 
 .irom0.text    0x40217870      0x481 build/debug/app_app.a(wifi.o)
                                0x599 (size before relaxing)
                0x40217b20                getBestSSID
                0x40217b28                WiFiScanStatus
                0x40217b30                WiFiConnectStatus
                0x40217b38                WiFiIPaddress
                0x40217b40                WiFiMACaddress
                0x40217b58                initWiFi
                0x40217c04                WIFI_ConnectTime
                0x40217c28                WIFI_Connect
 *fill*         0x40217cf1        0x3 
 .irom0.text    0x40217cf4      0x174 build/debug/app_app.a(flash.o)
                                0x1ac (size before relaxing)
                0x40217cfc                stopFlash
                0x40217e50                startFlash
 .irom0.text    0x40217e68       0xc1 build/debug/app_app.a(doSmartConfig.o)
                                0x12d (size before relaxing)
                0x40217e70                checkSmartConfig
                0x40217edc                smartConfig_done
 *fill*         0x40217f29        0x3 
 .irom0.text    0x40217f2c       0xd5 build/debug/app_app.a(stdout.o)
                                 0xe1 (size before relaxing)
                0x40217f88                stdout_init
 *fill*         0x40218001        0x3 
 .irom0.text    0x40218004      0x118 build/debug/app_app.a(check.o)
                                0x148 (size before relaxing)
                0x40218008                checkMinHeap
                0x4021802c                showTime
                0x40218060                checkTime
                0x40218098                checkTimeFunc
                0x402180d0                assert_true
                0x402180fc                assert_equal
 .irom0.text    0x4021811c      0xc30 build/debug/app_app.a(mqtt.o)
                                0xe98 (size before relaxing)
                0x402185a4                MQTT_InitConnection
                0x40218624                MQTT_InitClient
                0x40218758                MQTT_DeleteClient
                0x4021878c                MQTT_InitLWT
                0x40218820                MQTT_OnConnected
                0x40218828                MQTT_OnDisconnected
                0x40218830                MQTT_OnPublished
                0x40218838                MQTT_OnTimeout
                0x40218840                MQTT_OnData
                0x40218850                MQTT_Subscribe
                0x402188e8                MQTT_UnSubscribe
                0x40218980                MQTT_Connect
                0x40218c58                MQTT_Disconnect
                0x40218c98                MQTT_Publish
                0x40218d40                MQTT_ClientSetUp
 .irom0.text    0x40218d4c      0x933 build/debug/app_app.a(publish.o)
                                0xcab (size before relaxing)
                0x40218da4                publishAllTemperatures
                0x40218e88                publishTemperature
                0x40218f7c                publishError
                0x4021908c                publishAlarm
                0x402191b0                publishDeviceReset
                0x402192a4                publishDeviceInfo
                0x40219498                publishMapping
                0x402195a8                publishInput
                0x40219678                initPublish
 *fill*         0x4021967f        0x1 
 .irom0.text    0x40219680      0x869 build/debug/app_app.a(temperature.o)
                                0xa5d (size before relaxing)
                0x40219684                getUnmappedTemperature
                0x402196a8                sensorIdx
                0x402196f4                checkAddNewTemperature
                0x40219748                checkSetTemperature
                0x402197d8                setUnmappedSensorTemperature
                0x40219974                printTemperature
                0x402199d8                printMappedTemperature
                0x40219a5c                ds18b20StartScan
                0x40219adc                mappedFloatTemperature
                0x40219b9c                mappedFloatPtrTemperature
                0x40219c58                mappedStrTemperature
                0x40219d0c                checkMappedFloat
                0x40219d3c                mappedTemperature
                0x40219d78                unmappedSensorID
                0x40219d94                getUnmappedFloatTemperature
                0x40219e00                mappedTemperatureIsSet
                0x40219e20                setTemperatureOverride
                0x40219eac                clearTemperatureOverride
                0x40219ed0                initTemperature
 *fill*         0x40219ee9        0x3 
 .irom0.text    0x40219eec      0x16b build/debug/app_app.a(dht22.o)
                                0x1af (size before relaxing)
                0x40219fc0                dhtRead
                0x40219fd4                dhtInit
 *fill*         0x4021a057        0x1 
 .irom0.text    0x4021a058      0x4ac build/debug/app_app.a(ds18b20.o)
                                0x52c (size before relaxing)
                0x4021a068                ds_init
                0x4021a0c8                reset_search
                0x4021a0f0                reset
                0x4021a180                write_bit
                0x4021a1e4                write
                0x4021a244                select
                0x4021a274                ds1q8B20_skip
                0x4021a288                read_bit
                0x4021a2dc                ds_search
                0x4021a434                read
                0x4021a468                crc8
                0x4021a4a8                crc16
 .irom0.text    0x4021a504      0x49a build/debug/app_app.a(decodeMessage.o)
                                0x5ea (size before relaxing)
                0x4021a560                decodeMessage
 *fill*         0x4021a99e        0x2 
 .irom0.text    0x4021a9a0      0x4a8 build/debug/app_app.a(jsmn.o)
                                0x4bc (size before relaxing)
                0x4021a9b0                printJSMN
                0x4021aa2c                jsoneq
                0x4021aa80                jsmn_parse
                0x4021ae3c                jsmn_init
 .irom0.text    0x4021ae48      0x2ad build/debug/app_app.a(dtoa.o)
                                0x30d (size before relaxing)
                0x4021ae70                dtoStr
 *fill*         0x4021b0f5        0x3 
 .irom0.text    0x4021b0f8       0x77 build/debug/app_app.a(queue.o)
                                 0x8b (size before relaxing)
                0x4021b0fc                QUEUE_Init
                0x4021b130                QUEUE_Puts
                0x4021b148                QUEUE_Gets
                0x4021b160                QUEUE_IsEmpty
 *fill*         0x4021b16f        0x1 
 .irom0.text    0x4021b170      0xb54 build/debug/app_app.a(mqtt_msg.o)
                                0xbe4 (size before relaxing)
                0x4021b268                mqtt_msg_init
                0x4021b2a4                mqtt_get_total_length
                0x4021b2f4                mqtt_get_publish_topic
                0x4021b354                mqtt_get_publish_data
                0x4021b3f4                mqtt_get_id
                0x4021b4b4                mqtt_msg_connect
                0x4021b668                mqtt_msg_publish
                0x4021b790                mqtt_msg_puback
                0x4021b81c                mqtt_msg_pubrec
                0x4021b8a8                mqtt_msg_pubrel
                0x4021b934                mqtt_msg_pubcomp
                0x4021b9c0                mqtt_msg_subscribe
                0x4021ba9c                mqtt_msg_unsubscribe
                0x4021bb60                mqtt_msg_pingreq
                0x4021bbd8                mqtt_msg_pingresp
                0x4021bc50                mqtt_msg_disconnect
 .irom0.text    0x4021bcc4      0x260 build/debug/app_app.a(proto.o)
                                0x280 (size before relaxing)
                0x4021bcc4                PROTO_Init
                0x4021bcd8                PROTO_Add
                0x4021bd70                PROTO_AddRb
                0x4021be0c                PROTO_ParseByte
                0x4021be90                PROTO_Parse
                0x4021becc                PROTO_ParseRb
 .irom0.text    0x4021bf24       0xfa c:/Espressif/ESP8266_SDK_200/lib\libphy.a(phy.o)
                                0x11e (size before relaxing)
                0x4021bf28                rf_init
                0x4021bf44                bb_init
                0x4021bf5c                phy_init
                0x4021bf8c                RFChannelSel
                0x4021bfa8                phy_delete_channel
                0x4021bfc0                phy_enable_agc
                0x4021bfd8                phy_disable_agc
                0x4021bff0                phy_initialize_bb
                0x4021c008                phy_set_sense
 *fill*         0x4021c01e        0x2 
 .irom0.text    0x4021c020     0x1763 c:/Espressif/ESP8266_SDK_200/lib\libphy.a(phy_chip_v6_ana.o)
                               0x197f (size before relaxing)
                0x4021c024                ram_pbus_set_rxgain
                0x4021c0f8                ram_pbus_debugmode
                0x4021c1ac                ram_pbus_xpd_tx_on
                0x4021c218                set_rf_freq_offset
                0x4021c288                chip_v6_rxmax_ext_ana
                0x4021c3dc                ram_chip_v6_rx_init
                0x4021c410                tsen_meas
                0x4021c4c0                readvdd33
                0x4021c68c                txpwr_offset
                0x4021c748                set_txcap_reg
                0x4021c7c8                ram_ana_inf_gating_en
                0x4021c928                ram_restart_cal
                0x4021c994                wait_rfpll_cal_end
                0x4021ca18                ram_rfpll_set_freq
                0x4021cb20                ram_set_channel_freq
                0x4021ce1c                chip_60_set_channel
                0x4021cfbc                chip_v6_set_chan_offset
                0x4021d01c                chip_v6_set_chan
                0x4021d0cc                chip_v6_set_chan_wakeup
                0x4021d150                chip_v6_rf_init
                0x4021d3b4                low_power_set
                0x4021d404                test_tout
                0x4021d57c                check_data_flag
                0x4021d59c                phy_get_check_flag
                0x4021d6d0                phy_get_vdd33
 *fill*         0x4021d783        0x1 
 .irom0.text    0x4021d784     0x3e44 c:/Espressif/ESP8266_SDK_200/lib\libphy.a(phy_chip_v6.o)
                               0x44fc (size before relaxing)
                0x4021d784                ram_tx_mac_enable
                0x4021d788                ram_tx_mac_disable
                0x4021d78c                rtc_mem_backup
                0x4021d7bc                rtc_mem_recovery
                0x4021d7ec                set_cal_rxdc
                0x4021d8a0                set_rx_gain_cal_iq
                0x4021dbfc                gen_rx_gain_table
                0x4021dd54                pbus_set_rxbbgain
                0x4021ddd4                set_rx_gain_testchip_50
                0x4021e108                ram_get_corr_power
                0x4021e1f8                check_data_func
                0x4021e218                do_noisefloor_lsleep_v50
                0x4021e24c                do_noisefloor
                0x4021e2bc                start_dig_rx
                0x4021e300                stop_dig_rx
                0x4021e32c                chip_v6_set_chanfreq
                0x4021e35c                tx_cap_init
                0x4021e584                target_power_add_backoff
                0x4021e5b0                tx_pwctrl_init_cal
                0x4021e750                tx_atten_set_interp
                0x4021e9b0                check_tx_pwr_cal
                0x4021eaf4                tx_pwctrl_init
                0x4021ec18                ram_get_noisefloor
                0x4021ec34                get_noisefloor_sat
                0x4021ec64                ram_set_noise_floor
                0x4021ecc0                ram_start_noisefloor
                0x4021ed0c                read_hw_noisefloor
                0x4021ed38                noise_check_loop
                0x4021ee94                noise_init
                0x4021f094                target_power_backoff
                0x4021f0e8                sdt_on_noise_start
                0x4021f168                chip_v6_set_chan_rx_cmp
                0x4021f2f4                chip_v6_set_chan_misc
                0x4021f370                phy_dig_spur_set
                0x4021f6c8                phy_dig_spur_prot
                0x4021f900                chip_v6_rxmax_ext_dig
                0x4021f94c                chip_v6_rxmax_ext
                0x4021f9fc                phy_bb_rx_cfg
                0x4021fe14                uart_wait_idle
                0x4021fe4c                phy_pbus_soc_cfg
                0x4021ff04                phy_gpio_cfg
                0x4022011c                tx_cont_en
                0x402201c4                tx_cont_dis
                0x40220218                tx_cont_cfg
                0x4022023c                chip_v6_initialize_bb
                0x402203a0                periodic_cal
                0x402203d8                bbpll_cal
                0x40220480                periodic_cal_top
                0x402204e4                register_chipv6_phy_init_param
                0x4022078c                change_bbpll160_sleep
                0x4022093c                change_bbpll160
                0x40220974                set_crystal_uart
                0x40220a04                ant_switch_init
                0x40220ab4                reduce_current_init
                0x40220ba0                rtc_mem_check
                0x40220bdc                phy_afterwake_set_rfoption
                0x40220bf8                deep_sleep_set_option
                0x40220c24                write_data_to_rtc
                0x40220c5c                get_data_from_rtc
                0x40220ce0                register_chipv6_phy
                0x40221178                set_dpd_bypass
                0x402211a0                set_rf_gain_stage10
                0x402211d0                get_vdd33_offset
                0x40221244                get_phy_target_power
                0x402212f4                set_most_pwr_reg
                0x402213c8                phy_set_most_tpw
                0x402213e8                phy_vdd33_set_tpw
                0x40221400                get_adc_rand
                0x40221434                phy_get_rand
                0x40221450                phy_tx_pwctrl_cali
                0x40221478                phy_check_data_table
                0x402214b4                phy_after_init_enrx
                0x40221518                phy_set_rx11b_reg
                0x4022154c                phy_set_powerup_option
                0x4022155c                phy_get_txpwr_param
                0x402215a8                phy_get_rxnf_param
                0x402215b4                phy_get_freq_param
 .irom0.text    0x402215c8     0x21a8 c:/Espressif/ESP8266_SDK_200/lib\libphy.a(phy_chip_v6_cal.o)
                               0x23d4 (size before relaxing)
                0x402215c8                txbbgain2dcoindex
                0x402215e8                dcoindex2txbbgain
                0x4022160c                init_cal_dcoffset
                0x402216d0                set_rfanagain_dc_reg
                0x4022176c                set_txdc_pbus
                0x402217d8                get_rf_gain_qdb
                0x40221800                correct_rf_ana_gain
                0x40221908                get_sar_dout
                0x40221998                cal_rf_ana_gain
                0x40221ab0                meas_tone_pwr_db
                0x40221b20                tx_pwr_backoff
                0x40221cd4                get_fcc_1m2m_pwr_offset
                0x40221d10                ram_set_txbb_atten
                0x40221da4                txiq_get_mis_pwr
                0x40221e4c                txiq_cover
                0x40222068                ram_rfcal_txiq
                0x402222d8                rc_cal
                0x40222498                get_target_power_offset
                0x402225a0                get_pwctrl_correct
                0x402225f8                tx_pwctrl_cal
                0x402228f4                tx_pwctrl_bg_init
                0x4022296c                tx_pwctrl_background
                0x40222a24                read_sar_dout
                0x40222a88                ram_get_fm_sar_dout
                0x40222b2c                ram_cal_tos_v60
                0x40222cfc                ram_get_bb_atten
                0x40222d2c                ram_rfcal_txcap
                0x40222ef0                ram_rfcal_pwrctrl
                0x4022312c                ram_rxiq_get_mis
                0x402232fc                ram_rxiq_cover_mg_mp
                0x402234a0                ram_rfcal_rxiq
                0x402236ac                dpd_scale_set
                0x402236f4                dpd_mem_write
 .irom0.text    0x40223770      0xc8a c:/Espressif/ESP8266_SDK_200/lib\libphy.a(phy_sleep.o)
                                0xe9a (size before relaxing)
                0x40223770                pm_usec2rtc
                0x402237a4                pm_rtc2usec
                0x402237b0                pm_set_sleep_cycles
                0x402237d8                pm_sleep_opt
                0x4022392c                pm_wakeup_opt
                0x40223964                get_chip_version
                0x402239a4                pm_sleep_opt_bb_off
                0x402239f0                pm_sleep_opt_bb_on
                0x40223a44                pm_set_pll_xtal_wait_time
                0x40223a70                pm_prepare_to_sleep
                0x40223a78                pm_sdio_nidle
                0x40223aec                chg_lslp_mem_opt_8266
                0x40223b0c                pm_wait4wakeup
                0x40223b48                pm_open_rf
                0x40223b8c                pm_sleep_set_mac
                0x40223c10                pm_set_wakeup_mac
                0x40223ca8                pm_check_mac_idle
                0x40223d00                pm_set_sleep_btco
                0x40223da0                pm_set_wakeup_btco
                0x40223eb8                pm_set_sleep_mode
                0x40223fd8                pm_unmask_bt
                0x40224044                pm_wakeup_init
                0x402242a0                sleep_opt_8266
                0x402242c0                sleep_opt_bb_on_8266
                0x402242f8                sleep_reset_analog_rtcreg_8266
 *fill*         0x402243fa        0x2 
 .irom0.text    0x402243fc      0x48d c:/Espressif/ESP8266_SDK_200/lib\libpp.a(if_hwctrl.o)
                                0x5bd (size before relaxing)
                0x4022441c                ic_get_addr
                0x40224428                ic_set_opmode
                0x4022443c                ic_enable_interface
                0x4022448c                ic_interface_enabled
                0x402244a0                ic_disable_interface
                0x402244e8                ic_is_pure_sta
                0x40224504                ic_get_ptk_alg
                0x40224514                ic_get_gtk_alg
                0x40224524                ic_set_ptk_alg
                0x40224534                ic_set_gtk_alg
                0x40224544                ic_interface_is_p2p
                0x402245dc                ic_set_vif
                0x40224698                ic_set_sta
                0x40224798                ic_bss_info_update
                0x402247f4                ic_set_key
                0x40224850                ic_remove_key
                0x40224864                ic_get_rssi
 *fill*         0x40224889        0x3 
 .irom0.text    0x4022488c      0x100 c:/Espressif/ESP8266_SDK_200/lib\libpp.a(lmac.o)
                                0x118 (size before relaxing)
                0x40224890                lmacInitAc
                0x402248c4                lmacInit
                0x40224970                lmacSetRetryLimit
 .irom0.text    0x4022498c     0x1a99 c:/Espressif/ESP8266_SDK_200/lib\libpp.a(pm.o)
                               0x2045 (size before relaxing)
                0x40224990                pm_set_gpio_wakeup_pin
                0x402249c8                pm_clear_gpio_wakeup_pin
                0x402249d8                pm_is_gpio_int_trig
                0x402249ec                pm_rtc_clock_cali_proc
                0x40224a24                pm_get_ck170_period
                0x40224a48                pm_set_sleep_time
                0x40224dbc                pm_rf_is_closed
                0x40224dec                pm_set_sleep_type_from_upper
                0x40224edc                pm_get_sleep_type
                0x40225098                uart_tx_flush
                0x4022509c                pm_suspend
                0x402252c0                pm_shutdown
                0x402253a0                pm_reset_idle_sleep
                0x402253e0                pm_idle_sleep
                0x402253f0                pm_open
                0x402254f4                pm_onBcnRx
                0x40225888                StopLightSleepSetFunc
                0x40225890                LightSleepWakedCbSetFunc
                0x40225e5c                pm_enable_gpio_wakeup
                0x40225e98                pm_attach
                0x40225f90                pm_send_nullfunc
                0x40226134                pm_is_waked
                0x4022614c                pm_is_open
                0x40226164                pm_scan_lock
                0x4022618c                pm_try_scan_unlock
                0x402261a4                pm_force_scan_unlock
                0x40226248                pm_scan_unlocked
                0x4022625c                pm_allow_tx
                0x40226278                pm_assoc_parse
                0x40226290                pm_set_addr
                0x402262b0                pm_sleep_for
                0x402262e0                pm_post
                0x402263e4                pm_get_idle_wait_time
 *fill*         0x40226425        0x3 
 .irom0.text    0x40226428      0xb38 c:/Espressif/ESP8266_SDK_200/lib\libpp.a(pm_for_bcn_only_mode.o)
                                0xee4 (size before relaxing)
                0x4022643c                wifi_fpm_set_sleep_type
                0x4022643c                fpm_set_type_from_upper
                0x402264f8                fpm_get_slp_type
                0x402264f8                wifi_fpm_get_sleep_type
                0x40226500                fpm_rf_is_closed
                0x40226514                fpm_is_open
                0x40226520                fpm_allow_tx
                0x40226548                fpm_close
                0x40226548                wifi_fpm_close
                0x402265d8                wifi_fpm_open
                0x402265d8                fpm_open
                0x4022665c                fpm_attach
                0x4022680c                wifi_fpm_set_wakeup_cb
                0x4022680c                fpm_set_wakeup_cb
                0x40226948                fpm_do_wakeup
                0x40226948                wifi_fpm_do_wakeup
                0x40226e78                fpm_do_sleep
                0x40226e78                wifi_fpm_do_sleep
                0x40226f18                fpm_auto_sleep_set_in_null_mode
                0x40226f18                wifi_fpm_auto_sleep_set_in_null_mode
                0x40226f58                get_fpm_auto_sleep_flag
 .irom0.text    0x40226f60     0x15ba c:/Espressif/ESP8266_SDK_200/lib\libpp.a(pp.o)
                               0x19a2 (size before relaxing)
                0x40226f6c                PPWdtReset
                0x40226fa0                pp_soft_wdt_init
                0x40226fc0                system_soft_wdt_feed
                0x40226fc0                pp_soft_wdt_feed
                0x40226fdc                system_soft_wdt_stop
                0x40226fdc                pp_soft_wdt_stop
                0x40227008                system_soft_wdt_restart
                0x40227008                pp_soft_wdt_restart
                0x40227040                RxNodeNum
                0x40227058                TxNodeNum
                0x4022707c                pp_disable_noise_timer
                0x4022709c                pp_enable_noise_timer
                0x402271ac                pp_noise_test
                0x402271bc                reset_noise_timer
                0x402271f4                pp_disable_idle_timer
                0x40227218                pp_enable_idle_timer
                0x40227240                pp_try_enable_idle_timer
                0x4022727c                ppPeocessRxPktHdr
                0x402275b0                HdlAllBuffedEb
                0x40227638                ppTxPkt
                0x402277b0                ppProcessWaitQ
                0x402277c0                ppRegisterTxCallback
                0x402277e8                ppUnregisterTxCallback
                0x4022781c                ppRecycleRxPkt
                0x4022787c                ppCheckTxIdle
                0x40227af8                pp_tx_idle_timeout
                0x40227cbc                DefFreqCalTimerCB
                0x40228038                ppGetTxQFirstAvail_Locked
                0x40228114                pp_attach
 *fill*         0x4022851a        0x2 
 .irom0.text    0x4022851c      0x296 c:/Espressif/ESP8266_SDK_200/lib\libpp.a(rate_control.o)
                                0x2a2 (size before relaxing)
                0x40228768                RC_SetBasicRate
 *fill*         0x402287b2        0x2 
 .irom0.text    0x402287b4      0x5e9 c:/Espressif/ESP8266_SDK_200/lib\libpp.a(trc.o)
                                0x64d (size before relaxing)
                0x402287b4                phytype2mode
                0x402287d0                rc_set_rate_limit_id
                0x402288ec                rcUpdatePhyMode
                0x40228ab8                rcAttach
                0x40228b04                rcGetTrc
                0x40228b0c                trc_onDisconnect
                0x40228b10                trc_onScanStart
                0x40228b24                trc_onScanDone
                0x40228b40                rc_enable_trc
                0x40228c18                rc_get_mask
                0x40228c2c                rc_disable_trc
                0x40228c80                rc_disable_trc_by_interface
                0x40228c9c                rc_get_sta_trc
                0x40228ce0                rc_get_trc
                0x40228d50                rc_get_trc_by_index
                0x40228d70                rc_only_sta_trc
 *fill*         0x40228d9d        0x3 
 .irom0.text    0x40228da0      0xbcb c:/Espressif/ESP8266_SDK_200/lib\libpp.a(wdev.o)
                                0xd43 (size before relaxing)
                0x40228dac                wDev_Option_Init
                0x40228ea0                wDev_Enable_Beacon_Tsf
                0x40228ebc                wDev_Disable_Beacon_Tsf
                0x40228ed8                wDev_Set_Beacon_Int
                0x40228ee0                wDev_Reset_TBTT
                0x40228f10                wDev_Get_Next_TBTT
                0x4022918c                wDev_Initialize
                0x402291fc                wDevForceAck6M
                0x40229218                wDev_SetMacAddress
                0x402292b4                wDev_SetRxPolicy
                0x40229308                wDev_EnableUcRx
                0x40229334                wDev_DisableUcRx
                0x40229360                wDev_SetBssid
                0x40229438                wDev_ClearBssid
                0x4022946c                wDev_Is_Mac_Key_Exist
                0x402294f8                wDev_Insert_KeyEntry
                0x402295e8                wDev_remove_KeyEntry
                0x40229624                wDev_remove_KeyEntry_all_cnx
                0x4022966c                wDev_Crypto_Conf
                0x40229708                wDev_Crypto_Disable
                0x40229740                wDevEnableRx
                0x40229768                wdev_go_sniffer
                0x40229844                wdev_set_sniffer_addr
                0x4022989c                wdev_exit_sniffer
 *fill*         0x4022996b        0x1 
 .irom0.text    0x4022996c      0x3ed c:/Espressif/ESP8266_SDK_200/lib\libpp.a(esf_buf.o)
                                0x4c1 (size before relaxing)
                0x40229974                esf_buf_alloc
                0x40229b5c                esf_buf_recycle
                0x40229c9c                esf_buf_setup
 *fill*         0x40229d59        0x3 
 .irom0.text    0x40229d5c      0x479 c:/Espressif/ESP8266_SDK_200/lib\libnet80211.a(ieee80211.o)
                                0x545 (size before relaxing)
                0x40229de0                ieee80211_rate_ref_init
                0x40229df8                ieee80211_freedom_inside_cb
                0x40229e28                ieee80211_freedom_init
                0x40229e4c                ieee80211_user_ie_init
                0x40229e68                ieee80211_ifattach
                0x40229ecc                ieee80211_mhz2ieee
                0x40229f28                ieee80211_chan2ieee
                0x40229f44                ieee80211_ieee2mhz
                0x40229f84                ieee80211_find_channel
                0x40229fb0                ieee80211_find_channel_byieee
                0x4022a000                wifi_mode_set
 *fill*         0x4022a1d5        0x3 
 .irom0.text    0x4022a1d8       0xcf c:/Espressif/ESP8266_SDK_200/lib\libnet80211.a(ieee80211_crypto.o)
                                 0xd7 (size before relaxing)
                0x4022a1d8                ieee80211_crypto_attach
                0x4022a1dc                ieee80211_crypto_available
                0x4022a1e0                ieee80211_crypto_setkey
                0x4022a1e4                ieee80211_crypto_encap
                0x4022a23c                ieee80211_crypto_decap
 *fill*         0x4022a2a7        0x1 
 .irom0.text    0x4022a2a8       0x4c c:/Espressif/ESP8266_SDK_200/lib\libnet80211.a(ieee80211_ets.o)
                                 0x50 (size before relaxing)
                0x4022a2ac                ieee80211_getmgtframe
 .irom0.text    0x4022a2f4     0x19f8 c:/Espressif/ESP8266_SDK_200/lib\libnet80211.a(ieee80211_hostap.o)
                               0x1f3b (size before relaxing)
                0x4022a938                ieee80211_hostap_attach
                0x4022aa34                hostap_handle_timer
                0x4022aacc                hostap_input
                0x4022b9cc                wifi_softap_start
                0x4022bb50                wifi_softap_stop
 *fill*         0x4022bcec        0x0 
 .irom0.text    0x4022bcec      0xa5e c:/Espressif/ESP8266_SDK_200/lib\libnet80211.a(ieee80211_ht.o)
                                0xb36 (size before relaxing)
                0x4022bcfc                ieee80211_ht_attach
                0x4022bd4c                ieee80211_ht_node_init
                0x4022bd8c                ieee80211_ht_node_cleanup
                0x4022bdc4                ieee80211_parse_htcap
                0x4022bea4                ieee80211_ht_updateparams
                0x4022bfb4                ieee80211_setup_htrates
                0x4022c080                ieee80211_setup_basic_htrates
                0x4022c3b8                ieee80211_add_htcap
                0x4022c3d4                ieee80211_add_htcap_vendor
                0x4022c4f4                ieee80211_add_htinfo
                0x4022c510                ieee80211_add_htinfo_vendor
 *fill*         0x4022c74a        0x2 
 .irom0.text    0x4022c74c      0xae0 c:/Espressif/ESP8266_SDK_200/lib\libnet80211.a(ieee80211_input.o)
                                0xb70 (size before relaxing)
                0x4022c74c                ieee80211_deliver_data
                0x4022c7a0                ieee80211_decap
                0x4022c8a4                ieee80211_setup_rates
                0x4022c914                ieee80211_alloc_challenge
                0x4022c954                ieee80211_parse_beacon
                0x4022cf78                ieee80211_parse_wpa
                0x4022d08c                ieee80211_parse_rsn
                0x4022d18c                ieee80211_parse_action
                0x4022d228                ieee80211_setup_rateset
 .irom0.text    0x4022d22c      0x2a6 c:/Espressif/ESP8266_SDK_200/lib\libnet80211.a(ieee80211_mesh_quick.o)
                                0x302 (size before relaxing)
                0x4022d238                ieee80211_mesh_quick_init
                0x4022d2a8                ieee80211_mesh_quick_deinit
                0x4022d2d8                ieee80211_mesh_quick_set
                0x4022d3d4                ieee80211_mesh_quick_get
                0x4022d4a0                ieee80211_mesh_quick_ie_add
 *fill*         0x4022d4d2        0x2 
 .irom0.text    0x4022d4d4     0x1e44 c:/Espressif/ESP8266_SDK_200/lib\libnet80211.a(ieee80211_output.o)
                               0x220c (size before relaxing)
                0x4022d4d8                ieee80211_output_pbuf
                0x4022d748                ieee80211_send_setup
                0x4022d87c                ieee80211_mgmt_output
                0x4022d964                ieee80211_tx_mgt_cb
                0x4022d968                ieee80211_send_nulldata
                0x4022ddd8                ieee80211_add_rates
                0x4022de28                ieee80211_add_xrates
                0x4022df58                ieee80211_send_probereq
                0x4022e1c8                ieee80211_getcapinfo
                0x4022e224                ieee80211_send_mgmt
                0x4022e7d0                ieee80211_alloc_proberesp
                0x4022ea38                ieee80211_send_proberesp
                0x4022eb80                ieee80211_alloc_deauth
                0x4022ebc0                ieee80211_send_deauth
                0x4022ecfc                ieee80211_freedom_output
                0x4022f13c                ieee80211_beacon_alloc
 .irom0.text    0x4022f318       0xe0 c:/Espressif/ESP8266_SDK_200/lib\libnet80211.a(ieee80211_phy.o)
                                0x108 (size before relaxing)
                0x4022f318                ieee80211_phy_init
                0x4022f34c                ieee80211_phy_type_get
                0x4022f368                ieee80211_setup_ratetable
 .irom0.text    0x4022f3f8      0x1b6 c:/Espressif/ESP8266_SDK_200/lib\libnet80211.a(ieee80211_power.o)
                                0x1f2 (size before relaxing)
                0x4022f3f8                ieee80211_psq_init
                0x4022f418                ieee80211_psq_cleanup
                0x4022f420                ieee80211_set_tim
                0x4022f460                ieee80211_pwrsave
                0x4022f4c8                pwrsave_flushq
                0x4022f578                ieee80211_node_pwrsave
 *fill*         0x4022f5ae        0x2 
 .irom0.text    0x4022f5b0      0x121 c:/Espressif/ESP8266_SDK_200/lib\libnet80211.a(ieee80211_proto.o)
                                0x159 (size before relaxing)
                0x4022f5b4                ieee80211_proto_attach
                0x4022f5dc                ieee80211_set_shortslottime
                0x4022f5f8                ieee80211_iserp_rateset
                0x4022f62c                ieee80211_wme_initparams
                0x4022f630                ieee80211_wme_updateparams
                0x4022f638                ieee80211_mlme_connect_bss
 *fill*         0x4022f6d1        0x3 
 .irom0.text    0x4022f6d4      0x1bc c:/Espressif/ESP8266_SDK_200/lib\libnet80211.a(ieee80211_regdomain.o)
                                0x1dc (size before relaxing)
                0x4022f6d4                ieee80211_regdomain_attach
                0x4022f6dc                ieee80211_regdomain_detach
                0x4022f704                ieee80211_alloc_countryie
                0x4022f7a4                ieee80211_chan_in_regdomain
                0x4022f7e8                ieee80211_update_regdomain
 .irom0.text    0x4022f890       0xaa c:/Espressif/ESP8266_SDK_200/lib\libnet80211.a(ieee80211_rfid.o)
                                 0xd6 (size before relaxing)
                0x4022f890                ieee80211_rfid_locp_recv_open
                0x4022f8c8                ieee80211_rfid_locp_recv_close
                0x4022f8e0                ieee80211_rfid_locp_recv_reset
                0x4022f900                ieee80211_rfid_locp_recv
                0x4022f91c                register_ieee80211_rfid_locp_recv_cb
                0x4022f930                unregister_ieee80211_rfid_locp_recv_cb
 *fill*         0x4022f93a        0x2 
 .irom0.text    0x4022f93c      0xf49 c:/Espressif/ESP8266_SDK_200/lib\libnet80211.a(ieee80211_scan.o)
                               0x129d (size before relaxing)
                0x4022f948                ieee80211_scan_attach
                0x4022f9dc                scan_start
                0x4022fb9c                scan_pm_channel_op_cb
                0x4022fd3c                scan_cancel
                0x4022fe98                scan_add_bssid
                0x4022febc                scan_remove_bssid
                0x4022fec8                scan_hidden_ssid
                0x4022fed0                scan_add_probe_ssid
                0x4022ff24                scan_remove_probe_ssid
                0x40230060                scan_clear_channles
                0x402300d4                scan_set_desChan
                0x402300e0                scan_get_type
                0x402300e8                cannel_scan_connect_state
                0x40230100                scan_connect_state
                0x40230148                scan_check_hidden
                0x40230174                scan_profile_check
                0x40230514                scan_parse_beacon
 *fill*         0x40230885        0x3 
 .irom0.text    0x40230888     0x10f9 c:/Espressif/ESP8266_SDK_200/lib\libnet80211.a(ieee80211_sta.o)
                               0x139d (size before relaxing)
                0x402308e4                sta_status_set
                0x40230950                ieee80211_sta_new_state
                0x40230ce0                sta_input
                0x4023122c                ieee80211_parse_wmeparams
                0x402318cc                wifi_station_start
                0x40231940                wifi_station_stop
 *fill*         0x40231981        0x3 
 .irom0.text    0x40231984      0x2aa c:/Espressif/ESP8266_SDK_200/lib\libnet80211.a(wl_chm.o)
                                0x32e (size before relaxing)
                0x40231990                chm_init
                0x40231a00                chm_acquire_lock
                0x40231a44                chm_release_lock
                0x40231a58                chm_start_op
                0x40231afc                chm_end_op
                0x40231b44                chm_cancel_op
                0x40231b78                chm_return_home_channel
                0x40231ba8                chm_set_current_channel
                0x40231bd8                chm_freq2index
                0x40231c00                chm_check_same_channel
 *fill*         0x40231c2e        0x2 
 .irom0.text    0x40231c30     0x193d c:/Espressif/ESP8266_SDK_200/lib\libnet80211.a(wl_cnx.o)
                               0x1f2d (size before relaxing)
                0x40231c3c                cnx_attach
                0x40231c7c                cnx_sta_connect_led_timer_cb
                0x40231cd0                cnx_sta_connect_cmd
                0x40231dac                cnx_sta_scan_cmd
                0x40232014                cnx_connect_timeout
                0x40232090                cnx_auth_timeout
                0x402320b4                cnx_assoc_timeout
                0x402320d8                cnx_handshake_timeout
                0x40232118                cnx_start_handoff_cb
                0x402322b0                cnx_csa_fn
                0x402326bc                cnx_bss_alloc
                0x4023275c                cnx_rc_search
                0x402327dc                cnx_add_rc
                0x40232848                cnx_remove_all_rc
                0x40232894                cnx_remove_rc
                0x40232964                cnx_rc_update_rssi
                0x402329ec                cnx_rc_update_state_metric
                0x40232a58                cnx_rc_update_age
                0x40232a7c                cnx_update_bss
                0x40232ab0                cnx_update_bss_more
                0x40232c9c                cnx_sta_leave
                0x40232f30                cnx_sta_associated
                0x40233038                cnx_node_alloc
                0x402330ac                cnx_node_remove
                0x40233138                cnx_node_search
                0x402331b4                cnx_node_leave
                0x402332b4                wifi_softap_staconnected_event_policy
                0x402332dc                wifi_softap_toomany_deny
                0x40233318                cnx_node_join
 *fill*         0x4023356d        0x3 
 .irom0.text    0x40233570      0x16f c:/Espressif/ESP8266_SDK_200/lib\libnet80211.a(ieee80211_action.o)
                                0x193 (size before relaxing)
                0x40233580                ieee80211_send_action_register
                0x402335b4                ieee80211_send_action_unregister
                0x402335c8                ieee80211_send_action
                0x40233634                ieee80211_recv_action_register
                0x40233668                ieee80211_recv_action_unregister
                0x4023367c                ieee80211_recv_action
 *fill*         0x402336df        0x1 
 .irom0.text    0x402336e0      0x568 c:/Espressif/ESP8266_SDK_200/lib\libnet80211.a(ieee80211_action_vendor.o)
                                0x5fc (size before relaxing)
                0x402336e0                ieee80211_avs_fetch_key_idx
                0x40233734                ieee80211_avs_clear_key_idx
                0x4023375c                get_iav_key
                0x40233780                register_ieee80211_action_vendor_get_key_cb
                0x40233798                unregister_ieee80211_action_vendor_get_key_cb
                0x402337ac                ieee80211_add_action_vendor_spec_esp
                0x402337f0                ieee80211_alloc_action_vendor_spec
                0x402338e0                ieee80211_send_action_vendor_spec
                0x40233a90                ieee80211_recv_action_vendor_spec
                0x40233bec                ieee80211_action_vendor_spec_attach
                0x40233c24                register_ieee80211_action_vendor_spec_cb
                0x40233c3c                unregister_ieee80211_action_vendor_spec_cb
 .irom0.text    0x40233c48      0x15d c:/Espressif/ESP8266_SDK_200/lib\libnet80211.a(ieee80211_crypto_ccmp.o)
                                0x165 (size before relaxing)
 *fill*         0x40233da5        0x3 
 .irom0.text    0x40233da8      0x24d c:/Espressif/ESP8266_SDK_200/lib\libnet80211.a(ieee80211_ie_vendor.o)
                                0x26d (size before relaxing)
                0x40233dac                ieee80211_add_ie_vendor_esp_head
                0x40233de4                ieee80211_add_ie_vendor_esp_mesh_assoc
                0x40233e68                ieee80211_add_ie_vendor_esp_mesh_group
                0x40233e9c                ieee80211_add_ie_vendor_esp_simple_pair
                0x40233ef8                ieee80211_add_ie_vendor_esp_freq_annon
                0x40233f30                ieee80211_add_ie_vendor_esp_now
                0x40233f68                ieee80211_add_ie_vendor_esp_ssid
                0x40233fa8                ieee80211_add_ie_vendor_esp_manufacturer
 *fill*         0x40233ff5        0x3 
 .irom0.text    0x40233ff8     0x146a c:/Espressif/ESP8266_SDK_200/lib\liblwip.a(dhcp.o)
                               0x1666 (size before relaxing)
                0x40234274                dhcp_coarse_tmr
                0x402342c0                dhcp_fine_tmr
                0x40234518                dhcp_set_struct
                0x40234540                dhcp_cleanup
                0x4023456c                dhcp_start
                0x40234624                dhcp_inform
                0x402346d0                dhcp_network_changed
                0x40234718                dhcp_arp_reply
                0x40234a14                dhcp_renew
                0x40234d40                dhcp_release
                0x40234e00                dhcp_stop
 *fill*         0x40235462        0x2 
 .irom0.text    0x40235464      0xe0a c:/Espressif/ESP8266_SDK_200/lib\liblwip.a(dhcpserver.o)
                               0x104a (size before relaxing)
                0x40235464                node_insert_to_list
                0x4023549c                node_remove_from_list
                0x40235bac                dhcps_start
                0x40235c14                dhcps_stop
                0x40235c98                wifi_softap_set_dhcps_lease
                0x40235d84                wifi_softap_get_dhcps_lease
                0x40235e24                dhcps_coarse_tmr
                0x40235e98                wifi_softap_set_dhcps_offer_option
                0x40235edc                wifi_softap_set_dhcps_lease_time
                0x40235f0c                wifi_softap_reset_dhcps_lease_time
                0x40235f38                wifi_softap_get_dhcps_lease_time
                0x40235f40                wifi_softap_dhcps_client_leave
                0x40235fe8                wifi_softap_dhcps_client_update
 *fill*         0x4023626e        0x2 
 .irom0.text    0x40236270      0x5cf c:/Espressif/ESP8266_SDK_200/lib\liblwip.a(dns.o)
                                0x68b (size before relaxing)
                0x4023627c                dns_init
                0x402362bc                dns_setserver
                0x402362dc                dns_getserver
                0x402362f0                dns_tmr
                0x402367e8                dns_gethostbyname
 *fill*         0x4023683f        0x1 
 .irom0.text    0x40236840      0xaf6 c:/Espressif/ESP8266_SDK_200/lib\liblwip.a(espconn.o)
                                0xbf2 (size before relaxing)
                0x40236840                espconn_copy_partial
                0x402368d0                espconn_list_creat
                0x402368f0                espconn_list_delete
                0x40236918                espconn_pbuf_create
                0x40236934                espconn_pbuf_delete
                0x4023695c                espconn_find_connection
                0x40236a18                espconn_connect
                0x40236afc                espconn_create
                0x40236b44                espconn_send
                0x40236b44                espconn_sent
                0x40236c10                espconn_recv
                0x40236c84                espconn_sendto
                0x40236ccc                espconn_tcp_get_wnd
                0x40236cf0                espconn_tcp_set_wnd
                0x40236d0c                espconn_tcp_get_mss
                0x40236d14                espconn_tcp_get_max_con
                0x40236d24                espconn_tcp_set_max_con
                0x40236d3c                espconn_tcp_get_max_retran
                0x40236d4c                espconn_tcp_set_max_retran
                0x40236d64                espconn_tcp_get_max_syn
                0x40236d74                espconn_tcp_set_max_syn
                0x40236d8c                espconn_tcp_get_max_con_allow
                0x40236db4                espconn_tcp_set_max_con_allow
                0x40236de4                espconn_tcp_set_buf_count
                0x40236e28                espconn_regist_sentcb
                0x40236e34                espconn_regist_write_finish
                0x40236e4c                espconn_regist_connectcb
                0x40236e5c                espconn_regist_recvcb
                0x40236e68                espconn_regist_reconcb
                0x40236e78                espconn_regist_disconcb
                0x40236e8c                espconn_get_connection_info
                0x40236f54                espconn_accept
                0x40236f98                espconn_regist_time
                0x40236fd8                espconn_disconnect
                0x4023701c                espconn_abort
                0x40237064                espconn_get_packet_info
                0x402370f4                espconn_set_opt
                0x4023714c                espconn_clear_opt
                0x402371ac                espconn_set_keepalive
                0x40237218                espconn_get_keepalive
                0x40237288                espconn_delete
                0x402372d0                espconn_port
                0x40237308                espconn_gethostbyname
                0x40237324                espconn_dns_setserver
 *fill*         0x40237336        0x2 
 .irom0.text    0x40237338     0x10e0 c:/Espressif/ESP8266_SDK_200/lib\liblwip.a(espconn_tcp.o)
                               0x1414 (size before relaxing)
                0x40237420                espconn_kill_oldest_pcb
                0x402374a4                espconn_kill_pcb
                0x40237520                espconn_find_current_pcb
                0x402375c0                espconn_tcp_memp_free
                0x40237844                espconn_tcp_sent
                0x40237908                espconn_tcp_disconnect
                0x402379b0                espconn_recv_hold
                0x402379f4                espconn_recv_unhold
                0x40237a50                espconn_lock_recv
                0x40237a9c                espconn_unlock_recv
                0x40237bac                espconn_tcp_write
                0x40237ddc                espconn_tcp_client
                0x402382b4                espconn_tcp_server
                0x40238370                espconn_tcp_delete
                0x402383fc                espconn_init
 .irom0.text    0x40238418      0x4e7 c:/Espressif/ESP8266_SDK_200/lib\liblwip.a(espconn_udp.o)
                                0x63f (size before relaxing)
                0x40238468                espconn_udp_sent
                0x402385d0                espconn_udp_sendto
                0x40238824                espconn_udp_disconnect
                0x40238860                espconn_udp_server
                0x402388c8                espconn_igmp_leave
                0x402388e4                espconn_igmp_join
 *fill*         0x402388ff        0x1 
 .irom0.text    0x40238900      0x8cf c:/Espressif/ESP8266_SDK_200/lib\liblwip.a(etharp.o)
                                0x9b7 (size before relaxing)
                0x40238934                etharp_tmr
                0x40238b60                etharp_cleanup_netif
                0x40238b9c                etharp_find_addr
                0x40238df0                etharp_output
                0x40238f04                etharp_query
                0x40239134                etharp_request
                0x40239158                ethernet_input
 *fill*         0x402391cf        0x1 
 .irom0.text    0x402391d0      0x5f6 c:/Espressif/ESP8266_SDK_200/lib\liblwip.a(igmp.o)
                                0x68a (size before relaxing)
                0x402391dc                igmp_init
                0x402391ec                igmp_start
                0x40239230                igmp_stop
                0x40239294                igmp_report_groups
                0x402392c4                igmp_lookfor_group
                0x4023938c                igmp_input
                0x402394d4                igmp_joingroup
                0x4023957c                igmp_leavegroup
                0x40239620                igmp_tmr
 *fill*         0x402397c6        0x2 
 .irom0.text    0x402397c8       0x40 c:/Espressif/ESP8266_SDK_200/lib\liblwip.a(init.o)
                                 0x60 (size before relaxing)
                0x402397cc                lwip_init
 .irom0.text    0x40239808      0x37a c:/Espressif/ESP8266_SDK_200/lib\liblwip.a(ip_addr.o)
                                0x3a2 (size before relaxing)
                0x40239808                ip4_addr_isbroadcast
                0x40239834                ip4_addr_netmask_valid
                0x40239874                ipaddr_addr
                0x40239890                ipaddr_aton
                0x40239aac                ipaddr_ntoa
                0x40239ac0                ipaddr_ntoa_r
 *fill*         0x40239b82        0x2 
 .irom0.text    0x40239b84      0x581 c:/Espressif/ESP8266_SDK_200/lib\liblwip.a(ip.o)
                                0x62d (size before relaxing)
                0x40239b84                ip_route
                0x40239c00                ip_router
                0x40239c7c                ip_input
                0x40239ed4                ip_output_if
                0x40239ef0                ip_output_if_opt
                0x4023a0cc                ip_output
 *fill*         0x4023a105        0x3 
 .irom0.text    0x4023a108      0x281 c:/Espressif/ESP8266_SDK_200/lib\liblwip.a(netif.o)
                                0x2c1 (size before relaxing)
                0x4023a108                netif_init
                0x4023a110                netif_add
                0x4023a178                netif_set_addr
                0x4023a1a0                netif_remove
                0x4023a1fc                netif_find
                0x4023a238                netif_set_ipaddr
                0x4023a2a0                netif_set_gw
                0x4023a2b0                netif_set_netmask
                0x4023a2c0                netif_set_default
                0x4023a2c8                netif_set_up
                0x4023a304                netif_set_down
                0x4023a32c                netif_set_link_up
                0x4023a378                netif_set_link_down
 *fill*         0x4023a389        0x3 
 .irom0.text    0x4023a38c      0x68e c:/Espressif/ESP8266_SDK_200/lib\liblwip.a(pbuf.o)
                                0x6f6 (size before relaxing)
                0x4023a38c                pbuf_free_ooseq_new
                0x4023a3e4                pbuf_alloc
                0x4023a544                pbuf_realloc
                0x4023a58c                pbuf_header
                0x4023a5f8                pbuf_free
                0x4023a684                pbuf_clen
                0x4023a69c                pbuf_ref
                0x4023a6a8                pbuf_cat
                0x4023a6d4                pbuf_chain
                0x4023a6f0                pbuf_dechain
                0x4023a72c                pbuf_copy
                0x4023a7d0                pbuf_copy_partial
                0x4023a850                pbuf_take
                0x4023a8b0                pbuf_coalesce
                0x4023a8e4                pbuf_get_at
                0x4023a90c                pbuf_memcmp
                0x4023a978                pbuf_memfind
                0x4023a9d0                pbuf_strstr
 *fill*         0x4023aa1a        0x2 
 .irom0.text    0x4023aa1c      0x1f1 c:/Espressif/ESP8266_SDK_200/lib\liblwip.a(raw.o)
                                0x249 (size before relaxing)
                0x4023aa24                raw_input
                0x4023aaac                raw_bind
                0x4023aabc                raw_connect
                0x4023aacc                raw_recv
                0x4023aad4                raw_sendto
                0x4023ab70                raw_send
                0x4023ab88                raw_remove
                0x4023abc4                raw_new
 *fill*         0x4023ac0d        0x3 
 .irom0.text    0x4023ac10     0x157c c:/Espressif/ESP8266_SDK_200/lib\liblwip.a(tcp_in.o)
                               0x17c0 (size before relaxing)
                0x4023ac18                tcp_input
 .irom0.text    0x4023c18c      0xaeb c:/Espressif/ESP8266_SDK_200/lib\liblwip.a(tcp.o)
                                0xc23 (size before relaxing)
                0x4023c190                tcp_tmr
                0x4023c1b4                tcp_close
                0x4023c1d8                tcp_shutdown
                0x4023c238                tcp_abandon
                0x4023c2e0                tcp_abort
                0x4023c2f8                tcp_bind
                0x4023c374                tcp_listen_with_backlog
                0x4023c434                tcp_update_rcv_ann_wnd
                0x4023c478                tcp_recved
                0x4023c4d4                tcp_connect
                0x4023c5e0                tcp_slowtmr
                0x4023c888                tcp_fasttmr
                0x4023c904                tcp_segs_free
                0x4023c920                tcp_seg_free
                0x4023c94c                tcp_setprio
                0x4023c954                tcp_seg_copy
                0x4023c998                tcp_recv_null
                0x4023ca50                tcp_alloc
                0x4023cb38                tcp_new
                0x4023cb4c                tcp_arg
                0x4023cb50                tcp_recv
                0x4023cb58                tcp_sent
                0x4023cb60                tcp_err
                0x4023cb68                tcp_accept
                0x4023cb6c                tcp_poll
                0x4023cb74                tcp_pcb_purge
                0x4023cbc8                tcp_pcb_remove
                0x4023cc30                tcp_next_iss
                0x4023cc44                tcp_eff_send_mss
 *fill*         0x4023cc77        0x1 
 .irom0.text    0x4023cc78      0xf20 c:/Espressif/ESP8266_SDK_200/lib\liblwip.a(tcp_out.o)
                               0x1028 (size before relaxing)
                0x4023cd70                tcp_send_fin
                0x4023cf58                tcp_write
                0x4023d294                tcp_enqueue_flags
                0x4023d378                tcp_send_empty_ack
                0x4023d40c                tcp_output
                0x4023d71c                tcp_rst
                0x4023d85c                tcp_rexmit_rto
                0x4023d8d0                tcp_rexmit
                0x4023d97c                tcp_rexmit_fast
                0x4023d9d4                tcp_keepalive
                0x4023da54                tcp_zero_window_probe
 .irom0.text    0x4023db98      0x2c7 c:/Espressif/ESP8266_SDK_200/lib\liblwip.a(timers.o)
                                0x357 (size before relaxing)
                0x4023dbd8                tcp_timer_needed
                0x4023dc60                sys_timeouts_init
                0x4023dcc8                sys_timeout
                0x4023dd44                sys_untimeout
                0x4023dd94                sys_check_timeouts
                0x4023de50                sys_restart_timeouts
 *fill*         0x4023de5f        0x1 
 .irom0.text    0x4023de60      0x573 c:/Espressif/ESP8266_SDK_200/lib\liblwip.a(udp.o)
                                0x62b (size before relaxing)
                0x4023de64                udp_input
                0x4023e0bc                udp_send
                0x4023e0d0                udp_sendto
                0x4023e11c                udp_sendto_if
                0x4023e264                udp_bind
                0x4023e2e0                udp_connect
                0x4023e33c                udp_disconnect
                0x4023e354                udp_recv
                0x4023e360                udp_remove
                0x4023e39c                udp_new
 *fill*         0x4023e3d3        0x1 
 .irom0.text    0x4023e3d4      0x26e c:/Espressif/ESP8266_SDK_200/lib\liblwip.a(icmp.o)
                                0x312 (size before relaxing)
                0x4023e3d8                icmp_input
                0x4023e584                icmp_dest_unreach
 *fill*         0x4023e642        0x2 
 .irom0.text    0x4023e644      0x2aa c:/Espressif/ESP8266_SDK_200/lib\libwpa.a(ap_config.o)
                                0x2ee (size before relaxing)
                0x4023e648                hostapd_config_defaults_bss
                0x4023e694                hostapd_config_defaults
                0x4023e718                hostapd_mac_comp
                0x4023e72c                hostapd_mac_comp_empty
                0x4023e798                hostapd_setup_wpa_psk
                0x4023e7c8                hostapd_wep_key_cmp
                0x4023e818                hostapd_maclist_found
                0x4023e880                hostapd_rate_found
                0x4023e89c                hostapd_get_psk
 *fill*         0x4023e8ee        0x2 
 .irom0.text    0x4023e8f0      0x2b6 c:/Espressif/ESP8266_SDK_200/lib\libwpa.a(common.o)
                                0x302 (size before relaxing)
                0x4023e8f0                inc_byte_array
                0x4023e944                hex2byte
                0x4023e978                hexstr2bin
                0x4023e9c4                wpa_get_ntp_timestamp
                0x4023ea5c                wpa_config_parse_string
                0x4023eb60                dup_binstr
 *fill*         0x4023eba6        0x2 
 .irom0.text    0x4023eba8       0xcc c:/Espressif/ESP8266_SDK_200/lib\libwpa.a(os_xtensa.o)
                                 0xdc (size before relaxing)
                0x4023ebac                ets_strdup
                0x4023ebf0                os_get_time
                0x4023ebf4                r_rand
                0x4023ec08                os_random
                0x4023ec18                os_get_random
 .irom0.text    0x4023ec74     0x1c86 c:/Espressif/ESP8266_SDK_200/lib\libwpa.a(wpa_auth.o)
                               0x1f66 (size before relaxing)
                0x4023edc0                wpa_auth_for_each_sta
                0x4023ef40                wpa_init
                0x4023efd0                wpa_auth_sta_init
                0x4023f018                wpa_auth_sta_associated
                0x4023f084                wpa_auth_sta_no_wpa
                0x4023f0e0                wpa_auth_sta_deinit
                0x4023f1b0                wpa_receive
                0x4023f614                __wpa_send_eapol
                0x4023fb38                wpa_remove_ptk
                0x4023fb84                wpa_auth_sm_event
 *fill*         0x402408fa        0x2 
 .irom0.text    0x402408fc      0x582 c:/Espressif/ESP8266_SDK_200/lib\libwpa.a(wpa_auth_ie.o)
                                0x5f6 (size before relaxing)
                0x402409c0                wpa_write_rsn_ie
                0x40240acc                wpa_auth_gen_wpa_ie
                0x40240b5c                wpa_add_kde
                0x40240bc8                wpa_validate_wpa_ie
                0x40240dd4                wpa_parse_kde_ies
                0x40240e70                wpa_auth_uses_mfp
 *fill*         0x40240e7e        0x2 
 .irom0.text    0x40240e80     0x14d0 c:/Espressif/ESP8266_SDK_200/lib\libwpa.a(wpa.o)
                               0x1708 (size before relaxing)
                0x40241e0c                wpa_sm_rx_eapol
                0x40241f84                wpa_register
                0x40241fb0                wpa_set_profile
                0x40241fc8                wpa_set_pmk
                0x40241ff4                wpa_set_bss
                0x402421f8                pp_michael_mic_failure
                0x4024229c                eapol_txcb
                0x40242328                wpa_sm_set_state
 .irom0.text    0x40242350      0x76a c:/Espressif/ESP8266_SDK_200/lib\libwpa.a(wpa_common.o)
                                0x7fa (size before relaxing)
                0x40242498                wpa_parse_wpa_ie_rsn
                0x4024262c                wpa_parse_wpa_ie_wpa
                0x402427bc                wpa_eapol_key_mic
                0x402427fc                wpa_compare_rsn_ie
                0x40242824                wpa_pmk_to_ptk
                0x40242914                rsn_pmkid
                0x40242970                wpa_cipher_key_len
                0x40242994                wpa_cipher_to_alg
                0x402429bc                wpa_cipher_to_suite
                0x40242a10                rsn_cipher_put_suites
                0x40242a70                wpa_cipher_put_suites
 *fill*         0x40242aba        0x2 
 .irom0.text    0x40242abc       0xa8 c:/Espressif/ESP8266_SDK_200/lib\libwpa.a(wpa_debug.o)
                                 0xac (size before relaxing)
                0x40242b34                wpa_snprintf_hex_uppercase
                0x40242b48                wpa_snprintf_hex
                0x40242b5c                eloop_cancel_timeout
                0x40242b60                eloop_register_timeout
 .irom0.text    0x40242b64      0x325 c:/Espressif/ESP8266_SDK_200/lib\libwpa.a(wpa_ie.o)
                                0x341 (size before relaxing)
                0x40242b64                wpa_parse_wpa_ie
                0x40242c58                wpa_supplicant_parse_ies
                0x40242e58                wpa_gen_wpa_ie
 *fill*         0x40242e89        0x3 
 .irom0.text    0x40242e8c      0x420 c:/Espressif/ESP8266_SDK_200/lib\libwpa.a(wpa_main.o)
                                0x538 (size before relaxing)
                0x40242e90                ppInstallKey
                0x40243020                wpa_config_profile
                0x40243054                wpa_config_bss
                0x40243084                wpa_config_assoc_ie
                0x40243098                dhcp_bind_check
                0x402430cc                eagle_auth_done
                0x4024324c                wpa_neg_complete
                0x40243274                wpa_attach
 .irom0.text    0x402432ac       0xd6 c:/Espressif/ESP8266_SDK_200/lib\libwpa.a(wpas_glue.o)
                                 0xe2 (size before relaxing)
                0x4024331c                wpa_sm_alloc_eapol
                0x4024335c                wpa_sm_deauthenticate
                0x40243378                wpa_sm_mlme_setprotection
                0x4024337c                wpa_sm_get_beacon_ie
                0x40243380                wpa_sm_disassociate
 *fill*         0x40243382        0x2 
 .irom0.text    0x40243384      0x950 c:/Espressif/ESP8266_SDK_200/lib\libsmartconfig.a(sc_sniffer.o)
                                0xbe0 (size before relaxing)
                0x40243394                sc_init_snif_glob
                0x402433dc                sc_free_snif_glob
                0x4024341c                sc_smartconfig_restart
                0x40243450                sc_channel_timer_cb
                0x4024355c                sc_PackCallback
                0x40243638                sc_wifi_scan_done
                0x402438a4                sc_system_init_done
                0x402438ec                smartconfig_start
                0x402439f4                smartconfig_stop
                0x40243b98                smartconfig_get_status
                0x40243c48                smartconfig_get_version
                0x40243c58                esptouch_set_timeout
                0x40243c94                smartconfig_set_type
 .irom0.text    0x40243cd4     0x1ad4 c:/Espressif/ESP8266_SDK_200/lib\libsmartconfig.a(sc_airkiss.o)
                               0x1ed4 (size before relaxing)
                0x40243ce4                KISS_Init_guide_glob
                0x40243d34                KISS_Free_guide_glob
                0x40243d64                KISS_Init_Glob_Trans
                0x40243dc0                KISS_Init_Glob_Diret
                0x40243e14                KISS_Free_Glob_Trans
                0x40243e3c                KISS_Free_Glob_Diret
                0x40243ef0                KISS_Find_channel_end
                0x402440c4                KISS_Find_channel_trans
                0x402444b0                KISS_Find_channel_direct
                0x40244844                KISS_Find_channel
                0x40245574                KISS_Deal_with
 .irom0.text    0x402457a8     0x247a c:/Espressif/ESP8266_SDK_200/lib\libsmartconfig.a(sc_esptouch.o)
                               0x29e2 (size before relaxing)
                0x40245804                TOUCH_Init_guide_glob
                0x4024589c                TOUCH_Free_guide_glob
                0x402458f4                TOUCH_Init_glob
                0x40245954                TOUCH_Free_glob
                0x40245bd8                TOUCH_Find_sync_ht20
                0x40246d64                TOUCH_Find_sync_ht40
                0x40247954                TOUCH_Deal_with
 *fill*         0x40247c22        0x2 
 .irom0.text    0x40247c24       0xe3 c:/Espressif/ESP8266_SDK_200/lib\libcrypto.a(aes-wrap.o)
                                0x103 (size before relaxing)
                0x40247c28                aes_wrap
 *fill*         0x40247d07        0x1 
 .irom0.text    0x40247d08      0x4bb c:/Espressif/ESP8266_SDK_200/lib\libcrypto.a(aes-internal-enc.o)
                                0x4df (size before relaxing)
                0x40247d10                rijndaelEncrypt
                0x4024812c                aes_encrypt_init
                0x40248180                aes_encrypt
                0x40248198                aes_encrypt_deinit
 *fill*         0x402481c3        0x1 
 .irom0.text    0x402481c4      0x308 c:/Espressif/ESP8266_SDK_200/lib\libcrypto.a(aes-internal.o)
                                0x31c (size before relaxing)
                0x402481cc                rijndaelKeySetupEnc
 .irom0.text    0x402484cc      0x18b c:/Espressif/ESP8266_SDK_200/lib\libnet80211.a(ieee80211_crypto_tkip.o)
                                0x197 (size before relaxing)
 *fill*         0x40248657        0x1 
 .irom0.text    0x40248658       0x78 c:/Espressif/ESP8266_SDK_200/lib\libnet80211.a(ieee80211_crypto_wep.o)
                                 0x7c (size before relaxing)
 .irom0.literal
                0x402486d0        0x0 c:/Espressif/ESP8266_SDK_200/lib\libmain.a(app_main.o)
 *fill*         0x402486d0        0x0 
 .irom.text     0x402486d0      0x510 c:/Espressif/ESP8266_SDK_200/lib\libmain.a(app_main.o)
 .irom0.literal
                0x40248be0        0x0 c:/Espressif/ESP8266_SDK_200/lib\libmain.a(ets_timer.o)
 *fill*         0x40248be0        0x0 
 .irom.text     0x40248be0      0x14c c:/Espressif/ESP8266_SDK_200/lib\libmain.a(ets_timer.o)
 .irom0.literal
                0x40248d2c        0x0 c:/Espressif/ESP8266_SDK_200/lib\libmain.a(mem_manager.o)
 *fill*         0x40248d2c        0x4 
 .irom.text     0x40248d30       0x11 c:/Espressif/ESP8266_SDK_200/lib\libmain.a(mem_manager.o)
 *fill*         0x40248d41        0x3 
 .irom0.literal
                0x40248d44        0x0 c:/Espressif/ESP8266_SDK_200/lib\libmain.a(spi_flash.o)
 *fill*         0x40248d44        0xc 
 .irom.text     0x40248d50      0x12f c:/Espressif/ESP8266_SDK_200/lib\libmain.a(spi_flash.o)
 *fill*         0x40248e7f        0x1 
 .irom0.literal
                0x40248e80        0x0 c:/Espressif/ESP8266_SDK_200/lib\libmain.a(user_interface.o)
 *fill*         0x40248e80        0x0 
 .irom.text     0x40248e80      0x2d5 c:/Espressif/ESP8266_SDK_200/lib\libmain.a(user_interface.o)
                0x40248ea0                default_ssid
 *fill*         0x40249155        0x3 
 .irom0.literal
                0x40249158        0x0 c:/Espressif/ESP8266_SDK_200/lib\libmain.a(eagle_lib.o)
 .irom0.literal
                0x40249158        0x0 c:/Espressif/ESP8266_SDK_200/lib\libmain.a(eagle_lwip_if.o)
 *fill*         0x40249158        0x8 
 .irom.text     0x40249160       0x63 c:/Espressif/ESP8266_SDK_200/lib\libmain.a(eagle_lwip_if.o)
 *fill*         0x402491c3        0x1 
 .irom0.literal
                0x402491c4        0x0 build/debug/app_app.a(user_main.o)
 .irom0.literal
                0x402491c4        0x0 build/debug/app_app.a(config.o)
 *fill*         0x402491c4        0x0 
 .irom0.literal
                0x402491c4        0x0 build/debug/app_app.a(io.o)
 *fill*         0x402491c4        0x0 
 .irom0.literal
                0x402491c4        0x0 build/debug/app_app.a(switch.o)
 *fill*         0x402491c4        0x0 
 .irom0.literal
                0x402491c4        0x0 build/debug/app_app.a(http.o)
 *fill*         0x402491c4        0x0 
 .irom0.literal
                0x402491c4        0x0 build/debug/app_app.a(easygpio.o)
 *fill*         0x402491c4        0x0 
 .irom0.literal
                0x402491c4        0x0 build/debug/app_app.a(wifi.o)
 *fill*         0x402491c4        0x0 
 .irom0.literal
                0x402491c4        0x0 build/debug/app_app.a(flash.o)
 .irom0.literal
                0x402491c4        0x0 build/debug/app_app.a(doSmartConfig.o)
 *fill*         0x402491c4        0x0 
 .irom0.literal
                0x402491c4        0x0 build/debug/app_app.a(stdout.o)
 *fill*         0x402491c4        0x0 
 .irom0.literal
                0x402491c4        0x0 build/debug/app_app.a(check.o)
 .irom0.literal
                0x402491c4        0x0 build/debug/app_app.a(mqtt.o)
 .irom0.literal
                0x402491c4        0x0 build/debug/app_app.a(publish.o)
 *fill*         0x402491c4        0x0 
 .irom0.literal
                0x402491c4        0x0 build/debug/app_app.a(temperature.o)
 *fill*         0x402491c4        0x0 
 .irom0.literal
                0x402491c4        0x0 build/debug/app_app.a(dht22.o)
 *fill*         0x402491c4        0x0 
 .irom0.literal
                0x402491c4        0x0 build/debug/app_app.a(ds18b20.o)
 .irom0.literal
                0x402491c4        0x0 build/debug/app_app.a(decodeMessage.o)
 *fill*         0x402491c4        0x0 
 .irom0.literal
                0x402491c4        0x0 build/debug/app_app.a(jsmn.o)
 .irom0.literal
                0x402491c4        0x0 build/debug/app_app.a(dtoa.o)
 *fill*         0x402491c4        0x0 
 .irom0.literal
                0x402491c4        0x0 build/debug/app_app.a(utils.o)
 .irom0.text    0x402491c4      0x15c build/debug/app_app.a(utils.o)
                0x402491c4                UTILS_Atoh
                0x4024921c                UTILS_StrToIP
                0x402492c0                UTILS_IsIPV4
 .irom0.literal
                0x40249320        0x0 build/debug/app_app.a(queue.o)
 *fill*         0x40249320        0x0 
 .irom0.literal
                0x40249320        0x0 build/debug/app_app.a(mqtt_msg.o)
 .irom0.literal
                0x40249320        0x0 build/debug/app_app.a(ringbuf.o)
 .irom0.text    0x40249320       0xc8 build/debug/app_app.a(ringbuf.o)
                0x40249320                RINGBUF_Init
                0x4024935c                RINGBUF_Put
                0x402493a4                RINGBUF_Get
 .irom0.literal
                0x402493e8        0x0 build/debug/app_app.a(proto.o)
 .irom0.literal
                0x402493e8        0x0 c:/Espressif/ESP8266_SDK_200/lib\libphy.a(phy.o)
 *fill*         0x402493e8        0x0 
 .irom0.literal
                0x402493e8        0x0 c:/Espressif/ESP8266_SDK_200/lib\libphy.a(phy_chip_v6_ana.o)
 *fill*         0x402493e8        0x8 
 .irom.text     0x402493f0       0x65 c:/Espressif/ESP8266_SDK_200/lib\libphy.a(phy_chip_v6_ana.o)
 *fill*         0x40249455        0x3 
 .irom0.literal
                0x40249458        0x0 c:/Espressif/ESP8266_SDK_200/lib\libphy.a(phy_chip_v6.o)
 *fill*         0x40249458        0x8 
 .irom.text     0x40249460      0x14c c:/Espressif/ESP8266_SDK_200/lib\libphy.a(phy_chip_v6.o)
 .irom0.literal
                0x402495ac        0x0 c:/Espressif/ESP8266_SDK_200/lib\libphy.a(phy_chip_v6_cal.o)
 *fill*         0x402495ac        0x4 
 .irom.text     0x402495b0      0x1f4 c:/Espressif/ESP8266_SDK_200/lib\libphy.a(phy_chip_v6_cal.o)
 .irom0.literal
                0x402497a4        0x0 c:/Espressif/ESP8266_SDK_200/lib\libphy.a(phy_chip_v6_unused.o)
 .irom0.text    0x402497a4        0xc c:/Espressif/ESP8266_SDK_200/lib\libphy.a(phy_chip_v6_unused.o)
                0x402497a4                chip_v6_set_sense
                0x402497a8                chip_v6_get_sense
                0x402497ac                chip_v6_unset_chanfreq
 .irom0.literal
                0x402497b0        0x0 c:/Espressif/ESP8266_SDK_200/lib\libphy.a(phy_sleep.o)
 *fill*         0x402497b0        0x0 
 .irom0.literal
                0x402497b0        0x0 c:/Espressif/ESP8266_SDK_200/lib\libpp.a(if_hwctrl.o)
 *fill*         0x402497b0        0x0 
 .irom.text     0x402497b0       0x50 c:/Espressif/ESP8266_SDK_200/lib\libpp.a(if_hwctrl.o)
 .irom0.literal
                0x40249800        0x0 c:/Espressif/ESP8266_SDK_200/lib\libpp.a(lmac.o)
 *fill*         0x40249800        0x0 
 .irom.text     0x40249800       0x2f c:/Espressif/ESP8266_SDK_200/lib\libpp.a(lmac.o)
 *fill*         0x4024982f        0x1 
 .irom0.literal
                0x40249830        0x0 c:/Espressif/ESP8266_SDK_200/lib\libpp.a(pm.o)
 *fill*         0x40249830        0x0 
 .irom.text     0x40249830      0x16d c:/Espressif/ESP8266_SDK_200/lib\libpp.a(pm.o)
 *fill*         0x4024999d        0x3 
 .irom0.literal
                0x402499a0        0x0 c:/Espressif/ESP8266_SDK_200/lib\libpp.a(pm_for_bcn_only_mode.o)
 *fill*         0x402499a0        0x0 
 .irom.text     0x402499a0      0x118 c:/Espressif/ESP8266_SDK_200/lib\libpp.a(pm_for_bcn_only_mode.o)
 .irom0.literal
                0x40249ab8        0x0 c:/Espressif/ESP8266_SDK_200/lib\libpp.a(pp.o)
 *fill*         0x40249ab8        0x8 
 .irom.text     0x40249ac0       0x5b c:/Espressif/ESP8266_SDK_200/lib\libpp.a(pp.o)
 *fill*         0x40249b1b        0x1 
 .irom0.literal
                0x40249b1c        0x0 c:/Espressif/ESP8266_SDK_200/lib\libpp.a(rate_control.o)
 *fill*         0x40249b1c        0x0 
 .irom0.literal
                0x40249b1c        0x0 c:/Espressif/ESP8266_SDK_200/lib\libpp.a(trc.o)
 *fill*         0x40249b1c        0x4 
 .irom.text     0x40249b20       0x38 c:/Espressif/ESP8266_SDK_200/lib\libpp.a(trc.o)
 .irom0.literal
                0x40249b58        0x0 c:/Espressif/ESP8266_SDK_200/lib\libpp.a(wdev.o)
 *fill*         0x40249b58        0x0 
 .irom.text     0x40249b58        0x7 c:/Espressif/ESP8266_SDK_200/lib\libpp.a(wdev.o)
 *fill*         0x40249b5f        0x1 
 .irom0.literal
                0x40249b60        0x0 c:/Espressif/ESP8266_SDK_200/lib\libpp.a(esf_buf.o)
 *fill*         0x40249b60        0x0 
 .irom.text     0x40249b60        0xa c:/Espressif/ESP8266_SDK_200/lib\libpp.a(esf_buf.o)
 *fill*         0x40249b6a        0x2 
 .irom0.literal
                0x40249b6c        0x0 c:/Espressif/ESP8266_SDK_200/lib\libnet80211.a(ieee80211.o)
 *fill*         0x40249b6c        0x4 
 .irom.text     0x40249b70       0x82 c:/Espressif/ESP8266_SDK_200/lib\libnet80211.a(ieee80211.o)
                0x40249b80                ieee80211_opcap
 *fill*         0x40249bf2        0x2 
 .irom0.literal
                0x40249bf4        0x0 c:/Espressif/ESP8266_SDK_200/lib\libnet80211.a(ieee80211_crypto.o)
 *fill*         0x40249bf4        0x0 
 .irom0.literal
                0x40249bf4        0x0 c:/Espressif/ESP8266_SDK_200/lib\libnet80211.a(ieee80211_ets.o)
 .irom0.literal
                0x40249bf4        0x0 c:/Espressif/ESP8266_SDK_200/lib\libnet80211.a(ieee80211_hostap.o)
 *fill*         0x40249bf4        0xc 
 .irom.text     0x40249c00       0x4b c:/Espressif/ESP8266_SDK_200/lib\libnet80211.a(ieee80211_hostap.o)
 *fill*         0x40249c4b        0x1 
 .irom0.literal
                0x40249c4c        0x0 c:/Espressif/ESP8266_SDK_200/lib\libnet80211.a(ieee80211_ht.o)
 *fill*         0x40249c4c        0x4 
 .irom.text     0x40249c50       0x19 c:/Espressif/ESP8266_SDK_200/lib\libnet80211.a(ieee80211_ht.o)
 *fill*         0x40249c69        0x3 
 .irom0.literal
                0x40249c6c        0x0 c:/Espressif/ESP8266_SDK_200/lib\libnet80211.a(ieee80211_input.o)
 *fill*         0x40249c6c        0x4 
 .irom.text     0x40249c70       0x12 c:/Espressif/ESP8266_SDK_200/lib\libnet80211.a(ieee80211_input.o)
 *fill*         0x40249c82        0x2 
 .irom0.literal
                0x40249c84        0x0 c:/Espressif/ESP8266_SDK_200/lib\libnet80211.a(ieee80211_mesh_quick.o)
 *fill*         0x40249c84        0xc 
 .irom.text     0x40249c90       0x43 c:/Espressif/ESP8266_SDK_200/lib\libnet80211.a(ieee80211_mesh_quick.o)
 *fill*         0x40249cd3        0x1 
 .irom0.literal
                0x40249cd4        0x0 c:/Espressif/ESP8266_SDK_200/lib\libnet80211.a(ieee80211_output.o)
 *fill*         0x40249cd4        0xc 
 .irom.text     0x40249ce0       0x3d c:/Espressif/ESP8266_SDK_200/lib\libnet80211.a(ieee80211_output.o)
 *fill*         0x40249d1d        0x3 
 .irom0.literal
                0x40249d20        0x0 c:/Espressif/ESP8266_SDK_200/lib\libnet80211.a(ieee80211_phy.o)
 *fill*         0x40249d20        0x0 
 .irom.text     0x40249d20      0x1b8 c:/Espressif/ESP8266_SDK_200/lib\libnet80211.a(ieee80211_phy.o)
 .irom0.literal
                0x40249ed8        0x0 c:/Espressif/ESP8266_SDK_200/lib\libnet80211.a(ieee80211_power.o)
 *fill*         0x40249ed8        0x0 
 .irom0.literal
                0x40249ed8        0x0 c:/Espressif/ESP8266_SDK_200/lib\libnet80211.a(ieee80211_proto.o)
 *fill*         0x40249ed8        0x8 
 .irom.text     0x40249ee0       0x1c c:/Espressif/ESP8266_SDK_200/lib\libnet80211.a(ieee80211_proto.o)
 .irom0.literal
                0x40249efc        0x0 c:/Espressif/ESP8266_SDK_200/lib\libnet80211.a(ieee80211_regdomain.o)
 *fill*         0x40249efc        0x4 
 .irom.text     0x40249f00       0x2b c:/Espressif/ESP8266_SDK_200/lib\libnet80211.a(ieee80211_regdomain.o)
 *fill*         0x40249f2b        0x1 
 .irom0.literal
                0x40249f2c        0x0 c:/Espressif/ESP8266_SDK_200/lib\libnet80211.a(ieee80211_rfid.o)
 *fill*         0x40249f2c        0x0 
 .irom0.literal
                0x40249f2c        0x0 c:/Espressif/ESP8266_SDK_200/lib\libnet80211.a(ieee80211_scan.o)
 *fill*         0x40249f2c        0x4 
 .irom.text     0x40249f30       0x99 c:/Espressif/ESP8266_SDK_200/lib\libnet80211.a(ieee80211_scan.o)
 *fill*         0x40249fc9        0x3 
 .irom0.literal
                0x40249fcc        0x0 c:/Espressif/ESP8266_SDK_200/lib\libnet80211.a(ieee80211_sta.o)
 *fill*         0x40249fcc        0x4 
 .irom.text     0x40249fd0       0x26 c:/Espressif/ESP8266_SDK_200/lib\libnet80211.a(ieee80211_sta.o)
 *fill*         0x40249ff6        0x2 
 .irom0.literal
                0x40249ff8        0x0 c:/Espressif/ESP8266_SDK_200/lib\libnet80211.a(wl_chm.o)
 *fill*         0x40249ff8        0x0 
 .irom0.literal
                0x40249ff8        0x0 c:/Espressif/ESP8266_SDK_200/lib\libnet80211.a(wl_cnx.o)
 *fill*         0x40249ff8        0x8 
 .irom.text     0x4024a000      0x1a7 c:/Espressif/ESP8266_SDK_200/lib\libnet80211.a(wl_cnx.o)
 *fill*         0x4024a1a7        0x1 
 .irom0.literal
                0x4024a1a8        0x0 c:/Espressif/ESP8266_SDK_200/lib\libnet80211.a(ieee80211_action.o)
 *fill*         0x4024a1a8        0x0 
 .irom0.literal
                0x4024a1a8        0x0 c:/Espressif/ESP8266_SDK_200/lib\libnet80211.a(ieee80211_action_vendor.o)
 *fill*         0x4024a1a8        0x8 
 .irom.text     0x4024a1b0       0xe3 c:/Espressif/ESP8266_SDK_200/lib\libnet80211.a(ieee80211_action_vendor.o)
 *fill*         0x4024a293        0x1 
 .irom0.literal
                0x4024a294        0x0 c:/Espressif/ESP8266_SDK_200/lib\libnet80211.a(ieee80211_crypto_ccmp.o)
 *fill*         0x4024a294        0x0 
 .irom.text     0x4024a294       0x18 c:/Espressif/ESP8266_SDK_200/lib\libnet80211.a(ieee80211_crypto_ccmp.o)
                0x4024a294                ccmp
 .irom0.literal
                0x4024a2ac        0x0 c:/Espressif/ESP8266_SDK_200/lib\libnet80211.a(ieee80211_ie_vendor.o)
 *fill*         0x4024a2ac        0x0 
 .irom0.literal
                0x4024a2ac        0x0 c:/Espressif/ESP8266_SDK_200/lib\liblwip.a(dhcp.o)
 *fill*         0x4024a2ac        0x4 
 .irom.text     0x4024a2b0       0x1e c:/Espressif/ESP8266_SDK_200/lib\liblwip.a(dhcp.o)
 *fill*         0x4024a2ce        0x2 
 .irom0.literal
                0x4024a2d0        0x0 c:/Espressif/ESP8266_SDK_200/lib\liblwip.a(dhcpserver.o)
 *fill*         0x4024a2d0        0x0 
 .irom.text     0x4024a2d0       0x45 c:/Espressif/ESP8266_SDK_200/lib\liblwip.a(dhcpserver.o)
 *fill*         0x4024a315        0x3 
 .irom0.literal
                0x4024a318        0x0 c:/Espressif/ESP8266_SDK_200/lib\liblwip.a(dns.o)
 *fill*         0x4024a318        0x0 
 .irom.text     0x4024a318        0x6 c:/Espressif/ESP8266_SDK_200/lib\liblwip.a(dns.o)
 *fill*         0x4024a31e        0x2 
 .irom0.literal
                0x4024a320        0x0 c:/Espressif/ESP8266_SDK_200/lib\liblwip.a(espconn.o)
 *fill*         0x4024a320        0x0 
 .irom.text     0x4024a320        0xa c:/Espressif/ESP8266_SDK_200/lib\liblwip.a(espconn.o)
 *fill*         0x4024a32a        0x2 
 .irom0.literal
                0x4024a32c        0x0 c:/Espressif/ESP8266_SDK_200/lib\liblwip.a(espconn_tcp.o)
 *fill*         0x4024a32c        0x4 
 .irom.text     0x4024a330       0xab c:/Espressif/ESP8266_SDK_200/lib\liblwip.a(espconn_tcp.o)
 *fill*         0x4024a3db        0x1 
 .irom0.literal
                0x4024a3dc        0x0 c:/Espressif/ESP8266_SDK_200/lib\liblwip.a(espconn_udp.o)
 *fill*         0x4024a3dc        0x4 
 .irom.text     0x4024a3e0        0xe c:/Espressif/ESP8266_SDK_200/lib\liblwip.a(espconn_udp.o)
 *fill*         0x4024a3ee        0x2 
 .irom0.literal
                0x4024a3f0        0x0 c:/Espressif/ESP8266_SDK_200/lib\liblwip.a(etharp.o)
 *fill*         0x4024a3f0        0x0 
 .irom.text     0x4024a3f0        0x9 c:/Espressif/ESP8266_SDK_200/lib\liblwip.a(etharp.o)
 *fill*         0x4024a3f9        0x3 
 .irom0.literal
                0x4024a3fc        0x0 c:/Espressif/ESP8266_SDK_200/lib\liblwip.a(igmp.o)
 *fill*         0x4024a3fc        0x4 
 .irom.text     0x4024a400        0x7 c:/Espressif/ESP8266_SDK_200/lib\liblwip.a(igmp.o)
 *fill*         0x4024a407        0x1 
 .irom0.literal
                0x4024a408        0x0 c:/Espressif/ESP8266_SDK_200/lib\liblwip.a(inet_chksum.o)
 .irom0.text    0x4024a408      0x298 c:/Espressif/ESP8266_SDK_200/lib\liblwip.a(inet_chksum.o)
                0x4024a480                inet_chksum_pseudo
                0x4024a540                inet_chksum_pseudo_partial
                0x4024a61c                inet_chksum
                0x4024a634                inet_chksum_pbuf
 .irom0.literal
                0x4024a6a0        0x0 c:/Espressif/ESP8266_SDK_200/lib\liblwip.a(init.o)
 .irom0.literal
                0x4024a6a0        0x0 c:/Espressif/ESP8266_SDK_200/lib\liblwip.a(ip_addr.o)
 *fill*         0x4024a6a0        0x0 
 .irom.text     0x4024a6a0        0x8 c:/Espressif/ESP8266_SDK_200/lib\liblwip.a(ip_addr.o)
                0x4024a6a0                ip_addr_any
                0x4024a6a4                ip_addr_broadcast
 .irom0.literal
                0x4024a6a8        0x0 c:/Espressif/ESP8266_SDK_200/lib\liblwip.a(ip.o)
 *fill*         0x4024a6a8        0x8 
 .irom.text     0x4024a6b0       0x11 c:/Espressif/ESP8266_SDK_200/lib\liblwip.a(ip.o)
 *fill*         0x4024a6c1        0xf 
 .irom.text     0x4024a6d0       0x28 c:/Espressif/ESP8266_SDK_200/lib\liblwip.a(memp.o)
                0x4024a6d0                memp_sizes
 .irom0.literal
                0x4024a6f8        0x0 c:/Espressif/ESP8266_SDK_200/lib\liblwip.a(netif.o)
 *fill*         0x4024a6f8        0x0 
 .irom0.literal
                0x4024a6f8        0x0 c:/Espressif/ESP8266_SDK_200/lib\liblwip.a(pbuf.o)
 *fill*         0x4024a6f8        0x0 
 .irom.text     0x4024a6f8        0x7 c:/Espressif/ESP8266_SDK_200/lib\liblwip.a(pbuf.o)
 *fill*         0x4024a6ff        0x1 
 .irom0.literal
                0x4024a700        0x0 c:/Espressif/ESP8266_SDK_200/lib\liblwip.a(raw.o)
 *fill*         0x4024a700        0x0 
 .irom.text     0x4024a700        0x6 c:/Espressif/ESP8266_SDK_200/lib\liblwip.a(raw.o)
 *fill*         0x4024a706        0x2 
 .irom0.literal
                0x4024a708        0x0 c:/Espressif/ESP8266_SDK_200/lib\liblwip.a(tcp_in.o)
 *fill*         0x4024a708        0x8 
 .irom.text     0x4024a710        0x9 c:/Espressif/ESP8266_SDK_200/lib\liblwip.a(tcp_in.o)
 *fill*         0x4024a719        0x3 
 .irom0.literal
                0x4024a71c        0x0 c:/Espressif/ESP8266_SDK_200/lib\liblwip.a(tcp.o)
 *fill*         0x4024a71c        0x4 
 .irom.text     0x4024a720       0x3d c:/Espressif/ESP8266_SDK_200/lib\liblwip.a(tcp.o)
                0x4024a730                tcp_pcb_lists
                0x4024a740                tcp_persist_backoff
                0x4024a750                tcp_backoff
 *fill*         0x4024a75d        0x3 
 .irom0.literal
                0x4024a760        0x0 c:/Espressif/ESP8266_SDK_200/lib\liblwip.a(tcp_out.o)
 *fill*         0x4024a760        0x0 
 .irom.text     0x4024a760        0xa c:/Espressif/ESP8266_SDK_200/lib\liblwip.a(tcp_out.o)
 *fill*         0x4024a76a        0x2 
 .irom0.literal
                0x4024a76c        0x0 c:/Espressif/ESP8266_SDK_200/lib\liblwip.a(timers.o)
 *fill*         0x4024a76c        0x4 
 .irom.text     0x4024a770        0x9 c:/Espressif/ESP8266_SDK_200/lib\liblwip.a(timers.o)
 *fill*         0x4024a779        0x3 
 .irom0.literal
                0x4024a77c        0x0 c:/Espressif/ESP8266_SDK_200/lib\liblwip.a(udp.o)
 *fill*         0x4024a77c        0x4 
 .irom.text     0x4024a780        0x6 c:/Espressif/ESP8266_SDK_200/lib\liblwip.a(udp.o)
 *fill*         0x4024a786        0xa 
 .irom.text     0x4024a790       0x57 c:/Espressif/ESP8266_SDK_200/lib\liblwip.a(espconn_buf.o)
 *fill*         0x4024a7e7        0x1 
 .irom0.literal
                0x4024a7e8        0x0 c:/Espressif/ESP8266_SDK_200/lib\liblwip.a(icmp.o)
 *fill*         0x4024a7e8        0x0 
 .irom0.literal
                0x4024a7e8        0x0 c:/Espressif/ESP8266_SDK_200/lib\libwpa.a(ap_config.o)
 *fill*         0x4024a7e8        0x8 
 .irom.text     0x4024a7f0        0xc c:/Espressif/ESP8266_SDK_200/lib\libwpa.a(ap_config.o)
 .irom0.literal
                0x4024a7fc        0x0 c:/Espressif/ESP8266_SDK_200/lib\libwpa.a(common.o)
 *fill*         0x4024a7fc        0x4 
 .irom.text     0x4024a800        0x9 c:/Espressif/ESP8266_SDK_200/lib\libwpa.a(common.o)
 *fill*         0x4024a809        0x3 
 .irom0.literal
                0x4024a80c        0x0 c:/Espressif/ESP8266_SDK_200/lib\libwpa.a(os_xtensa.o)
 *fill*         0x4024a80c        0x4 
 .irom.text     0x4024a810        0xc c:/Espressif/ESP8266_SDK_200/lib\libwpa.a(os_xtensa.o)
 .irom0.literal
                0x4024a81c        0x0 c:/Espressif/ESP8266_SDK_200/lib\libwpa.a(wpa_auth.o)
 *fill*         0x4024a81c        0x4 
 .irom.text     0x4024a820       0x74 c:/Espressif/ESP8266_SDK_200/lib\libwpa.a(wpa_auth.o)
 .irom0.literal
                0x4024a894        0x0 c:/Espressif/ESP8266_SDK_200/lib\libwpa.a(wpa_auth_ie.o)
 *fill*         0x4024a894        0xc 
 .irom.text     0x4024a8a0        0xe c:/Espressif/ESP8266_SDK_200/lib\libwpa.a(wpa_auth_ie.o)
 *fill*         0x4024a8ae        0x2 
 .irom0.literal
                0x4024a8b0        0x0 c:/Espressif/ESP8266_SDK_200/lib\libwpa.a(wpa.o)
 *fill*         0x4024a8b0        0x0 
 .irom.text     0x4024a8b0       0x17 c:/Espressif/ESP8266_SDK_200/lib\libwpa.a(wpa.o)
 *fill*         0x4024a8c7        0x1 
 .irom0.literal
                0x4024a8c8        0x0 c:/Espressif/ESP8266_SDK_200/lib\libwpa.a(wpa_common.o)
 *fill*         0x4024a8c8        0x8 
 .irom.text     0x4024a8d0       0x1c c:/Espressif/ESP8266_SDK_200/lib\libwpa.a(wpa_common.o)
 .irom0.literal
                0x4024a8ec        0x0 c:/Espressif/ESP8266_SDK_200/lib\libwpa.a(wpa_debug.o)
 .irom0.literal
                0x4024a8ec        0x0 c:/Espressif/ESP8266_SDK_200/lib\libwpa.a(wpa_ie.o)
 *fill*         0x4024a8ec        0x0 
 .irom0.literal
                0x4024a8ec        0x0 c:/Espressif/ESP8266_SDK_200/lib\libwpa.a(wpa_main.o)
 *fill*         0x4024a8ec        0x4 
 .irom.text     0x4024a8f0       0x67 c:/Espressif/ESP8266_SDK_200/lib\libwpa.a(wpa_main.o)
 *fill*         0x4024a957        0x1 
 .irom0.literal
                0x4024a958        0x0 c:/Espressif/ESP8266_SDK_200/lib\libwpa.a(wpas_glue.o)
 *fill*         0x4024a958        0x0 
 .irom0.literal
                0x4024a958        0x0 c:/Espressif/ESP8266_SDK_200/lib\libsmartconfig.a(sc_sniffer.o)
 *fill*         0x4024a958        0x8 
 .irom.text     0x4024a960      0x20d c:/Espressif/ESP8266_SDK_200/lib\libsmartconfig.a(sc_sniffer.o)
 *fill*         0x4024ab6d        0x3 
 .irom0.literal
                0x4024ab70        0x0 c:/Espressif/ESP8266_SDK_200/lib\libsmartconfig.a(sc_airkiss.o)
 *fill*         0x4024ab70        0x0 
 .irom.text     0x4024ab70      0x50c c:/Espressif/ESP8266_SDK_200/lib\libsmartconfig.a(sc_airkiss.o)
 .irom0.literal
                0x4024b07c        0x0 c:/Espressif/ESP8266_SDK_200/lib\libsmartconfig.a(sc_esptouch.o)
 *fill*         0x4024b07c        0x4 
 .irom.text     0x4024b080      0x64f c:/Espressif/ESP8266_SDK_200/lib\libsmartconfig.a(sc_esptouch.o)
 *fill*         0x4024b6cf        0x1 
 .irom0.literal
                0x4024b6d0        0x0 c:/Espressif/ESP8266_SDK_200/lib\libcrypto.a(aes-wrap.o)
 *fill*         0x4024b6d0        0x0 
 .irom0.literal
                0x4024b6d0        0x0 c:/Espressif/ESP8266_SDK_200/lib\libcrypto.a(aes-internal-enc.o)
 *fill*         0x4024b6d0        0x0 
 .irom.text     0x4024b6d0       0x13 c:/Espressif/ESP8266_SDK_200/lib\libcrypto.a(aes-internal-enc.o)
 *fill*         0x4024b6e3        0x1 
 .irom0.literal
                0x4024b6e4        0x0 c:/Espressif/ESP8266_SDK_200/lib\libcrypto.a(aes-internal.o)
 .irom0.literal
                0x4024b6e4        0x0 c:/Espressif/ESP8266_SDK_200/lib\libnet80211.a(ieee80211_crypto_tkip.o)
 *fill*         0x4024b6e4        0x0 
 .irom.text     0x4024b6e4       0x18 c:/Espressif/ESP8266_SDK_200/lib\libnet80211.a(ieee80211_crypto_tkip.o)
                0x4024b6e4                tkip
 .irom0.literal
                0x4024b6fc        0x0 c:/Espressif/ESP8266_SDK_200/lib\libnet80211.a(ieee80211_crypto_wep.o)
 .irom.text     0x4024b6fc       0x18 c:/Espressif/ESP8266_SDK_200/lib\libnet80211.a(ieee80211_crypto_wep.o)
                0x4024b6fc                wep
                0x4024b714                _irom0_text_end = ABSOLUTE (.)

.text           0x40100000     0x7acc
                0x40100000                _stext = .
                0x40100000                _text_start = ABSOLUTE (.)
 *(.UserEnter.text)
 .UserEnter.text
                0x40100000        0xd c:/Espressif/ESP8266_SDK_200/lib\libmain.a(vector.o)
                                 0x14 (size before relaxing)
                0x40100004                call_user_start
                0x40100010                . = ALIGN (0x10)
 *fill*         0x4010000d        0x3 
 *(.DebugExceptionVector.text)
 .DebugExceptionVector.text
                0x40100010        0x6 c:/Espressif/ESP8266_SDK_200/lib\libmain.a(debug-vector.o)
                0x40100010                _DebugExceptionVector
                0x40100020                . = ALIGN (0x10)
 *fill*         0x40100016        0xa 
 *(.NMIExceptionVector.text)
 .NMIExceptionVector.text
                0x40100020        0x6 c:/Espressif/ESP8266_SDK_200/lib\libmain.a(nmi-vector.o)
                                  0xd (size before relaxing)
                0x40100020                _NMIExceptionVector
                0x40100030                . = ALIGN (0x10)
 *fill*         0x40100026        0xa 
 *(.KernelExceptionVector.text)
 .KernelExceptionVector.text
                0x40100030        0x6 c:/Espressif/ESP8266_SDK_200/lib\libmain.a(kernel-vector.o)
                0x40100030                _KernelExceptionVector
                0x40100036        0x4 LONG 0x0
                0x4010003a        0x4 LONG 0x0
                0x4010003e        0x4 LONG 0x0
                0x40100042        0x4 LONG 0x0
                0x40100050                . = ALIGN (0x10)
 *fill*         0x40100046        0xa 
 *(.UserExceptionVector.text)
 .UserExceptionVector.text
                0x40100050        0x6 c:/Espressif/ESP8266_SDK_200/lib\libmain.a(user-vector.o)
                                  0xd (size before relaxing)
                0x40100050                _UserExceptionVector
                0x40100056        0x4 LONG 0x0
                0x4010005a        0x4 LONG 0x0
                0x4010005e        0x4 LONG 0x0
                0x40100062        0x4 LONG 0x0
                0x40100070                . = ALIGN (0x10)
 *fill*         0x40100066        0xa 
 *(.DoubleExceptionVector.text)
 .DoubleExceptionVector.text
                0x40100070        0x6 c:/Espressif/ESP8266_SDK_200/lib\libmain.a(double-vector.o)
                0x40100070                _DoubleExceptionVector
                0x40100076        0x4 LONG 0x0
                0x4010007a        0x4 LONG 0x0
                0x4010007e        0x4 LONG 0x0
                0x40100082        0x4 LONG 0x0
                0x40100090                . = ALIGN (0x10)
 *fill*         0x40100086        0xa 
 *(.entry.text)
 *(.init.literal)
 *(.init)
 *(.literal .text .literal.* .text.* .stub .gnu.warning .gnu.linkonce.literal.* .gnu.linkonce.t.*.literal .gnu.linkonce.t.*)
 .text          0x40100090       0xc7 c:/Espressif/ESP8266_SDK_200/lib\libmain.a(nmi-vector.o)
                                 0xcb (size before relaxing)
                0x4010009c                _NMILevelVector
 *fill*         0x40100157        0x1 
 .text          0x40100158       0x1e c:/Espressif/ESP8266_SDK_200/lib\libmain.a(user-vector.o)
                0x4010015c                _UserExceptionVector_1
 *fill*         0x40100176        0x2 
 .text          0x40100178      0x67a c:/Espressif/ESP8266_SDK_200/lib\libmain.a(app_main.o)
                                0x6f6 (size before relaxing)
                0x401001b0                Cache_Read_Enable_New
                0x401001ec                NmiTimSetFunc
                0x40100210                NMI_Handler
                0x40100268                call_user_start_local
                0x401003c8                wdt_feed
 *fill*         0x401007f2        0x2 
 .text          0x401007f4      0x3cc c:/Espressif/ESP8266_SDK_200/lib\libmain.a(ets_timer.o)
                                0x450 (size before relaxing)
                0x401008c8                ets_timer_setfn
                0x401009a4                ets_timer_disarm
                0x40100a54                ets_timer_arm_new
 .text          0x40100bc0      0x30f c:/Espressif/ESP8266_SDK_200/lib\libmain.a(mem_manager.o)
                                0x367 (size before relaxing)
                0x40100bc4                prvInsertBlockIntoUsedList
                0x40100bf4                system_show_malloc
                0x40100bf4                pvShowMalloc
                0x40100c80                prvRemoveBlockFromUsedList
                0x40100cac                xPortWantedSizeAlign
                0x40100cd4                pvPortMalloc
                0x40100d9c                vPortFree
                0x40100df4                pvPortCalloc
                0x40100e24                pvPortZalloc
                0x40100e40                pvPortRealloc
 *fill*         0x40100ecf        0x1 
 .text          0x40100ed0      0x9b3 c:/Espressif/ESP8266_SDK_200/lib\libmain.a(spi_flash.o)
                                0xb1f (size before relaxing)
                0x40100ed4                Cache_Read_Disable_2
                0x40100f14                Cache_Read_Enable_2
                0x40100f64                spi_flash_get_unique_id
                0x401010c8                spi_flash_get_id
                0x40101124                spi_flash_read_status
                0x40101158                spi_flash_write_status
                0x401011c0                flash_gd25q32c_read_status
                0x40101354                flash_gd25q32c_write_status
                0x401014e0                spi_flash_check_wr_protect
                0x40101574                spi_flash_erase_sector
                0x401015a4                spi_flash_enable_qmode
                0x401015d4                spi_flash_write
                0x40101628                spi_flash_read
                0x40101694                spi_flash_issi_enable_QIO_mode
                0x40101834                flash_gd25q32c_enable_QIO_mode
 *fill*         0x40101883        0x1 
 .text          0x40101884      0x336 c:/Espressif/ESP8266_SDK_200/lib\libmain.a(user_interface.o)
                                0x39e (size before relaxing)
                0x401018a0                os_printf_plus
                0x401019cc                system_restart_core
                0x40101a0c                system_deep_sleep_local_2
                0x40101ac0                system_get_time
                0x40101ad8                system_os_post
                0x40101b0c                system_rtc_mem_write
                0x40101b64                system_rtc_mem_read
 *fill*         0x40101bba        0x2 
 .text          0x40101bbc       0x9c build/debug/app_app.a(easygpio.o)
                0x40101bc4                easygpio_outputSet
                0x40101c24                easygpio_inputGet
 .text          0x40101c58       0xe1 build/debug/app_app.a(flash.o)
                                0x101 (size before relaxing)
                0x40101c84                startMultiFlash
                0x40101d18                startMultiFlashCb
 *fill*         0x40101d39        0x3 
 .text          0x40101d3c      0x2dd build/debug/app_app.a(dht22.o)
                                0x371 (size before relaxing)
 *fill*         0x40102019        0x3 
 .literal       0x4010201c        0x0 c:/espressif/xtensa-lx106-elf/bin/../lib/gcc/xtensa-lx106-elf/5.1.0/../../../../xtensa-lx106-elf/lib\libc.a(lib_a-atoi.o)
                                  0x8 (size before relaxing)
 .literal       0x4010201c        0x4 c:/espressif/xtensa-lx106-elf/bin/../lib/gcc/xtensa-lx106-elf/5.1.0/../../../../xtensa-lx106-elf/lib\libc.a(lib_a-lcltime.o)
                                  0x8 (size before relaxing)
 .literal       0x40102020        0x0 c:/espressif/xtensa-lx106-elf/bin/../lib/gcc/xtensa-lx106-elf/5.1.0/../../../../xtensa-lx106-elf/lib\libc.a(lib_a-lcltime_r.o)
                                  0x4 (size before relaxing)
 .literal       0x40102020       0x1c c:/espressif/xtensa-lx106-elf/bin/../lib/gcc/xtensa-lx106-elf/5.1.0/../../../../xtensa-lx106-elf/lib\libc.a(lib_a-mktm_r.o)
                                 0x88 (size before relaxing)
 .literal       0x4010203c       0x14 c:/espressif/xtensa-lx106-elf/bin/../lib/gcc/xtensa-lx106-elf/5.1.0/../../../../xtensa-lx106-elf/lib\libc.a(lib_a-strcmp.o)
                                 0x20 (size before relaxing)
 .literal       0x40102050        0x0 c:/espressif/xtensa-lx106-elf/bin/../lib/gcc/xtensa-lx106-elf/5.1.0/../../../../xtensa-lx106-elf/lib\libc.a(lib_a-strlen.o)
                                  0xc (size before relaxing)
 .literal       0x40102050        0xc c:/espressif/xtensa-lx106-elf/bin/../lib/gcc/xtensa-lx106-elf/5.1.0/../../../../xtensa-lx106-elf/lib\libc.a(lib_a-strtol.o)
                                 0x18 (size before relaxing)
 .literal       0x4010205c        0x4 c:/espressif/xtensa-lx106-elf/bin/../lib/gcc/xtensa-lx106-elf/5.1.0/../../../../xtensa-lx106-elf/lib\libc.a(lib_a-gettzinfo.o)
 .literal       0x40102060        0x4 c:/Espressif/ESP8266_SDK_200/lib\libgcc.a(_mulsf3.o)
                                 0x10 (size before relaxing)
 .literal       0x40102064        0x0 c:/Espressif/ESP8266_SDK_200/lib\libgcc.a(_divsf3.o)
                                 0x10 (size before relaxing)
 .literal       0x40102064        0x0 c:/Espressif/ESP8266_SDK_200/lib\libgcc.a(_cmpsf2.o)
                                 0x18 (size before relaxing)
 .literal       0x40102064        0x0 c:/Espressif/ESP8266_SDK_200/lib\libgcc.a(_fixsfsi.o)
                                  0x4 (size before relaxing)
 .literal       0x40102064        0x4 c:/Espressif/ESP8266_SDK_200/lib\libgcc.a(_cmpdf2.o)
                                 0x18 (size before relaxing)
 .text          0x40102068       0x27 c:/espressif/xtensa-lx106-elf/bin/../lib/gcc/xtensa-lx106-elf/5.1.0/../../../../xtensa-lx106-elf/lib\libc.a(lib_a-atoi.o)
                                 0x2f (size before relaxing)
                0x40102068                atoi
                0x4010207c                _atoi_r
 *fill*         0x4010208f        0x1 
 .text          0x40102090       0x17 c:/espressif/xtensa-lx106-elf/bin/../lib/gcc/xtensa-lx106-elf/5.1.0/../../../../xtensa-lx106-elf/lib\libc.a(lib_a-lcltime.o)
                                 0x1b (size before relaxing)
                0x40102090                localtime
 *fill*         0x401020a7        0x1 
 .text          0x401020a8       0x14 c:/espressif/xtensa-lx106-elf/bin/../lib/gcc/xtensa-lx106-elf/5.1.0/../../../../xtensa-lx106-elf/lib\libc.a(lib_a-lcltime_r.o)
                0x401020a8                localtime_r
 .text          0x401020bc      0x47b c:/espressif/xtensa-lx106-elf/bin/../lib/gcc/xtensa-lx106-elf/5.1.0/../../../../xtensa-lx106-elf/lib\libc.a(lib_a-mktm_r.o)
                                0x49f (size before relaxing)
                0x401020bc                __tzcalc_limits
                0x40102234                _mktm_r
 *fill*         0x40102537        0x1 
 .text          0x40102538       0xff c:/espressif/xtensa-lx106-elf/bin/../lib/gcc/xtensa-lx106-elf/5.1.0/../../../../xtensa-lx106-elf/lib\libc.a(lib_a-strcmp.o)
                0x40102538                strcmp
 *fill*         0x40102637        0x1 
 .text          0x40102638       0x5b c:/espressif/xtensa-lx106-elf/bin/../lib/gcc/xtensa-lx106-elf/5.1.0/../../../../xtensa-lx106-elf/lib\libc.a(lib_a-strlen.o)
                0x40102638                strlen
 *fill*         0x40102693        0x1 
 .text          0x40102694      0x153 c:/espressif/xtensa-lx106-elf/bin/../lib/gcc/xtensa-lx106-elf/5.1.0/../../../../xtensa-lx106-elf/lib\libc.a(lib_a-strtol.o)
                0x40102694                _strtol_r
                0x401027cc                strtol
 *fill*         0x401027e7        0x1 
 .text          0x401027e8        0x5 c:/espressif/xtensa-lx106-elf/bin/../lib/gcc/xtensa-lx106-elf/5.1.0/../../../../xtensa-lx106-elf/lib\libc.a(lib_a-gettzinfo.o)
                0x401027e8                __gettzinfo
 *fill*         0x401027ed        0x3 
 .text          0x401027f0      0x15d c:/Espressif/ESP8266_SDK_200/lib\libgcc.a(_mulsf3.o)
                0x40102868                __mulsf3
 *fill*         0x4010294d        0x3 
 .text          0x40102950      0x135 c:/Espressif/ESP8266_SDK_200/lib\libgcc.a(_divsf3.o)
                0x401029cc                __divsf3
 *fill*         0x40102a85        0x3 
 .text          0x40102a88      0x122 c:/Espressif/ESP8266_SDK_200/lib\libgcc.a(_cmpsf2.o)
                0x40102a88                __nesf2
                0x40102a88                __eqsf2
                0x40102ab0                __gtsf2
                0x40102ad0                __lesf2
                0x40102b1c                __gesf2
                0x40102b3c                __ltsf2
                0x40102b88                __unordsf2
 *fill*         0x40102baa        0x2 
 .text          0x40102bac       0x40 c:/Espressif/ESP8266_SDK_200/lib\libgcc.a(_fixsfsi.o)
                0x40102bac                __fixsfsi
 .text          0x40102bec      0x169 c:/Espressif/ESP8266_SDK_200/lib\libgcc.a(_cmpdf2.o)
                0x40102bec                __nedf2
                0x40102bec                __eqdf2
                0x40102c1c                __gtdf2
                0x40102c40                __ledf2
                0x40102ca4                __gedf2
                0x40102cc8                __ltdf2
                0x40102d2c                __unorddf2
 *fill*         0x40102d55        0x3 
 .text          0x40102d58       0x53 c:/Espressif/ESP8266_SDK_200/lib\libphy.a(phy.o)
                                 0x5f (size before relaxing)
                0x40102d60                register_phy_ops
                0x40102d80                register_get_phy_addr
                0x40102d88                phy_change_channel
                0x40102da0                phy_get_mactime
 *fill*         0x40102dab        0x1 
 .text          0x40102dac      0x262 c:/Espressif/ESP8266_SDK_200/lib\libphy.a(phy_chip_v6_ana.o)
                                0x276 (size before relaxing)
                0x40102dcc                phy_adc_read_fast
 *fill*         0x4010300e        0x2 
 .text          0x40103010       0x4d c:/Espressif/ESP8266_SDK_200/lib\libphy.a(phy_chip_v6.o)
                                 0x55 (size before relaxing)
                0x40103020                phy_debug_print
 *fill*         0x4010305d        0x3 
 .text          0x40103060      0x20e c:/Espressif/ESP8266_SDK_200/lib\libphy.a(phy_chip_v6_cal.o)
                                0x21a (size before relaxing)
                0x4010306c                tx_pwr_backoff_old
                0x401031bc                unsign_to_sign
                0x401031f8                phy_get_bb_freqoffset
                0x40103260                phy_get_bb_evm
 *fill*         0x4010326e        0x2 
 .text          0x40103270      0x253 c:/Espressif/ESP8266_SDK_200/lib\libphy.a(phy_sleep.o)
                                0x287 (size before relaxing)
                0x40103274                pm_rtc_clock_cali
                0x40103348                pm_goto_sleep
                0x40103498                clockgate_watchdog
 *fill*         0x401034c3        0x1 
 .text          0x401034c4     0x161a c:/Espressif/ESP8266_SDK_200/lib\libpp.a(lmac.o)
                               0x1982 (size before relaxing)
                0x401034c8                lmacIsActive
                0x401034dc                lmacIsIdle
                0x4010395c                lmacSetAcParam
                0x401039b0                lmacProcessTXStartData
                0x40103b5c                lmacProcessTxSuccess
                0x40103ca0                GetAccess
                0x40103cac                lmacDiscardAgedMSDU
                0x40103cc0                lmacRecycleMPDU
                0x40104284                lmacProcessTxTimeout
                0x401042ec                lmacProcessAllTxTimeout
                0x40104300                lmacProcessCollisions
                0x40104360                lmacProcessCollision
                0x401043d0                lmacMSDUAged
                0x40104760                lmacProcessCtsTimeout
                0x40104798                lmacProcessAckTimeout
                0x401047f0                lmacProcessRtsStart
                0x401047fc                lmacProcessTxRtsError
                0x4010489c                lmacProcessTxError
                0x4010492c                lmacTxFrame
                0x40104ac8                lmacRxDone
 *fill*         0x40104ade        0x2 
 .text          0x40104ae0      0x8e1 c:/Espressif/ESP8266_SDK_200/lib\libpp.a(pp.o)
                                0x9fd (size before relaxing)
                0x40104b14                pp_soft_wdt_feed_local
                0x40104ba8                ppProcessTxQ
                0x40104c1c                ppFetchTxQFirstAvail
                0x40104c5c                ppDequeueTxQ
                0x40104c84                ppRollBackTxQ
                0x40104ca8                ppRecordBarRRC
                0x40104cb8                ppTxqUpdateBitmap
                0x40104ce0                ppEnqueueTxDone
                0x40104d14                ppEnqueueRxq
                0x401051fc                ppDiscardMPDU
                0x40105220                pp_post
                0x401052ac                pp_post2
                0x401052d4                ppCalTxop
                0x40105354                ppCalFrameTimes
 *fill*         0x401053c1        0x3 
 .text          0x401053c4       0xf5 c:/Espressif/ESP8266_SDK_200/lib\libpp.a(rate_control.o)
                                0x109 (size before relaxing)
                0x401053e4                RC_GetAckRate
                0x401053f0                RC_GetRtsRate
                0x40105400                RC_GetAckTime
                0x40105414                RC_GetCtsTime
                0x4010544c                RC_GetBlockAckTime
 *fill*         0x401054b9        0x3 
 .text          0x401054bc      0x9a1 c:/Espressif/ESP8266_SDK_200/lib\libpp.a(trc.o)
                                0xa05 (size before relaxing)
                0x40105690                rcUpdateTxDone
                0x40105724                rcUpdateRxDone
                0x40105780                rcUpdateDataRxDone
                0x4010579c                rcGetSched
                0x40105880                rcGetRate
                0x40105d90                rcReachRetryLimit
                0x40105da8                trc_NeedRTS
 *fill*         0x40105e5d        0x3 
 .text          0x40105e60     0x1057 c:/Espressif/ESP8266_SDK_200/lib\libpp.a(wdev.o)
                               0x1347 (size before relaxing)
                0x40106200                wDev_MacTim1SetFunc
                0x40106220                wDev_MacTim1Arm
                0x401062b4                wDev_ProcessFiq
                0x401065f8                wDev_EnableTransmit
                0x40106630                wDev_DisableTransmit
                0x40106650                Tx_Copy2Queue
                0x40106698                wDev_ProcessCollision
                0x401066bc                wDev_GetTxqCollisions
                0x401066cc                wDev_ClearTxqCollisions
                0x401066e8                wDev_SetWaitingQueue
                0x40106730                wDev_ClearWaitingQueue
                0x40106754                wDev_SetFrameAckType
                0x401067b4                wDev_AppendRxBlocks
                0x401068f8                wDev_AppendRxAmpduLensBlocks
                0x401069cc                wDev_GetBAInfo
                0x40106a00                wDevDisableRx
 *fill*         0x40106eb7        0x1 
 .text          0x40106eb8       0x4c c:/Espressif/ESP8266_SDK_200/lib\libpp.a(esf_buf.o)
                                 0x5c (size before relaxing)
                0x40106ebc                esf_rx_buf_alloc
 .text          0x40106f04       0x46 c:/Espressif/ESP8266_SDK_200/lib\libnet80211.a(ieee80211_output.o)
                                 0x4e (size before relaxing)
 *fill*         0x40106f4a        0x2 
 .text          0x40106f4c        0xb c:/Espressif/ESP8266_SDK_200/lib\libnet80211.a(wl_chm.o)
                0x40106f50                chm_get_current_channel
 *fill*         0x40106f57        0x1 
 .text          0x40106f58       0x43 c:/Espressif/ESP8266_SDK_200/lib\liblwip.a(etharp.o)
                                 0x47 (size before relaxing)
 *fill*         0x40106f9b        0x1 
 .text          0x40106f9c      0x1fd c:/Espressif/ESP8266_SDK_200/lib\liblwip.a(tcp.o)
                                0x229 (size before relaxing)
 *fill*         0x40107199        0x3 
 .text          0x4010719c      0x159 c:/Espressif/ESP8266_SDK_200/lib\liblwip.a(tcp_out.o)
                                0x161 (size before relaxing)
 *fill*         0x401072f5        0x3 
 .text          0x401072f8       0xb4 c:/Espressif/ESP8266_SDK_200/lib\liblwip.a(timers.o)
                                 0xc0 (size before relaxing)
 .text          0x401073ac      0x48f c:/Espressif/ESP8266_SDK_200/lib\liblwip.a(espconn_buf.o)
                                0x50e (size before relaxing)
                0x401073b0                ringbuf_new
                0x40107400                ringbuf_buffer_size
                0x40107404                ringbuf_reset
                0x40107414                ringbuf_free
                0x40107454                ringbuf_capacity
                0x40107484                ringbuf_bytes_free
                0x401074b4                ringbuf_bytes_used
                0x401074d8                ringbuf_is_full
                0x401074f0                ringbuf_is_empty
                0x40107518                ringbuf_tail
                0x4010751c                ringbuf_head
                0x40107578                ringbuf_findchr
                0x40107618                ringbuf_memset
                0x401076e0                ringbuf_memcpy_into
                0x40107798                ringbuf_memcpy_from
 .text          0x4010783b        0x0 c:/Espressif/ESP8266_SDK_200/lib\libmain.a(debug-vector.o)
 .text          0x4010783b        0x0 c:/Espressif/ESP8266_SDK_200/lib\libmain.a(double-vector.o)
 .text          0x4010783b        0x0 c:/Espressif/ESP8266_SDK_200/lib\libmain.a(kernel-vector.o)
 *fill*         0x4010783b        0x1 
 .literal       0x4010783c        0x0 c:/Espressif/ESP8266_SDK_200/lib\libmain.a(nmi-vector.o)
 *fill*         0x4010783c        0x0 
 .literal       0x4010783c        0x0 c:/Espressif/ESP8266_SDK_200/lib\libmain.a(user-vector.o)
 .text          0x4010783c        0x0 c:/Espressif/ESP8266_SDK_200/lib\libmain.a(vector.o)
 *fill*         0x4010783c        0x0 
 .literal       0x4010783c        0x0 c:/Espressif/ESP8266_SDK_200/lib\libmain.a(app_main.o)
 *fill*         0x4010783c        0x0 
 .literal       0x4010783c        0x0 c:/Espressif/ESP8266_SDK_200/lib\libmain.a(ets_timer.o)
 .literal       0x4010783c        0x0 c:/Espressif/ESP8266_SDK_200/lib\libmain.a(mem_manager.o)
 *fill*         0x4010783c        0x0 
 .literal       0x4010783c        0x0 c:/Espressif/ESP8266_SDK_200/lib\libmain.a(spi_flash.o)
 *fill*         0x4010783c        0x0 
 .literal       0x4010783c        0x0 c:/Espressif/ESP8266_SDK_200/lib\libmain.a(user_interface.o)
 .text          0x4010783c        0x0 c:/Espressif/ESP8266_SDK_200/lib\libmain.a(eagle_lib.o)
 .text          0x4010783c        0x0 c:/Espressif/ESP8266_SDK_200/lib\libmain.a(eagle_lwip_if.o)
 *fill*         0x4010783c        0x0 
 .literal       0x4010783c        0x0 build/debug/app_app.a(user_main.o)
 .text          0x4010783c        0x2 build/debug/app_app.a(user_main.o)
                0x4010783c                user_rf_pre_init
 .text          0x4010783e        0x0 build/debug/app_app.a(config.o)
 .text          0x4010783e        0x0 build/debug/app_app.a(io.o)
 .text          0x4010783e        0x0 build/debug/app_app.a(switch.o)
 .text          0x4010783e        0x0 build/debug/app_app.a(http.o)
 *fill*         0x4010783e        0x2 
 .literal       0x40107840        0x0 build/debug/app_app.a(easygpio.o)
 .text          0x40107840        0x0 build/debug/app_app.a(wifi.o)
 .literal       0x40107840        0x0 build/debug/app_app.a(flash.o)
 .text          0x40107840        0x0 build/debug/app_app.a(doSmartConfig.o)
 .text          0x40107840        0x0 build/debug/app_app.a(stdout.o)
 .text          0x40107840        0x0 build/debug/app_app.a(check.o)
 .text          0x40107840        0x0 build/debug/app_app.a(mqtt.o)
 .text          0x40107840        0x0 build/debug/app_app.a(publish.o)
 .text          0x40107840        0x0 build/debug/app_app.a(temperature.o)
 *fill*         0x40107840        0x0 
 .literal       0x40107840        0x0 build/debug/app_app.a(dht22.o)
 .text          0x40107840        0x0 build/debug/app_app.a(ds18b20.o)
 .text          0x40107840        0x0 build/debug/app_app.a(decodeMessage.o)
 .text          0x40107840        0x0 build/debug/app_app.a(jsmn.o)
 .text          0x40107840        0x0 build/debug/app_app.a(dtoa.o)
 .text          0x40107840        0x0 build/debug/app_app.a(utils.o)
 .text          0x40107840        0x0 build/debug/app_app.a(queue.o)
 .text          0x40107840        0x0 build/debug/app_app.a(mqtt_msg.o)
 .text          0x40107840        0x0 build/debug/app_app.a(ringbuf.o)
 .text          0x40107840        0x0 build/debug/app_app.a(proto.o)
 *fill*         0x40107840        0x0 
 *fill*         0x40107840        0x0 
 *fill*         0x40107840        0x0 
 .text          0x40107840      0x145 c:/espressif/xtensa-lx106-elf/bin/../lib/gcc/xtensa-lx106-elf/5.1.0/../../../../xtensa-lx106-elf/lib\libc.a(lib_a-memcpy.o)
                0x40107884                memcpy
 *fill*         0x40107985        0x3 
 .text          0x40107988       0x7c c:/espressif/xtensa-lx106-elf/bin/../lib/gcc/xtensa-lx106-elf/5.1.0/../../../../xtensa-lx106-elf/lib\libc.a(lib_a-memset.o)
                0x401079b4                memset
 *fill*         0x40107a04        0x0 
 *fill*         0x40107a04        0x0 
 *fill*         0x40107a04        0x0 
 *fill*         0x40107a04        0x0 
 .text          0x40107a04        0x6 c:/espressif/xtensa-lx106-elf/bin/../lib/gcc/xtensa-lx106-elf/5.1.0/../../../../xtensa-lx106-elf/lib\libc.a(lib_a-tzlock.o)
                0x40107a04                __tz_lock
                0x40107a08                __tz_unlock
 .text          0x40107a0a        0x0 c:/espressif/xtensa-lx106-elf/bin/../lib/gcc/xtensa-lx106-elf/5.1.0/../../../../xtensa-lx106-elf/lib\libc.a(lib_a-tzvars.o)
 .text          0x40107a0a        0x0 c:/espressif/xtensa-lx106-elf/bin/../lib/gcc/xtensa-lx106-elf/5.1.0/../../../../xtensa-lx106-elf/lib\libc.a(lib_a-ctype_.o)
 *fill*         0x40107a0a        0x0 
 .text          0x40107a0a        0x0 c:/espressif/xtensa-lx106-elf/bin/../lib/gcc/xtensa-lx106-elf/5.1.0/../../../../xtensa-lx106-elf/lib\libc.a(lib_a-impure.o)
 *fill*         0x40107a0a        0x2 
 .text          0x40107a0c       0x49 c:/Espressif/ESP8266_SDK_200/lib\libgcc.a(_modsi3.o)
                0x40107a0c                __modsi3
 *fill*         0x40107a55        0x0 
 *fill*         0x40107a55        0x0 
 *fill*         0x40107a55        0x0 
 *fill*         0x40107a55        0x0 
 *fill*         0x40107a55        0x3 
 .text          0x40107a58        0x5 c:/espressif/xtensa-lx106-elf/bin/../lib/gcc/xtensa-lx106-elf/5.1.0/../../../../xtensa-lx106-elf/lib\libhal.a(int_asm--set_intclear.o)
                0x40107a58                xthal_set_intclear
 *fill*         0x40107a5d        0x3 
 .literal       0x40107a60        0x0 c:/Espressif/ESP8266_SDK_200/lib\libphy.a(phy.o)
 *fill*         0x40107a60        0x0 
 .literal       0x40107a60        0x0 c:/Espressif/ESP8266_SDK_200/lib\libphy.a(phy_chip_v6_ana.o)
 *fill*         0x40107a60        0x0 
 .literal       0x40107a60        0x0 c:/Espressif/ESP8266_SDK_200/lib\libphy.a(phy_chip_v6.o)
 *fill*         0x40107a60        0x0 
 .literal       0x40107a60        0x0 c:/Espressif/ESP8266_SDK_200/lib\libphy.a(phy_chip_v6_cal.o)
 .text          0x40107a60        0x0 c:/Espressif/ESP8266_SDK_200/lib\libphy.a(phy_chip_v6_unused.o)
 *fill*         0x40107a60        0x0 
 .literal       0x40107a60        0x0 c:/Espressif/ESP8266_SDK_200/lib\libphy.a(phy_sleep.o)
 .text          0x40107a60        0x0 c:/Espressif/ESP8266_SDK_200/lib\libpp.a(if_hwctrl.o)
 *fill*         0x40107a60        0x0 
 .literal       0x40107a60        0x0 c:/Espressif/ESP8266_SDK_200/lib\libpp.a(lmac.o)
 .text          0x40107a60        0x0 c:/Espressif/ESP8266_SDK_200/lib\libpp.a(pm.o)
 .text          0x40107a60        0x0 c:/Espressif/ESP8266_SDK_200/lib\libpp.a(pm_for_bcn_only_mode.o)
 *fill*         0x40107a60        0x0 
 .literal       0x40107a60        0x0 c:/Espressif/ESP8266_SDK_200/lib\libpp.a(pp.o)
 *fill*         0x40107a60        0x0 
 .literal       0x40107a60        0x0 c:/Espressif/ESP8266_SDK_200/lib\libpp.a(rate_control.o)
 *fill*         0x40107a60        0x0 
 .literal       0x40107a60        0x0 c:/Espressif/ESP8266_SDK_200/lib\libpp.a(trc.o)
 *fill*         0x40107a60        0x0 
 .literal       0x40107a60        0x0 c:/Espressif/ESP8266_SDK_200/lib\libpp.a(wdev.o)
 *fill*         0x40107a60        0x0 
 .literal       0x40107a60        0x0 c:/Espressif/ESP8266_SDK_200/lib\libpp.a(esf_buf.o)
 .text          0x40107a60        0x0 c:/Espressif/ESP8266_SDK_200/lib\libnet80211.a(ieee80211.o)
 .text          0x40107a60        0x0 c:/Espressif/ESP8266_SDK_200/lib\libnet80211.a(ieee80211_crypto.o)
 .text          0x40107a60        0x0 c:/Espressif/ESP8266_SDK_200/lib\libnet80211.a(ieee80211_ets.o)
 .literal       0x40107a60        0x0 c:/Espressif/ESP8266_SDK_200/lib\libnet80211.a(ieee80211_hostap.o)
 .text          0x40107a60       0x25 c:/Espressif/ESP8266_SDK_200/lib\libnet80211.a(ieee80211_hostap.o)
 .text          0x40107a85        0x0 c:/Espressif/ESP8266_SDK_200/lib\libnet80211.a(ieee80211_ht.o)
 .text          0x40107a85        0x0 c:/Espressif/ESP8266_SDK_200/lib\libnet80211.a(ieee80211_input.o)
 .text          0x40107a85        0x0 c:/Espressif/ESP8266_SDK_200/lib\libnet80211.a(ieee80211_mesh_quick.o)
 *fill*         0x40107a85        0x3 
 .literal       0x40107a88        0x0 c:/Espressif/ESP8266_SDK_200/lib\libnet80211.a(ieee80211_output.o)
 .text          0x40107a88        0x0 c:/Espressif/ESP8266_SDK_200/lib\libnet80211.a(ieee80211_phy.o)
 .text          0x40107a88        0x0 c:/Espressif/ESP8266_SDK_200/lib\libnet80211.a(ieee80211_power.o)
 .text          0x40107a88        0x0 c:/Espressif/ESP8266_SDK_200/lib\libnet80211.a(ieee80211_proto.o)
 .text          0x40107a88        0x0 c:/Espressif/ESP8266_SDK_200/lib\libnet80211.a(ieee80211_regdomain.o)
 .text          0x40107a88        0x0 c:/Espressif/ESP8266_SDK_200/lib\libnet80211.a(ieee80211_rfid.o)
 .text          0x40107a88        0x0 c:/Espressif/ESP8266_SDK_200/lib\libnet80211.a(ieee80211_scan.o)
 .text          0x40107a88        0x0 c:/Espressif/ESP8266_SDK_200/lib\libnet80211.a(ieee80211_sta.o)
 *fill*         0x40107a88        0x0 
 .literal       0x40107a88        0x0 c:/Espressif/ESP8266_SDK_200/lib\libnet80211.a(wl_chm.o)
 .text          0x40107a88        0x0 c:/Espressif/ESP8266_SDK_200/lib\libnet80211.a(wl_cnx.o)
 .text          0x40107a88        0x0 c:/Espressif/ESP8266_SDK_200/lib\libnet80211.a(ieee80211_action.o)
 .text          0x40107a88        0x0 c:/Espressif/ESP8266_SDK_200/lib\libnet80211.a(ieee80211_action_vendor.o)
 .text          0x40107a88        0x0 c:/Espressif/ESP8266_SDK_200/lib\libnet80211.a(ieee80211_crypto_ccmp.o)
 .text          0x40107a88        0x0 c:/Espressif/ESP8266_SDK_200/lib\libnet80211.a(ieee80211_ie_vendor.o)
 .text          0x40107a88        0x0 c:/Espressif/ESP8266_SDK_200/lib\liblwip.a(dhcp.o)
 .text          0x40107a88        0x0 c:/Espressif/ESP8266_SDK_200/lib\liblwip.a(dhcpserver.o)
 .text          0x40107a88        0x0 c:/Espressif/ESP8266_SDK_200/lib\liblwip.a(dns.o)
 .text          0x40107a88        0x0 c:/Espressif/ESP8266_SDK_200/lib\liblwip.a(espconn.o)
 .text          0x40107a88        0x0 c:/Espressif/ESP8266_SDK_200/lib\liblwip.a(espconn_tcp.o)
 .text          0x40107a88        0x0 c:/Espressif/ESP8266_SDK_200/lib\liblwip.a(espconn_udp.o)
 *fill*         0x40107a88        0x0 
 .literal       0x40107a88        0x0 c:/Espressif/ESP8266_SDK_200/lib\liblwip.a(etharp.o)
 .text          0x40107a88        0x0 c:/Espressif/ESP8266_SDK_200/lib\liblwip.a(igmp.o)
 .text          0x40107a88        0x0 c:/Espressif/ESP8266_SDK_200/lib\liblwip.a(inet_chksum.o)
 .text          0x40107a88        0x0 c:/Espressif/ESP8266_SDK_200/lib\liblwip.a(init.o)
 .text          0x40107a88        0x0 c:/Espressif/ESP8266_SDK_200/lib\liblwip.a(ip_addr.o)
 .text          0x40107a88        0x0 c:/Espressif/ESP8266_SDK_200/lib\liblwip.a(ip.o)
 .text          0x40107a88        0x0 c:/Espressif/ESP8266_SDK_200/lib\liblwip.a(memp.o)
 .text          0x40107a88        0x0 c:/Espressif/ESP8266_SDK_200/lib\liblwip.a(netif.o)
 .text          0x40107a88        0x0 c:/Espressif/ESP8266_SDK_200/lib\liblwip.a(pbuf.o)
 .text          0x40107a88        0x0 c:/Espressif/ESP8266_SDK_200/lib\liblwip.a(raw.o)
 .text          0x40107a88        0x0 c:/Espressif/ESP8266_SDK_200/lib\liblwip.a(tcp_in.o)
 *fill*         0x40107a88        0x0 
 .literal       0x40107a88        0x0 c:/Espressif/ESP8266_SDK_200/lib\liblwip.a(tcp.o)
 *fill*         0x40107a88        0x0 
 .literal       0x40107a88        0x0 c:/Espressif/ESP8266_SDK_200/lib\liblwip.a(tcp_out.o)
 *fill*         0x40107a88        0x0 
 .literal       0x40107a88        0x0 c:/Espressif/ESP8266_SDK_200/lib\liblwip.a(timers.o)
 .text          0x40107a88        0x0 c:/Espressif/ESP8266_SDK_200/lib\liblwip.a(udp.o)
 .literal       0x40107a88        0x0 c:/Espressif/ESP8266_SDK_200/lib\liblwip.a(espconn_buf.o)
 .text          0x40107a88        0x0 c:/Espressif/ESP8266_SDK_200/lib\liblwip.a(icmp.o)
 .text          0x40107a88        0x0 c:/Espressif/ESP8266_SDK_200/lib\libwpa.a(ap_config.o)
 .text          0x40107a88        0x0 c:/Espressif/ESP8266_SDK_200/lib\libwpa.a(common.o)
 .text          0x40107a88        0x0 c:/Espressif/ESP8266_SDK_200/lib\libwpa.a(os_xtensa.o)
 *fill*         0x40107a88        0x0 
 .literal       0x40107a88        0x0 c:/Espressif/ESP8266_SDK_200/lib\libwpa.a(wpa_auth.o)
 .text          0x40107a88       0x11 c:/Espressif/ESP8266_SDK_200/lib\libwpa.a(wpa_auth.o)
 .text          0x40107a99        0x0 c:/Espressif/ESP8266_SDK_200/lib\libwpa.a(wpa_auth_ie.o)
 .text          0x40107a99        0x0 c:/Espressif/ESP8266_SDK_200/lib\libwpa.a(wpa.o)
 .text          0x40107a99        0x0 c:/Espressif/ESP8266_SDK_200/lib\libwpa.a(wpa_common.o)
 .text          0x40107a99        0x0 c:/Espressif/ESP8266_SDK_200/lib\libwpa.a(wpa_debug.o)
 .text          0x40107a99        0x0 c:/Espressif/ESP8266_SDK_200/lib\libwpa.a(wpa_ie.o)
 .text          0x40107a99        0x0 c:/Espressif/ESP8266_SDK_200/lib\libwpa.a(wpa_main.o)
 .text          0x40107a99        0x0 c:/Espressif/ESP8266_SDK_200/lib\libwpa.a(wpas_glue.o)
 .text          0x40107a99        0x0 c:/Espressif/ESP8266_SDK_200/lib\libsmartconfig.a(sc_sniffer.o)
 .text          0x40107a99        0x0 c:/Espressif/ESP8266_SDK_200/lib\libsmartconfig.a(sc_airkiss.o)
 .text          0x40107a99        0x0 c:/Espressif/ESP8266_SDK_200/lib\libsmartconfig.a(sc_esptouch.o)
 .text          0x40107a99        0x0 c:/Espressif/ESP8266_SDK_200/lib\libcrypto.a(aes-wrap.o)
 .text          0x40107a99        0x0 c:/Espressif/ESP8266_SDK_200/lib\libcrypto.a(aes-internal-enc.o)
 .text          0x40107a99        0x0 c:/Espressif/ESP8266_SDK_200/lib\libcrypto.a(aes-internal.o)
 *fill*         0x40107a99        0x3 
 .text          0x40107a9c       0x17 c:/espressif/xtensa-lx106-elf/bin/../lib/gcc/xtensa-lx106-elf/5.1.0/../../../../xtensa-lx106-elf/lib\libc.a(lib_a-memchr.o)
                0x40107a9c                memchr
 *fill*         0x40107ab3        0x1 
 .text          0x40107ab4       0x18 c:/Espressif/ESP8266_SDK_200/lib\libgcc.a(_ashrdi3.o)
                0x40107ab4                __ashrdi3
 .text          0x40107acc        0x0 c:/Espressif/ESP8266_SDK_200/lib\libnet80211.a(ieee80211_crypto_tkip.o)
 .text          0x40107acc        0x0 c:/Espressif/ESP8266_SDK_200/lib\libnet80211.a(ieee80211_crypto_wep.o)
 *(.fini.literal)
 *(.fini)
 *(.gnu.version)
                0x40107acc                _text_end = ABSOLUTE (.)
                0x40107acc                _etext = .

.NMIExceptionVector.literal
                0x40107acc        0x0
 .NMIExceptionVector.literal
                0x40107acc        0x0 c:/Espressif/ESP8266_SDK_200/lib\libmain.a(nmi-vector.o)

.UserExceptionVector.literal
                0x40107acc        0x0
 .UserExceptionVector.literal
                0x40107acc        0x0 c:/Espressif/ESP8266_SDK_200/lib\libmain.a(user-vector.o)

.UserEnter.literal
                0x40107acc        0x0
 .UserEnter.literal
                0x40107acc        0x0 c:/Espressif/ESP8266_SDK_200/lib\libmain.a(vector.o)

.lit4           0x40107acc        0x0
                0x40107acc                _lit4_start = ABSOLUTE (.)
 *(*.lit4)
 *(.lit4.*)
 *(.gnu.linkonce.lit4.*)
                0x40107acc                _lit4_end = ABSOLUTE (.)
                0x400047f0                PROVIDE (Cache_Read_Disable, 0x400047f0)
                0x40004678                PROVIDE (Cache_Read_Enable, 0x40004678)
                0x400035a0                PROVIDE (FilePacketSendReqMsgProc, 0x400035a0)
                0x4000368c                PROVIDE (FlashDwnLdParamCfgMsgProc, 0x4000368c)
                0x40003538                PROVIDE (FlashDwnLdStartMsgProc, 0x40003538)
                0x40003658                PROVIDE (FlashDwnLdStopReqMsgProc, 0x40003658)
                0x40003f4c                PROVIDE (GetUartDevice, 0x40003f4c)
                0x40009900                PROVIDE (MD5Final, 0x40009900)
                0x40009818                PROVIDE (MD5Init, 0x40009818)
                0x40009834                PROVIDE (MD5Update, 0x40009834)
                0x400036c4                PROVIDE (MemDwnLdStartMsgProc, 0x400036c4)
                0x4000377c                PROVIDE (MemDwnLdStopReqMsgProc, 0x4000377c)
                0x400036f0                PROVIDE (MemPacketSendReqMsgProc, 0x400036f0)
                0x40003eac                PROVIDE (RcvMsg, 0x40003eac)
                0x4000b648                PROVIDE (SHA1Final, 0x4000b648)
                0x4000b584                PROVIDE (SHA1Init, 0x4000b584)
                0x4000a364                PROVIDE (SHA1Transform, 0x4000a364)
                0x4000b5a8                PROVIDE (SHA1Update, 0x4000b5a8)
                0x400043c8                PROVIDE (SPI_read_status, 0x400043c8)
                0x40004400                PROVIDE (SPI_write_status, 0x40004400)
                0x4000443c                PROVIDE (SPI_write_enable, 0x4000443c)
                0x4000448c                PROVIDE (Wait_SPI_Idle, 0x4000448c)
                0x400044c0                PROVIDE (Enable_QMode, 0x400044c0)
                0x40004b44                PROVIDE (SPIEraseArea, 0x40004b44)
                0x400049b4                PROVIDE (SPIEraseBlock, 0x400049b4)
                0x40004984                PROVIDE (SPIEraseChip, 0x40004984)
                0x40004a00                PROVIDE (SPIEraseSector, 0x40004a00)
                0x400048a8                PROVIDE (SPILock, 0x400048a8)
                0x40004c2c                PROVIDE (SPIParamCfg, 0x40004c2c)
                0x40004b1c                PROVIDE (SPIRead, 0x40004b1c)
                0x400048ec                PROVIDE (SPIReadModeCnfig, 0x400048ec)
                0x40004878                PROVIDE (SPIUnlock, 0x40004878)
                0x40004a4c                PROVIDE (SPIWrite, 0x40004a4c)
                0x40003f58                PROVIDE (SelectSpiFunction, 0x40003f58)
                0x40003cf4                PROVIDE (SendMsg, 0x40003cf4)
                0x40003230                PROVIDE (UartConnCheck, 0x40003230)
                0x400037a0                PROVIDE (UartConnectProc, 0x400037a0)
                0x40003368                PROVIDE (UartDwnLdProc, 0x40003368)
                0x40003ef4                PROVIDE (UartGetCmdLn, 0x40003ef4)
                0x4000381c                PROVIDE (UartRegReadProc, 0x4000381c)
                0x400037ac                PROVIDE (UartRegWriteProc, 0x400037ac)
                0x40003c30                PROVIDE (UartRxString, 0x40003c30)
                0x40003a14                PROVIDE (Uart_Init, 0x40003a14)
                0x40000010                PROVIDE (_DebugExceptionVector, 0x40000010)
                0x40000070                PROVIDE (_DoubleExceptionVector, 0x40000070)
                0x40000030                PROVIDE (_KernelExceptionVector, 0x40000030)
                0x40000020                PROVIDE (_NMIExceptionVector, 0x40000020)
                0x400000a4                PROVIDE (_ResetHandler, 0x400000a4)
                0x40000080                PROVIDE (_ResetVector, 0x40000080)
                0x40000050                PROVIDE (_UserExceptionVector, 0x40000050)
                0x4000c538                PROVIDE (__adddf3, 0x4000c538)
                0x4000c180                PROVIDE (__addsf3, 0x4000c180)
                0x4000cb94                PROVIDE (__divdf3, 0x4000cb94)
                0x4000ce60                PROVIDE (__divdi3, 0x4000ce60)
                0x4000dc88                PROVIDE (__divsi3, 0x4000dc88)
                0x4000cdfc                PROVIDE (__extendsfdf2, 0x4000cdfc)
                0x4000ccb8                PROVIDE (__fixdfsi, 0x4000ccb8)
                0x4000cd00                PROVIDE (__fixunsdfsi, 0x4000cd00)
                0x4000c4c4                PROVIDE (__fixunssfsi, 0x4000c4c4)
                0x4000e2f0                PROVIDE (__floatsidf, 0x4000e2f0)
                0x4000e2ac                PROVIDE (__floatsisf, 0x4000e2ac)
                0x4000e2e8                PROVIDE (__floatunsidf, 0x4000e2e8)
                0x4000e2a4                PROVIDE (__floatunsisf, 0x4000e2a4)
                0x4000c8f0                PROVIDE (__muldf3, 0x4000c8f0)
                0x40000650                PROVIDE (__muldi3, 0x40000650)
                0x4000c3dc                PROVIDE (__mulsf3, 0x4000c3dc)
                0x4000c688                PROVIDE (__subdf3, 0x4000c688)
                0x4000c268                PROVIDE (__subsf3, 0x4000c268)
                0x4000cd5c                PROVIDE (__truncdfsf2, 0x4000cd5c)
                0x4000d310                PROVIDE (__udivdi3, 0x4000d310)
                0x4000e21c                PROVIDE (__udivsi3, 0x4000e21c)
                0x4000d770                PROVIDE (__umoddi3, 0x4000d770)
                0x4000e268                PROVIDE (__umodsi3, 0x4000e268)
                0x4000dcf0                PROVIDE (__umulsidi3, 0x4000dcf0)
                0x4000e388                PROVIDE (_rom_store, 0x4000e388)
                0x4000e328                PROVIDE (_rom_store_table, 0x4000e328)
                0x4000042c                PROVIDE (_start, 0x4000042c)
                0x4000dbe0                PROVIDE (_xtos_alloca_handler, 0x4000dbe0)
                0x40000598                PROVIDE (_xtos_c_wrapper_handler, 0x40000598)
                0x40000590                PROVIDE (_xtos_cause3_handler, 0x40000590)
                0x4000bda4                PROVIDE (_xtos_ints_off, 0x4000bda4)
                0x4000bd84                PROVIDE (_xtos_ints_on, 0x4000bd84)
                0x4000048c                PROVIDE (_xtos_l1int_handler, 0x4000048c)
                0x4000dbf8                PROVIDE (_xtos_p_none, 0x4000dbf8)
                0x4000056c                PROVIDE (_xtos_restore_intlevel, 0x4000056c)
                0x4000dc54                PROVIDE (_xtos_return_from_exc, 0x4000dc54)
                0x40000454                PROVIDE (_xtos_set_exception_handler, 0x40000454)
                0x4000bd70                PROVIDE (_xtos_set_interrupt_handler, 0x4000bd70)
                0x4000bd28                PROVIDE (_xtos_set_interrupt_handler_arg, 0x4000bd28)
                0x4000dbfc                PROVIDE (_xtos_set_intlevel, 0x4000dbfc)
                0x4000dc18                PROVIDE (_xtos_set_min_intlevel, 0x4000dc18)
                0x40000574                PROVIDE (_xtos_set_vpri, 0x40000574)
                0x4000dbe4                PROVIDE (_xtos_syscall_handler, 0x4000dbe4)
                0x4000dc44                PROVIDE (_xtos_unhandled_exception, 0x4000dc44)
                0x4000dc3c                PROVIDE (_xtos_unhandled_interrupt, 0x4000dc3c)
                0x400092d4                PROVIDE (aes_decrypt, 0x400092d4)
                0x400092e4                PROVIDE (aes_decrypt_deinit, 0x400092e4)
                0x40008ea4                PROVIDE (aes_decrypt_init, 0x40008ea4)
                0x40009410                PROVIDE (aes_unwrap, 0x40009410)
                0x40009648                PROVIDE (base64_decode, 0x40009648)
                0x400094fc                PROVIDE (base64_encode, 0x400094fc)
                0x4000de84                PROVIDE (bzero, 0x4000de84)
                0x40000814                PROVIDE (cmd_parse, 0x40000814)
                0x40000b24                PROVIDE (conv_str_decimal, 0x40000b24)
                0x40000cb8                PROVIDE (conv_str_hex, 0x40000cb8)
                0x40000a60                PROVIDE (convert_para_str, 0x40000a60)
                0x400026d0                PROVIDE (dtm_get_intr_mask, 0x400026d0)
                0x4000269c                PROVIDE (dtm_params_init, 0x4000269c)
                0x400026c8                PROVIDE (dtm_set_intr_mask, 0x400026c8)
                0x400026dc                PROVIDE (dtm_set_params, 0x400026dc)
                0x40001d14                PROVIDE (eprintf, 0x40001d14)
                0x40001cb8                PROVIDE (eprintf_init_buf, 0x40001cb8)
                0x40001d48                PROVIDE (eprintf_to_host, 0x40001d48)
                0x40002494                PROVIDE (est_get_printf_buf_remain_len, 0x40002494)
                0x4000249c                PROVIDE (est_reset_printf_buf_len, 0x4000249c)
                0x40002ae8                PROVIDE (ets_bzero, 0x40002ae8)
                0x40002b74                PROVIDE (ets_char2xdigit, 0x40002b74)
                0x40002ecc                PROVIDE (ets_delay_us, 0x40002ecc)
                0x400027b8                PROVIDE (ets_enter_sleep, 0x400027b8)
                0x40002578                PROVIDE (ets_external_printf, 0x40002578)
                0x40002f0c                PROVIDE (ets_get_cpu_frequency, 0x40002f0c)
                0x40002bcc                PROVIDE (ets_getc, 0x40002bcc)
                0x40002450                PROVIDE (ets_install_external_printf, 0x40002450)
                0x4000242c                PROVIDE (ets_install_putc1, 0x4000242c)
                0x4000248c                PROVIDE (ets_install_putc2, 0x4000248c)
                0x40002438                PROVIDE (ets_install_uart_printf, 0x40002438)
                0x40000f74                PROVIDE (ets_intr_lock, 0x40000f74)
                0x40000f80                PROVIDE (ets_intr_unlock, 0x40000f80)
                0x40000f88                PROVIDE (ets_isr_attach, 0x40000f88)
                0x40000f98                PROVIDE (ets_isr_mask, 0x40000f98)
                0x40000fa8                PROVIDE (ets_isr_unmask, 0x40000fa8)
                0x400018d4                PROVIDE (ets_memcmp, 0x400018d4)
                0x400018b4                PROVIDE (ets_memcpy, 0x400018b4)
                0x400018c4                PROVIDE (ets_memmove, 0x400018c4)
                0x400018a4                PROVIDE (ets_memset, 0x400018a4)
                0x40000e24                PROVIDE (ets_post, 0x40000e24)
                0x400024cc                PROVIDE (ets_printf, 0x400024cc)
                0x40002be8                PROVIDE (ets_putc, 0x40002be8)
                0x40002a40                PROVIDE (ets_rtc_int_register, 0x40002a40)
                0x40000e04                PROVIDE (ets_run, 0x40000e04)
                0x40000dc0                PROVIDE (ets_set_idle_cb, 0x40000dc0)
                0x40000fbc                PROVIDE (ets_set_user_start, 0x40000fbc)
                0x40002af8                PROVIDE (ets_str2macaddr, 0x40002af8)
                0x40002aa8                PROVIDE (ets_strcmp, 0x40002aa8)
                0x40002a88                PROVIDE (ets_strcpy, 0x40002a88)
                0x40002ac8                PROVIDE (ets_strlen, 0x40002ac8)
                0x40002ab8                PROVIDE (ets_strncmp, 0x40002ab8)
                0x40002a98                PROVIDE (ets_strncpy, 0x40002a98)
                0x40002ad8                PROVIDE (ets_strstr, 0x40002ad8)
                0x40000dd0                PROVIDE (ets_task, 0x40000dd0)
                0x40002cc4                PROVIDE (ets_timer_arm, 0x40002cc4)
                0x40002d40                PROVIDE (ets_timer_disarm, 0x40002d40)
                0x40002d80                PROVIDE (ets_timer_done, 0x40002d80)
                0x40002da8                PROVIDE (ets_timer_handler_isr, 0x40002da8)
                0x40002e68                PROVIDE (ets_timer_init, 0x40002e68)
                0x40002c48                PROVIDE (ets_timer_setfn, 0x40002c48)
                0x40002544                PROVIDE (ets_uart_printf, 0x40002544)
                0x40002f04                PROVIDE (ets_update_cpu_frequency, 0x40002f04)
                0x40001f00                PROVIDE (ets_vprintf, 0x40001f00)
                0x400030f0                PROVIDE (ets_wdt_disable, 0x400030f0)
                0x40002fa0                PROVIDE (ets_wdt_enable, 0x40002fa0)
                0x40002f34                PROVIDE (ets_wdt_get_mode, 0x40002f34)
                0x40003170                PROVIDE (ets_wdt_init, 0x40003170)
                0x40003158                PROVIDE (ets_wdt_restore, 0x40003158)
                0x40001da0                PROVIDE (ets_write_char, 0x40001da0)
                0x4000091c                PROVIDE (get_first_seg, 0x4000091c)
                0x40004c50                PROVIDE (gpio_init, 0x40004c50)
                0x40004cf0                PROVIDE (gpio_input_get, 0x40004cf0)
                0x40004dcc                PROVIDE (gpio_intr_ack, 0x40004dcc)
                0x40004e28                PROVIDE (gpio_intr_handler_register, 0x40004e28)
                0x40004d88                PROVIDE (gpio_intr_pending, 0x40004d88)
                0x40004efc                PROVIDE (gpio_intr_test, 0x40004efc)
                0x40004cd0                PROVIDE (gpio_output_set, 0x40004cd0)
                0x40004d90                PROVIDE (gpio_pin_intr_state_set, 0x40004d90)
                0x40004ed4                PROVIDE (gpio_pin_wakeup_disable, 0x40004ed4)
                0x40004e90                PROVIDE (gpio_pin_wakeup_enable, 0x40004e90)
                0x40004d5c                PROVIDE (gpio_register_get, 0x40004d5c)
                0x40004d04                PROVIDE (gpio_register_set, 0x40004d04)
                0x4000a2cc                PROVIDE (hmac_md5, 0x4000a2cc)
                0x4000a160                PROVIDE (hmac_md5_vector, 0x4000a160)
                0x4000ba28                PROVIDE (hmac_sha1, 0x4000ba28)
                0x4000b8b4                PROVIDE (hmac_sha1_vector, 0x4000b8b4)
                0x40004f40                PROVIDE (lldesc_build_chain, 0x40004f40)
                0x40005050                PROVIDE (lldesc_num2link, 0x40005050)
                0x4000507c                PROVIDE (lldesc_set_owner, 0x4000507c)
                0x40000fec                PROVIDE (main, 0x40000fec)
                0x400097ac                PROVIDE (md5_vector, 0x400097ac)
                0x40001c2c                PROVIDE (mem_calloc, 0x40001c2c)
                0x400019e0                PROVIDE (mem_free, 0x400019e0)
                0x40001998                PROVIDE (mem_init, 0x40001998)
                0x40001b40                PROVIDE (mem_malloc, 0x40001b40)
                0x40001c6c                PROVIDE (mem_realloc, 0x40001c6c)
                0x40001a14                PROVIDE (mem_trim, 0x40001a14)
                0x40001c58                PROVIDE (mem_zalloc, 0x40001c58)
                0x4000dea8                PROVIDE (memcmp, 0x4000dea8)
                0x4000df48                PROVIDE (memcpy, 0x4000df48)
                0x4000e04c                PROVIDE (memmove, 0x4000e04c)
                0x4000e190                PROVIDE (memset, 0x4000e190)
                0x400031c0                PROVIDE (multofup, 0x400031c0)
                0x4000b840                PROVIDE (pbkdf2_sha1, 0x4000b840)
                0x40006b08                PROVIDE (phy_get_romfuncs, 0x40006b08)
                0x40000600                PROVIDE (rand, 0x40000600)
                0x4000dd68                PROVIDE (rc4_skip, 0x4000dd68)
                0x40003d08                PROVIDE (recv_packet, 0x40003d08)
                0x40000a04                PROVIDE (remove_head_space, 0x40000a04)
                0x40008dd0                PROVIDE (rijndaelKeySetupDec, 0x40008dd0)
                0x40009300                PROVIDE (rijndaelKeySetupEnc, 0x40009300)
                0x400060c0                PROVIDE (rom_abs_temp, 0x400060c0)
                0x40006b10                PROVIDE (rom_ana_inf_gating_en, 0x40006b10)
                0x40007a28                PROVIDE (rom_cal_tos_v50, 0x40007a28)
                0x40006f84                PROVIDE (rom_chip_50_set_channel, 0x40006f84)
                0x400060d0                PROVIDE (rom_chip_v5_disable_cca, 0x400060d0)
                0x400060ec                PROVIDE (rom_chip_v5_enable_cca, 0x400060ec)
                0x4000711c                PROVIDE (rom_chip_v5_rx_init, 0x4000711c)
                0x4000610c                PROVIDE (rom_chip_v5_sense_backoff, 0x4000610c)
                0x4000718c                PROVIDE (rom_chip_v5_tx_init, 0x4000718c)
                0x4000615c                PROVIDE (rom_dc_iq_est, 0x4000615c)
                0x400061b8                PROVIDE (rom_en_pwdet, 0x400061b8)
                0x40006238                PROVIDE (rom_get_bb_atten, 0x40006238)
                0x40006260                PROVIDE (rom_get_corr_power, 0x40006260)
                0x400062dc                PROVIDE (rom_get_fm_sar_dout, 0x400062dc)
                0x40006394                PROVIDE (rom_get_noisefloor, 0x40006394)
                0x400063b0                PROVIDE (rom_get_power_db, 0x400063b0)
                0x40007268                PROVIDE (rom_i2c_readReg, 0x40007268)
                0x4000729c                PROVIDE (rom_i2c_readReg_Mask, 0x4000729c)
                0x400072d8                PROVIDE (rom_i2c_writeReg, 0x400072d8)
                0x4000730c                PROVIDE (rom_i2c_writeReg_Mask, 0x4000730c)
                0x40006400                PROVIDE (rom_iq_est_disable, 0x40006400)
                0x40006430                PROVIDE (rom_iq_est_enable, 0x40006430)
                0x40006484                PROVIDE (rom_linear_to_db, 0x40006484)
                0x400065a4                PROVIDE (rom_mhz2ieee, 0x400065a4)
                0x40007bf0                PROVIDE (rom_pbus_dco___SA2, 0x40007bf0)
                0x4000737c                PROVIDE (rom_pbus_debugmode, 0x4000737c)
                0x40007410                PROVIDE (rom_pbus_enter_debugmode, 0x40007410)
                0x40007448                PROVIDE (rom_pbus_exit_debugmode, 0x40007448)
                0x4000747c                PROVIDE (rom_pbus_force_test, 0x4000747c)
                0x400074d8                PROVIDE (rom_pbus_rd, 0x400074d8)
                0x4000754c                PROVIDE (rom_pbus_set_rxgain, 0x4000754c)
                0x40007610                PROVIDE (rom_pbus_set_txgain, 0x40007610)
                0x40007648                PROVIDE (rom_pbus_workmode, 0x40007648)
                0x40007688                PROVIDE (rom_pbus_xpd_rx_off, 0x40007688)
                0x400076cc                PROVIDE (rom_pbus_xpd_rx_on, 0x400076cc)
                0x400076fc                PROVIDE (rom_pbus_xpd_tx_off, 0x400076fc)
                0x40007740                PROVIDE (rom_pbus_xpd_tx_on, 0x40007740)
                0x400077a0                PROVIDE (rom_pbus_xpd_tx_on__low_gain, 0x400077a0)
                0x40007804                PROVIDE (rom_phy_reset_req, 0x40007804)
                0x4000781c                PROVIDE (rom_restart_cal, 0x4000781c)
                0x40007eb4                PROVIDE (rom_rfcal_pwrctrl, 0x40007eb4)
                0x4000804c                PROVIDE (rom_rfcal_rxiq, 0x4000804c)
                0x40008264                PROVIDE (rom_rfcal_rxiq_set_reg, 0x40008264)
                0x40008388                PROVIDE (rom_rfcal_txcap, 0x40008388)
                0x40008610                PROVIDE (rom_rfcal_txiq, 0x40008610)
                0x400088b8                PROVIDE (rom_rfcal_txiq_cover, 0x400088b8)
                0x40008a70                PROVIDE (rom_rfcal_txiq_set_reg, 0x40008a70)
                0x40007868                PROVIDE (rom_rfpll_reset, 0x40007868)
                0x40007968                PROVIDE (rom_rfpll_set_freq, 0x40007968)
                0x40008b6c                PROVIDE (rom_rxiq_cover_mg_mp, 0x40008b6c)
                0x40006628                PROVIDE (rom_rxiq_get_mis, 0x40006628)
                0x40006738                PROVIDE (rom_sar_init, 0x40006738)
                0x4000678c                PROVIDE (rom_set_ana_inf_tx_scale, 0x4000678c)
                0x40006c50                PROVIDE (rom_set_channel_freq, 0x40006c50)
                0x400067c8                PROVIDE (rom_set_loopback_gain, 0x400067c8)
                0x40006830                PROVIDE (rom_set_noise_floor, 0x40006830)
                0x40006550                PROVIDE (rom_set_rxclk_en, 0x40006550)
                0x40008c6c                PROVIDE (rom_set_txbb_atten, 0x40008c6c)
                0x4000650c                PROVIDE (rom_set_txclk_en, 0x4000650c)
                0x40008d34                PROVIDE (rom_set_txiq_cal, 0x40008d34)
                0x40006874                PROVIDE (rom_start_noisefloor, 0x40006874)
                0x400068b4                PROVIDE (rom_start_tx_tone, 0x400068b4)
                0x4000698c                PROVIDE (rom_stop_tx_tone, 0x4000698c)
                0x40006a98                PROVIDE (rom_tx_mac_disable, 0x40006a98)
                0x40006ad4                PROVIDE (rom_tx_mac_enable, 0x40006ad4)
                0x40006a1c                PROVIDE (rom_txtone_linear_pwr, 0x40006a1c)
                0x400078dc                PROVIDE (rom_write_rfpll_sdm, 0x400078dc)
                0x400031b4                PROVIDE (roundup2, 0x400031b4)
                0x40002870                PROVIDE (rtc_enter_sleep, 0x40002870)
                0x400025e0                PROVIDE (rtc_get_reset_reason, 0x400025e0)
                0x400029ec                PROVIDE (rtc_intr_handler, 0x400029ec)
                0x40002668                PROVIDE (rtc_set_sleep_mode, 0x40002668)
                0x400027a4                PROVIDE (save_rxbcn_mactime, 0x400027a4)
                0x400027ac                PROVIDE (save_tsf_us, 0x400027ac)
                0x40003c80                PROVIDE (send_packet, 0x40003c80)
                0x4000ba48                PROVIDE (sha1_prf, 0x4000ba48)
                0x4000a2ec                PROVIDE (sha1_vector, 0x4000a2ec)
                0x40005180                PROVIDE (sip_alloc_to_host_evt, 0x40005180)
                0x400058a8                PROVIDE (sip_get_ptr, 0x400058a8)
                0x40005668                PROVIDE (sip_get_state, 0x40005668)
                0x4000567c                PROVIDE (sip_init_attach, 0x4000567c)
                0x4000544c                PROVIDE (sip_install_rx_ctrl_cb, 0x4000544c)
                0x4000545c                PROVIDE (sip_install_rx_data_cb, 0x4000545c)
                0x400050fc                PROVIDE (sip_post, 0x400050fc)
                0x400056c4                PROVIDE (sip_post_init, 0x400056c4)
                0x4000534c                PROVIDE (sip_reclaim_from_host_cmd, 0x4000534c)
                0x400052c0                PROVIDE (sip_reclaim_tx_data_pkt, 0x400052c0)
                0x40005808                PROVIDE (sip_send, 0x40005808)
                0x40005864                PROVIDE (sip_to_host_chain_append, 0x40005864)
                0x40005234                PROVIDE (sip_to_host_evt_send_done, 0x40005234)
                0x400060ac                PROVIDE (slc_add_credits, 0x400060ac)
                0x40005d90                PROVIDE (slc_enable, 0x40005d90)
                0x40005f24                PROVIDE (slc_from_host_chain_fetch, 0x40005f24)
                0x40005e94                PROVIDE (slc_from_host_chain_recycle, 0x40005e94)
                0x40005c50                PROVIDE (slc_init_attach, 0x40005c50)
                0x4000608c                PROVIDE (slc_init_credit, 0x4000608c)
                0x40006014                PROVIDE (slc_pause_from_host, 0x40006014)
                0x40005c1c                PROVIDE (slc_reattach, 0x40005c1c)
                0x4000603c                PROVIDE (slc_resume_from_host, 0x4000603c)
                0x40005dc0                PROVIDE (slc_select_tohost_gpio, 0x40005dc0)
                0x40005db8                PROVIDE (slc_select_tohost_gpio_mode, 0x40005db8)
                0x40005de4                PROVIDE (slc_send_to_host_chain, 0x40005de4)
                0x40006068                PROVIDE (slc_set_host_io_max_window, 0x40006068)
                0x40005f10                PROVIDE (slc_to_host_chain_recycle, 0x40005f10)
                0x4000264c                PROVIDE (software_reset, 0x4000264c)
                0x40004644                PROVIDE (spi_flash_attach, 0x40004644)
                0x400005f0                PROVIDE (srand, 0x400005f0)
                0x4000bdc8                PROVIDE (strcmp, 0x4000bdc8)
                0x4000bec8                PROVIDE (strcpy, 0x4000bec8)
                0x4000bf4c                PROVIDE (strlen, 0x4000bf4c)
                0x4000bfa8                PROVIDE (strncmp, 0x4000bfa8)
                0x4000c0a0                PROVIDE (strncpy, 0x4000c0a0)
                0x4000e1e0                PROVIDE (strstr, 0x4000e1e0)
                0x40002c64                PROVIDE (timer_insert, 0x40002c64)
                0x4000383c                PROVIDE (uartAttach, 0x4000383c)
                0x40003924                PROVIDE (uart_baudrate_detect, 0x40003924)
                0x400038a4                PROVIDE (uart_buff_switch, 0x400038a4)
                0x400039d8                PROVIDE (uart_div_modify, 0x400039d8)
                0x40003bbc                PROVIDE (uart_rx_intr_handler, 0x40003bbc)
                0x40003b8c                PROVIDE (uart_rx_one_char, 0x40003b8c)
                0x40003b64                PROVIDE (uart_rx_one_char_block, 0x40003b64)
                0x40003ec8                PROVIDE (uart_rx_readbuff, 0x40003ec8)
                0x40003b30                PROVIDE (uart_tx_one_char, 0x40003b30)
                0x4000bc40                PROVIDE (wepkey_128, 0x4000bc40)
                0x4000bb3c                PROVIDE (wepkey_64, 0x4000bb3c)
                0x40000688                PROVIDE (xthal_bcopy, 0x40000688)
                0x4000074c                PROVIDE (xthal_copy123, 0x4000074c)
                0x4000dd4c                PROVIDE (xthal_get_ccompare, 0x4000dd4c)
                0x4000dd38                PROVIDE (xthal_get_ccount, 0x4000dd38)
                0x4000dd58                PROVIDE (xthal_get_interrupt, 0x4000dd58)
                0x4000dd58                PROVIDE (xthal_get_intread, 0x4000dd58)
                0x400006c4                PROVIDE (xthal_memcpy, 0x400006c4)
                0x4000dd40                PROVIDE (xthal_set_ccompare, 0x4000dd40)
                0x4000dd60                PROVIDE (xthal_set_intclear, 0x4000dd60)
                0x4000e320                PROVIDE (xthal_spill_registers_into_stack_nw, 0x4000e320)
                0x4000e324                PROVIDE (xthal_window_spill, 0x4000e324)
                0x4000e320                PROVIDE (xthal_window_spill_nw, 0x4000e320)
                0x3fffccf0                PROVIDE (Te0, 0x3fffccf0)
                0x3fffd100                PROVIDE (Td0, 0x3fffd100)
                0x3fffd500                PROVIDE (Td4s, 0x3fffd500)
                0x3fffd0f0                PROVIDE (rcons, 0x3fffd0f0)
                0x3fffde10                PROVIDE (UartDev, 0x3fffde10)
                0x3fffc714                PROVIDE (flashchip, 0x3fffc714)
OUTPUT(build/debug/app.out elf32-xtensa-le)

.xtensa.info    0x00000000       0x38
 .xtensa.info   0x00000000       0x38 c:/Espressif/ESP8266_SDK_200/lib\libmain.a(debug-vector.o)
 .xtensa.info   0x00000000        0x0 c:/Espressif/ESP8266_SDK_200/lib\libmain.a(double-vector.o)
 .xtensa.info   0x00000000        0x0 c:/Espressif/ESP8266_SDK_200/lib\libmain.a(kernel-vector.o)
 .xtensa.info   0x00000000        0x0 c:/Espressif/ESP8266_SDK_200/lib\libmain.a(nmi-vector.o)
 .xtensa.info   0x00000000        0x0 c:/Espressif/ESP8266_SDK_200/lib\libmain.a(user-vector.o)
 .xtensa.info   0x00000000        0x0 c:/Espressif/ESP8266_SDK_200/lib\libmain.a(vector.o)
 .xtensa.info   0x00000000        0x0 c:/Espressif/ESP8266_SDK_200/lib\libmain.a(app_main.o)
 .xtensa.info   0x00000000        0x0 c:/Espressif/ESP8266_SDK_200/lib\libmain.a(ets_timer.o)
 .xtensa.info   0x00000000        0x0 c:/Espressif/ESP8266_SDK_200/lib\libmain.a(mem_manager.o)
 .xtensa.info   0x00000000        0x0 c:/Espressif/ESP8266_SDK_200/lib\libmain.a(spi_flash.o)
 .xtensa.info   0x00000000        0x0 c:/Espressif/ESP8266_SDK_200/lib\libmain.a(user_interface.o)
 .xtensa.info   0x00000000        0x0 c:/Espressif/ESP8266_SDK_200/lib\libmain.a(eagle_lib.o)
 .xtensa.info   0x00000000        0x0 c:/Espressif/ESP8266_SDK_200/lib\libmain.a(eagle_lwip_if.o)
 .xtensa.info   0x00000000        0x0 build/debug/app_app.a(user_main.o)
 .xtensa.info   0x00000000        0x0 build/debug/app_app.a(config.o)
 .xtensa.info   0x00000000        0x0 build/debug/app_app.a(io.o)
 .xtensa.info   0x00000000        0x0 build/debug/app_app.a(switch.o)
 .xtensa.info   0x00000000        0x0 build/debug/app_app.a(http.o)
 .xtensa.info   0x00000000        0x0 build/debug/app_app.a(easygpio.o)
 .xtensa.info   0x00000000        0x0 build/debug/app_app.a(wifi.o)
 .xtensa.info   0x00000000        0x0 build/debug/app_app.a(flash.o)
 .xtensa.info   0x00000000        0x0 build/debug/app_app.a(doSmartConfig.o)
 .xtensa.info   0x00000000        0x0 build/debug/app_app.a(stdout.o)
 .xtensa.info   0x00000000        0x0 build/debug/app_app.a(check.o)
 .xtensa.info   0x00000000        0x0 build/debug/app_app.a(mqtt.o)
 .xtensa.info   0x00000000        0x0 build/debug/app_app.a(publish.o)
 .xtensa.info   0x00000000        0x0 build/debug/app_app.a(temperature.o)
 .xtensa.info   0x00000000        0x0 build/debug/app_app.a(dht22.o)
 .xtensa.info   0x00000000        0x0 build/debug/app_app.a(ds18b20.o)
 .xtensa.info   0x00000000        0x0 build/debug/app_app.a(decodeMessage.o)
 .xtensa.info   0x00000000        0x0 build/debug/app_app.a(jsmn.o)
 .xtensa.info   0x00000000        0x0 build/debug/app_app.a(dtoa.o)
 .xtensa.info   0x00000000        0x0 build/debug/app_app.a(utils.o)
 .xtensa.info   0x00000000        0x0 build/debug/app_app.a(queue.o)
 .xtensa.info   0x00000000        0x0 build/debug/app_app.a(mqtt_msg.o)
 .xtensa.info   0x00000000        0x0 build/debug/app_app.a(ringbuf.o)
 .xtensa.info   0x00000000        0x0 build/debug/app_app.a(proto.o)
 .xtensa.info   0x00000000        0x0 c:/espressif/xtensa-lx106-elf/bin/../lib/gcc/xtensa-lx106-elf/5.1.0/../../../../xtensa-lx106-elf/lib\libc.a(lib_a-atoi.o)
 .xtensa.info   0x00000000        0x0 c:/espressif/xtensa-lx106-elf/bin/../lib/gcc/xtensa-lx106-elf/5.1.0/../../../../xtensa-lx106-elf/lib\libc.a(lib_a-lcltime.o)
 .xtensa.info   0x00000000        0x0 c:/espressif/xtensa-lx106-elf/bin/../lib/gcc/xtensa-lx106-elf/5.1.0/../../../../xtensa-lx106-elf/lib\libc.a(lib_a-lcltime_r.o)
 .xtensa.info   0x00000000        0x0 c:/espressif/xtensa-lx106-elf/bin/../lib/gcc/xtensa-lx106-elf/5.1.0/../../../../xtensa-lx106-elf/lib\libc.a(lib_a-memcpy.o)
 .xtensa.info   0x00000000        0x0 c:/espressif/xtensa-lx106-elf/bin/../lib/gcc/xtensa-lx106-elf/5.1.0/../../../../xtensa-lx106-elf/lib\libc.a(lib_a-memset.o)
 .xtensa.info   0x00000000        0x0 c:/espressif/xtensa-lx106-elf/bin/../lib/gcc/xtensa-lx106-elf/5.1.0/../../../../xtensa-lx106-elf/lib\libc.a(lib_a-mktm_r.o)
 .xtensa.info   0x00000000        0x0 c:/espressif/xtensa-lx106-elf/bin/../lib/gcc/xtensa-lx106-elf/5.1.0/../../../../xtensa-lx106-elf/lib\libc.a(lib_a-strcmp.o)
 .xtensa.info   0x00000000        0x0 c:/espressif/xtensa-lx106-elf/bin/../lib/gcc/xtensa-lx106-elf/5.1.0/../../../../xtensa-lx106-elf/lib\libc.a(lib_a-strlen.o)
 .xtensa.info   0x00000000        0x0 c:/espressif/xtensa-lx106-elf/bin/../lib/gcc/xtensa-lx106-elf/5.1.0/../../../../xtensa-lx106-elf/lib\libc.a(lib_a-strtol.o)
 .xtensa.info   0x00000000        0x0 c:/espressif/xtensa-lx106-elf/bin/../lib/gcc/xtensa-lx106-elf/5.1.0/../../../../xtensa-lx106-elf/lib\libc.a(lib_a-tzlock.o)
 .xtensa.info   0x00000000        0x0 c:/espressif/xtensa-lx106-elf/bin/../lib/gcc/xtensa-lx106-elf/5.1.0/../../../../xtensa-lx106-elf/lib\libc.a(lib_a-tzvars.o)
 .xtensa.info   0x00000000        0x0 c:/espressif/xtensa-lx106-elf/bin/../lib/gcc/xtensa-lx106-elf/5.1.0/../../../../xtensa-lx106-elf/lib\libc.a(lib_a-ctype_.o)
 .xtensa.info   0x00000000        0x0 c:/espressif/xtensa-lx106-elf/bin/../lib/gcc/xtensa-lx106-elf/5.1.0/../../../../xtensa-lx106-elf/lib\libc.a(lib_a-gettzinfo.o)
 .xtensa.info   0x00000000        0x0 c:/espressif/xtensa-lx106-elf/bin/../lib/gcc/xtensa-lx106-elf/5.1.0/../../../../xtensa-lx106-elf/lib\libc.a(lib_a-impure.o)
 .xtensa.info   0x00000000        0x0 c:/Espressif/ESP8266_SDK_200/lib\libgcc.a(_modsi3.o)
 .xtensa.info   0x00000000        0x0 c:/Espressif/ESP8266_SDK_200/lib\libgcc.a(_mulsf3.o)
 .xtensa.info   0x00000000        0x0 c:/Espressif/ESP8266_SDK_200/lib\libgcc.a(_divsf3.o)
 .xtensa.info   0x00000000        0x0 c:/Espressif/ESP8266_SDK_200/lib\libgcc.a(_cmpsf2.o)
 .xtensa.info   0x00000000        0x0 c:/Espressif/ESP8266_SDK_200/lib\libgcc.a(_fixsfsi.o)
 .xtensa.info   0x00000000        0x0 c:/Espressif/ESP8266_SDK_200/lib\libgcc.a(_cmpdf2.o)
 .xtensa.info   0x00000000        0x0 c:/espressif/xtensa-lx106-elf/bin/../lib/gcc/xtensa-lx106-elf/5.1.0/../../../../xtensa-lx106-elf/lib\libhal.a(int_asm--set_intclear.o)
 .xtensa.info   0x00000000        0x0 c:/Espressif/ESP8266_SDK_200/lib\libphy.a(phy.o)
 .xtensa.info   0x00000000        0x0 c:/Espressif/ESP8266_SDK_200/lib\libphy.a(phy_chip_v6_ana.o)
 .xtensa.info   0x00000000        0x0 c:/Espressif/ESP8266_SDK_200/lib\libphy.a(phy_chip_v6.o)
 .xtensa.info   0x00000000        0x0 c:/Espressif/ESP8266_SDK_200/lib\libphy.a(phy_chip_v6_cal.o)
 .xtensa.info   0x00000000        0x0 c:/Espressif/ESP8266_SDK_200/lib\libphy.a(phy_chip_v6_unused.o)
 .xtensa.info   0x00000000        0x0 c:/Espressif/ESP8266_SDK_200/lib\libphy.a(phy_sleep.o)
 .xtensa.info   0x00000000        0x0 c:/Espressif/ESP8266_SDK_200/lib\libpp.a(if_hwctrl.o)
 .xtensa.info   0x00000000        0x0 c:/Espressif/ESP8266_SDK_200/lib\libpp.a(lmac.o)
 .xtensa.info   0x00000000        0x0 c:/Espressif/ESP8266_SDK_200/lib\libpp.a(pm.o)
 .xtensa.info   0x00000000        0x0 c:/Espressif/ESP8266_SDK_200/lib\libpp.a(pm_for_bcn_only_mode.o)
 .xtensa.info   0x00000000        0x0 c:/Espressif/ESP8266_SDK_200/lib\libpp.a(pp.o)
 .xtensa.info   0x00000000        0x0 c:/Espressif/ESP8266_SDK_200/lib\libpp.a(rate_control.o)
 .xtensa.info   0x00000000        0x0 c:/Espressif/ESP8266_SDK_200/lib\libpp.a(trc.o)
 .xtensa.info   0x00000000        0x0 c:/Espressif/ESP8266_SDK_200/lib\libpp.a(wdev.o)
 .xtensa.info   0x00000000        0x0 c:/Espressif/ESP8266_SDK_200/lib\libpp.a(esf_buf.o)
 .xtensa.info   0x00000000        0x0 c:/Espressif/ESP8266_SDK_200/lib\libnet80211.a(ieee80211.o)
 .xtensa.info   0x00000000        0x0 c:/Espressif/ESP8266_SDK_200/lib\libnet80211.a(ieee80211_crypto.o)
 .xtensa.info   0x00000000        0x0 c:/Espressif/ESP8266_SDK_200/lib\libnet80211.a(ieee80211_ets.o)
 .xtensa.info   0x00000000        0x0 c:/Espressif/ESP8266_SDK_200/lib\libnet80211.a(ieee80211_hostap.o)
 .xtensa.info   0x00000000        0x0 c:/Espressif/ESP8266_SDK_200/lib\libnet80211.a(ieee80211_ht.o)
 .xtensa.info   0x00000000        0x0 c:/Espressif/ESP8266_SDK_200/lib\libnet80211.a(ieee80211_input.o)
 .xtensa.info   0x00000000        0x0 c:/Espressif/ESP8266_SDK_200/lib\libnet80211.a(ieee80211_mesh_quick.o)
 .xtensa.info   0x00000000        0x0 c:/Espressif/ESP8266_SDK_200/lib\libnet80211.a(ieee80211_output.o)
 .xtensa.info   0x00000000        0x0 c:/Espressif/ESP8266_SDK_200/lib\libnet80211.a(ieee80211_phy.o)
 .xtensa.info   0x00000000        0x0 c:/Espressif/ESP8266_SDK_200/lib\libnet80211.a(ieee80211_power.o)
 .xtensa.info   0x00000000        0x0 c:/Espressif/ESP8266_SDK_200/lib\libnet80211.a(ieee80211_proto.o)
 .xtensa.info   0x00000000        0x0 c:/Espressif/ESP8266_SDK_200/lib\libnet80211.a(ieee80211_regdomain.o)
 .xtensa.info   0x00000000        0x0 c:/Espressif/ESP8266_SDK_200/lib\libnet80211.a(ieee80211_rfid.o)
 .xtensa.info   0x00000000        0x0 c:/Espressif/ESP8266_SDK_200/lib\libnet80211.a(ieee80211_scan.o)
 .xtensa.info   0x00000000        0x0 c:/Espressif/ESP8266_SDK_200/lib\libnet80211.a(ieee80211_sta.o)
 .xtensa.info   0x00000000        0x0 c:/Espressif/ESP8266_SDK_200/lib\libnet80211.a(wl_chm.o)
 .xtensa.info   0x00000000        0x0 c:/Espressif/ESP8266_SDK_200/lib\libnet80211.a(wl_cnx.o)
 .xtensa.info   0x00000000        0x0 c:/Espressif/ESP8266_SDK_200/lib\libnet80211.a(ieee80211_action.o)
 .xtensa.info   0x00000000        0x0 c:/Espressif/ESP8266_SDK_200/lib\libnet80211.a(ieee80211_action_vendor.o)
 .xtensa.info   0x00000000        0x0 c:/Espressif/ESP8266_SDK_200/lib\libnet80211.a(ieee80211_crypto_ccmp.o)
 .xtensa.info   0x00000000        0x0 c:/Espressif/ESP8266_SDK_200/lib\libnet80211.a(ieee80211_ie_vendor.o)
 .xtensa.info   0x00000000        0x0 c:/Espressif/ESP8266_SDK_200/lib\liblwip.a(dhcp.o)
 .xtensa.info   0x00000000        0x0 c:/Espressif/ESP8266_SDK_200/lib\liblwip.a(dhcpserver.o)
 .xtensa.info   0x00000000        0x0 c:/Espressif/ESP8266_SDK_200/lib\liblwip.a(dns.o)
 .xtensa.info   0x00000000        0x0 c:/Espressif/ESP8266_SDK_200/lib\liblwip.a(espconn.o)
 .xtensa.info   0x00000000        0x0 c:/Espressif/ESP8266_SDK_200/lib\liblwip.a(espconn_tcp.o)
 .xtensa.info   0x00000000        0x0 c:/Espressif/ESP8266_SDK_200/lib\liblwip.a(espconn_udp.o)
 .xtensa.info   0x00000000        0x0 c:/Espressif/ESP8266_SDK_200/lib\liblwip.a(etharp.o)
 .xtensa.info   0x00000000        0x0 c:/Espressif/ESP8266_SDK_200/lib\liblwip.a(igmp.o)
 .xtensa.info   0x00000000        0x0 c:/Espressif/ESP8266_SDK_200/lib\liblwip.a(inet_chksum.o)
 .xtensa.info   0x00000000        0x0 c:/Espressif/ESP8266_SDK_200/lib\liblwip.a(init.o)
 .xtensa.info   0x00000000        0x0 c:/Espressif/ESP8266_SDK_200/lib\liblwip.a(ip_addr.o)
 .xtensa.info   0x00000000        0x0 c:/Espressif/ESP8266_SDK_200/lib\liblwip.a(ip.o)
 .xtensa.info   0x00000000        0x0 c:/Espressif/ESP8266_SDK_200/lib\liblwip.a(memp.o)
 .xtensa.info   0x00000000        0x0 c:/Espressif/ESP8266_SDK_200/lib\liblwip.a(netif.o)
 .xtensa.info   0x00000000        0x0 c:/Espressif/ESP8266_SDK_200/lib\liblwip.a(pbuf.o)
 .xtensa.info   0x00000000        0x0 c:/Espressif/ESP8266_SDK_200/lib\liblwip.a(raw.o)
 .xtensa.info   0x00000000        0x0 c:/Espressif/ESP8266_SDK_200/lib\liblwip.a(tcp_in.o)
 .xtensa.info   0x00000000        0x0 c:/Espressif/ESP8266_SDK_200/lib\liblwip.a(tcp.o)
 .xtensa.info   0x00000000        0x0 c:/Espressif/ESP8266_SDK_200/lib\liblwip.a(tcp_out.o)
 .xtensa.info   0x00000000        0x0 c:/Espressif/ESP8266_SDK_200/lib\liblwip.a(timers.o)
 .xtensa.info   0x00000000        0x0 c:/Espressif/ESP8266_SDK_200/lib\liblwip.a(udp.o)
 .xtensa.info   0x00000000        0x0 c:/Espressif/ESP8266_SDK_200/lib\liblwip.a(espconn_buf.o)
 .xtensa.info   0x00000000        0x0 c:/Espressif/ESP8266_SDK_200/lib\liblwip.a(icmp.o)
 .xtensa.info   0x00000000        0x0 c:/Espressif/ESP8266_SDK_200/lib\libwpa.a(ap_config.o)
 .xtensa.info   0x00000000        0x0 c:/Espressif/ESP8266_SDK_200/lib\libwpa.a(common.o)
 .xtensa.info   0x00000000        0x0 c:/Espressif/ESP8266_SDK_200/lib\libwpa.a(os_xtensa.o)
 .xtensa.info   0x00000000        0x0 c:/Espressif/ESP8266_SDK_200/lib\libwpa.a(wpa_auth.o)
 .xtensa.info   0x00000000        0x0 c:/Espressif/ESP8266_SDK_200/lib\libwpa.a(wpa_auth_ie.o)
 .xtensa.info   0x00000000        0x0 c:/Espressif/ESP8266_SDK_200/lib\libwpa.a(wpa.o)
 .xtensa.info   0x00000000        0x0 c:/Espressif/ESP8266_SDK_200/lib\libwpa.a(wpa_common.o)
 .xtensa.info   0x00000000        0x0 c:/Espressif/ESP8266_SDK_200/lib\libwpa.a(wpa_debug.o)
 .xtensa.info   0x00000000        0x0 c:/Espressif/ESP8266_SDK_200/lib\libwpa.a(wpa_ie.o)
 .xtensa.info   0x00000000        0x0 c:/Espressif/ESP8266_SDK_200/lib\libwpa.a(wpa_main.o)
 .xtensa.info   0x00000000        0x0 c:/Espressif/ESP8266_SDK_200/lib\libwpa.a(wpas_glue.o)
 .xtensa.info   0x00000000        0x0 c:/Espressif/ESP8266_SDK_200/lib\libsmartconfig.a(sc_sniffer.o)
 .xtensa.info   0x00000000        0x0 c:/Espressif/ESP8266_SDK_200/lib\libsmartconfig.a(sc_airkiss.o)
 .xtensa.info   0x00000000        0x0 c:/Espressif/ESP8266_SDK_200/lib\libsmartconfig.a(sc_esptouch.o)
 .xtensa.info   0x00000000        0x0 c:/Espressif/ESP8266_SDK_200/lib\libcrypto.a(aes-wrap.o)
 .xtensa.info   0x00000000        0x0 c:/Espressif/ESP8266_SDK_200/lib\libcrypto.a(aes-internal-enc.o)
 .xtensa.info   0x00000000        0x0 c:/Espressif/ESP8266_SDK_200/lib\libcrypto.a(aes-internal.o)
 .xtensa.info   0x00000000        0x0 c:/espressif/xtensa-lx106-elf/bin/../lib/gcc/xtensa-lx106-elf/5.1.0/../../../../xtensa-lx106-elf/lib\libc.a(lib_a-memchr.o)
 .xtensa.info   0x00000000        0x0 c:/Espressif/ESP8266_SDK_200/lib\libgcc.a(_ashrdi3.o)
 .xtensa.info   0x00000000        0x0 c:/Espressif/ESP8266_SDK_200/lib\libnet80211.a(ieee80211_crypto_tkip.o)
 .xtensa.info   0x00000000        0x0 c:/Espressif/ESP8266_SDK_200/lib\libnet80211.a(ieee80211_crypto_wep.o)

.xt.prop        0x00000000    0x30cf0
 .xt.prop       0x00000000       0x18 c:/Espressif/ESP8266_SDK_200/lib\libmain.a(debug-vector.o)
 .xt.prop       0x00000018       0x18 c:/Espressif/ESP8266_SDK_200/lib\libmain.a(double-vector.o)
 .xt.prop       0x00000030       0x18 c:/Espressif/ESP8266_SDK_200/lib\libmain.a(kernel-vector.o)
 .xt.prop       0x00000048       0x30 c:/Espressif/ESP8266_SDK_200/lib\libmain.a(nmi-vector.o)
                                 0x3c (size before relaxing)
 .xt.prop       0x00000078       0x30 c:/Espressif/ESP8266_SDK_200/lib\libmain.a(user-vector.o)
                                 0x3c (size before relaxing)
 .xt.prop       0x000000a8       0x18 c:/Espressif/ESP8266_SDK_200/lib\libmain.a(vector.o)
 .xt.prop       0x000000c0     0x10a4 c:/Espressif/ESP8266_SDK_200/lib\libmain.a(app_main.o)
                               0x114c (size before relaxing)
 .xt.prop       0x00001164      0x5e8 c:/Espressif/ESP8266_SDK_200/lib\libmain.a(ets_timer.o)
                                0x630 (size before relaxing)
 .xt.prop       0x0000174c      0x3e4 c:/Espressif/ESP8266_SDK_200/lib\libmain.a(mem_manager.o)
                                0x474 (size before relaxing)
 .xt.prop       0x00001b30      0x5ac c:/Espressif/ESP8266_SDK_200/lib\libmain.a(spi_flash.o)
                                0x5c4 (size before relaxing)
 .xt.prop       0x000020dc     0x3a68 c:/Espressif/ESP8266_SDK_200/lib\libmain.a(user_interface.o)
                               0x3bf4 (size before relaxing)
 .xt.prop       0x00005b44      0x858 c:/Espressif/ESP8266_SDK_200/lib\libmain.a(eagle_lib.o)
 .xt.prop       0x0000639c      0x270 c:/Espressif/ESP8266_SDK_200/lib\libmain.a(eagle_lwip_if.o)
                                0x2a0 (size before relaxing)
 .xt.prop       0x0000660c      0x834 build/debug/app_app.a(user_main.o)
                                0x8b8 (size before relaxing)
 .xt.prop       0x00006e40      0x114 build/debug/app_app.a(config.o)
                                0x120 (size before relaxing)
 .xt.prop       0x00006f54      0x348 build/debug/app_app.a(io.o)
                                0x3b4 (size before relaxing)
 .xt.prop       0x0000729c      0x120 build/debug/app_app.a(switch.o)
                                0x15c (size before relaxing)
 .xt.prop       0x000073bc      0x3a8 build/debug/app_app.a(http.o)
                                0x3fc (size before relaxing)
 .xt.prop       0x00007764      0x468 build/debug/app_app.a(easygpio.o)
 .xt.prop       0x00007bcc      0x348 build/debug/app_app.a(wifi.o)
                                0x3d8 (size before relaxing)
 .xt.prop       0x00007f14      0x15c build/debug/app_app.a(flash.o)
                                0x1a4 (size before relaxing)
 .xt.prop       0x00008070       0xc0 build/debug/app_app.a(doSmartConfig.o)
                                 0xcc (size before relaxing)
 .xt.prop       0x00008130       0x60 build/debug/app_app.a(stdout.o)
 .xt.prop       0x00008190       0xfc build/debug/app_app.a(check.o)
 .xt.prop       0x0000828c      0x720 build/debug/app_app.a(mqtt.o)
 .xt.prop       0x000089ac      0x2f4 build/debug/app_app.a(publish.o)
                                0x300 (size before relaxing)
 .xt.prop       0x00008ca0      0x48c build/debug/app_app.a(temperature.o)
                                0x4b0 (size before relaxing)
 .xt.prop       0x0000912c      0x2c4 build/debug/app_app.a(dht22.o)
                                0x2dc (size before relaxing)
 .xt.prop       0x000093f0      0x39c build/debug/app_app.a(ds18b20.o)
                                0x3cc (size before relaxing)
 .xt.prop       0x0000978c      0x228 build/debug/app_app.a(decodeMessage.o)
 .xt.prop       0x000099b4      0x4f8 build/debug/app_app.a(jsmn.o)
                                0x504 (size before relaxing)
 .xt.prop       0x00009eac      0x120 build/debug/app_app.a(dtoa.o)
 .xt.prop       0x00009fcc      0x1bc build/debug/app_app.a(utils.o)
 .xt.prop       0x0000a188       0x90 build/debug/app_app.a(queue.o)
 .xt.prop       0x0000a218      0x864 build/debug/app_app.a(mqtt_msg.o)
 .xt.prop       0x0000aa7c       0xd8 build/debug/app_app.a(ringbuf.o)
 .xt.prop       0x0000ab54      0x228 build/debug/app_app.a(proto.o)
 .xt.prop       0x0000ad7c       0x3c c:/espressif/xtensa-lx106-elf/bin/../lib/gcc/xtensa-lx106-elf/5.1.0/../../../../xtensa-lx106-elf/lib\libc.a(lib_a-atoi.o)
                                 0x48 (size before relaxing)
 .xt.prop       0x0000adb8       0x30 c:/espressif/xtensa-lx106-elf/bin/../lib/gcc/xtensa-lx106-elf/5.1.0/../../../../xtensa-lx106-elf/lib\libc.a(lib_a-lcltime.o)
 .xt.prop       0x0000ade8       0x24 c:/espressif/xtensa-lx106-elf/bin/../lib/gcc/xtensa-lx106-elf/5.1.0/../../../../xtensa-lx106-elf/lib\libc.a(lib_a-lcltime_r.o)
                                 0x30 (size before relaxing)
 .xt.prop       0x0000ae0c      0x174 c:/espressif/xtensa-lx106-elf/bin/../lib/gcc/xtensa-lx106-elf/5.1.0/../../../../xtensa-lx106-elf/lib\libc.a(lib_a-memcpy.o)
 .xt.prop       0x0000af80       0xe4 c:/espressif/xtensa-lx106-elf/bin/../lib/gcc/xtensa-lx106-elf/5.1.0/../../../../xtensa-lx106-elf/lib\libc.a(lib_a-memset.o)
 .xt.prop       0x0000b064      0x348 c:/espressif/xtensa-lx106-elf/bin/../lib/gcc/xtensa-lx106-elf/5.1.0/../../../../xtensa-lx106-elf/lib\libc.a(lib_a-mktm_r.o)
                                0x354 (size before relaxing)
 .xt.prop       0x0000b3ac      0x108 c:/espressif/xtensa-lx106-elf/bin/../lib/gcc/xtensa-lx106-elf/5.1.0/../../../../xtensa-lx106-elf/lib\libc.a(lib_a-strcmp.o)
 .xt.prop       0x0000b4b4       0xa8 c:/espressif/xtensa-lx106-elf/bin/../lib/gcc/xtensa-lx106-elf/5.1.0/../../../../xtensa-lx106-elf/lib\libc.a(lib_a-strlen.o)
                                 0xb4 (size before relaxing)
 .xt.prop       0x0000b55c      0x15c c:/espressif/xtensa-lx106-elf/bin/../lib/gcc/xtensa-lx106-elf/5.1.0/../../../../xtensa-lx106-elf/lib\libc.a(lib_a-strtol.o)
 .xt.prop       0x0000b6b8       0x3c c:/espressif/xtensa-lx106-elf/bin/../lib/gcc/xtensa-lx106-elf/5.1.0/../../../../xtensa-lx106-elf/lib\libc.a(lib_a-tzlock.o)
 .xt.prop       0x0000b6f4        0xc c:/espressif/xtensa-lx106-elf/bin/../lib/gcc/xtensa-lx106-elf/5.1.0/../../../../xtensa-lx106-elf/lib\libc.a(lib_a-tzvars.o)
 .xt.prop       0x0000b700        0xc c:/espressif/xtensa-lx106-elf/bin/../lib/gcc/xtensa-lx106-elf/5.1.0/../../../../xtensa-lx106-elf/lib\libc.a(lib_a-ctype_.o)
 .xt.prop       0x0000b70c       0x3c c:/espressif/xtensa-lx106-elf/bin/../lib/gcc/xtensa-lx106-elf/5.1.0/../../../../xtensa-lx106-elf/lib\libc.a(lib_a-gettzinfo.o)
 .xt.prop       0x0000b748       0x24 c:/espressif/xtensa-lx106-elf/bin/../lib/gcc/xtensa-lx106-elf/5.1.0/../../../../xtensa-lx106-elf/lib\libc.a(lib_a-impure.o)
 .xt.prop       0x0000b76c       0x84 c:/Espressif/ESP8266_SDK_200/lib\libgcc.a(_modsi3.o)
 .xt.prop       0x0000b7f0      0x168 c:/Espressif/ESP8266_SDK_200/lib\libgcc.a(_mulsf3.o)
 .xt.prop       0x0000b958      0x15c c:/Espressif/ESP8266_SDK_200/lib\libgcc.a(_divsf3.o)
                                0x168 (size before relaxing)
 .xt.prop       0x0000bab4      0x27c c:/Espressif/ESP8266_SDK_200/lib\libgcc.a(_cmpsf2.o)
                                0x288 (size before relaxing)
 .xt.prop       0x0000bd30       0x60 c:/Espressif/ESP8266_SDK_200/lib\libgcc.a(_fixsfsi.o)
                                 0x6c (size before relaxing)
 .xt.prop       0x0000bd90      0x288 c:/Espressif/ESP8266_SDK_200/lib\libgcc.a(_cmpdf2.o)
 .xt.prop       0x0000c018       0x24 c:/espressif/xtensa-lx106-elf/bin/../lib/gcc/xtensa-lx106-elf/5.1.0/../../../../xtensa-lx106-elf/lib\libhal.a(int_asm--set_intclear.o)
 .xt.prop       0x0000c03c      0x1d4 c:/Espressif/ESP8266_SDK_200/lib\libphy.a(phy.o)
                                0x1e0 (size before relaxing)
 .xt.prop       0x0000c210      0xdb0 c:/Espressif/ESP8266_SDK_200/lib\libphy.a(phy_chip_v6_ana.o)
                                0xdc8 (size before relaxing)
 .xt.prop       0x0000cfc0     0x20e8 c:/Espressif/ESP8266_SDK_200/lib\libphy.a(phy_chip_v6.o)
                               0x22a4 (size before relaxing)
 .xt.prop       0x0000f0a8     0x1098 c:/Espressif/ESP8266_SDK_200/lib\libphy.a(phy_chip_v6_cal.o)
                               0x10f8 (size before relaxing)
 .xt.prop       0x00010140       0x60 c:/Espressif/ESP8266_SDK_200/lib\libphy.a(phy_chip_v6_unused.o)
                                 0x6c (size before relaxing)
 .xt.prop       0x000101a0      0x87c c:/Espressif/ESP8266_SDK_200/lib\libphy.a(phy_sleep.o)
                                0x8d0 (size before relaxing)
 .xt.prop       0x00010a1c      0x528 c:/Espressif/ESP8266_SDK_200/lib\libpp.a(if_hwctrl.o)
                                0x558 (size before relaxing)
 .xt.prop       0x00010f44     0x1500 c:/Espressif/ESP8266_SDK_200/lib\libpp.a(lmac.o)
                               0x1554 (size before relaxing)
 .xt.prop       0x00012444     0x1728 c:/Espressif/ESP8266_SDK_200/lib\libpp.a(pm.o)
                               0x180c (size before relaxing)
 .xt.prop       0x00013b6c      0x9d8 c:/Espressif/ESP8266_SDK_200/lib\libpp.a(pm_for_bcn_only_mode.o)
                                0xa08 (size before relaxing)
 .xt.prop       0x00014544     0x195c c:/Espressif/ESP8266_SDK_200/lib\libpp.a(pp.o)
                               0x1b0c (size before relaxing)
 .xt.prop       0x00015ea0      0x1bc c:/Espressif/ESP8266_SDK_200/lib\libpp.a(rate_control.o)
                                0x1d4 (size before relaxing)
 .xt.prop       0x0001605c     0x1140 c:/Espressif/ESP8266_SDK_200/lib\libpp.a(trc.o)
                               0x11a0 (size before relaxing)
 .xt.prop       0x0001719c     0x1350 c:/Espressif/ESP8266_SDK_200/lib\libpp.a(wdev.o)
                               0x1428 (size before relaxing)
 .xt.prop       0x000184ec      0x264 c:/Espressif/ESP8266_SDK_200/lib\libpp.a(esf_buf.o)
                                0x2e8 (size before relaxing)
 .xt.prop       0x00018750      0x4a4 c:/Espressif/ESP8266_SDK_200/lib\libnet80211.a(ieee80211.o)
                                0x4c8 (size before relaxing)
 .xt.prop       0x00018bf4      0x15c c:/Espressif/ESP8266_SDK_200/lib\libnet80211.a(ieee80211_crypto.o)
 .xt.prop       0x00018d50       0x48 c:/Espressif/ESP8266_SDK_200/lib\libnet80211.a(ieee80211_ets.o)
 .xt.prop       0x00018d98      0xe70 c:/Espressif/ESP8266_SDK_200/lib\libnet80211.a(ieee80211_hostap.o)
                                0xf54 (size before relaxing)
 .xt.prop       0x00019c08      0x684 c:/Espressif/ESP8266_SDK_200/lib\libnet80211.a(ieee80211_ht.o)
                                0x690 (size before relaxing)
 .xt.prop       0x0001a28c      0x900 c:/Espressif/ESP8266_SDK_200/lib\libnet80211.a(ieee80211_input.o)
                                0x90c (size before relaxing)
 .xt.prop       0x0001ab8c      0x468 c:/Espressif/ESP8266_SDK_200/lib\libnet80211.a(ieee80211_mesh_quick.o)
 .xt.prop       0x0001aff4     0x1314 c:/Espressif/ESP8266_SDK_200/lib\libnet80211.a(ieee80211_output.o)
                               0x1320 (size before relaxing)
 .xt.prop       0x0001c308      0x108 c:/Espressif/ESP8266_SDK_200/lib\libnet80211.a(ieee80211_phy.o)
 .xt.prop       0x0001c410      0x1bc c:/Espressif/ESP8266_SDK_200/lib\libnet80211.a(ieee80211_power.o)
 .xt.prop       0x0001c5cc      0x12c c:/Espressif/ESP8266_SDK_200/lib\libnet80211.a(ieee80211_proto.o)
                                0x138 (size before relaxing)
 .xt.prop       0x0001c6f8      0x234 c:/Espressif/ESP8266_SDK_200/lib\libnet80211.a(ieee80211_regdomain.o)
 .xt.prop       0x0001c92c      0x12c c:/Espressif/ESP8266_SDK_200/lib\libnet80211.a(ieee80211_rfid.o)
 .xt.prop       0x0001ca58      0xc60 c:/Espressif/ESP8266_SDK_200/lib\libnet80211.a(ieee80211_scan.o)
                                0xcfc (size before relaxing)
 .xt.prop       0x0001d6b8      0xab0 c:/Espressif/ESP8266_SDK_200/lib\libnet80211.a(ieee80211_sta.o)
                                0xaec (size before relaxing)
 .xt.prop       0x0001e168      0x2dc c:/Espressif/ESP8266_SDK_200/lib\libnet80211.a(wl_chm.o)
                                0x2e8 (size before relaxing)
 .xt.prop       0x0001e444     0x1260 c:/Espressif/ESP8266_SDK_200/lib\libnet80211.a(wl_cnx.o)
                               0x12d8 (size before relaxing)
 .xt.prop       0x0001f6a4      0x33c c:/Espressif/ESP8266_SDK_200/lib\libnet80211.a(ieee80211_action.o)
 .xt.prop       0x0001f9e0      0x480 c:/Espressif/ESP8266_SDK_200/lib\libnet80211.a(ieee80211_action_vendor.o)
                                0x4c8 (size before relaxing)
 .xt.prop       0x0001fe60       0xcc c:/Espressif/ESP8266_SDK_200/lib\libnet80211.a(ieee80211_crypto_ccmp.o)
                                 0xd8 (size before relaxing)
 .xt.prop       0x0001ff2c      0x114 c:/Espressif/ESP8266_SDK_200/lib\libnet80211.a(ieee80211_ie_vendor.o)
 .xt.prop       0x00020040      0xd98 c:/Espressif/ESP8266_SDK_200/lib\liblwip.a(dhcp.o)
                                0xdbc (size before relaxing)
 .xt.prop       0x00020dd8      0xad4 c:/Espressif/ESP8266_SDK_200/lib\liblwip.a(dhcpserver.o)
                                0xb34 (size before relaxing)
 .xt.prop       0x000218ac      0x45c c:/Espressif/ESP8266_SDK_200/lib\liblwip.a(dns.o)
                                0x4c8 (size before relaxing)
 .xt.prop       0x00021d08      0xf90 c:/Espressif/ESP8266_SDK_200/lib\liblwip.a(espconn.o)
                                0xff0 (size before relaxing)
 .xt.prop       0x00022c98      0xee8 c:/Espressif/ESP8266_SDK_200/lib\liblwip.a(espconn_tcp.o)
                                0xef4 (size before relaxing)
 .xt.prop       0x00023b80      0x330 c:/Espressif/ESP8266_SDK_200/lib\liblwip.a(espconn_udp.o)
                                0x33c (size before relaxing)
 .xt.prop       0x00023eb0      0x708 c:/Espressif/ESP8266_SDK_200/lib\liblwip.a(etharp.o)
                                0x750 (size before relaxing)
 .xt.prop       0x000245b8      0x63c c:/Espressif/ESP8266_SDK_200/lib\liblwip.a(igmp.o)
                                0x66c (size before relaxing)
 .xt.prop       0x00024bf4      0x168 c:/Espressif/ESP8266_SDK_200/lib\liblwip.a(inet_chksum.o)
 .xt.prop       0x00024d5c       0x24 c:/Espressif/ESP8266_SDK_200/lib\liblwip.a(init.o)
 .xt.prop       0x00024d80      0x324 c:/Espressif/ESP8266_SDK_200/lib\liblwip.a(ip_addr.o)
                                0x330 (size before relaxing)
 .xt.prop       0x000250a4      0x438 c:/Espressif/ESP8266_SDK_200/lib\liblwip.a(ip.o)
                                0x480 (size before relaxing)
 .xt.prop       0x000254dc        0x0 c:/Espressif/ESP8266_SDK_200/lib\liblwip.a(memp.o)
                                 0x18 (size before relaxing)
 .xt.prop       0x000254dc      0x33c c:/Espressif/ESP8266_SDK_200/lib\liblwip.a(netif.o)
                                0x360 (size before relaxing)
 .xt.prop       0x00025818      0x7a4 c:/Espressif/ESP8266_SDK_200/lib\liblwip.a(pbuf.o)
                                0x7b0 (size before relaxing)
 .xt.prop       0x00025fbc      0x294 c:/Espressif/ESP8266_SDK_200/lib\liblwip.a(raw.o)
                                0x2ac (size before relaxing)
 .xt.prop       0x00026250      0xc6c c:/Espressif/ESP8266_SDK_200/lib\liblwip.a(tcp_in.o)
                                0xcfc (size before relaxing)
 .xt.prop       0x00026ebc      0xcfc c:/Espressif/ESP8266_SDK_200/lib\liblwip.a(tcp.o)
                                0xd68 (size before relaxing)
 .xt.prop       0x00027bb8      0x960 c:/Espressif/ESP8266_SDK_200/lib\liblwip.a(tcp_out.o)
                                0x96c (size before relaxing)
 .xt.prop       0x00028518      0x354 c:/Espressif/ESP8266_SDK_200/lib\liblwip.a(timers.o)
                                0x384 (size before relaxing)
 .xt.prop       0x0002886c      0x5a0 c:/Espressif/ESP8266_SDK_200/lib\liblwip.a(udp.o)
                                0x5b8 (size before relaxing)
 .xt.prop       0x00028e0c      0x5c4 c:/Espressif/ESP8266_SDK_200/lib\liblwip.a(espconn_buf.o)
                                0x5d0 (size before relaxing)
 .xt.prop       0x000293d0      0x114 c:/Espressif/ESP8266_SDK_200/lib\liblwip.a(icmp.o)
 .xt.prop       0x000294e4      0x2e8 c:/Espressif/ESP8266_SDK_200/lib\libwpa.a(ap_config.o)
                                0x2f4 (size before relaxing)
 .xt.prop       0x000297cc      0x21c c:/Espressif/ESP8266_SDK_200/lib\libwpa.a(common.o)
                                0x228 (size before relaxing)
 .xt.prop       0x000299e8       0xf0 c:/Espressif/ESP8266_SDK_200/lib\libwpa.a(os_xtensa.o)
                                 0xfc (size before relaxing)
 .xt.prop       0x00029ad8     0x1668 c:/Espressif/ESP8266_SDK_200/lib\libwpa.a(wpa_auth.o)
 .xt.prop       0x0002b140      0x480 c:/Espressif/ESP8266_SDK_200/lib\libwpa.a(wpa_auth_ie.o)
                                0x48c (size before relaxing)
 .xt.prop       0x0002b5c0      0xd8c c:/Espressif/ESP8266_SDK_200/lib\libwpa.a(wpa.o)
                                0xdb0 (size before relaxing)
 .xt.prop       0x0002c34c      0x7a4 c:/Espressif/ESP8266_SDK_200/lib\libwpa.a(wpa_common.o)
 .xt.prop       0x0002caf0       0xc0 c:/Espressif/ESP8266_SDK_200/lib\libwpa.a(wpa_debug.o)
 .xt.prop       0x0002cbb0      0x378 c:/Espressif/ESP8266_SDK_200/lib\libwpa.a(wpa_ie.o)
 .xt.prop       0x0002cf28      0x330 c:/Espressif/ESP8266_SDK_200/lib\libwpa.a(wpa_main.o)
                                0x33c (size before relaxing)
 .xt.prop       0x0002d258      0x12c c:/Espressif/ESP8266_SDK_200/lib\libwpa.a(wpas_glue.o)
 .xt.prop       0x0002d384      0x900 c:/Espressif/ESP8266_SDK_200/lib\libsmartconfig.a(sc_sniffer.o)
                                0x948 (size before relaxing)
 .xt.prop       0x0002dc84     0x1410 c:/Espressif/ESP8266_SDK_200/lib\libsmartconfig.a(sc_airkiss.o)
                               0x14a0 (size before relaxing)
 .xt.prop       0x0002f094     0x1890 c:/Espressif/ESP8266_SDK_200/lib\libsmartconfig.a(sc_esptouch.o)
                               0x1950 (size before relaxing)
 .xt.prop       0x00030924       0x6c c:/Espressif/ESP8266_SDK_200/lib\libcrypto.a(aes-wrap.o)
 .xt.prop       0x00030990       0xd8 c:/Espressif/ESP8266_SDK_200/lib\libcrypto.a(aes-internal-enc.o)
                                 0xe4 (size before relaxing)
 .xt.prop       0x00030a68       0xb4 c:/Espressif/ESP8266_SDK_200/lib\libcrypto.a(aes-internal.o)
 .xt.prop       0x00030b1c       0x48 c:/espressif/xtensa-lx106-elf/bin/../lib/gcc/xtensa-lx106-elf/5.1.0/../../../../xtensa-lx106-elf/lib\libc.a(lib_a-memchr.o)
 .xt.prop       0x00030b64       0x3c c:/Espressif/ESP8266_SDK_200/lib\libgcc.a(_ashrdi3.o)
 .xt.prop       0x00030ba0       0xe4 c:/Espressif/ESP8266_SDK_200/lib\libnet80211.a(ieee80211_crypto_tkip.o)
                                 0xfc (size before relaxing)
 .xt.prop       0x00030c84       0x6c c:/Espressif/ESP8266_SDK_200/lib\libnet80211.a(ieee80211_crypto_wep.o)
                                 0x78 (size before relaxing)

.xt.lit         0x00000000     0x17e0
 .xt.lit        0x00000000        0x8 c:/Espressif/ESP8266_SDK_200/lib\libmain.a(nmi-vector.o)
                                 0x10 (size before relaxing)
 .xt.lit        0x00000008        0x8 c:/Espressif/ESP8266_SDK_200/lib\libmain.a(user-vector.o)
                                 0x10 (size before relaxing)
 .xt.lit        0x00000010        0x8 c:/Espressif/ESP8266_SDK_200/lib\libmain.a(vector.o)
 .xt.lit        0x00000018       0xa8 c:/Espressif/ESP8266_SDK_200/lib\libmain.a(app_main.o)
                                 0xb0 (size before relaxing)
 .xt.lit        0x000000c0       0x48 c:/Espressif/ESP8266_SDK_200/lib\libmain.a(ets_timer.o)
 .xt.lit        0x00000108       0x40 c:/Espressif/ESP8266_SDK_200/lib\libmain.a(mem_manager.o)
                                 0x60 (size before relaxing)
 .xt.lit        0x00000148       0x80 c:/Espressif/ESP8266_SDK_200/lib\libmain.a(spi_flash.o)
 .xt.lit        0x000001c8      0x230 c:/Espressif/ESP8266_SDK_200/lib\libmain.a(user_interface.o)
                                0x4e8 (size before relaxing)
 .xt.lit        0x000003f8       0x18 c:/Espressif/ESP8266_SDK_200/lib\libmain.a(eagle_lib.o)
 .xt.lit        0x00000410        0x8 c:/Espressif/ESP8266_SDK_200/lib\libmain.a(eagle_lwip_if.o)
                                 0x28 (size before relaxing)
 .xt.lit        0x00000418       0xa0 build/debug/app_app.a(user_main.o)
                                 0xc8 (size before relaxing)
 .xt.lit        0x000004b8       0x20 build/debug/app_app.a(config.o)
                                 0x30 (size before relaxing)
 .xt.lit        0x000004d8       0x48 build/debug/app_app.a(io.o)
                                 0x60 (size before relaxing)
 .xt.lit        0x00000520       0x10 build/debug/app_app.a(switch.o)
 .xt.lit        0x00000530       0x58 build/debug/app_app.a(http.o)
 .xt.lit        0x00000588       0x38 build/debug/app_app.a(easygpio.o)
                                 0x40 (size before relaxing)
 .xt.lit        0x000005c0       0x20 build/debug/app_app.a(wifi.o)
                                 0x50 (size before relaxing)
 .xt.lit        0x000005e0       0x20 build/debug/app_app.a(flash.o)
                                 0x28 (size before relaxing)
 .xt.lit        0x00000600        0x8 build/debug/app_app.a(doSmartConfig.o)
                                 0x10 (size before relaxing)
 .xt.lit        0x00000608       0x10 build/debug/app_app.a(stdout.o)
 .xt.lit        0x00000618       0x30 build/debug/app_app.a(check.o)
 .xt.lit        0x00000648       0x48 build/debug/app_app.a(mqtt.o)
                                 0x90 (size before relaxing)
 .xt.lit        0x00000690       0x40 build/debug/app_app.a(publish.o)
                                 0x50 (size before relaxing)
 .xt.lit        0x000006d0       0x50 build/debug/app_app.a(temperature.o)
                                 0x98 (size before relaxing)
 .xt.lit        0x00000720       0x20 build/debug/app_app.a(dht22.o)
                                 0x28 (size before relaxing)
 .xt.lit        0x00000740       0x20 build/debug/app_app.a(ds18b20.o)
                                 0x40 (size before relaxing)
 .xt.lit        0x00000760        0x8 build/debug/app_app.a(decodeMessage.o)
 .xt.lit        0x00000768       0x10 build/debug/app_app.a(jsmn.o)
                                 0x18 (size before relaxing)
 .xt.lit        0x00000778        0x8 build/debug/app_app.a(dtoa.o)
 .xt.lit        0x00000780        0x8 build/debug/app_app.a(queue.o)
                                 0x18 (size before relaxing)
 .xt.lit        0x00000788       0x20 build/debug/app_app.a(mqtt_msg.o)
                                 0x70 (size before relaxing)
 .xt.lit        0x000007a8        0x0 build/debug/app_app.a(proto.o)
                                 0x10 (size before relaxing)
 .xt.lit        0x000007a8        0x0 c:/espressif/xtensa-lx106-elf/bin/../lib/gcc/xtensa-lx106-elf/5.1.0/../../../../xtensa-lx106-elf/lib\libc.a(lib_a-atoi.o)
                                  0x8 (size before relaxing)
 .xt.lit        0x000007a8        0x8 c:/espressif/xtensa-lx106-elf/bin/../lib/gcc/xtensa-lx106-elf/5.1.0/../../../../xtensa-lx106-elf/lib\libc.a(lib_a-lcltime.o)
 .xt.lit        0x000007b0        0x0 c:/espressif/xtensa-lx106-elf/bin/../lib/gcc/xtensa-lx106-elf/5.1.0/../../../../xtensa-lx106-elf/lib\libc.a(lib_a-lcltime_r.o)
                                  0x8 (size before relaxing)
 .xt.lit        0x000007b0        0x8 c:/espressif/xtensa-lx106-elf/bin/../lib/gcc/xtensa-lx106-elf/5.1.0/../../../../xtensa-lx106-elf/lib\libc.a(lib_a-mktm_r.o)
 .xt.lit        0x000007b8        0x8 c:/espressif/xtensa-lx106-elf/bin/../lib/gcc/xtensa-lx106-elf/5.1.0/../../../../xtensa-lx106-elf/lib\libc.a(lib_a-strcmp.o)
 .xt.lit        0x000007c0        0x0 c:/espressif/xtensa-lx106-elf/bin/../lib/gcc/xtensa-lx106-elf/5.1.0/../../../../xtensa-lx106-elf/lib\libc.a(lib_a-strlen.o)
                                  0x8 (size before relaxing)
 .xt.lit        0x000007c0        0x8 c:/espressif/xtensa-lx106-elf/bin/../lib/gcc/xtensa-lx106-elf/5.1.0/../../../../xtensa-lx106-elf/lib\libc.a(lib_a-strtol.o)
 .xt.lit        0x000007c8        0x8 c:/espressif/xtensa-lx106-elf/bin/../lib/gcc/xtensa-lx106-elf/5.1.0/../../../../xtensa-lx106-elf/lib\libc.a(lib_a-gettzinfo.o)
 .xt.lit        0x000007d0        0x8 c:/Espressif/ESP8266_SDK_200/lib\libgcc.a(_mulsf3.o)
 .xt.lit        0x000007d8        0x0 c:/Espressif/ESP8266_SDK_200/lib\libgcc.a(_divsf3.o)
                                  0x8 (size before relaxing)
 .xt.lit        0x000007d8        0x0 c:/Espressif/ESP8266_SDK_200/lib\libgcc.a(_cmpsf2.o)
                                  0x8 (size before relaxing)
 .xt.lit        0x000007d8        0x0 c:/Espressif/ESP8266_SDK_200/lib\libgcc.a(_fixsfsi.o)
                                  0x8 (size before relaxing)
 .xt.lit        0x000007d8        0x8 c:/Espressif/ESP8266_SDK_200/lib\libgcc.a(_cmpdf2.o)
 .xt.lit        0x000007e0       0x10 c:/Espressif/ESP8266_SDK_200/lib\libphy.a(phy.o)
                                 0x68 (size before relaxing)
 .xt.lit        0x000007f0       0x98 c:/Espressif/ESP8266_SDK_200/lib\libphy.a(phy_chip_v6_ana.o)
                                 0xc8 (size before relaxing)
 .xt.lit        0x00000888      0x160 c:/Espressif/ESP8266_SDK_200/lib\libphy.a(phy_chip_v6.o)
                                0x248 (size before relaxing)
 .xt.lit        0x000009e8       0x88 c:/Espressif/ESP8266_SDK_200/lib\libphy.a(phy_chip_v6_cal.o)
                                 0xf0 (size before relaxing)
 .xt.lit        0x00000a70       0x78 c:/Espressif/ESP8266_SDK_200/lib\libphy.a(phy_sleep.o)
                                 0xd0 (size before relaxing)
 .xt.lit        0x00000ae8       0x30 c:/Espressif/ESP8266_SDK_200/lib\libpp.a(if_hwctrl.o)
                                 0xa0 (size before relaxing)
 .xt.lit        0x00000b18       0x70 c:/Espressif/ESP8266_SDK_200/lib\libpp.a(lmac.o)
                                0x130 (size before relaxing)
 .xt.lit        0x00000b88       0xe8 c:/Espressif/ESP8266_SDK_200/lib\libpp.a(pm.o)
                                0x1a8 (size before relaxing)
 .xt.lit        0x00000c70       0x50 c:/Espressif/ESP8266_SDK_200/lib\libpp.a(pm_for_bcn_only_mode.o)
                                 0xa8 (size before relaxing)
 .xt.lit        0x00000cc0       0xe0 c:/Espressif/ESP8266_SDK_200/lib\libpp.a(pp.o)
                                0x1b0 (size before relaxing)
 .xt.lit        0x00000da0       0x18 c:/Espressif/ESP8266_SDK_200/lib\libpp.a(rate_control.o)
                                 0x38 (size before relaxing)
 .xt.lit        0x00000db8       0x68 c:/Espressif/ESP8266_SDK_200/lib\libpp.a(trc.o)
                                 0xa8 (size before relaxing)
 .xt.lit        0x00000e20       0xe0 c:/Espressif/ESP8266_SDK_200/lib\libpp.a(wdev.o)
                                0x1b0 (size before relaxing)
 .xt.lit        0x00000f00       0x18 c:/Espressif/ESP8266_SDK_200/lib\libpp.a(esf_buf.o)
                                 0x20 (size before relaxing)
 .xt.lit        0x00000f18       0x30 c:/Espressif/ESP8266_SDK_200/lib\libnet80211.a(ieee80211.o)
                                 0x50 (size before relaxing)
 .xt.lit        0x00000f48        0x0 c:/Espressif/ESP8266_SDK_200/lib\libnet80211.a(ieee80211_crypto.o)
                                 0x10 (size before relaxing)
 .xt.lit        0x00000f48        0x8 c:/Espressif/ESP8266_SDK_200/lib\libnet80211.a(ieee80211_ets.o)
 .xt.lit        0x00000f50       0x68 c:/Espressif/ESP8266_SDK_200/lib\libnet80211.a(ieee80211_hostap.o)
                                 0x78 (size before relaxing)
 .xt.lit        0x00000fb8       0x40 c:/Espressif/ESP8266_SDK_200/lib\libnet80211.a(ieee80211_ht.o)
                                 0x70 (size before relaxing)
 .xt.lit        0x00000ff8       0x38 c:/Espressif/ESP8266_SDK_200/lib\libnet80211.a(ieee80211_input.o)
                                 0x60 (size before relaxing)
 .xt.lit        0x00001030       0x18 c:/Espressif/ESP8266_SDK_200/lib\libnet80211.a(ieee80211_mesh_quick.o)
                                 0x28 (size before relaxing)
 .xt.lit        0x00001048       0x40 c:/Espressif/ESP8266_SDK_200/lib\libnet80211.a(ieee80211_output.o)
                                 0xb8 (size before relaxing)
 .xt.lit        0x00001088        0x8 c:/Espressif/ESP8266_SDK_200/lib\libnet80211.a(ieee80211_phy.o)
                                 0x18 (size before relaxing)
 .xt.lit        0x00001090        0x8 c:/Espressif/ESP8266_SDK_200/lib\libnet80211.a(ieee80211_power.o)
                                 0x20 (size before relaxing)
 .xt.lit        0x00001098       0x18 c:/Espressif/ESP8266_SDK_200/lib\libnet80211.a(ieee80211_proto.o)
 .xt.lit        0x000010b0       0x10 c:/Espressif/ESP8266_SDK_200/lib\libnet80211.a(ieee80211_regdomain.o)
                                 0x20 (size before relaxing)
 .xt.lit        0x000010c0        0x0 c:/Espressif/ESP8266_SDK_200/lib\libnet80211.a(ieee80211_rfid.o)
                                 0x30 (size before relaxing)
 .xt.lit        0x000010c0       0x48 c:/Espressif/ESP8266_SDK_200/lib\libnet80211.a(ieee80211_scan.o)
                                 0xd8 (size before relaxing)
 .xt.lit        0x00001108       0x38 c:/Espressif/ESP8266_SDK_200/lib\libnet80211.a(ieee80211_sta.o)
                                 0x68 (size before relaxing)
 .xt.lit        0x00001140       0x20 c:/Espressif/ESP8266_SDK_200/lib\libnet80211.a(wl_chm.o)
                                 0x60 (size before relaxing)
 .xt.lit        0x00001160       0x98 c:/Espressif/ESP8266_SDK_200/lib\libnet80211.a(wl_cnx.o)
                                0x140 (size before relaxing)
 .xt.lit        0x000011f8       0x20 c:/Espressif/ESP8266_SDK_200/lib\libnet80211.a(ieee80211_action.o)
                                 0x30 (size before relaxing)
 .xt.lit        0x00001218       0x20 c:/Espressif/ESP8266_SDK_200/lib\libnet80211.a(ieee80211_action_vendor.o)
                                 0x60 (size before relaxing)
 .xt.lit        0x00001238        0x0 c:/Espressif/ESP8266_SDK_200/lib\libnet80211.a(ieee80211_crypto_ccmp.o)
                                 0x10 (size before relaxing)
 .xt.lit        0x00001238        0x8 c:/Espressif/ESP8266_SDK_200/lib\libnet80211.a(ieee80211_ie_vendor.o)
                                 0x38 (size before relaxing)
 .xt.lit        0x00001240       0x50 c:/Espressif/ESP8266_SDK_200/lib\liblwip.a(dhcp.o)
                                 0xc0 (size before relaxing)
 .xt.lit        0x00001290       0x30 c:/Espressif/ESP8266_SDK_200/lib\liblwip.a(dhcpserver.o)
                                 0xa8 (size before relaxing)
 .xt.lit        0x000012c0       0x20 c:/Espressif/ESP8266_SDK_200/lib\liblwip.a(dns.o)
                                 0x48 (size before relaxing)
 .xt.lit        0x000012e0       0x30 c:/Espressif/ESP8266_SDK_200/lib\liblwip.a(espconn.o)
                                 0xf0 (size before relaxing)
 .xt.lit        0x00001310       0x80 c:/Espressif/ESP8266_SDK_200/lib\liblwip.a(espconn_tcp.o)
                                 0xd0 (size before relaxing)
 .xt.lit        0x00001390       0x18 c:/Espressif/ESP8266_SDK_200/lib\liblwip.a(espconn_udp.o)
                                 0x38 (size before relaxing)
 .xt.lit        0x000013a8       0x30 c:/Espressif/ESP8266_SDK_200/lib\liblwip.a(etharp.o)
                                 0x78 (size before relaxing)
 .xt.lit        0x000013d8       0x18 c:/Espressif/ESP8266_SDK_200/lib\liblwip.a(igmp.o)
                                 0x70 (size before relaxing)
 .xt.lit        0x000013f0        0x8 c:/Espressif/ESP8266_SDK_200/lib\liblwip.a(init.o)
 .xt.lit        0x000013f8        0x8 c:/Espressif/ESP8266_SDK_200/lib\liblwip.a(ip_addr.o)
                                 0x20 (size before relaxing)
 .xt.lit        0x00001400       0x10 c:/Espressif/ESP8266_SDK_200/lib\liblwip.a(ip.o)
                                 0x20 (size before relaxing)
 .xt.lit        0x00001410       0x10 c:/Espressif/ESP8266_SDK_200/lib\liblwip.a(netif.o)
                                 0x40 (size before relaxing)
 .xt.lit        0x00001420       0x10 c:/Espressif/ESP8266_SDK_200/lib\liblwip.a(pbuf.o)
                                 0x48 (size before relaxing)
 .xt.lit        0x00001430       0x10 c:/Espressif/ESP8266_SDK_200/lib\liblwip.a(raw.o)
                                 0x20 (size before relaxing)
 .xt.lit        0x00001440       0x18 c:/Espressif/ESP8266_SDK_200/lib\liblwip.a(tcp_in.o)
                                 0x38 (size before relaxing)
 .xt.lit        0x00001458       0x50 c:/Espressif/ESP8266_SDK_200/lib\liblwip.a(tcp.o)
                                 0xb8 (size before relaxing)
 .xt.lit        0x000014a8       0x28 c:/Espressif/ESP8266_SDK_200/lib\liblwip.a(tcp_out.o)
                                 0x68 (size before relaxing)
 .xt.lit        0x000014d0       0x48 c:/Espressif/ESP8266_SDK_200/lib\liblwip.a(timers.o)
                                 0x68 (size before relaxing)
 .xt.lit        0x00001518       0x18 c:/Espressif/ESP8266_SDK_200/lib\liblwip.a(udp.o)
                                 0x38 (size before relaxing)
 .xt.lit        0x00001530       0x38 c:/Espressif/ESP8266_SDK_200/lib\liblwip.a(espconn_buf.o)
 .xt.lit        0x00001568        0x8 c:/Espressif/ESP8266_SDK_200/lib\liblwip.a(icmp.o)
                                 0x10 (size before relaxing)
 .xt.lit        0x00001570       0x18 c:/Espressif/ESP8266_SDK_200/lib\libwpa.a(ap_config.o)
                                 0x40 (size before relaxing)
 .xt.lit        0x00001588       0x10 c:/Espressif/ESP8266_SDK_200/lib\libwpa.a(common.o)
                                 0x18 (size before relaxing)
 .xt.lit        0x00001598        0x8 c:/Espressif/ESP8266_SDK_200/lib\libwpa.a(os_xtensa.o)
                                 0x10 (size before relaxing)
 .xt.lit        0x000015a0       0x70 c:/Espressif/ESP8266_SDK_200/lib\libwpa.a(wpa_auth.o)
                                0x100 (size before relaxing)
 .xt.lit        0x00001610       0x10 c:/Espressif/ESP8266_SDK_200/lib\libwpa.a(wpa_auth_ie.o)
                                 0x38 (size before relaxing)
 .xt.lit        0x00001620       0x38 c:/Espressif/ESP8266_SDK_200/lib\libwpa.a(wpa.o)
                                0x110 (size before relaxing)
 .xt.lit        0x00001658       0x28 c:/Espressif/ESP8266_SDK_200/lib\libwpa.a(wpa_common.o)
                                 0x58 (size before relaxing)
 .xt.lit        0x00001680        0x8 c:/Espressif/ESP8266_SDK_200/lib\libwpa.a(wpa_debug.o)
 .xt.lit        0x00001688        0x0 c:/Espressif/ESP8266_SDK_200/lib\libwpa.a(wpa_ie.o)
                                 0x18 (size before relaxing)
 .xt.lit        0x00001688       0x18 c:/Espressif/ESP8266_SDK_200/lib\libwpa.a(wpa_main.o)
                                 0x48 (size before relaxing)
 .xt.lit        0x000016a0        0x0 c:/Espressif/ESP8266_SDK_200/lib\libwpa.a(wpas_glue.o)
                                 0x10 (size before relaxing)
 .xt.lit        0x000016a0       0x58 c:/Espressif/ESP8266_SDK_200/lib\libsmartconfig.a(sc_sniffer.o)
                                 0x68 (size before relaxing)
 .xt.lit        0x000016f8       0x68 c:/Espressif/ESP8266_SDK_200/lib\libsmartconfig.a(sc_airkiss.o)
                                 0x90 (size before relaxing)
 .xt.lit        0x00001760       0x50 c:/Espressif/ESP8266_SDK_200/lib\libsmartconfig.a(sc_esptouch.o)
                                 0x68 (size before relaxing)
 .xt.lit        0x000017b0        0x8 c:/Espressif/ESP8266_SDK_200/lib\libcrypto.a(aes-wrap.o)
 .xt.lit        0x000017b8       0x10 c:/Espressif/ESP8266_SDK_200/lib\libcrypto.a(aes-internal-enc.o)
                                 0x18 (size before relaxing)
 .xt.lit        0x000017c8        0x8 c:/Espressif/ESP8266_SDK_200/lib\libcrypto.a(aes-internal.o)
 .xt.lit        0x000017d0       0x10 c:/Espressif/ESP8266_SDK_200/lib\libnet80211.a(ieee80211_crypto_tkip.o)
 .xt.lit        0x000017e0        0x0 c:/Espressif/ESP8266_SDK_200/lib\libnet80211.a(ieee80211_crypto_wep.o)
                                  0x8 (size before relaxing)

.comment        0x00000000     0x1c9a
 .comment       0x00000000       0x55 c:/Espressif/ESP8266_SDK_200/lib\libmain.a(app_main.o)
                                 0x56 (size before relaxing)
 .comment       0x00000055       0x56 c:/Espressif/ESP8266_SDK_200/lib\libmain.a(ets_timer.o)
                                 0x57 (size before relaxing)
 .comment       0x000000ab       0x58 c:/Espressif/ESP8266_SDK_200/lib\libmain.a(mem_manager.o)
                                 0x59 (size before relaxing)
 .comment       0x00000103       0x56 c:/Espressif/ESP8266_SDK_200/lib\libmain.a(spi_flash.o)
                                 0x57 (size before relaxing)
 .comment       0x00000159       0x5b c:/Espressif/ESP8266_SDK_200/lib\libmain.a(user_interface.o)
                                 0x5c (size before relaxing)
 .comment       0x000001b4       0x56 c:/Espressif/ESP8266_SDK_200/lib\libmain.a(eagle_lib.o)
                                 0x57 (size before relaxing)
 .comment       0x0000020a       0x5a c:/Espressif/ESP8266_SDK_200/lib\libmain.a(eagle_lwip_if.o)
                                 0x5b (size before relaxing)
 .comment       0x00000264       0x11 build/debug/app_app.a(user_main.o)
                                 0x12 (size before relaxing)
 .comment       0x00000000       0x12 build/debug/app_app.a(config.o)
 .comment       0x00000000       0x12 build/debug/app_app.a(io.o)
 .comment       0x00000000       0x12 build/debug/app_app.a(switch.o)
 .comment       0x00000000       0x12 build/debug/app_app.a(http.o)
 .comment       0x00000000       0x12 build/debug/app_app.a(easygpio.o)
 .comment       0x00000000       0x12 build/debug/app_app.a(wifi.o)
 .comment       0x00000000       0x12 build/debug/app_app.a(flash.o)
 .comment       0x00000000       0x12 build/debug/app_app.a(doSmartConfig.o)
 .comment       0x00000000       0x12 build/debug/app_app.a(stdout.o)
 .comment       0x00000000       0x12 build/debug/app_app.a(check.o)
 .comment       0x00000000       0x12 build/debug/app_app.a(mqtt.o)
 .comment       0x00000000       0x12 build/debug/app_app.a(publish.o)
 .comment       0x00000000       0x12 build/debug/app_app.a(temperature.o)
 .comment       0x00000000       0x12 build/debug/app_app.a(dht22.o)
 .comment       0x00000000       0x12 build/debug/app_app.a(ds18b20.o)
 .comment       0x00000000       0x12 build/debug/app_app.a(decodeMessage.o)
 .comment       0x00000000       0x12 build/debug/app_app.a(jsmn.o)
 .comment       0x00000000       0x12 build/debug/app_app.a(dtoa.o)
 .comment       0x00000000       0x12 build/debug/app_app.a(utils.o)
 .comment       0x00000000       0x12 build/debug/app_app.a(queue.o)
 .comment       0x00000000       0x12 build/debug/app_app.a(mqtt_msg.o)
 .comment       0x00000000       0x12 build/debug/app_app.a(ringbuf.o)
 .comment       0x00000000       0x12 build/debug/app_app.a(proto.o)
 .comment       0x00000000       0x12 c:/espressif/xtensa-lx106-elf/bin/../lib/gcc/xtensa-lx106-elf/5.1.0/../../../../xtensa-lx106-elf/lib\libc.a(lib_a-atoi.o)
 .comment       0x00000000       0x12 c:/espressif/xtensa-lx106-elf/bin/../lib/gcc/xtensa-lx106-elf/5.1.0/../../../../xtensa-lx106-elf/lib\libc.a(lib_a-lcltime.o)
 .comment       0x00000000       0x12 c:/espressif/xtensa-lx106-elf/bin/../lib/gcc/xtensa-lx106-elf/5.1.0/../../../../xtensa-lx106-elf/lib\libc.a(lib_a-lcltime_r.o)
 .comment       0x00000000       0x12 c:/espressif/xtensa-lx106-elf/bin/../lib/gcc/xtensa-lx106-elf/5.1.0/../../../../xtensa-lx106-elf/lib\libc.a(lib_a-mktm_r.o)
 .comment       0x00000000       0x12 c:/espressif/xtensa-lx106-elf/bin/../lib/gcc/xtensa-lx106-elf/5.1.0/../../../../xtensa-lx106-elf/lib\libc.a(lib_a-strtol.o)
 .comment       0x00000000       0x12 c:/espressif/xtensa-lx106-elf/bin/../lib/gcc/xtensa-lx106-elf/5.1.0/../../../../xtensa-lx106-elf/lib\libc.a(lib_a-tzlock.o)
 .comment       0x00000000       0x12 c:/espressif/xtensa-lx106-elf/bin/../lib/gcc/xtensa-lx106-elf/5.1.0/../../../../xtensa-lx106-elf/lib\libc.a(lib_a-tzvars.o)
 .comment       0x00000000       0x12 c:/espressif/xtensa-lx106-elf/bin/../lib/gcc/xtensa-lx106-elf/5.1.0/../../../../xtensa-lx106-elf/lib\libc.a(lib_a-ctype_.o)
 .comment       0x00000000       0x12 c:/espressif/xtensa-lx106-elf/bin/../lib/gcc/xtensa-lx106-elf/5.1.0/../../../../xtensa-lx106-elf/lib\libc.a(lib_a-gettzinfo.o)
 .comment       0x00000000       0x12 c:/espressif/xtensa-lx106-elf/bin/../lib/gcc/xtensa-lx106-elf/5.1.0/../../../../xtensa-lx106-elf/lib\libc.a(lib_a-impure.o)
 .comment       0x00000275       0x41 c:/Espressif/ESP8266_SDK_200/lib\libphy.a(phy.o)
 .comment       0x000002b6       0x4d c:/Espressif/ESP8266_SDK_200/lib\libphy.a(phy_chip_v6_ana.o)
 .comment       0x00000303       0x49 c:/Espressif/ESP8266_SDK_200/lib\libphy.a(phy_chip_v6.o)
 .comment       0x0000034c       0x4d c:/Espressif/ESP8266_SDK_200/lib\libphy.a(phy_chip_v6_cal.o)
 .comment       0x00000399       0x50 c:/Espressif/ESP8266_SDK_200/lib\libphy.a(phy_chip_v6_unused.o)
 .comment       0x000003e9       0x47 c:/Espressif/ESP8266_SDK_200/lib\libphy.a(phy_sleep.o)
 .comment       0x00000430       0x56 c:/Espressif/ESP8266_SDK_200/lib\libpp.a(if_hwctrl.o)
                                 0x57 (size before relaxing)
 .comment       0x00000486       0x51 c:/Espressif/ESP8266_SDK_200/lib\libpp.a(lmac.o)
                                 0x52 (size before relaxing)
 .comment       0x000004d7       0x4f c:/Espressif/ESP8266_SDK_200/lib\libpp.a(pm.o)
                                 0x50 (size before relaxing)
 .comment       0x00000526       0x61 c:/Espressif/ESP8266_SDK_200/lib\libpp.a(pm_for_bcn_only_mode.o)
                                 0x62 (size before relaxing)
 .comment       0x00000587       0x4f c:/Espressif/ESP8266_SDK_200/lib\libpp.a(pp.o)
                                 0x50 (size before relaxing)
 .comment       0x000005d6       0x59 c:/Espressif/ESP8266_SDK_200/lib\libpp.a(rate_control.o)
                                 0x5a (size before relaxing)
 .comment       0x0000062f       0x50 c:/Espressif/ESP8266_SDK_200/lib\libpp.a(trc.o)
                                 0x51 (size before relaxing)
 .comment       0x0000067f       0x51 c:/Espressif/ESP8266_SDK_200/lib\libpp.a(wdev.o)
                                 0x52 (size before relaxing)
 .comment       0x000006d0       0x54 c:/Espressif/ESP8266_SDK_200/lib\libpp.a(esf_buf.o)
                                 0x55 (size before relaxing)
 .comment       0x00000724       0x56 c:/Espressif/ESP8266_SDK_200/lib\libnet80211.a(ieee80211.o)
                                 0x57 (size before relaxing)
 .comment       0x0000077a       0x5d c:/Espressif/ESP8266_SDK_200/lib\libnet80211.a(ieee80211_crypto.o)
                                 0x5e (size before relaxing)
 .comment       0x000007d7       0x5a c:/Espressif/ESP8266_SDK_200/lib\libnet80211.a(ieee80211_ets.o)
                                 0x5b (size before relaxing)
 .comment       0x00000831       0x5d c:/Espressif/ESP8266_SDK_200/lib\libnet80211.a(ieee80211_hostap.o)
                                 0x5e (size before relaxing)
 .comment       0x0000088e       0x59 c:/Espressif/ESP8266_SDK_200/lib\libnet80211.a(ieee80211_ht.o)
                                 0x5a (size before relaxing)
 .comment       0x000008e7       0x5c c:/Espressif/ESP8266_SDK_200/lib\libnet80211.a(ieee80211_input.o)
                                 0x5d (size before relaxing)
 .comment       0x00000943       0x61 c:/Espressif/ESP8266_SDK_200/lib\libnet80211.a(ieee80211_mesh_quick.o)
                                 0x62 (size before relaxing)
 .comment       0x000009a4       0x5d c:/Espressif/ESP8266_SDK_200/lib\libnet80211.a(ieee80211_output.o)
                                 0x5e (size before relaxing)
 .comment       0x00000a01       0x5a c:/Espressif/ESP8266_SDK_200/lib\libnet80211.a(ieee80211_phy.o)
                                 0x5b (size before relaxing)
 .comment       0x00000a5b       0x5c c:/Espressif/ESP8266_SDK_200/lib\libnet80211.a(ieee80211_power.o)
                                 0x5d (size before relaxing)
 .comment       0x00000ab7       0x5c c:/Espressif/ESP8266_SDK_200/lib\libnet80211.a(ieee80211_proto.o)
                                 0x5d (size before relaxing)
 .comment       0x00000b13       0x60 c:/Espressif/ESP8266_SDK_200/lib\libnet80211.a(ieee80211_regdomain.o)
                                 0x61 (size before relaxing)
 .comment       0x00000b73       0x5b c:/Espressif/ESP8266_SDK_200/lib\libnet80211.a(ieee80211_rfid.o)
                                 0x5c (size before relaxing)
 .comment       0x00000bce       0x5b c:/Espressif/ESP8266_SDK_200/lib\libnet80211.a(ieee80211_scan.o)
                                 0x5c (size before relaxing)
 .comment       0x00000c29       0x5a c:/Espressif/ESP8266_SDK_200/lib\libnet80211.a(ieee80211_sta.o)
                                 0x5b (size before relaxing)
 .comment       0x00000c83       0x53 c:/Espressif/ESP8266_SDK_200/lib\libnet80211.a(wl_chm.o)
                                 0x54 (size before relaxing)
 .comment       0x00000cd6       0x53 c:/Espressif/ESP8266_SDK_200/lib\libnet80211.a(wl_cnx.o)
                                 0x54 (size before relaxing)
 .comment       0x00000d29       0x5d c:/Espressif/ESP8266_SDK_200/lib\libnet80211.a(ieee80211_action.o)
                                 0x5e (size before relaxing)
 .comment       0x00000d86       0x64 c:/Espressif/ESP8266_SDK_200/lib\libnet80211.a(ieee80211_action_vendor.o)
                                 0x65 (size before relaxing)
 .comment       0x00000dea       0x62 c:/Espressif/ESP8266_SDK_200/lib\libnet80211.a(ieee80211_crypto_ccmp.o)
                                 0x63 (size before relaxing)
 .comment       0x00000e4c       0x60 c:/Espressif/ESP8266_SDK_200/lib\libnet80211.a(ieee80211_ie_vendor.o)
                                 0x61 (size before relaxing)
 .comment       0x00000eac       0x51 c:/Espressif/ESP8266_SDK_200/lib\liblwip.a(dhcp.o)
                                 0x52 (size before relaxing)
 .comment       0x00000efd       0x57 c:/Espressif/ESP8266_SDK_200/lib\liblwip.a(dhcpserver.o)
                                 0x58 (size before relaxing)
 .comment       0x00000f54       0x50 c:/Espressif/ESP8266_SDK_200/lib\liblwip.a(dns.o)
                                 0x51 (size before relaxing)
 .comment       0x00000fa4       0x54 c:/Espressif/ESP8266_SDK_200/lib\liblwip.a(espconn.o)
                                 0x55 (size before relaxing)
 .comment       0x00000ff8       0x58 c:/Espressif/ESP8266_SDK_200/lib\liblwip.a(espconn_tcp.o)
                                 0x59 (size before relaxing)
 .comment       0x00001050       0x58 c:/Espressif/ESP8266_SDK_200/lib\liblwip.a(espconn_udp.o)
                                 0x59 (size before relaxing)
 .comment       0x000010a8       0x53 c:/Espressif/ESP8266_SDK_200/lib\liblwip.a(etharp.o)
                                 0x54 (size before relaxing)
 .comment       0x000010fb       0x51 c:/Espressif/ESP8266_SDK_200/lib\liblwip.a(igmp.o)
                                 0x52 (size before relaxing)
 .comment       0x0000114c       0x58 c:/Espressif/ESP8266_SDK_200/lib\liblwip.a(inet_chksum.o)
                                 0x59 (size before relaxing)
 .comment       0x000011a4       0x51 c:/Espressif/ESP8266_SDK_200/lib\liblwip.a(init.o)
                                 0x52 (size before relaxing)
 .comment       0x000011f5       0x54 c:/Espressif/ESP8266_SDK_200/lib\liblwip.a(ip_addr.o)
                                 0x55 (size before relaxing)
 .comment       0x00001249       0x4f c:/Espressif/ESP8266_SDK_200/lib\liblwip.a(ip.o)
                                 0x50 (size before relaxing)
 .comment       0x00001298       0x51 c:/Espressif/ESP8266_SDK_200/lib\liblwip.a(memp.o)
                                 0x52 (size before relaxing)
 .comment       0x000012e9       0x52 c:/Espressif/ESP8266_SDK_200/lib\liblwip.a(netif.o)
                                 0x53 (size before relaxing)
 .comment       0x0000133b       0x51 c:/Espressif/ESP8266_SDK_200/lib\liblwip.a(pbuf.o)
                                 0x52 (size before relaxing)
 .comment       0x0000138c       0x50 c:/Espressif/ESP8266_SDK_200/lib\liblwip.a(raw.o)
                                 0x51 (size before relaxing)
 .comment       0x000013dc       0x53 c:/Espressif/ESP8266_SDK_200/lib\liblwip.a(tcp_in.o)
                                 0x54 (size before relaxing)
 .comment       0x0000142f       0x50 c:/Espressif/ESP8266_SDK_200/lib\liblwip.a(tcp.o)
                                 0x51 (size before relaxing)
 .comment       0x0000147f       0x54 c:/Espressif/ESP8266_SDK_200/lib\liblwip.a(tcp_out.o)
                                 0x55 (size before relaxing)
 .comment       0x000014d3       0x53 c:/Espressif/ESP8266_SDK_200/lib\liblwip.a(timers.o)
                                 0x54 (size before relaxing)
 .comment       0x00001526       0x50 c:/Espressif/ESP8266_SDK_200/lib\liblwip.a(udp.o)
                                 0x51 (size before relaxing)
 .comment       0x00001576       0x58 c:/Espressif/ESP8266_SDK_200/lib\liblwip.a(espconn_buf.o)
                                 0x59 (size before relaxing)
 .comment       0x000015ce       0x51 c:/Espressif/ESP8266_SDK_200/lib\liblwip.a(icmp.o)
                                 0x52 (size before relaxing)
 .comment       0x0000161f       0x56 c:/Espressif/ESP8266_SDK_200/lib\libwpa.a(ap_config.o)
                                 0x57 (size before relaxing)
 .comment       0x00001675       0x53 c:/Espressif/ESP8266_SDK_200/lib\libwpa.a(common.o)
                                 0x54 (size before relaxing)
 .comment       0x000016c8       0x56 c:/Espressif/ESP8266_SDK_200/lib\libwpa.a(os_xtensa.o)
                                 0x57 (size before relaxing)
 .comment       0x0000171e       0x55 c:/Espressif/ESP8266_SDK_200/lib\libwpa.a(wpa_auth.o)
                                 0x56 (size before relaxing)
 .comment       0x00001773       0x58 c:/Espressif/ESP8266_SDK_200/lib\libwpa.a(wpa_auth_ie.o)
                                 0x59 (size before relaxing)
 .comment       0x000017cb       0x50 c:/Espressif/ESP8266_SDK_200/lib\libwpa.a(wpa.o)
                                 0x51 (size before relaxing)
 .comment       0x0000181b       0x57 c:/Espressif/ESP8266_SDK_200/lib\libwpa.a(wpa_common.o)
                                 0x58 (size before relaxing)
 .comment       0x00001872       0x56 c:/Espressif/ESP8266_SDK_200/lib\libwpa.a(wpa_debug.o)
                                 0x57 (size before relaxing)
 .comment       0x000018c8       0x53 c:/Espressif/ESP8266_SDK_200/lib\libwpa.a(wpa_ie.o)
                                 0x54 (size before relaxing)
 .comment       0x0000191b       0x55 c:/Espressif/ESP8266_SDK_200/lib\libwpa.a(wpa_main.o)
                                 0x56 (size before relaxing)
 .comment       0x00001970       0x56 c:/Espressif/ESP8266_SDK_200/lib\libwpa.a(wpas_glue.o)
                                 0x57 (size before relaxing)
 .comment       0x000019c6       0x57 c:/Espressif/ESP8266_SDK_200/lib\libsmartconfig.a(sc_sniffer.o)
                                 0x58 (size before relaxing)
 .comment       0x00001a1d       0x57 c:/Espressif/ESP8266_SDK_200/lib\libsmartconfig.a(sc_airkiss.o)
                                 0x58 (size before relaxing)
 .comment       0x00001a74       0x58 c:/Espressif/ESP8266_SDK_200/lib\libsmartconfig.a(sc_esptouch.o)
                                 0x59 (size before relaxing)
 .comment       0x00001acc       0x55 c:/Espressif/ESP8266_SDK_200/lib\libcrypto.a(aes-wrap.o)
                                 0x56 (size before relaxing)
 .comment       0x00001b21       0x5d c:/Espressif/ESP8266_SDK_200/lib\libcrypto.a(aes-internal-enc.o)
                                 0x5e (size before relaxing)
 .comment       0x00001b7e       0x59 c:/Espressif/ESP8266_SDK_200/lib\libcrypto.a(aes-internal.o)
                                 0x5a (size before relaxing)
 .comment       0x00000000       0x12 c:/espressif/xtensa-lx106-elf/bin/../lib/gcc/xtensa-lx106-elf/5.1.0/../../../../xtensa-lx106-elf/lib\libc.a(lib_a-memchr.o)
 .comment       0x00001bd7       0x62 c:/Espressif/ESP8266_SDK_200/lib\libnet80211.a(ieee80211_crypto_tkip.o)
                                 0x63 (size before relaxing)
 .comment       0x00001c39       0x61 c:/Espressif/ESP8266_SDK_200/lib\libnet80211.a(ieee80211_crypto_wep.o)
                                 0x62 (size before relaxing)

.debug_frame    0x00000000     0x1ddc
 .debug_frame   0x00000000      0x39c build/debug/app_app.a(user_main.o)
 .debug_frame   0x0000039c       0xc8 build/debug/app_app.a(config.o)
 .debug_frame   0x00000464      0x1f4 build/debug/app_app.a(io.o)
 .debug_frame   0x00000658       0x58 build/debug/app_app.a(switch.o)
 .debug_frame   0x000006b0      0x1c8 build/debug/app_app.a(http.o)
 .debug_frame   0x00000878      0x144 build/debug/app_app.a(easygpio.o)
 .debug_frame   0x000009bc      0x12c build/debug/app_app.a(wifi.o)
 .debug_frame   0x00000ae8       0xd4 build/debug/app_app.a(flash.o)
 .debug_frame   0x00000bbc       0x50 build/debug/app_app.a(doSmartConfig.o)
 .debug_frame   0x00000c0c       0x40 build/debug/app_app.a(stdout.o)
 .debug_frame   0x00000c4c       0xe4 build/debug/app_app.a(check.o)
 .debug_frame   0x00000d30      0x338 build/debug/app_app.a(mqtt.o)
 .debug_frame   0x00001068      0x184 build/debug/app_app.a(publish.o)
 .debug_frame   0x000011ec      0x27c build/debug/app_app.a(temperature.o)
 .debug_frame   0x00001468       0xc8 build/debug/app_app.a(dht22.o)
 .debug_frame   0x00001530      0x18c build/debug/app_app.a(ds18b20.o)
 .debug_frame   0x000016bc       0x38 build/debug/app_app.a(decodeMessage.o)
 .debug_frame   0x000016f4       0x90 build/debug/app_app.a(jsmn.o)
 .debug_frame   0x00001784       0x38 build/debug/app_app.a(dtoa.o)
 .debug_frame   0x000017bc       0x50 build/debug/app_app.a(utils.o)
 .debug_frame   0x0000180c       0x8c build/debug/app_app.a(queue.o)
 .debug_frame   0x00001898      0x240 build/debug/app_app.a(mqtt_msg.o)
 .debug_frame   0x00001ad8       0x40 build/debug/app_app.a(ringbuf.o)
 .debug_frame   0x00001b18       0xe8 build/debug/app_app.a(proto.o)
 .debug_frame   0x00001c00       0x50 c:/espressif/xtensa-lx106-elf/bin/../lib/gcc/xtensa-lx106-elf/5.1.0/../../../../xtensa-lx106-elf/lib\libc.a(lib_a-atoi.o)
 .debug_frame   0x00001c50       0x30 c:/espressif/xtensa-lx106-elf/bin/../lib/gcc/xtensa-lx106-elf/5.1.0/../../../../xtensa-lx106-elf/lib\libc.a(lib_a-lcltime.o)
 .debug_frame   0x00001c80       0x30 c:/espressif/xtensa-lx106-elf/bin/../lib/gcc/xtensa-lx106-elf/5.1.0/../../../../xtensa-lx106-elf/lib\libc.a(lib_a-lcltime_r.o)
 .debug_frame   0x00001cb0       0x60 c:/espressif/xtensa-lx106-elf/bin/../lib/gcc/xtensa-lx106-elf/5.1.0/../../../../xtensa-lx106-elf/lib\libc.a(lib_a-mktm_r.o)
 .debug_frame   0x00001d10       0x5c c:/espressif/xtensa-lx106-elf/bin/../lib/gcc/xtensa-lx106-elf/5.1.0/../../../../xtensa-lx106-elf/lib\libc.a(lib_a-strtol.o)
 .debug_frame   0x00001d6c       0x30 c:/espressif/xtensa-lx106-elf/bin/../lib/gcc/xtensa-lx106-elf/5.1.0/../../../../xtensa-lx106-elf/lib\libc.a(lib_a-tzlock.o)
 .debug_frame   0x00001d9c       0x20 c:/espressif/xtensa-lx106-elf/bin/../lib/gcc/xtensa-lx106-elf/5.1.0/../../../../xtensa-lx106-elf/lib\libc.a(lib_a-gettzinfo.o)
 .debug_frame   0x00001dbc       0x20 c:/espressif/xtensa-lx106-elf/bin/../lib/gcc/xtensa-lx106-elf/5.1.0/../../../../xtensa-lx106-elf/lib\libc.a(lib_a-memchr.o)

.debug_info     0x00000000    0x17001
 .debug_info    0x00000000     0x2d90 build/debug/app_app.a(user_main.o)
 .debug_info    0x00002d90      0x842 build/debug/app_app.a(config.o)
 .debug_info    0x000035d2      0xe57 build/debug/app_app.a(io.o)
 .debug_info    0x00004429      0x36e build/debug/app_app.a(switch.o)
 .debug_info    0x00004797     0x16a1 build/debug/app_app.a(http.o)
 .debug_info    0x00005e38      0x858 build/debug/app_app.a(easygpio.o)
 .debug_info    0x00006690     0x1100 build/debug/app_app.a(wifi.o)
 .debug_info    0x00007790      0x686 build/debug/app_app.a(flash.o)
 .debug_info    0x00007e16      0x687 build/debug/app_app.a(doSmartConfig.o)
 .debug_info    0x0000849d      0x230 build/debug/app_app.a(stdout.o)
 .debug_info    0x000086cd      0x385 build/debug/app_app.a(check.o)
 .debug_info    0x00008a52     0x26ab build/debug/app_app.a(mqtt.o)
 .debug_info    0x0000b0fd     0x20f1 build/debug/app_app.a(publish.o)
 .debug_info    0x0000d1ee     0x146d build/debug/app_app.a(temperature.o)
 .debug_info    0x0000e65b      0xb68 build/debug/app_app.a(dht22.o)
 .debug_info    0x0000f1c3      0x8c3 build/debug/app_app.a(ds18b20.o)
 .debug_info    0x0000fa86     0x14bc build/debug/app_app.a(decodeMessage.o)
 .debug_info    0x00010f42      0x726 build/debug/app_app.a(jsmn.o)
 .debug_info    0x00011668      0x1ea build/debug/app_app.a(dtoa.o)
 .debug_info    0x00011852      0x1e9 build/debug/app_app.a(utils.o)
 .debug_info    0x00011a3b      0x38f build/debug/app_app.a(queue.o)
 .debug_info    0x00011dca     0x1333 build/debug/app_app.a(mqtt_msg.o)
 .debug_info    0x000130fd      0x1b3 build/debug/app_app.a(ringbuf.o)
 .debug_info    0x000132b0      0x4e7 build/debug/app_app.a(proto.o)
 .debug_info    0x00013797      0x941 c:/espressif/xtensa-lx106-elf/bin/../lib/gcc/xtensa-lx106-elf/5.1.0/../../../../xtensa-lx106-elf/lib\libc.a(lib_a-atoi.o)
 .debug_info    0x000140d8      0x959 c:/espressif/xtensa-lx106-elf/bin/../lib/gcc/xtensa-lx106-elf/5.1.0/../../../../xtensa-lx106-elf/lib\libc.a(lib_a-lcltime.o)
 .debug_info    0x00014a31      0x185 c:/espressif/xtensa-lx106-elf/bin/../lib/gcc/xtensa-lx106-elf/5.1.0/../../../../xtensa-lx106-elf/lib\libc.a(lib_a-lcltime_r.o)
 .debug_info    0x00014bb6       0xbc c:/espressif/xtensa-lx106-elf/bin/../lib/gcc/xtensa-lx106-elf/5.1.0/../../../../xtensa-lx106-elf/lib\libc.a(lib_a-memcpy.o)
 .debug_info    0x00014c72       0xbc c:/espressif/xtensa-lx106-elf/bin/../lib/gcc/xtensa-lx106-elf/5.1.0/../../../../xtensa-lx106-elf/lib\libc.a(lib_a-memset.o)
 .debug_info    0x00014d2e      0x440 c:/espressif/xtensa-lx106-elf/bin/../lib/gcc/xtensa-lx106-elf/5.1.0/../../../../xtensa-lx106-elf/lib\libc.a(lib_a-mktm_r.o)
 .debug_info    0x0001516e       0xbc c:/espressif/xtensa-lx106-elf/bin/../lib/gcc/xtensa-lx106-elf/5.1.0/../../../../xtensa-lx106-elf/lib\libc.a(lib_a-strcmp.o)
 .debug_info    0x0001522a       0xbc c:/espressif/xtensa-lx106-elf/bin/../lib/gcc/xtensa-lx106-elf/5.1.0/../../../../xtensa-lx106-elf/lib\libc.a(lib_a-strlen.o)
 .debug_info    0x000152e6      0x9a9 c:/espressif/xtensa-lx106-elf/bin/../lib/gcc/xtensa-lx106-elf/5.1.0/../../../../xtensa-lx106-elf/lib\libc.a(lib_a-strtol.o)
 .debug_info    0x00015c8f       0xa4 c:/espressif/xtensa-lx106-elf/bin/../lib/gcc/xtensa-lx106-elf/5.1.0/../../../../xtensa-lx106-elf/lib\libc.a(lib_a-tzlock.o)
 .debug_info    0x00015d33       0xc2 c:/espressif/xtensa-lx106-elf/bin/../lib/gcc/xtensa-lx106-elf/5.1.0/../../../../xtensa-lx106-elf/lib\libc.a(lib_a-tzvars.o)
 .debug_info    0x00015df5       0x6f c:/espressif/xtensa-lx106-elf/bin/../lib/gcc/xtensa-lx106-elf/5.1.0/../../../../xtensa-lx106-elf/lib\libc.a(lib_a-ctype_.o)
 .debug_info    0x00015e64      0x167 c:/espressif/xtensa-lx106-elf/bin/../lib/gcc/xtensa-lx106-elf/5.1.0/../../../../xtensa-lx106-elf/lib\libc.a(lib_a-gettzinfo.o)
 .debug_info    0x00015fcb      0x894 c:/espressif/xtensa-lx106-elf/bin/../lib/gcc/xtensa-lx106-elf/5.1.0/../../../../xtensa-lx106-elf/lib\libc.a(lib_a-impure.o)
 .debug_info    0x0001685f       0xf3 c:/Espressif/ESP8266_SDK_200/lib\libgcc.a(_modsi3.o)
 .debug_info    0x00016952       0xf4 c:/Espressif/ESP8266_SDK_200/lib\libgcc.a(_mulsf3.o)
 .debug_info    0x00016a46       0xf4 c:/Espressif/ESP8266_SDK_200/lib\libgcc.a(_divsf3.o)
 .debug_info    0x00016b3a       0xf4 c:/Espressif/ESP8266_SDK_200/lib\libgcc.a(_cmpsf2.o)
 .debug_info    0x00016c2e       0xf4 c:/Espressif/ESP8266_SDK_200/lib\libgcc.a(_fixsfsi.o)
 .debug_info    0x00016d22       0xf4 c:/Espressif/ESP8266_SDK_200/lib\libgcc.a(_cmpdf2.o)
 .debug_info    0x00016e16       0xf8 c:/espressif/xtensa-lx106-elf/bin/../lib/gcc/xtensa-lx106-elf/5.1.0/../../../../xtensa-lx106-elf/lib\libc.a(lib_a-memchr.o)
 .debug_info    0x00016f0e       0xf3 c:/Espressif/ESP8266_SDK_200/lib\libgcc.a(_ashrdi3.o)

.debug_abbrev   0x00000000     0x4438
 .debug_abbrev  0x00000000      0x54d build/debug/app_app.a(user_main.o)
 .debug_abbrev  0x0000054d      0x1af build/debug/app_app.a(config.o)
 .debug_abbrev  0x000006fc      0x291 build/debug/app_app.a(io.o)
 .debug_abbrev  0x0000098d      0x1ac build/debug/app_app.a(switch.o)
 .debug_abbrev  0x00000b39      0x371 build/debug/app_app.a(http.o)
 .debug_abbrev  0x00000eaa      0x252 build/debug/app_app.a(easygpio.o)
 .debug_abbrev  0x000010fc      0x2b5 build/debug/app_app.a(wifi.o)
 .debug_abbrev  0x000013b1      0x1a1 build/debug/app_app.a(flash.o)
 .debug_abbrev  0x00001552      0x232 build/debug/app_app.a(doSmartConfig.o)
 .debug_abbrev  0x00001784      0x13d build/debug/app_app.a(stdout.o)
 .debug_abbrev  0x000018c1      0x122 build/debug/app_app.a(check.o)
 .debug_abbrev  0x000019e3      0x3e1 build/debug/app_app.a(mqtt.o)
 .debug_abbrev  0x00001dc4      0x2cd build/debug/app_app.a(publish.o)
 .debug_abbrev  0x00002091      0x428 build/debug/app_app.a(temperature.o)
 .debug_abbrev  0x000024b9      0x30f build/debug/app_app.a(dht22.o)
 .debug_abbrev  0x000027c8      0x28c build/debug/app_app.a(ds18b20.o)
 .debug_abbrev  0x00002a54      0x2ea build/debug/app_app.a(decodeMessage.o)
 .debug_abbrev  0x00002d3e      0x287 build/debug/app_app.a(jsmn.o)
 .debug_abbrev  0x00002fc5       0xe5 build/debug/app_app.a(dtoa.o)
 .debug_abbrev  0x000030aa       0x9e build/debug/app_app.a(utils.o)
 .debug_abbrev  0x00003148      0x132 build/debug/app_app.a(queue.o)
 .debug_abbrev  0x0000327a      0x27c build/debug/app_app.a(mqtt_msg.o)
 .debug_abbrev  0x000034f6       0xe2 build/debug/app_app.a(ringbuf.o)
 .debug_abbrev  0x000035d8      0x1df build/debug/app_app.a(proto.o)
 .debug_abbrev  0x000037b7      0x1ce c:/espressif/xtensa-lx106-elf/bin/../lib/gcc/xtensa-lx106-elf/5.1.0/../../../../xtensa-lx106-elf/lib\libc.a(lib_a-atoi.o)
 .debug_abbrev  0x00003985      0x1d9 c:/espressif/xtensa-lx106-elf/bin/../lib/gcc/xtensa-lx106-elf/5.1.0/../../../../xtensa-lx106-elf/lib\libc.a(lib_a-lcltime.o)
 .debug_abbrev  0x00003b5e       0xd0 c:/espressif/xtensa-lx106-elf/bin/../lib/gcc/xtensa-lx106-elf/5.1.0/../../../../xtensa-lx106-elf/lib\libc.a(lib_a-lcltime_r.o)
 .debug_abbrev  0x00003c2e       0x14 c:/espressif/xtensa-lx106-elf/bin/../lib/gcc/xtensa-lx106-elf/5.1.0/../../../../xtensa-lx106-elf/lib\libc.a(lib_a-memcpy.o)
 .debug_abbrev  0x00003c42       0x14 c:/espressif/xtensa-lx106-elf/bin/../lib/gcc/xtensa-lx106-elf/5.1.0/../../../../xtensa-lx106-elf/lib\libc.a(lib_a-memset.o)
 .debug_abbrev  0x00003c56      0x150 c:/espressif/xtensa-lx106-elf/bin/../lib/gcc/xtensa-lx106-elf/5.1.0/../../../../xtensa-lx106-elf/lib\libc.a(lib_a-mktm_r.o)
 .debug_abbrev  0x00003da6       0x14 c:/espressif/xtensa-lx106-elf/bin/../lib/gcc/xtensa-lx106-elf/5.1.0/../../../../xtensa-lx106-elf/lib\libc.a(lib_a-strcmp.o)
 .debug_abbrev  0x00003dba       0x14 c:/espressif/xtensa-lx106-elf/bin/../lib/gcc/xtensa-lx106-elf/5.1.0/../../../../xtensa-lx106-elf/lib\libc.a(lib_a-strlen.o)
 .debug_abbrev  0x00003dce      0x211 c:/espressif/xtensa-lx106-elf/bin/../lib/gcc/xtensa-lx106-elf/5.1.0/../../../../xtensa-lx106-elf/lib\libc.a(lib_a-strtol.o)
 .debug_abbrev  0x00003fdf       0x5a c:/espressif/xtensa-lx106-elf/bin/../lib/gcc/xtensa-lx106-elf/5.1.0/../../../../xtensa-lx106-elf/lib\libc.a(lib_a-tzlock.o)
 .debug_abbrev  0x00004039       0x52 c:/espressif/xtensa-lx106-elf/bin/../lib/gcc/xtensa-lx106-elf/5.1.0/../../../../xtensa-lx106-elf/lib\libc.a(lib_a-tzvars.o)
 .debug_abbrev  0x0000408b       0x4e c:/espressif/xtensa-lx106-elf/bin/../lib/gcc/xtensa-lx106-elf/5.1.0/../../../../xtensa-lx106-elf/lib\libc.a(lib_a-ctype_.o)
 .debug_abbrev  0x000040d9       0xa8 c:/espressif/xtensa-lx106-elf/bin/../lib/gcc/xtensa-lx106-elf/5.1.0/../../../../xtensa-lx106-elf/lib\libc.a(lib_a-gettzinfo.o)
 .debug_abbrev  0x00004181      0x180 c:/espressif/xtensa-lx106-elf/bin/../lib/gcc/xtensa-lx106-elf/5.1.0/../../../../xtensa-lx106-elf/lib\libc.a(lib_a-impure.o)
 .debug_abbrev  0x00004301       0x14 c:/Espressif/ESP8266_SDK_200/lib\libgcc.a(_modsi3.o)
 .debug_abbrev  0x00004315       0x14 c:/Espressif/ESP8266_SDK_200/lib\libgcc.a(_mulsf3.o)
 .debug_abbrev  0x00004329       0x14 c:/Espressif/ESP8266_SDK_200/lib\libgcc.a(_divsf3.o)
 .debug_abbrev  0x0000433d       0x14 c:/Espressif/ESP8266_SDK_200/lib\libgcc.a(_cmpsf2.o)
 .debug_abbrev  0x00004351       0x14 c:/Espressif/ESP8266_SDK_200/lib\libgcc.a(_fixsfsi.o)
 .debug_abbrev  0x00004365       0x14 c:/Espressif/ESP8266_SDK_200/lib\libgcc.a(_cmpdf2.o)
 .debug_abbrev  0x00004379       0xab c:/espressif/xtensa-lx106-elf/bin/../lib/gcc/xtensa-lx106-elf/5.1.0/../../../../xtensa-lx106-elf/lib\libc.a(lib_a-memchr.o)
 .debug_abbrev  0x00004424       0x14 c:/Espressif/ESP8266_SDK_200/lib\libgcc.a(_ashrdi3.o)

.debug_loc      0x00000000     0x83fc
 .debug_loc     0x00000000      0x88d build/debug/app_app.a(user_main.o)
 .debug_loc     0x0000088d       0x14 build/debug/app_app.a(config.o)
 .debug_loc     0x000008a1      0x52a build/debug/app_app.a(io.o)
 .debug_loc     0x00000dcb       0x67 build/debug/app_app.a(switch.o)
 .debug_loc     0x00000e32      0x73f build/debug/app_app.a(http.o)
 .debug_loc     0x00001571      0x5d2 build/debug/app_app.a(easygpio.o)
 .debug_loc     0x00001b43      0x2ab build/debug/app_app.a(wifi.o)
 .debug_loc     0x00001dee      0x1e4 build/debug/app_app.a(flash.o)
 .debug_loc     0x00001fd2       0xe8 build/debug/app_app.a(doSmartConfig.o)
 .debug_loc     0x000020ba      0x23b build/debug/app_app.a(check.o)
 .debug_loc     0x000022f5      0xa62 build/debug/app_app.a(mqtt.o)
 .debug_loc     0x00002d57      0x53a build/debug/app_app.a(publish.o)
 .debug_loc     0x00003291      0xad0 build/debug/app_app.a(temperature.o)
 .debug_loc     0x00003d61      0x5f4 build/debug/app_app.a(dht22.o)
 .debug_loc     0x00004355      0x68e build/debug/app_app.a(ds18b20.o)
 .debug_loc     0x000049e3      0x52b build/debug/app_app.a(decodeMessage.o)
 .debug_loc     0x00004f0e      0x940 build/debug/app_app.a(jsmn.o)
 .debug_loc     0x0000584e      0x41b build/debug/app_app.a(dtoa.o)
 .debug_loc     0x00005c69      0x329 build/debug/app_app.a(utils.o)
 .debug_loc     0x00005f92      0x17a build/debug/app_app.a(queue.o)
 .debug_loc     0x0000610c     0x13e1 build/debug/app_app.a(mqtt_msg.o)
 .debug_loc     0x000074ed       0xd7 build/debug/app_app.a(ringbuf.o)
 .debug_loc     0x000075c4      0x4e6 build/debug/app_app.a(proto.o)
 .debug_loc     0x00007aaa       0x63 c:/espressif/xtensa-lx106-elf/bin/../lib/gcc/xtensa-lx106-elf/5.1.0/../../../../xtensa-lx106-elf/lib\libc.a(lib_a-atoi.o)
 .debug_loc     0x00007b0d       0x21 c:/espressif/xtensa-lx106-elf/bin/../lib/gcc/xtensa-lx106-elf/5.1.0/../../../../xtensa-lx106-elf/lib\libc.a(lib_a-lcltime.o)
 .debug_loc     0x00007b2e       0x42 c:/espressif/xtensa-lx106-elf/bin/../lib/gcc/xtensa-lx106-elf/5.1.0/../../../../xtensa-lx106-elf/lib\libc.a(lib_a-lcltime_r.o)
 .debug_loc     0x00007b70      0x476 c:/espressif/xtensa-lx106-elf/bin/../lib/gcc/xtensa-lx106-elf/5.1.0/../../../../xtensa-lx106-elf/lib\libc.a(lib_a-mktm_r.o)
 .debug_loc     0x00007fe6      0x38b c:/espressif/xtensa-lx106-elf/bin/../lib/gcc/xtensa-lx106-elf/5.1.0/../../../../xtensa-lx106-elf/lib\libc.a(lib_a-strtol.o)
 .debug_loc     0x00008371       0x8b c:/espressif/xtensa-lx106-elf/bin/../lib/gcc/xtensa-lx106-elf/5.1.0/../../../../xtensa-lx106-elf/lib\libc.a(lib_a-memchr.o)

.debug_aranges  0x00000000      0xb40
 .debug_aranges
                0x00000000       0xe8 build/debug/app_app.a(user_main.o)
 .debug_aranges
                0x000000e8       0x48 build/debug/app_app.a(config.o)
 .debug_aranges
                0x00000130       0x80 build/debug/app_app.a(io.o)
 .debug_aranges
                0x000001b0       0x28 build/debug/app_app.a(switch.o)
 .debug_aranges
                0x000001d8       0x78 build/debug/app_app.a(http.o)
 .debug_aranges
                0x00000250       0x60 build/debug/app_app.a(easygpio.o)
 .debug_aranges
                0x000002b0       0x68 build/debug/app_app.a(wifi.o)
 .debug_aranges
                0x00000318       0x38 build/debug/app_app.a(flash.o)
 .debug_aranges
                0x00000350       0x28 build/debug/app_app.a(doSmartConfig.o)
 .debug_aranges
                0x00000378       0x28 build/debug/app_app.a(stdout.o)
 .debug_aranges
                0x000003a0       0x48 build/debug/app_app.a(check.o)
 .debug_aranges
                0x000003e8       0xd8 build/debug/app_app.a(mqtt.o)
 .debug_aranges
                0x000004c0       0x68 build/debug/app_app.a(publish.o)
 .debug_aranges
                0x00000528       0xb8 build/debug/app_app.a(temperature.o)
 .debug_aranges
                0x000005e0       0x40 build/debug/app_app.a(dht22.o)
 .debug_aranges
                0x00000620       0x78 build/debug/app_app.a(ds18b20.o)
 .debug_aranges
                0x00000698       0x20 build/debug/app_app.a(decodeMessage.o)
 .debug_aranges
                0x000006b8       0x38 build/debug/app_app.a(jsmn.o)
 .debug_aranges
                0x000006f0       0x20 build/debug/app_app.a(dtoa.o)
 .debug_aranges
                0x00000710       0x30 build/debug/app_app.a(utils.o)
 .debug_aranges
                0x00000740       0x38 build/debug/app_app.a(queue.o)
 .debug_aranges
                0x00000778       0xa8 build/debug/app_app.a(mqtt_msg.o)
 .debug_aranges
                0x00000820       0x30 build/debug/app_app.a(ringbuf.o)
 .debug_aranges
                0x00000850       0x48 build/debug/app_app.a(proto.o)
 .debug_aranges
                0x00000898       0x20 c:/espressif/xtensa-lx106-elf/bin/../lib/gcc/xtensa-lx106-elf/5.1.0/../../../../xtensa-lx106-elf/lib\libc.a(lib_a-atoi.o)
 .debug_aranges
                0x000008b8       0x20 c:/espressif/xtensa-lx106-elf/bin/../lib/gcc/xtensa-lx106-elf/5.1.0/../../../../xtensa-lx106-elf/lib\libc.a(lib_a-lcltime.o)
 .debug_aranges
                0x000008d8       0x20 c:/espressif/xtensa-lx106-elf/bin/../lib/gcc/xtensa-lx106-elf/5.1.0/../../../../xtensa-lx106-elf/lib\libc.a(lib_a-lcltime_r.o)
 .debug_aranges
                0x000008f8       0x20 c:/espressif/xtensa-lx106-elf/bin/../lib/gcc/xtensa-lx106-elf/5.1.0/../../../../xtensa-lx106-elf/lib\libc.a(lib_a-memcpy.o)
 .debug_aranges
                0x00000918       0x20 c:/espressif/xtensa-lx106-elf/bin/../lib/gcc/xtensa-lx106-elf/5.1.0/../../../../xtensa-lx106-elf/lib\libc.a(lib_a-memset.o)
 .debug_aranges
                0x00000938       0x20 c:/espressif/xtensa-lx106-elf/bin/../lib/gcc/xtensa-lx106-elf/5.1.0/../../../../xtensa-lx106-elf/lib\libc.a(lib_a-mktm_r.o)
 .debug_aranges
                0x00000958       0x20 c:/espressif/xtensa-lx106-elf/bin/../lib/gcc/xtensa-lx106-elf/5.1.0/../../../../xtensa-lx106-elf/lib\libc.a(lib_a-strcmp.o)
 .debug_aranges
                0x00000978       0x20 c:/espressif/xtensa-lx106-elf/bin/../lib/gcc/xtensa-lx106-elf/5.1.0/../../../../xtensa-lx106-elf/lib\libc.a(lib_a-strlen.o)
 .debug_aranges
                0x00000998       0x20 c:/espressif/xtensa-lx106-elf/bin/../lib/gcc/xtensa-lx106-elf/5.1.0/../../../../xtensa-lx106-elf/lib\libc.a(lib_a-strtol.o)
 .debug_aranges
                0x000009b8       0x20 c:/espressif/xtensa-lx106-elf/bin/../lib/gcc/xtensa-lx106-elf/5.1.0/../../../../xtensa-lx106-elf/lib\libc.a(lib_a-tzlock.o)
 .debug_aranges
                0x000009d8       0x18 c:/espressif/xtensa-lx106-elf/bin/../lib/gcc/xtensa-lx106-elf/5.1.0/../../../../xtensa-lx106-elf/lib\libc.a(lib_a-tzvars.o)
 .debug_aranges
                0x000009f0       0x18 c:/espressif/xtensa-lx106-elf/bin/../lib/gcc/xtensa-lx106-elf/5.1.0/../../../../xtensa-lx106-elf/lib\libc.a(lib_a-ctype_.o)
 .debug_aranges
                0x00000a08       0x20 c:/espressif/xtensa-lx106-elf/bin/../lib/gcc/xtensa-lx106-elf/5.1.0/../../../../xtensa-lx106-elf/lib\libc.a(lib_a-gettzinfo.o)
 .debug_aranges
                0x00000a28       0x18 c:/espressif/xtensa-lx106-elf/bin/../lib/gcc/xtensa-lx106-elf/5.1.0/../../../../xtensa-lx106-elf/lib\libc.a(lib_a-impure.o)
 .debug_aranges
                0x00000a40       0x20 c:/Espressif/ESP8266_SDK_200/lib\libgcc.a(_modsi3.o)
 .debug_aranges
                0x00000a60       0x20 c:/Espressif/ESP8266_SDK_200/lib\libgcc.a(_mulsf3.o)
 .debug_aranges
                0x00000a80       0x20 c:/Espressif/ESP8266_SDK_200/lib\libgcc.a(_divsf3.o)
 .debug_aranges
                0x00000aa0       0x20 c:/Espressif/ESP8266_SDK_200/lib\libgcc.a(_cmpsf2.o)
 .debug_aranges
                0x00000ac0       0x20 c:/Espressif/ESP8266_SDK_200/lib\libgcc.a(_fixsfsi.o)
 .debug_aranges
                0x00000ae0       0x20 c:/Espressif/ESP8266_SDK_200/lib\libgcc.a(_cmpdf2.o)
 .debug_aranges
                0x00000b00       0x20 c:/espressif/xtensa-lx106-elf/bin/../lib/gcc/xtensa-lx106-elf/5.1.0/../../../../xtensa-lx106-elf/lib\libc.a(lib_a-memchr.o)
 .debug_aranges
                0x00000b20       0x20 c:/Espressif/ESP8266_SDK_200/lib\libgcc.a(_ashrdi3.o)

.debug_ranges   0x00000000      0xc50
 .debug_ranges  0x00000000      0x188 build/debug/app_app.a(user_main.o)
 .debug_ranges  0x00000188       0x50 build/debug/app_app.a(config.o)
 .debug_ranges  0x000001d8       0x70 build/debug/app_app.a(io.o)
 .debug_ranges  0x00000248       0x30 build/debug/app_app.a(switch.o)
 .debug_ranges  0x00000278       0x98 build/debug/app_app.a(http.o)
 .debug_ranges  0x00000310       0x88 build/debug/app_app.a(easygpio.o)
 .debug_ranges  0x00000398       0xa0 build/debug/app_app.a(wifi.o)
 .debug_ranges  0x00000438       0x60 build/debug/app_app.a(flash.o)
 .debug_ranges  0x00000498       0x30 build/debug/app_app.a(doSmartConfig.o)
 .debug_ranges  0x000004c8       0x18 build/debug/app_app.a(stdout.o)
 .debug_ranges  0x000004e0       0x38 build/debug/app_app.a(check.o)
 .debug_ranges  0x00000518      0x128 build/debug/app_app.a(mqtt.o)
 .debug_ranges  0x00000640       0x78 build/debug/app_app.a(publish.o)
 .debug_ranges  0x000006b8       0xa8 build/debug/app_app.a(temperature.o)
 .debug_ranges  0x00000760       0xf0 build/debug/app_app.a(dht22.o)
 .debug_ranges  0x00000850       0xc0 build/debug/app_app.a(ds18b20.o)
 .debug_ranges  0x00000910       0x40 build/debug/app_app.a(decodeMessage.o)
 .debug_ranges  0x00000950      0x148 build/debug/app_app.a(jsmn.o)
 .debug_ranges  0x00000a98       0x10 build/debug/app_app.a(dtoa.o)
 .debug_ranges  0x00000aa8       0x40 build/debug/app_app.a(utils.o)
 .debug_ranges  0x00000ae8       0x28 build/debug/app_app.a(queue.o)
 .debug_ranges  0x00000b10       0xb0 build/debug/app_app.a(mqtt_msg.o)
 .debug_ranges  0x00000bc0       0x20 build/debug/app_app.a(ringbuf.o)
 .debug_ranges  0x00000be0       0x58 build/debug/app_app.a(proto.o)
 .debug_ranges  0x00000c38       0x18 c:/espressif/xtensa-lx106-elf/bin/../lib/gcc/xtensa-lx106-elf/5.1.0/../../../../xtensa-lx106-elf/lib\libc.a(lib_a-mktm_r.o)

.debug_line     0x00000000     0x997d
 .debug_line    0x00000000      0xc6c build/debug/app_app.a(user_main.o)
 .debug_line    0x00000c6c      0x338 build/debug/app_app.a(config.o)
 .debug_line    0x00000fa4      0x3e1 build/debug/app_app.a(io.o)
 .debug_line    0x00001385      0x198 build/debug/app_app.a(switch.o)
 .debug_line    0x0000151d      0x640 build/debug/app_app.a(http.o)
 .debug_line    0x00001b5d      0x478 build/debug/app_app.a(easygpio.o)
 .debug_line    0x00001fd5      0x405 build/debug/app_app.a(wifi.o)
 .debug_line    0x000023da      0x2d5 build/debug/app_app.a(flash.o)
 .debug_line    0x000026af      0x1ad build/debug/app_app.a(doSmartConfig.o)
 .debug_line    0x0000285c      0x11d build/debug/app_app.a(stdout.o)
 .debug_line    0x00002979      0x172 build/debug/app_app.a(check.o)
 .debug_line    0x00002aeb      0xc63 build/debug/app_app.a(mqtt.o)
 .debug_line    0x0000374e      0x683 build/debug/app_app.a(publish.o)
 .debug_line    0x00003dd1      0x7c0 build/debug/app_app.a(temperature.o)
 .debug_line    0x00004591      0x40c build/debug/app_app.a(dht22.o)
 .debug_line    0x0000499d      0x541 build/debug/app_app.a(ds18b20.o)
 .debug_line    0x00004ede      0x489 build/debug/app_app.a(decodeMessage.o)
 .debug_line    0x00005367      0x49d build/debug/app_app.a(jsmn.o)
 .debug_line    0x00005804      0x24b build/debug/app_app.a(dtoa.o)
 .debug_line    0x00005a4f      0x218 build/debug/app_app.a(utils.o)
 .debug_line    0x00005c67      0x14a build/debug/app_app.a(queue.o)
 .debug_line    0x00005db1      0xcd0 build/debug/app_app.a(mqtt_msg.o)
 .debug_line    0x00006a81      0x122 build/debug/app_app.a(ringbuf.o)
 .debug_line    0x00006ba3      0x322 build/debug/app_app.a(proto.o)
 .debug_line    0x00006ec5      0x1a9 c:/espressif/xtensa-lx106-elf/bin/../lib/gcc/xtensa-lx106-elf/5.1.0/../../../../xtensa-lx106-elf/lib\libc.a(lib_a-atoi.o)
 .debug_line    0x0000706e      0x1a0 c:/espressif/xtensa-lx106-elf/bin/../lib/gcc/xtensa-lx106-elf/5.1.0/../../../../xtensa-lx106-elf/lib\libc.a(lib_a-lcltime.o)
 .debug_line    0x0000720e      0x11c c:/espressif/xtensa-lx106-elf/bin/../lib/gcc/xtensa-lx106-elf/5.1.0/../../../../xtensa-lx106-elf/lib\libc.a(lib_a-lcltime_r.o)
 .debug_line    0x0000732a      0x355 c:/espressif/xtensa-lx106-elf/bin/../lib/gcc/xtensa-lx106-elf/5.1.0/../../../../xtensa-lx106-elf/lib\libc.a(lib_a-memcpy.o)
 .debug_line    0x0000767f      0x17a c:/espressif/xtensa-lx106-elf/bin/../lib/gcc/xtensa-lx106-elf/5.1.0/../../../../xtensa-lx106-elf/lib\libc.a(lib_a-memset.o)
 .debug_line    0x000077f9      0x5f3 c:/espressif/xtensa-lx106-elf/bin/../lib/gcc/xtensa-lx106-elf/5.1.0/../../../../xtensa-lx106-elf/lib\libc.a(lib_a-mktm_r.o)
 .debug_line    0x00007dec      0x284 c:/espressif/xtensa-lx106-elf/bin/../lib/gcc/xtensa-lx106-elf/5.1.0/../../../../xtensa-lx106-elf/lib\libc.a(lib_a-strcmp.o)
 .debug_line    0x00008070      0x12c c:/espressif/xtensa-lx106-elf/bin/../lib/gcc/xtensa-lx106-elf/5.1.0/../../../../xtensa-lx106-elf/lib\libc.a(lib_a-strlen.o)
 .debug_line    0x0000819c      0x35c c:/espressif/xtensa-lx106-elf/bin/../lib/gcc/xtensa-lx106-elf/5.1.0/../../../../xtensa-lx106-elf/lib\libc.a(lib_a-strtol.o)
 .debug_line    0x000084f8       0x59 c:/espressif/xtensa-lx106-elf/bin/../lib/gcc/xtensa-lx106-elf/5.1.0/../../../../xtensa-lx106-elf/lib\libc.a(lib_a-tzlock.o)
 .debug_line    0x00008551       0x69 c:/espressif/xtensa-lx106-elf/bin/../lib/gcc/xtensa-lx106-elf/5.1.0/../../../../xtensa-lx106-elf/lib\libc.a(lib_a-tzvars.o)
 .debug_line    0x000085ba       0x6a c:/espressif/xtensa-lx106-elf/bin/../lib/gcc/xtensa-lx106-elf/5.1.0/../../../../xtensa-lx106-elf/lib\libc.a(lib_a-ctype_.o)
 .debug_line    0x00008624       0xff c:/espressif/xtensa-lx106-elf/bin/../lib/gcc/xtensa-lx106-elf/5.1.0/../../../../xtensa-lx106-elf/lib\libc.a(lib_a-gettzinfo.o)
 .debug_line    0x00008723      0x115 c:/espressif/xtensa-lx106-elf/bin/../lib/gcc/xtensa-lx106-elf/5.1.0/../../../../xtensa-lx106-elf/lib\libc.a(lib_a-impure.o)
 .debug_line    0x00008838      0x11a c:/Espressif/ESP8266_SDK_200/lib\libgcc.a(_modsi3.o)
 .debug_line    0x00008952      0x37f c:/Espressif/ESP8266_SDK_200/lib\libgcc.a(_mulsf3.o)
 .debug_line    0x00008cd1      0x319 c:/Espressif/ESP8266_SDK_200/lib\libgcc.a(_divsf3.o)
 .debug_line    0x00008fea      0x2fb c:/Espressif/ESP8266_SDK_200/lib\libgcc.a(_cmpsf2.o)
 .debug_line    0x000092e5      0x115 c:/Espressif/ESP8266_SDK_200/lib\libgcc.a(_fixsfsi.o)
 .debug_line    0x000093fa      0x391 c:/Espressif/ESP8266_SDK_200/lib\libgcc.a(_cmpdf2.o)
 .debug_line    0x0000978b      0x138 c:/espressif/xtensa-lx106-elf/bin/../lib/gcc/xtensa-lx106-elf/5.1.0/../../../../xtensa-lx106-elf/lib\libc.a(lib_a-memchr.o)
 .debug_line    0x000098c3       0xba c:/Espressif/ESP8266_SDK_200/lib\libgcc.a(_ashrdi3.o)

.debug_str      0x00000000     0x3d39
 .debug_str     0x00000000     0x1197 build/debug/app_app.a(user_main.o)
                               0x1321 (size before relaxing)
 .debug_str     0x00001197      0x156 build/debug/app_app.a(config.o)
                                0x3f0 (size before relaxing)
 .debug_str     0x000012ed      0x13d build/debug/app_app.a(io.o)
                                0x4db (size before relaxing)
 .debug_str     0x0000142a       0x7b build/debug/app_app.a(switch.o)
                                0x26c (size before relaxing)
 .debug_str     0x000014a5      0x3e3 build/debug/app_app.a(http.o)
                                0x78e (size before relaxing)
 .debug_str     0x00001888      0x257 build/debug/app_app.a(easygpio.o)
                                0x45f (size before relaxing)
 .debug_str     0x00001adf      0x57b build/debug/app_app.a(wifi.o)
                                0x8f1 (size before relaxing)
 .debug_str     0x0000205a       0xfd build/debug/app_app.a(flash.o)
                                0x392 (size before relaxing)
 .debug_str     0x00002157      0x10e build/debug/app_app.a(doSmartConfig.o)
                                0x423 (size before relaxing)
 .debug_str     0x00002265      0x155 build/debug/app_app.a(stdout.o)
                                0x28c (size before relaxing)
 .debug_str     0x000023ba       0x7c build/debug/app_app.a(check.o)
                                0x1e9 (size before relaxing)
 .debug_str     0x00002436      0x587 build/debug/app_app.a(mqtt.o)
                                0xfc6 (size before relaxing)
 .debug_str     0x000029bd      0x192 build/debug/app_app.a(publish.o)
                                0x9ba (size before relaxing)
 .debug_str     0x00002b4f      0x21d build/debug/app_app.a(temperature.o)
                                0x619 (size before relaxing)
 .debug_str     0x00002d6c       0xbc build/debug/app_app.a(dht22.o)
                                0x475 (size before relaxing)
 .debug_str     0x00002e28      0x104 build/debug/app_app.a(ds18b20.o)
                                0x2d2 (size before relaxing)
 .debug_str     0x00002f2c      0x173 build/debug/app_app.a(decodeMessage.o)
                                0x9dc (size before relaxing)
 .debug_str     0x0000309f       0x7f build/debug/app_app.a(jsmn.o)
                                0x2cb (size before relaxing)
 .debug_str     0x0000311e       0x4f build/debug/app_app.a(dtoa.o)
                                0x19c (size before relaxing)
 .debug_str     0x0000316d       0x43 build/debug/app_app.a(utils.o)
                                0x1a3 (size before relaxing)
 .debug_str     0x000031b0       0x53 build/debug/app_app.a(queue.o)
                                0x1f2 (size before relaxing)
 .debug_str     0x00003203      0x188 build/debug/app_app.a(mqtt_msg.o)
                                0x6a2 (size before relaxing)
 .debug_str     0x0000338b       0x2e build/debug/app_app.a(ringbuf.o)
                                0x173 (size before relaxing)
 .debug_str     0x000033b9       0xa6 build/debug/app_app.a(proto.o)
                                0x234 (size before relaxing)
 .debug_str     0x0000345f      0x441 c:/espressif/xtensa-lx106-elf/bin/../lib/gcc/xtensa-lx106-elf/5.1.0/../../../../xtensa-lx106-elf/lib\libc.a(lib_a-atoi.o)
                                0x519 (size before relaxing)
 .debug_str     0x000038a0       0x92 c:/espressif/xtensa-lx106-elf/bin/../lib/gcc/xtensa-lx106-elf/5.1.0/../../../../xtensa-lx106-elf/lib\libc.a(lib_a-lcltime.o)
                                0x57b (size before relaxing)
 .debug_str     0x00003932       0x34 c:/espressif/xtensa-lx106-elf/bin/../lib/gcc/xtensa-lx106-elf/5.1.0/../../../../xtensa-lx106-elf/lib\libc.a(lib_a-lcltime_r.o)
                                0x1b9 (size before relaxing)
 .debug_str     0x00003966      0x11e c:/espressif/xtensa-lx106-elf/bin/../lib/gcc/xtensa-lx106-elf/5.1.0/../../../../xtensa-lx106-elf/lib\libc.a(lib_a-mktm_r.o)
                                0x2be (size before relaxing)
 .debug_str     0x00003a84       0x58 c:/espressif/xtensa-lx106-elf/bin/../lib/gcc/xtensa-lx106-elf/5.1.0/../../../../xtensa-lx106-elf/lib\libc.a(lib_a-strtol.o)
                                0x54c (size before relaxing)
 .debug_str     0x00003adc       0x3a c:/espressif/xtensa-lx106-elf/bin/../lib/gcc/xtensa-lx106-elf/5.1.0/../../../../xtensa-lx106-elf/lib\libc.a(lib_a-tzlock.o)
                                0x16c (size before relaxing)
 .debug_str     0x00003b16       0x3b c:/espressif/xtensa-lx106-elf/bin/../lib/gcc/xtensa-lx106-elf/5.1.0/../../../../xtensa-lx106-elf/lib\libc.a(lib_a-tzvars.o)
                                0x16b (size before relaxing)
 .debug_str     0x00003b51       0x89 c:/espressif/xtensa-lx106-elf/bin/../lib/gcc/xtensa-lx106-elf/5.1.0/../../../../xtensa-lx106-elf/lib\libc.a(lib_a-ctype_.o)
                                 0xd7 (size before relaxing)
 .debug_str     0x00003bda       0x2c c:/espressif/xtensa-lx106-elf/bin/../lib/gcc/xtensa-lx106-elf/5.1.0/../../../../xtensa-lx106-elf/lib\libc.a(lib_a-gettzinfo.o)
                                0x1d2 (size before relaxing)
 .debug_str     0x00003c06       0xa0 c:/espressif/xtensa-lx106-elf/bin/../lib/gcc/xtensa-lx106-elf/5.1.0/../../../../xtensa-lx106-elf/lib\libc.a(lib_a-impure.o)
                                0x526 (size before relaxing)
 .debug_str     0x00003ca6       0x93 c:/espressif/xtensa-lx106-elf/bin/../lib/gcc/xtensa-lx106-elf/5.1.0/../../../../xtensa-lx106-elf/lib\libc.a(lib_a-memchr.o)
                                0x165 (size before relaxing)
