Archive member included because of file (symbol)

c:/Espressif/ESP8266_SDK/lib\libmain.a(debug-vector.o)
                              (_DebugExceptionVector)
c:/Espressif/ESP8266_SDK/lib\libmain.a(double-vector.o)
                              (_DoubleExceptionVector)
c:/Espressif/ESP8266_SDK/lib\libmain.a(kernel-vector.o)
                              (_KernelExceptionVector)
c:/Espressif/ESP8266_SDK/lib\libmain.a(nmi-vector.o)
                              (_NMIExceptionVector)
c:/Espressif/ESP8266_SDK/lib\libmain.a(user-vector.o)
                              (_UserExceptionVector)
c:/Espressif/ESP8266_SDK/lib\libmain.a(vector.o)
                              (call_user_start)
c:/Espressif/ESP8266_SDK/lib\libmain.a(app_main.o)
                              c:/Espressif/ESP8266_SDK/lib\libmain.a(nmi-vector.o) (NMI_Handler)
c:/Espressif/ESP8266_SDK/lib\libmain.a(ets_timer.o)
                              c:/Espressif/ESP8266_SDK/lib\libmain.a(app_main.o) (ets_timer_setfn)
c:/Espressif/ESP8266_SDK/lib\libmain.a(mem_manager.o)
                              c:/Espressif/ESP8266_SDK/lib\libmain.a(app_main.o) (pvPortMalloc)
c:/Espressif/ESP8266_SDK/lib\libmain.a(spi_flash.o)
                              c:/Espressif/ESP8266_SDK/lib\libmain.a(app_main.o) (spi_flash_read)
c:/Espressif/ESP8266_SDK/lib\libmain.a(user_interface.o)
                              c:/Espressif/ESP8266_SDK/lib\libmain.a(app_main.o) (done_cb)
c:/Espressif/ESP8266_SDK/lib\libmain.a(eagle_lib.o)
                              c:/Espressif/ESP8266_SDK/lib\libmain.a(user_interface.o) (ets_sprintf)
c:/Espressif/ESP8266_SDK/lib\libmain.a(eagle_lwip_if.o)
                              c:/Espressif/ESP8266_SDK/lib\libmain.a(user_interface.o) (hostname)
build/app_app.a(user_main.o)  c:/Espressif/ESP8266_SDK/lib\libmain.a(app_main.o) (user_rf_pre_init)
build/app_app.a(mqtt.o)       build/app_app.a(user_main.o) (MQTT_Publish)
build/app_app.a(wifi.o)       build/app_app.a(user_main.o) (WIFI_Connect)
build/app_app.a(config.o)     build/app_app.a(user_main.o) (sysCfg)
build/app_app.a(easygpio.o)   build/app_app.a(user_main.o) (easygpio_pinMode)
build/app_app.a(dht22.o)      build/app_app.a(user_main.o) (dht1Read)
build/app_app.a(stdout.o)     build/app_app.a(user_main.o) (stdout_init)
build/app_app.a(utils.o)      build/app_app.a(mqtt.o) (UTILS_StrToIP)
build/app_app.a(queue.o)      build/app_app.a(mqtt.o) (QUEUE_Init)
build/app_app.a(mqtt_msg.o)   build/app_app.a(mqtt.o) (mqtt_msg_init)
build/app_app.a(ringbuf.o)    build/app_app.a(queue.o) (RINGBUF_Init)
build/app_app.a(proto.o)      build/app_app.a(queue.o) (PROTO_ParseRb)
c:/espressif/xtensa-lx106-elf/bin/../lib/gcc/xtensa-lx106-elf/4.8.2/../../../../xtensa-lx106-elf/lib\libc.a(lib_a-atoi.o)
                              build/app_app.a(user_main.o) (atoi)
c:/espressif/xtensa-lx106-elf/bin/../lib/gcc/xtensa-lx106-elf/4.8.2/../../../../xtensa-lx106-elf/lib\libc.a(lib_a-lcltime.o)
                              build/app_app.a(user_main.o) (localtime)
c:/espressif/xtensa-lx106-elf/bin/../lib/gcc/xtensa-lx106-elf/4.8.2/../../../../xtensa-lx106-elf/lib\libc.a(lib_a-lcltime_r.o)
                              c:/espressif/xtensa-lx106-elf/bin/../lib/gcc/xtensa-lx106-elf/4.8.2/../../../../xtensa-lx106-elf/lib\libc.a(lib_a-lcltime.o) (localtime_r)
c:/espressif/xtensa-lx106-elf/bin/../lib/gcc/xtensa-lx106-elf/4.8.2/../../../../xtensa-lx106-elf/lib\libc.a(lib_a-memcpy.o)
                              build/app_app.a(user_main.o) (memcpy)
c:/espressif/xtensa-lx106-elf/bin/../lib/gcc/xtensa-lx106-elf/4.8.2/../../../../xtensa-lx106-elf/lib\libc.a(lib_a-mktm_r.o)
                              c:/espressif/xtensa-lx106-elf/bin/../lib/gcc/xtensa-lx106-elf/4.8.2/../../../../xtensa-lx106-elf/lib\libc.a(lib_a-lcltime_r.o) (_mktm_r)
c:/espressif/xtensa-lx106-elf/bin/../lib/gcc/xtensa-lx106-elf/4.8.2/../../../../xtensa-lx106-elf/lib\libc.a(lib_a-strcmp.o)
                              build/app_app.a(user_main.o) (strcmp)
c:/espressif/xtensa-lx106-elf/bin/../lib/gcc/xtensa-lx106-elf/4.8.2/../../../../xtensa-lx106-elf/lib\libc.a(lib_a-strlen.o)
                              build/app_app.a(user_main.o) (strlen)
c:/espressif/xtensa-lx106-elf/bin/../lib/gcc/xtensa-lx106-elf/4.8.2/../../../../xtensa-lx106-elf/lib\libc.a(lib_a-strtol.o)
                              c:/espressif/xtensa-lx106-elf/bin/../lib/gcc/xtensa-lx106-elf/4.8.2/../../../../xtensa-lx106-elf/lib\libc.a(lib_a-atoi.o) (_strtol_r)
c:/espressif/xtensa-lx106-elf/bin/../lib/gcc/xtensa-lx106-elf/4.8.2/../../../../xtensa-lx106-elf/lib\libc.a(lib_a-tzlock.o)
                              c:/espressif/xtensa-lx106-elf/bin/../lib/gcc/xtensa-lx106-elf/4.8.2/../../../../xtensa-lx106-elf/lib\libc.a(lib_a-mktm_r.o) (__tz_lock)
c:/espressif/xtensa-lx106-elf/bin/../lib/gcc/xtensa-lx106-elf/4.8.2/../../../../xtensa-lx106-elf/lib\libc.a(lib_a-tzvars.o)
                              c:/espressif/xtensa-lx106-elf/bin/../lib/gcc/xtensa-lx106-elf/4.8.2/../../../../xtensa-lx106-elf/lib\libc.a(lib_a-mktm_r.o) (_daylight)
c:/espressif/xtensa-lx106-elf/bin/../lib/gcc/xtensa-lx106-elf/4.8.2/../../../../xtensa-lx106-elf/lib\libc.a(lib_a-ctype_.o)
                              c:/espressif/xtensa-lx106-elf/bin/../lib/gcc/xtensa-lx106-elf/4.8.2/../../../../xtensa-lx106-elf/lib\libc.a(lib_a-strtol.o) (__ctype_ptr__)
c:/espressif/xtensa-lx106-elf/bin/../lib/gcc/xtensa-lx106-elf/4.8.2/../../../../xtensa-lx106-elf/lib\libc.a(lib_a-gettzinfo.o)
                              c:/espressif/xtensa-lx106-elf/bin/../lib/gcc/xtensa-lx106-elf/4.8.2/../../../../xtensa-lx106-elf/lib\libc.a(lib_a-mktm_r.o) (__gettzinfo)
c:/espressif/xtensa-lx106-elf/bin/../lib/gcc/xtensa-lx106-elf/4.8.2/../../../../xtensa-lx106-elf/lib\libc.a(lib_a-impure.o)
                              c:/espressif/xtensa-lx106-elf/bin/../lib/gcc/xtensa-lx106-elf/4.8.2/../../../../xtensa-lx106-elf/lib\libc.a(lib_a-lcltime.o) (_impure_ptr)
c:/espressif/xtensa-lx106-elf/bin/../lib/gcc/xtensa-lx106-elf/4.8.2\libgcc.a(_divsi3.o)
                              c:/espressif/xtensa-lx106-elf/bin/../lib/gcc/xtensa-lx106-elf/4.8.2/../../../../xtensa-lx106-elf/lib\libc.a(lib_a-mktm_r.o) (__divsi3)
c:/espressif/xtensa-lx106-elf/bin/../lib/gcc/xtensa-lx106-elf/4.8.2\libgcc.a(_modsi3.o)
                              c:/espressif/xtensa-lx106-elf/bin/../lib/gcc/xtensa-lx106-elf/4.8.2/../../../../xtensa-lx106-elf/lib\libc.a(lib_a-mktm_r.o) (__modsi3)
c:/espressif/xtensa-lx106-elf/bin/../lib/gcc/xtensa-lx106-elf/4.8.2\libgcc.a(_udivsi3.o)
                              c:/Espressif/ESP8266_SDK/lib\libmain.a(app_main.o) (__udivsi3)
c:/espressif/xtensa-lx106-elf/bin/../lib/gcc/xtensa-lx106-elf/4.8.2\libgcc.a(_umodsi3.o)
                              c:/Espressif/ESP8266_SDK/lib\libmain.a(eagle_lib.o) (__umodsi3)
c:/espressif/xtensa-lx106-elf/bin/../lib/gcc/xtensa-lx106-elf/4.8.2\libgcc.a(_addsubsf3.o)
                              build/app_app.a(dht22.o) (__addsf3)
c:/espressif/xtensa-lx106-elf/bin/../lib/gcc/xtensa-lx106-elf/4.8.2\libgcc.a(_mulsf3.o)
                              build/app_app.a(dht22.o) (__mulsf3)
c:/espressif/xtensa-lx106-elf/bin/../lib/gcc/xtensa-lx106-elf/4.8.2\libgcc.a(_divsf3.o)
                              build/app_app.a(dht22.o) (__divsf3)
c:/espressif/xtensa-lx106-elf/bin/../lib/gcc/xtensa-lx106-elf/4.8.2\libgcc.a(_cmpsf2.o)
                              build/app_app.a(user_main.o) (__gtsf2)
c:/espressif/xtensa-lx106-elf/bin/../lib/gcc/xtensa-lx106-elf/4.8.2\libgcc.a(_fixsfsi.o)
                              build/app_app.a(user_main.o) (__fixsfsi)
c:/espressif/xtensa-lx106-elf/bin/../lib/gcc/xtensa-lx106-elf/4.8.2\libgcc.a(_floatsisf.o)
                              build/app_app.a(user_main.o) (__floatsisf)
c:/espressif/xtensa-lx106-elf/bin/../lib/gcc/xtensa-lx106-elf/4.8.2\libgcc.a(_muldi3.o)
                              c:/Espressif/ESP8266_SDK/lib\libmain.a(user_interface.o) (__muldi3)
c:/espressif/xtensa-lx106-elf/bin/../lib/gcc/xtensa-lx106-elf/4.8.2\libgcc.a(_umulsidi3.o)
                              c:/espressif/xtensa-lx106-elf/bin/../lib/gcc/xtensa-lx106-elf/4.8.2\libgcc.a(_muldi3.o) (__umulsidi3)
c:/espressif/xtensa-lx106-elf/bin/../lib/gcc/xtensa-lx106-elf/4.8.2/../../../../xtensa-lx106-elf/lib\libhal.a(int_asm--set_intclear.o)
                              c:/Espressif/ESP8266_SDK/lib\libmain.a(app_main.o) (xthal_set_intclear)
c:/Espressif/ESP8266_SDK/lib\libphy.a(phy.o)
                              c:/Espressif/ESP8266_SDK/lib\libmain.a(app_main.o) (phy_enable_agc)
c:/Espressif/ESP8266_SDK/lib\libphy.a(phy_chip_v6_ana.o)
                              c:/Espressif/ESP8266_SDK/lib\libmain.a(user_interface.o) (test_tout)
c:/Espressif/ESP8266_SDK/lib\libphy.a(phy_chip_v6.o)
                              c:/Espressif/ESP8266_SDK/lib\libphy.a(phy_chip_v6_ana.o) (g_phyFuns)
c:/Espressif/ESP8266_SDK/lib\libphy.a(phy_chip_v6_cal.o)
                              c:/Espressif/ESP8266_SDK/lib\libphy.a(phy_chip_v6.o) (loop_pwctrl_pwdet_error_accum_high_power)
c:/Espressif/ESP8266_SDK/lib\libphy.a(phy_chip_v6_unused.o)
                              c:/Espressif/ESP8266_SDK/lib\libphy.a(phy_chip_v6.o) (chip_v6_set_sense)
c:/Espressif/ESP8266_SDK/lib\libphy.a(phy_sleep.o)
                              c:/Espressif/ESP8266_SDK/lib\libphy.a(phy_chip_v6.o) (pm_set_sleep_cycles)
c:/Espressif/ESP8266_SDK/lib\libpp.a(if_hwctrl.o)
                              c:/Espressif/ESP8266_SDK/lib\libmain.a(user_interface.o) (ic_set_vif)
c:/Espressif/ESP8266_SDK/lib\libpp.a(lmac.o)
                              c:/Espressif/ESP8266_SDK/lib\libmain.a(app_main.o) (lmacInit)
c:/Espressif/ESP8266_SDK/lib\libpp.a(pm.o)
                              c:/Espressif/ESP8266_SDK/lib\libmain.a(user_interface.o) (pm_rtc_clock_cali_proc)
c:/Espressif/ESP8266_SDK/lib\libpp.a(pm_for_bcn_only_mode.o)
                              c:/Espressif/ESP8266_SDK/lib\libpp.a(pm.o) (fpm_is_open)
c:/Espressif/ESP8266_SDK/lib\libpp.a(pp.o)
                              c:/Espressif/ESP8266_SDK/lib\libpp.a(pm.o) (pend_flag_noise_check)
c:/Espressif/ESP8266_SDK/lib\libpp.a(rate_control.o)
                              c:/Espressif/ESP8266_SDK/lib\libpp.a(lmac.o) (RC_SetBasicRate)
c:/Espressif/ESP8266_SDK/lib\libpp.a(trc.o)
                              c:/Espressif/ESP8266_SDK/lib\libpp.a(if_hwctrl.o) (rcUpdatePhyMode)
c:/Espressif/ESP8266_SDK/lib\libpp.a(wdev.o)
                              c:/Espressif/ESP8266_SDK/lib\libpp.a(pp.o) (wDevCtrl)
c:/Espressif/ESP8266_SDK/lib\libpp.a(esf_buf.o)
                              c:/Espressif/ESP8266_SDK/lib\libpp.a(wdev.o) (esf_rx_buf_alloc)
c:/Espressif/ESP8266_SDK/lib\libnet80211.a(ieee80211.o)
                              c:/Espressif/ESP8266_SDK/lib\libmain.a(app_main.o) (g_ic)
c:/Espressif/ESP8266_SDK/lib\libnet80211.a(ieee80211_crypto.o)
                              c:/Espressif/ESP8266_SDK/lib\libnet80211.a(ieee80211.o) (ieee80211_crypto_attach)
c:/Espressif/ESP8266_SDK/lib\libnet80211.a(ieee80211_ets.o)
                              c:/Espressif/ESP8266_SDK/lib\libpp.a(pm.o) (ieee80211_getmgtframe)
c:/Espressif/ESP8266_SDK/lib\libnet80211.a(ieee80211_hostap.o)
                              c:/Espressif/ESP8266_SDK/lib\libmain.a(user_interface.o) (BcnEb_update)
c:/Espressif/ESP8266_SDK/lib\libnet80211.a(ieee80211_ht.o)
                              c:/Espressif/ESP8266_SDK/lib\libmain.a(user_interface.o) (ieee80211_ht_attach)
c:/Espressif/ESP8266_SDK/lib\libnet80211.a(ieee80211_input.o)
                              c:/Espressif/ESP8266_SDK/lib\libnet80211.a(ieee80211_hostap.o) (ieee80211_decap)
c:/Espressif/ESP8266_SDK/lib\libnet80211.a(ieee80211_output.o)
                              c:/Espressif/ESP8266_SDK/lib\libmain.a(eagle_lwip_if.o) (ieee80211_output_pbuf)
c:/Espressif/ESP8266_SDK/lib\libnet80211.a(ieee80211_phy.o)
                              c:/Espressif/ESP8266_SDK/lib\libnet80211.a(ieee80211.o) (ieee80211_get_ratetable)
c:/Espressif/ESP8266_SDK/lib\libnet80211.a(ieee80211_power.o)
                              c:/Espressif/ESP8266_SDK/lib\libnet80211.a(ieee80211_hostap.o) (ieee80211_psq_init)
c:/Espressif/ESP8266_SDK/lib\libnet80211.a(ieee80211_proto.o)
                              c:/Espressif/ESP8266_SDK/lib\libpp.a(wdev.o) (ieee80211_addr_bcast)
c:/Espressif/ESP8266_SDK/lib\libnet80211.a(ieee80211_scan.o)
                              c:/Espressif/ESP8266_SDK/lib\libpp.a(pp.o) (gScanStruct)
c:/Espressif/ESP8266_SDK/lib\libnet80211.a(ieee80211_sta.o)
                              c:/Espressif/ESP8266_SDK/lib\libmain.a(user_interface.o) (ieee80211_sta_new_state)
c:/Espressif/ESP8266_SDK/lib\libnet80211.a(wl_chm.o)
                              c:/Espressif/ESP8266_SDK/lib\libnet80211.a(ieee80211.o) (chm_init)
c:/Espressif/ESP8266_SDK/lib\libnet80211.a(wl_cnx.o)
                              c:/Espressif/ESP8266_SDK/lib\libmain.a(user_interface.o) (sta_con_timer)
c:/Espressif/ESP8266_SDK/lib\libnet80211.a(ieee80211_action.o)
                              c:/Espressif/ESP8266_SDK/lib\libnet80211.a(ieee80211_ht.o) (ieee80211_send_action_register)
c:/Espressif/ESP8266_SDK/lib\libnet80211.a(ieee80211_action_vendor.o)
                              c:/Espressif/ESP8266_SDK/lib\libnet80211.a(ieee80211.o) (ieee80211_action_vendor_spec_attach)
c:/Espressif/ESP8266_SDK/lib\libnet80211.a(ieee80211_crypto_ccmp.o)
                              c:/Espressif/ESP8266_SDK/lib\libnet80211.a(ieee80211_input.o) (ccmp)
c:/Espressif/ESP8266_SDK/lib\libnet80211.a(ieee80211_ie_vendor.o)
                              c:/Espressif/ESP8266_SDK/lib\libnet80211.a(ieee80211_action_vendor.o) (ieee80211_add_ie_vendor_esp_now)
c:/Espressif/ESP8266_SDK/lib\liblwip.a(dhcp.o)
                              c:/Espressif/ESP8266_SDK/lib\libnet80211.a(wl_cnx.o) (dhcp_release)
c:/Espressif/ESP8266_SDK/lib\liblwip.a(dhcpserver.o)
                              c:/Espressif/ESP8266_SDK/lib\libmain.a(user_interface.o) (dhcps_start)
c:/Espressif/ESP8266_SDK/lib\liblwip.a(dns.o)
                              c:/Espressif/ESP8266_SDK/lib\liblwip.a(dhcp.o) (dns_setserver)
c:/Espressif/ESP8266_SDK/lib\liblwip.a(espconn.o)
                              build/app_app.a(mqtt.o) (espconn_connect)
c:/Espressif/ESP8266_SDK/lib\liblwip.a(espconn_tcp.o)
                              c:/Espressif/ESP8266_SDK/lib\liblwip.a(espconn.o) (espconn_tcp_disconnect)
c:/Espressif/ESP8266_SDK/lib\liblwip.a(espconn_udp.o)
                              c:/Espressif/ESP8266_SDK/lib\liblwip.a(espconn.o) (espconn_udp_sent)
c:/Espressif/ESP8266_SDK/lib\liblwip.a(etharp.o)
                              c:/Espressif/ESP8266_SDK/lib\libmain.a(eagle_lwip_if.o) (etharp_output)
c:/Espressif/ESP8266_SDK/lib\liblwip.a(igmp.o)
                              c:/Espressif/ESP8266_SDK/lib\liblwip.a(espconn_udp.o) (igmp_joingroup)
c:/Espressif/ESP8266_SDK/lib\liblwip.a(inet_chksum.o)
                              c:/Espressif/ESP8266_SDK/lib\liblwip.a(igmp.o) (inet_chksum)
c:/Espressif/ESP8266_SDK/lib\liblwip.a(init.o)
                              c:/Espressif/ESP8266_SDK/lib\libmain.a(app_main.o) (lwip_init)
c:/Espressif/ESP8266_SDK/lib\liblwip.a(ip_addr.o)
                              c:/Espressif/ESP8266_SDK/lib\liblwip.a(dhcp.o) (ip_addr_any)
c:/Espressif/ESP8266_SDK/lib\liblwip.a(ip.o)
                              c:/Espressif/ESP8266_SDK/lib\liblwip.a(etharp.o) (ip_input)
c:/Espressif/ESP8266_SDK/lib\liblwip.a(mdns.o)
                              c:/Espressif/ESP8266_SDK/lib\liblwip.a(espconn_udp.o) (mdns_close)
c:/Espressif/ESP8266_SDK/lib\liblwip.a(memp.o)
                              c:/Espressif/ESP8266_SDK/lib\liblwip.a(etharp.o) (memp_sizes)
c:/Espressif/ESP8266_SDK/lib\liblwip.a(netif.o)
                              c:/Espressif/ESP8266_SDK/lib\liblwip.a(dhcp.o) (netif_list)
c:/Espressif/ESP8266_SDK/lib\liblwip.a(pbuf.o)
                              c:/Espressif/ESP8266_SDK/lib\libnet80211.a(ieee80211_hostap.o) (pbuf_alloc)
c:/Espressif/ESP8266_SDK/lib\liblwip.a(raw.o)
                              c:/Espressif/ESP8266_SDK/lib\liblwip.a(ip.o) (raw_input)
c:/Espressif/ESP8266_SDK/lib\liblwip.a(tcp_in.o)
                              c:/Espressif/ESP8266_SDK/lib\liblwip.a(ip.o) (tcp_input)
c:/Espressif/ESP8266_SDK/lib\liblwip.a(tcp.o)
                              c:/Espressif/ESP8266_SDK/lib\liblwip.a(espconn_tcp.o) (tcp_active_pcbs)
c:/Espressif/ESP8266_SDK/lib\liblwip.a(tcp_out.o)
                              c:/Espressif/ESP8266_SDK/lib\liblwip.a(tcp.o) (tcp_send_fin)
c:/Espressif/ESP8266_SDK/lib\liblwip.a(timers.o)
                              c:/Espressif/ESP8266_SDK/lib\liblwip.a(tcp_in.o) (tcp_timer_needed)
c:/Espressif/ESP8266_SDK/lib\liblwip.a(udp.o)
                              c:/Espressif/ESP8266_SDK/lib\liblwip.a(ip.o) (udp_input)
c:/Espressif/ESP8266_SDK/lib\liblwip.a(icmp.o)
                              c:/Espressif/ESP8266_SDK/lib\liblwip.a(ip.o) (icmp_input)
c:/Espressif/ESP8266_SDK/lib\libwpa.a(ap_config.o)
                              c:/Espressif/ESP8266_SDK/lib\libnet80211.a(ieee80211_hostap.o) (hostapd_setup_wpa_psk)
c:/Espressif/ESP8266_SDK/lib\libwpa.a(common.o)
                              c:/Espressif/ESP8266_SDK/lib\libmain.a(user_interface.o) (hexstr2bin)
c:/Espressif/ESP8266_SDK/lib\libwpa.a(os_xtensa.o)
                              c:/Espressif/ESP8266_SDK/lib\libwpa.a(common.o) (os_get_time)
c:/Espressif/ESP8266_SDK/lib\libwpa.a(wpa_auth.o)
                              c:/Espressif/ESP8266_SDK/lib\libnet80211.a(ieee80211_hostap.o) (wpa_init)
c:/Espressif/ESP8266_SDK/lib\libwpa.a(wpa_auth_ie.o)
                              c:/Espressif/ESP8266_SDK/lib\libwpa.a(wpa_auth.o) (wpa_auth_gen_wpa_ie)
c:/Espressif/ESP8266_SDK/lib\libwpa.a(wpa.o)
                              c:/Espressif/ESP8266_SDK/lib\libnet80211.a(ieee80211_sta.o) (wpa_sm_rx_eapol)
c:/Espressif/ESP8266_SDK/lib\libwpa.a(wpa_common.o)
                              c:/Espressif/ESP8266_SDK/lib\libwpa.a(wpa_auth_ie.o) (wpa_parse_wpa_ie_rsn)
c:/Espressif/ESP8266_SDK/lib\libwpa.a(wpa_debug.o)
                              c:/Espressif/ESP8266_SDK/lib\libwpa.a(wpa_auth.o) (eloop_cancel_timeout)
c:/Espressif/ESP8266_SDK/lib\libwpa.a(wpa_ie.o)
                              c:/Espressif/ESP8266_SDK/lib\libnet80211.a(ieee80211_scan.o) (wpa_parse_wpa_ie)
c:/Espressif/ESP8266_SDK/lib\libwpa.a(wpa_main.o)
                              c:/Espressif/ESP8266_SDK/lib\libnet80211.a(wl_cnx.o) (ppInstallKey)
c:/Espressif/ESP8266_SDK/lib\libwpa.a(wpas_glue.o)
                              c:/Espressif/ESP8266_SDK/lib\libwpa.a(wpa.o) (wpa_sm_alloc_eapol)
c:/Espressif/ESP8266_SDK/lib\libwpa.a(aes-wrap.o)
                              c:/Espressif/ESP8266_SDK/lib\libwpa.a(wpa_auth.o) (aes_wrap)
c:/Espressif/ESP8266_SDK/lib\libwpa.a(aes-internal-enc.o)
                              c:/Espressif/ESP8266_SDK/lib\libwpa.a(aes-wrap.o) (aes_encrypt_init)
c:/Espressif/ESP8266_SDK/lib\libssl.a(espconn_secure.o)
                              build/app_app.a(mqtt.o) (espconn_secure_connect)
c:/Espressif/ESP8266_SDK/lib\libssl.a(espconn_ssl.o)
                              c:/Espressif/ESP8266_SDK/lib\libssl.a(espconn_secure.o) (espconn_ssl_sent)
c:/Espressif/ESP8266_SDK/lib\libssl.a(ssl_loader.o)
                              c:/Espressif/ESP8266_SDK/lib\libssl.a(espconn_ssl.o) (ssl_obj_load)
c:/Espressif/ESP8266_SDK/lib\libssl.a(ssl_md5.o)
                              c:/Espressif/ESP8266_SDK/lib\libssl.a(ssl_loader.o) (MD5_Init)
c:/Espressif/ESP8266_SDK/lib\libssl.a(ssl_tls1_clnt.o)
                              c:/Espressif/ESP8266_SDK/lib\libssl.a(espconn_ssl.o) (SSLClient_new)
c:/Espressif/ESP8266_SDK/lib\libssl.a(ssl_tls1.o)
                              c:/Espressif/ESP8266_SDK/lib\libssl.a(ssl_tls1_clnt.o) (ssl_prot_prefs)
c:/Espressif/ESP8266_SDK/lib\libssl.a(ssl_tls1_svr.o)
                              c:/Espressif/ESP8266_SDK/lib\libssl.a(espconn_ssl.o) (sslserver_new)
c:/Espressif/ESP8266_SDK/lib\libssl.a(ssl_x509.o)
                              c:/Espressif/ESP8266_SDK/lib\libssl.a(ssl_tls1.o) (x509_new)
c:/Espressif/ESP8266_SDK/lib\libssl.a(ssl_aes.o)
                              c:/Espressif/ESP8266_SDK/lib\libssl.a(ssl_loader.o) (AES_set_key)
c:/Espressif/ESP8266_SDK/lib\libssl.a(ssl_asn1.o)
                              c:/Espressif/ESP8266_SDK/lib\libssl.a(ssl_x509.o) (get_asn1_length)
c:/Espressif/ESP8266_SDK/lib\libssl.a(ssl_bigint.o)
                              c:/Espressif/ESP8266_SDK/lib\libssl.a(ssl_x509.o) (bi_free)
c:/Espressif/ESP8266_SDK/lib\libssl.a(ssl_crypto_misc.o)
                              c:/Espressif/ESP8266_SDK/lib\libssl.a(ssl_loader.o) (get_file)
c:/Espressif/ESP8266_SDK/lib\libssl.a(ssl_hmac.o)
                              c:/Espressif/ESP8266_SDK/lib\libssl.a(ssl_tls1.o) (ssl_hmac_md5)
c:/Espressif/ESP8266_SDK/lib\libssl.a(ssl_md2.o)
                              c:/Espressif/ESP8266_SDK/lib\libssl.a(ssl_x509.o) (MD2_Init)
c:/Espressif/ESP8266_SDK/lib\libssl.a(ssl_os_port.o)
                              c:/Espressif/ESP8266_SDK/lib\libssl.a(ssl_x509.o) (gettimeofday)
c:/Espressif/ESP8266_SDK/lib\libssl.a(ssl_rc4.o)
                              c:/Espressif/ESP8266_SDK/lib\libssl.a(ssl_tls1.o) (RC4_setup)
c:/Espressif/ESP8266_SDK/lib\libssl.a(ssl_rsa.o)
                              c:/Espressif/ESP8266_SDK/lib\libssl.a(ssl_asn1.o) (RSA_priv_key_new)
c:/Espressif/ESP8266_SDK/lib\libssl.a(ssl_sha1.o)
                              c:/Espressif/ESP8266_SDK/lib\libssl.a(ssl_tls1.o) (SHA1_Init)
c:/Espressif/ESP8266_SDK/lib\libsmartconfig.a(sc_sniffer.o)
                              build/app_app.a(user_main.o) (smartconfig_stop)
c:/Espressif/ESP8266_SDK/lib\libsmartconfig.a(sc_airkiss.o)
                              c:/Espressif/ESP8266_SDK/lib\libsmartconfig.a(sc_sniffer.o) (p_kiss)
c:/Espressif/ESP8266_SDK/lib\libsmartconfig.a(sc_esptouch.o)
                              c:/Espressif/ESP8266_SDK/lib\libsmartconfig.a(sc_sniffer.o) (pTouchGlob)
c:/espressif/xtensa-lx106-elf/bin/../lib/gcc/xtensa-lx106-elf/4.8.2/../../../../xtensa-lx106-elf/lib\libc.a(lib_a-memcmp.o)
                              c:/Espressif/ESP8266_SDK/lib\libssl.a(ssl_tls1.o) (memcmp)
c:/espressif/xtensa-lx106-elf/bin/../lib/gcc/xtensa-lx106-elf/4.8.2\libgcc.a(_ashrdi3.o)
                              c:/Espressif/ESP8266_SDK/lib\libphy.a(phy_chip_v6.o) (__ashrdi3)
c:/espressif/xtensa-lx106-elf/bin/../lib/gcc/xtensa-lx106-elf/4.8.2\libgcc.a(_fixunssfsi.o)
                              c:/Espressif/ESP8266_SDK/lib\libphy.a(phy_chip_v6_ana.o) (__fixunssfsi)
c:/espressif/xtensa-lx106-elf/bin/../lib/gcc/xtensa-lx106-elf/4.8.2\libgcc.a(_muldf3.o)
                              c:/Espressif/ESP8266_SDK/lib\libphy.a(phy_chip_v6.o) (__muldf3)
c:/espressif/xtensa-lx106-elf/bin/../lib/gcc/xtensa-lx106-elf/4.8.2\libgcc.a(_divdf3.o)
                              c:/Espressif/ESP8266_SDK/lib\libphy.a(phy_chip_v6_ana.o) (__divdf3)
c:/espressif/xtensa-lx106-elf/bin/../lib/gcc/xtensa-lx106-elf/4.8.2\libgcc.a(_fixdfsi.o)
                              c:/Espressif/ESP8266_SDK/lib\libphy.a(phy_chip_v6.o) (__fixdfsi)
c:/espressif/xtensa-lx106-elf/bin/../lib/gcc/xtensa-lx106-elf/4.8.2\libgcc.a(_floatsidf.o)
                              c:/Espressif/ESP8266_SDK/lib\libphy.a(phy_chip_v6_ana.o) (__floatunsidf)
c:/espressif/xtensa-lx106-elf/bin/../lib/gcc/xtensa-lx106-elf/4.8.2\libgcc.a(_truncdfsf2.o)
                              c:/Espressif/ESP8266_SDK/lib\libphy.a(phy_chip_v6_ana.o) (__truncdfsf2)
c:/espressif/xtensa-lx106-elf/bin/../lib/gcc/xtensa-lx106-elf/4.8.2\libgcc.a(_popcountsi2.o)
                              c:/Espressif/ESP8266_SDK/lib\libpp.a(if_hwctrl.o) (__popcountsi2)
c:/espressif/xtensa-lx106-elf/bin/../lib/gcc/xtensa-lx106-elf/4.8.2\libgcc.a(_divdi3.o)
                              c:/Espressif/ESP8266_SDK/lib\libphy.a(phy_chip_v6_cal.o) (__divdi3)
c:/espressif/xtensa-lx106-elf/bin/../lib/gcc/xtensa-lx106-elf/4.8.2\libgcc.a(_udivdi3.o)
                              c:/Espressif/ESP8266_SDK/lib\libssl.a(ssl_bigint.o) (__udivdi3)
c:/espressif/xtensa-lx106-elf/bin/../lib/gcc/xtensa-lx106-elf/4.8.2\libgcc.a(_umoddi3.o)
                              c:/Espressif/ESP8266_SDK/lib\libpp.a(pm.o) (__umoddi3)
c:/espressif/xtensa-lx106-elf/bin/../lib/gcc/xtensa-lx106-elf/4.8.2\libgcc.a(_popcount_tab.o)
                              c:/espressif/xtensa-lx106-elf/bin/../lib/gcc/xtensa-lx106-elf/4.8.2\libgcc.a(_popcountsi2.o) (__popcount_tab)
c:/Espressif/ESP8266_SDK/lib\libnet80211.a(ieee80211_crypto_tkip.o)
                              c:/Espressif/ESP8266_SDK/lib\libwpa.a(wpa_auth.o) (tkip)
c:/Espressif/ESP8266_SDK/lib\libnet80211.a(ieee80211_crypto_wep.o)
                              c:/Espressif/ESP8266_SDK/lib\libwpa.a(wpa_auth.o) (wep)

Allocating common symbols
Common symbol       size              file

default_private_key
                    0x4               build/app_app.a(mqtt.o)
mqttClient          0xcc              build/app_app.a(user_main.o)
currentOutputs      0x4               build/app_app.a(user_main.o)
default_certificate
                    0x4               build/app_app.a(mqtt.o)
outputOverrides     0x4               build/app_app.a(user_main.o)
mqttConnected       0x1               build/app_app.a(user_main.o)
sysCfg              0x174             build/app_app.a(config.o)
mqtt_procTaskQueue  0x8               build/app_app.a(mqtt.o)
saveFlag            0x4               build/app_app.a(config.o)

Memory Configuration

Name             Origin             Length             Attributes
dport0_0_seg     0x3ff00000         0x00000010
dram0_0_seg      0x3ffe8000         0x00014000
iram1_0_seg      0x40100000         0x00008000
irom0_0_seg      0x40240000         0x0003c000
*default*        0x00000000         0xffffffff

Linker script and memory map

START GROUP
LOAD c:/espressif/xtensa-lx106-elf/bin/../lib/gcc/xtensa-lx106-elf/4.8.2/../../../../xtensa-lx106-elf/lib\libc.a
LOAD c:/espressif/xtensa-lx106-elf/bin/../lib/gcc/xtensa-lx106-elf/4.8.2\libgcc.a
LOAD c:/espressif/xtensa-lx106-elf/bin/../lib/gcc/xtensa-lx106-elf/4.8.2/../../../../xtensa-lx106-elf/lib\libhal.a
LOAD c:/Espressif/ESP8266_SDK/lib\libphy.a
LOAD c:/Espressif/ESP8266_SDK/lib\libpp.a
LOAD c:/Espressif/ESP8266_SDK/lib\libnet80211.a
LOAD c:/Espressif/ESP8266_SDK/lib\liblwip.a
LOAD c:/Espressif/ESP8266_SDK/lib\libwpa.a
LOAD c:/Espressif/ESP8266_SDK/lib\libmain.a
LOAD c:/Espressif/ESP8266_SDK/lib\libupgrade.a
LOAD c:/Espressif/ESP8266_SDK/lib\libssl.a
LOAD c:/Espressif/ESP8266_SDK/lib\libsmartconfig.a
LOAD build/app_app.a
END GROUP
                0x40000000                PROVIDE (_memmap_vecbase_reset, 0x40000000)
                0x00000110                _memmap_cacheattr_wb_base = 0x110
                0x00000110                _memmap_cacheattr_wt_base = 0x110
                0x00000220                _memmap_cacheattr_bp_base = 0x220
                0xfffff00f                _memmap_cacheattr_unused_mask = 0xfffff00f
                0x2222211f                _memmap_cacheattr_wb_trapnull = 0x2222211f
                0x2222211f                _memmap_cacheattr_wba_trapnull = 0x2222211f
                0x2222211f                _memmap_cacheattr_wbna_trapnull = 0x2222211f
                0x2222211f                _memmap_cacheattr_wt_trapnull = 0x2222211f
                0x2222222f                _memmap_cacheattr_bp_trapnull = 0x2222222f
                0xfffff11f                _memmap_cacheattr_wb_strict = 0xfffff11f
                0xfffff11f                _memmap_cacheattr_wt_strict = 0xfffff11f
                0xfffff22f                _memmap_cacheattr_bp_strict = 0xfffff22f
                0x22222112                _memmap_cacheattr_wb_allvalid = 0x22222112
                0x22222112                _memmap_cacheattr_wt_allvalid = 0x22222112
                0x22222222                _memmap_cacheattr_bp_allvalid = 0x22222222
                0x2222211f                PROVIDE (_memmap_cacheattr_reset, _memmap_cacheattr_wb_trapnull)

.dport0.rodata  0x3ff00000        0x0
                0x3ff00000                _dport0_rodata_start = ABSOLUTE (.)
 *(.dport0.rodata)
 *(.dport.rodata)
                0x3ff00000                _dport0_rodata_end = ABSOLUTE (.)

.dport0.literal
                0x3ff00000        0x0
                0x3ff00000                _dport0_literal_start = ABSOLUTE (.)
 *(.dport0.literal)
 *(.dport.literal)
                0x3ff00000                _dport0_literal_end = ABSOLUTE (.)

.dport0.data    0x3ff00000        0x0
                0x3ff00000                _dport0_data_start = ABSOLUTE (.)
 *(.dport0.data)
 *(.dport.data)
                0x3ff00000                _dport0_data_end = ABSOLUTE (.)

.data           0x3ffe8000      0x9f4
                0x3ffe8000                _data_start = ABSOLUTE (.)
 *(.data)
 .data          0x3ffe8000        0x0 c:/Espressif/ESP8266_SDK/lib\libmain.a(debug-vector.o)
 .data          0x3ffe8000        0x0 c:/Espressif/ESP8266_SDK/lib\libmain.a(double-vector.o)
 .data          0x3ffe8000        0x0 c:/Espressif/ESP8266_SDK/lib\libmain.a(kernel-vector.o)
 .data          0x3ffe8000        0x4 c:/Espressif/ESP8266_SDK/lib\libmain.a(nmi-vector.o)
                0x3ffe8000                _Pri_3_HandlerAddress
 .data          0x3ffe8004        0x0 c:/Espressif/ESP8266_SDK/lib\libmain.a(user-vector.o)
 .data          0x3ffe8004        0x0 c:/Espressif/ESP8266_SDK/lib\libmain.a(vector.o)
 .data          0x3ffe8004        0x1 c:/Espressif/ESP8266_SDK/lib\libmain.a(app_main.o)
 .data          0x3ffe8005        0x0 c:/Espressif/ESP8266_SDK/lib\libmain.a(ets_timer.o)
 .data          0x3ffe8005        0x0 c:/Espressif/ESP8266_SDK/lib\libmain.a(mem_manager.o)
 .data          0x3ffe8005        0x0 c:/Espressif/ESP8266_SDK/lib\libmain.a(spi_flash.o)
 *fill*         0x3ffe8005        0x3 
 .data          0x3ffe8008        0x5 c:/Espressif/ESP8266_SDK/lib\libmain.a(user_interface.o)
                0x3ffe8009                timer2_ms_flag
                0x3ffe800a                dhcps_flag
                0x3ffe800b                dhcpc_flag
                0x3ffe800c                reconnect_internal
 .data          0x3ffe800d        0x0 c:/Espressif/ESP8266_SDK/lib\libmain.a(eagle_lib.o)
 *fill*         0x3ffe800d        0x3 
 .data          0x3ffe8010        0x1 c:/Espressif/ESP8266_SDK/lib\libmain.a(eagle_lwip_if.o)
                0x3ffe8010                default_hostname
 *fill*         0x3ffe8011        0x3 
 .data          0x3ffe8014        0x8 build/app_app.a(user_main.o)
 .data          0x3ffe801c        0x0 build/app_app.a(mqtt.o)
 .data          0x3ffe801c        0x0 build/app_app.a(wifi.o)
 .data          0x3ffe801c        0x0 build/app_app.a(config.o)
 .data          0x3ffe801c        0x0 build/app_app.a(easygpio.o)
 .data          0x3ffe801c        0x0 build/app_app.a(dht22.o)
 .data          0x3ffe801c        0x0 build/app_app.a(stdout.o)
 .data          0x3ffe801c        0x0 build/app_app.a(utils.o)
 .data          0x3ffe801c        0x0 build/app_app.a(queue.o)
 .data          0x3ffe801c        0x0 build/app_app.a(mqtt_msg.o)
 .data          0x3ffe801c        0x0 build/app_app.a(ringbuf.o)
 .data          0x3ffe801c        0x0 build/app_app.a(proto.o)
 .data          0x3ffe801c        0x0 c:/espressif/xtensa-lx106-elf/bin/../lib/gcc/xtensa-lx106-elf/4.8.2/../../../../xtensa-lx106-elf/lib\libc.a(lib_a-atoi.o)
 .data          0x3ffe801c        0x0 c:/espressif/xtensa-lx106-elf/bin/../lib/gcc/xtensa-lx106-elf/4.8.2/../../../../xtensa-lx106-elf/lib\libc.a(lib_a-lcltime.o)
 .data          0x3ffe801c        0x0 c:/espressif/xtensa-lx106-elf/bin/../lib/gcc/xtensa-lx106-elf/4.8.2/../../../../xtensa-lx106-elf/lib\libc.a(lib_a-lcltime_r.o)
 .data          0x3ffe801c        0x0 c:/espressif/xtensa-lx106-elf/bin/../lib/gcc/xtensa-lx106-elf/4.8.2/../../../../xtensa-lx106-elf/lib\libc.a(lib_a-memcpy.o)
 .data          0x3ffe801c        0x0 c:/espressif/xtensa-lx106-elf/bin/../lib/gcc/xtensa-lx106-elf/4.8.2/../../../../xtensa-lx106-elf/lib\libc.a(lib_a-mktm_r.o)
 .data          0x3ffe801c        0x0 c:/espressif/xtensa-lx106-elf/bin/../lib/gcc/xtensa-lx106-elf/4.8.2/../../../../xtensa-lx106-elf/lib\libc.a(lib_a-strcmp.o)
 .data          0x3ffe801c        0x0 c:/espressif/xtensa-lx106-elf/bin/../lib/gcc/xtensa-lx106-elf/4.8.2/../../../../xtensa-lx106-elf/lib\libc.a(lib_a-strlen.o)
 .data          0x3ffe801c        0x0 c:/espressif/xtensa-lx106-elf/bin/../lib/gcc/xtensa-lx106-elf/4.8.2/../../../../xtensa-lx106-elf/lib\libc.a(lib_a-strtol.o)
 .data          0x3ffe801c        0x0 c:/espressif/xtensa-lx106-elf/bin/../lib/gcc/xtensa-lx106-elf/4.8.2/../../../../xtensa-lx106-elf/lib\libc.a(lib_a-tzlock.o)
 .data          0x3ffe801c        0x8 c:/espressif/xtensa-lx106-elf/bin/../lib/gcc/xtensa-lx106-elf/4.8.2/../../../../xtensa-lx106-elf/lib\libc.a(lib_a-tzvars.o)
                0x3ffe801c                _tzname
 .data          0x3ffe8024        0x4 c:/espressif/xtensa-lx106-elf/bin/../lib/gcc/xtensa-lx106-elf/4.8.2/../../../../xtensa-lx106-elf/lib\libc.a(lib_a-ctype_.o)
                0x3ffe8024                __ctype_ptr__
 .data          0x3ffe8028       0x40 c:/espressif/xtensa-lx106-elf/bin/../lib/gcc/xtensa-lx106-elf/4.8.2/../../../../xtensa-lx106-elf/lib\libc.a(lib_a-gettzinfo.o)
 .data          0x3ffe8068      0x430 c:/espressif/xtensa-lx106-elf/bin/../lib/gcc/xtensa-lx106-elf/4.8.2/../../../../xtensa-lx106-elf/lib\libc.a(lib_a-impure.o)
                0x3ffe8068                _impure_ptr
 .data          0x3ffe8498        0x0 c:/espressif/xtensa-lx106-elf/bin/../lib/gcc/xtensa-lx106-elf/4.8.2\libgcc.a(_divsi3.o)
 .data          0x3ffe8498        0x0 c:/espressif/xtensa-lx106-elf/bin/../lib/gcc/xtensa-lx106-elf/4.8.2\libgcc.a(_modsi3.o)
 .data          0x3ffe8498        0x0 c:/espressif/xtensa-lx106-elf/bin/../lib/gcc/xtensa-lx106-elf/4.8.2\libgcc.a(_udivsi3.o)
 .data          0x3ffe8498        0x0 c:/espressif/xtensa-lx106-elf/bin/../lib/gcc/xtensa-lx106-elf/4.8.2\libgcc.a(_umodsi3.o)
 .data          0x3ffe8498        0x0 c:/espressif/xtensa-lx106-elf/bin/../lib/gcc/xtensa-lx106-elf/4.8.2\libgcc.a(_addsubsf3.o)
 .data          0x3ffe8498        0x0 c:/espressif/xtensa-lx106-elf/bin/../lib/gcc/xtensa-lx106-elf/4.8.2\libgcc.a(_mulsf3.o)
 .data          0x3ffe8498        0x0 c:/espressif/xtensa-lx106-elf/bin/../lib/gcc/xtensa-lx106-elf/4.8.2\libgcc.a(_divsf3.o)
 .data          0x3ffe8498        0x0 c:/espressif/xtensa-lx106-elf/bin/../lib/gcc/xtensa-lx106-elf/4.8.2\libgcc.a(_cmpsf2.o)
 .data          0x3ffe8498        0x0 c:/espressif/xtensa-lx106-elf/bin/../lib/gcc/xtensa-lx106-elf/4.8.2\libgcc.a(_fixsfsi.o)
 .data          0x3ffe8498        0x0 c:/espressif/xtensa-lx106-elf/bin/../lib/gcc/xtensa-lx106-elf/4.8.2\libgcc.a(_floatsisf.o)
 .data          0x3ffe8498        0x0 c:/espressif/xtensa-lx106-elf/bin/../lib/gcc/xtensa-lx106-elf/4.8.2\libgcc.a(_muldi3.o)
 .data          0x3ffe8498        0x0 c:/espressif/xtensa-lx106-elf/bin/../lib/gcc/xtensa-lx106-elf/4.8.2\libgcc.a(_umulsidi3.o)
 .data          0x3ffe8498        0x0 c:/espressif/xtensa-lx106-elf/bin/../lib/gcc/xtensa-lx106-elf/4.8.2/../../../../xtensa-lx106-elf/lib\libhal.a(int_asm--set_intclear.o)
 .data          0x3ffe8498        0x0 c:/Espressif/ESP8266_SDK/lib\libphy.a(phy.o)
 .data          0x3ffe8498        0x0 c:/Espressif/ESP8266_SDK/lib\libphy.a(phy_chip_v6_ana.o)
 *fill*         0x3ffe8498        0x8 
 .data          0x3ffe84a0       0x53 c:/Espressif/ESP8266_SDK/lib\libphy.a(phy_chip_v6.o)
                0x3ffe84a2                tx_rf_ana_gain
                0x3ffe84c4                tx_pwctrl_atten_init_en
                0x3ffe84d0                rx_gain_swp
                0x3ffe84f0                test_rffreq_txcap
 .data          0x3ffe84f3        0x0 c:/Espressif/ESP8266_SDK/lib\libphy.a(phy_chip_v6_cal.o)
 .data          0x3ffe84f3        0x0 c:/Espressif/ESP8266_SDK/lib\libphy.a(phy_chip_v6_unused.o)
 *fill*         0x3ffe84f3        0x1 
 .data          0x3ffe84f4        0x4 c:/Espressif/ESP8266_SDK/lib\libphy.a(phy_sleep.o)
                0x3ffe84f4                chip_version
 .data          0x3ffe84f8        0x0 c:/Espressif/ESP8266_SDK/lib\libpp.a(if_hwctrl.o)
 .data          0x3ffe84f8        0x0 c:/Espressif/ESP8266_SDK/lib\libpp.a(lmac.o)
 .data          0x3ffe84f8        0x1 c:/Espressif/ESP8266_SDK/lib\libpp.a(pm.o)
 *fill*         0x3ffe84f9        0x3 
 .data          0x3ffe84fc        0x1 c:/Espressif/ESP8266_SDK/lib\libpp.a(pm_for_bcn_only_mode.o)
 *fill*         0x3ffe84fd        0x3 
 .data          0x3ffe8500       0x1c c:/Espressif/ESP8266_SDK/lib\libpp.a(pp.o)
                0x3ffe8500                soft_wdt_interval
                0x3ffe8504                NoiseTimerInterval
                0x3ffe850c                sleep_start_wait_time
                0x3ffe8518                tcb
 *fill*         0x3ffe851c        0x4 
 .data          0x3ffe8520       0x40 c:/Espressif/ESP8266_SDK/lib\libpp.a(rate_control.o)
 .data          0x3ffe8560      0x22c c:/Espressif/ESP8266_SDK/lib\libpp.a(trc.o)
 .data          0x3ffe878c        0x8 c:/Espressif/ESP8266_SDK/lib\libpp.a(wdev.o)
 .data          0x3ffe8794        0x0 c:/Espressif/ESP8266_SDK/lib\libpp.a(esf_buf.o)
 .data          0x3ffe8794        0x0 c:/Espressif/ESP8266_SDK/lib\libnet80211.a(ieee80211.o)
 .data          0x3ffe8794        0x0 c:/Espressif/ESP8266_SDK/lib\libnet80211.a(ieee80211_crypto.o)
 .data          0x3ffe8794        0x0 c:/Espressif/ESP8266_SDK/lib\libnet80211.a(ieee80211_ets.o)
 .data          0x3ffe8794        0x1 c:/Espressif/ESP8266_SDK/lib\libnet80211.a(ieee80211_hostap.o)
                0x3ffe8794                TmpSTAAPCloseAP
 .data          0x3ffe8795        0x0 c:/Espressif/ESP8266_SDK/lib\libnet80211.a(ieee80211_ht.o)
 .data          0x3ffe8795        0x0 c:/Espressif/ESP8266_SDK/lib\libnet80211.a(ieee80211_input.o)
 .data          0x3ffe8795        0x0 c:/Espressif/ESP8266_SDK/lib\libnet80211.a(ieee80211_output.o)
 *fill*         0x3ffe8795        0x3 
 .data          0x3ffe8798      0x1a8 c:/Espressif/ESP8266_SDK/lib\libnet80211.a(ieee80211_phy.o)
 .data          0x3ffe8940        0x0 c:/Espressif/ESP8266_SDK/lib\libnet80211.a(ieee80211_power.o)
 .data          0x3ffe8940        0x6 c:/Espressif/ESP8266_SDK/lib\libnet80211.a(ieee80211_proto.o)
                0x3ffe8940                ieee80211_addr_bcast
 .data          0x3ffe8946        0x0 c:/Espressif/ESP8266_SDK/lib\libnet80211.a(ieee80211_scan.o)
 .data          0x3ffe8946        0x0 c:/Espressif/ESP8266_SDK/lib\libnet80211.a(ieee80211_sta.o)
 .data          0x3ffe8946        0x0 c:/Espressif/ESP8266_SDK/lib\libnet80211.a(wl_chm.o)
 .data          0x3ffe8946        0x0 c:/Espressif/ESP8266_SDK/lib\libnet80211.a(wl_cnx.o)
 *fill*         0x3ffe8946        0x2 
 .data          0x3ffe8948       0x1c c:/Espressif/ESP8266_SDK/lib\libnet80211.a(ieee80211_action.o)
 .data          0x3ffe8964        0x0 c:/Espressif/ESP8266_SDK/lib\libnet80211.a(ieee80211_action_vendor.o)
 .data          0x3ffe8964       0x18 c:/Espressif/ESP8266_SDK/lib\libnet80211.a(ieee80211_crypto_ccmp.o)
                0x3ffe8964                ccmp
 .data          0x3ffe897c        0x0 c:/Espressif/ESP8266_SDK/lib\libnet80211.a(ieee80211_ie_vendor.o)
 .data          0x3ffe897c        0x4 c:/Espressif/ESP8266_SDK/lib\liblwip.a(dhcp.o)
 .data          0x3ffe8980        0x2 c:/Espressif/ESP8266_SDK/lib\liblwip.a(dhcpserver.o)
 .data          0x3ffe8982        0x0 c:/Espressif/ESP8266_SDK/lib\liblwip.a(dns.o)
 .data          0x3ffe8982        0x0 c:/Espressif/ESP8266_SDK/lib\liblwip.a(espconn.o)
 .data          0x3ffe8982        0x0 c:/Espressif/ESP8266_SDK/lib\liblwip.a(espconn_tcp.o)
 .data          0x3ffe8982        0x0 c:/Espressif/ESP8266_SDK/lib\liblwip.a(espconn_udp.o)
 .data          0x3ffe8982        0x0 c:/Espressif/ESP8266_SDK/lib\liblwip.a(etharp.o)
 .data          0x3ffe8982        0x0 c:/Espressif/ESP8266_SDK/lib\liblwip.a(igmp.o)
 .data          0x3ffe8982        0x0 c:/Espressif/ESP8266_SDK/lib\liblwip.a(inet_chksum.o)
 .data          0x3ffe8982        0x0 c:/Espressif/ESP8266_SDK/lib\liblwip.a(init.o)
 .data          0x3ffe8982        0x0 c:/Espressif/ESP8266_SDK/lib\liblwip.a(ip_addr.o)
 .data          0x3ffe8982        0x0 c:/Espressif/ESP8266_SDK/lib\liblwip.a(ip.o)
 .data          0x3ffe8982        0x0 c:/Espressif/ESP8266_SDK/lib\liblwip.a(mdns.o)
 *fill*         0x3ffe8982        0x2 
 .data          0x3ffe8984        0x2 c:/Espressif/ESP8266_SDK/lib\liblwip.a(memp.o)
                0x3ffe8984                memp_sizes_test
 .data          0x3ffe8986        0x0 c:/Espressif/ESP8266_SDK/lib\liblwip.a(netif.o)
 .data          0x3ffe8986        0x0 c:/Espressif/ESP8266_SDK/lib\liblwip.a(pbuf.o)
 .data          0x3ffe8986        0x0 c:/Espressif/ESP8266_SDK/lib\liblwip.a(raw.o)
 .data          0x3ffe8986        0x0 c:/Espressif/ESP8266_SDK/lib\liblwip.a(tcp_in.o)
 *fill*         0x3ffe8986        0x2 
 .data          0x3ffe8988        0x8 c:/Espressif/ESP8266_SDK/lib\liblwip.a(tcp.o)
 .data          0x3ffe8990        0x0 c:/Espressif/ESP8266_SDK/lib\liblwip.a(tcp_out.o)
 .data          0x3ffe8990        0x0 c:/Espressif/ESP8266_SDK/lib\liblwip.a(timers.o)
 .data          0x3ffe8990        0x0 c:/Espressif/ESP8266_SDK/lib\liblwip.a(udp.o)
 .data          0x3ffe8990        0x0 c:/Espressif/ESP8266_SDK/lib\liblwip.a(icmp.o)
 .data          0x3ffe8990        0x0 c:/Espressif/ESP8266_SDK/lib\libwpa.a(ap_config.o)
 .data          0x3ffe8990        0x0 c:/Espressif/ESP8266_SDK/lib\libwpa.a(common.o)
 .data          0x3ffe8990        0x0 c:/Espressif/ESP8266_SDK/lib\libwpa.a(os_xtensa.o)
 .data          0x3ffe8990        0x0 c:/Espressif/ESP8266_SDK/lib\libwpa.a(wpa_auth.o)
 .data          0x3ffe8990        0x0 c:/Espressif/ESP8266_SDK/lib\libwpa.a(wpa_auth_ie.o)
 .data          0x3ffe8990        0x0 c:/Espressif/ESP8266_SDK/lib\libwpa.a(wpa.o)
 .data          0x3ffe8990        0x0 c:/Espressif/ESP8266_SDK/lib\libwpa.a(wpa_common.o)
 .data          0x3ffe8990        0x0 c:/Espressif/ESP8266_SDK/lib\libwpa.a(wpa_debug.o)
 .data          0x3ffe8990        0x0 c:/Espressif/ESP8266_SDK/lib\libwpa.a(wpa_ie.o)
 .data          0x3ffe8990        0x0 c:/Espressif/ESP8266_SDK/lib\libwpa.a(wpa_main.o)
 .data          0x3ffe8990        0x0 c:/Espressif/ESP8266_SDK/lib\libwpa.a(wpas_glue.o)
 .data          0x3ffe8990        0x0 c:/Espressif/ESP8266_SDK/lib\libwpa.a(aes-wrap.o)
 .data          0x3ffe8990        0x0 c:/Espressif/ESP8266_SDK/lib\libwpa.a(aes-internal-enc.o)
 .data          0x3ffe8990       0x14 c:/Espressif/ESP8266_SDK/lib\libssl.a(espconn_secure.o)
                0x3ffe8990                ssl_option
 .data          0x3ffe89a4        0x0 c:/Espressif/ESP8266_SDK/lib\libssl.a(espconn_ssl.o)
 .data          0x3ffe89a4        0x0 c:/Espressif/ESP8266_SDK/lib\libssl.a(ssl_loader.o)
 .data          0x3ffe89a4        0x0 c:/Espressif/ESP8266_SDK/lib\libssl.a(ssl_md5.o)
 .data          0x3ffe89a4        0x0 c:/Espressif/ESP8266_SDK/lib\libssl.a(ssl_tls1_clnt.o)
 .data          0x3ffe89a4        0x8 c:/Espressif/ESP8266_SDK/lib\libssl.a(ssl_tls1.o)
 .data          0x3ffe89ac        0x0 c:/Espressif/ESP8266_SDK/lib\libssl.a(ssl_tls1_svr.o)
 .data          0x3ffe89ac        0x0 c:/Espressif/ESP8266_SDK/lib\libssl.a(ssl_x509.o)
 .data          0x3ffe89ac        0x0 c:/Espressif/ESP8266_SDK/lib\libssl.a(ssl_aes.o)
 .data          0x3ffe89ac        0x0 c:/Espressif/ESP8266_SDK/lib\libssl.a(ssl_asn1.o)
 .data          0x3ffe89ac        0x0 c:/Espressif/ESP8266_SDK/lib\libssl.a(ssl_bigint.o)
 .data          0x3ffe89ac        0x0 c:/Espressif/ESP8266_SDK/lib\libssl.a(ssl_crypto_misc.o)
 .data          0x3ffe89ac        0x0 c:/Espressif/ESP8266_SDK/lib\libssl.a(ssl_hmac.o)
 .data          0x3ffe89ac        0x0 c:/Espressif/ESP8266_SDK/lib\libssl.a(ssl_md2.o)
 .data          0x3ffe89ac        0x0 c:/Espressif/ESP8266_SDK/lib\libssl.a(ssl_os_port.o)
 .data          0x3ffe89ac        0x0 c:/Espressif/ESP8266_SDK/lib\libssl.a(ssl_rc4.o)
 .data          0x3ffe89ac        0x0 c:/Espressif/ESP8266_SDK/lib\libssl.a(ssl_rsa.o)
 .data          0x3ffe89ac        0x0 c:/Espressif/ESP8266_SDK/lib\libssl.a(ssl_sha1.o)
 *fill*         0x3ffe89ac        0x4 
 .data          0x3ffe89b0        0xe c:/Espressif/ESP8266_SDK/lib\libsmartconfig.a(sc_sniffer.o)
                0x3ffe89b8                ET_Group_bssid
 .data          0x3ffe89be        0x0 c:/Espressif/ESP8266_SDK/lib\libsmartconfig.a(sc_airkiss.o)
 *fill*         0x3ffe89be        0x2 
 .data          0x3ffe89c0        0x1 c:/Espressif/ESP8266_SDK/lib\libsmartconfig.a(sc_esptouch.o)
                0x3ffe89c0                g_ET_TimeOut
 .data          0x3ffe89c1        0x0 c:/espressif/xtensa-lx106-elf/bin/../lib/gcc/xtensa-lx106-elf/4.8.2/../../../../xtensa-lx106-elf/lib\libc.a(lib_a-memcmp.o)
 .data          0x3ffe89c1        0x0 c:/espressif/xtensa-lx106-elf/bin/../lib/gcc/xtensa-lx106-elf/4.8.2\libgcc.a(_ashrdi3.o)
 .data          0x3ffe89c1        0x0 c:/espressif/xtensa-lx106-elf/bin/../lib/gcc/xtensa-lx106-elf/4.8.2\libgcc.a(_fixunssfsi.o)
 .data          0x3ffe89c1        0x0 c:/espressif/xtensa-lx106-elf/bin/../lib/gcc/xtensa-lx106-elf/4.8.2\libgcc.a(_muldf3.o)
 .data          0x3ffe89c1        0x0 c:/espressif/xtensa-lx106-elf/bin/../lib/gcc/xtensa-lx106-elf/4.8.2\libgcc.a(_divdf3.o)
 .data          0x3ffe89c1        0x0 c:/espressif/xtensa-lx106-elf/bin/../lib/gcc/xtensa-lx106-elf/4.8.2\libgcc.a(_fixdfsi.o)
 .data          0x3ffe89c1        0x0 c:/espressif/xtensa-lx106-elf/bin/../lib/gcc/xtensa-lx106-elf/4.8.2\libgcc.a(_floatsidf.o)
 .data          0x3ffe89c1        0x0 c:/espressif/xtensa-lx106-elf/bin/../lib/gcc/xtensa-lx106-elf/4.8.2\libgcc.a(_truncdfsf2.o)
 .data          0x3ffe89c1        0x0 c:/espressif/xtensa-lx106-elf/bin/../lib/gcc/xtensa-lx106-elf/4.8.2\libgcc.a(_popcountsi2.o)
 .data          0x3ffe89c1        0x0 c:/espressif/xtensa-lx106-elf/bin/../lib/gcc/xtensa-lx106-elf/4.8.2\libgcc.a(_divdi3.o)
 .data          0x3ffe89c1        0x0 c:/espressif/xtensa-lx106-elf/bin/../lib/gcc/xtensa-lx106-elf/4.8.2\libgcc.a(_udivdi3.o)
 .data          0x3ffe89c1        0x0 c:/espressif/xtensa-lx106-elf/bin/../lib/gcc/xtensa-lx106-elf/4.8.2\libgcc.a(_umoddi3.o)
 .data          0x3ffe89c1        0x0 c:/espressif/xtensa-lx106-elf/bin/../lib/gcc/xtensa-lx106-elf/4.8.2\libgcc.a(_popcount_tab.o)
 *fill*         0x3ffe89c1        0x3 
 .data          0x3ffe89c4       0x18 c:/Espressif/ESP8266_SDK/lib\libnet80211.a(ieee80211_crypto_tkip.o)
                0x3ffe89c4                tkip
 .data          0x3ffe89dc       0x18 c:/Espressif/ESP8266_SDK/lib\libnet80211.a(ieee80211_crypto_wep.o)
                0x3ffe89dc                wep
 *(.data.*)
 *(.gnu.linkonce.d.*)
 *(.data1)
 *(.sdata)
 *(.sdata.*)
 *(.gnu.linkonce.s.*)
 *(.sdata2)
 *(.sdata2.*)
 *(.gnu.linkonce.s2.*)
 *(.jcr)
                0x3ffe89f4                _data_end = ABSOLUTE (.)

.rodata         0x3ffe8a00     0x1340
                0x3ffe8a00                _rodata_start = ABSOLUTE (.)
 *(.sdk.version)
 .sdk.version   0x3ffe8a00        0x6 c:/Espressif/ESP8266_SDK/lib\libmain.a(app_main.o)
                0x3ffe8a00                SDK_VERSION
 *(.rodata)
 *fill*         0x3ffe8a06        0x2 
 .rodata        0x3ffe8a08        0x8 c:/Espressif/ESP8266_SDK/lib\libmain.a(eagle_lib.o)
 .rodata        0x3ffe8a10       0x18 build/app_app.a(user_main.o)
                0x3ffe8a24                outputMap
 .rodata        0x3ffe8a28       0x40 build/app_app.a(easygpio.o)
 .rodata        0x3ffe8a68       0x68 c:/espressif/xtensa-lx106-elf/bin/../lib/gcc/xtensa-lx106-elf/4.8.2/../../../../xtensa-lx106-elf/lib\libc.a(lib_a-mktm_r.o)
 .rodata        0x3ffe8ad0      0x101 c:/espressif/xtensa-lx106-elf/bin/../lib/gcc/xtensa-lx106-elf/4.8.2/../../../../xtensa-lx106-elf/lib\libc.a(lib_a-ctype_.o)
                0x3ffe8ad0                _ctype_
 *fill*         0x3ffe8bd1        0x3 
 .rodata        0x3ffe8bd4        0x4 c:/espressif/xtensa-lx106-elf/bin/../lib/gcc/xtensa-lx106-elf/4.8.2/../../../../xtensa-lx106-elf/lib\libc.a(lib_a-impure.o)
                0x3ffe8bd4                _global_impure_ptr
 .rodata        0x3ffe8bd8        0x8 c:/Espressif/ESP8266_SDK/lib\libphy.a(phy_chip_v6_ana.o)
 .rodata        0x3ffe8be0        0x8 c:/Espressif/ESP8266_SDK/lib\libphy.a(phy_chip_v6.o)
 .rodata        0x3ffe8be8        0x8 c:/Espressif/ESP8266_SDK/lib\libpp.a(pp.o)
 .rodata        0x3ffe8bf0        0x8 c:/Espressif/ESP8266_SDK/lib\libnet80211.a(ieee80211.o)
                0x3ffe8bf0                ieee80211_opcap
 .rodata        0x3ffe8bf8        0x4 c:/Espressif/ESP8266_SDK/lib\libnet80211.a(ieee80211_hostap.o)
 .rodata        0x3ffe8bfc        0x4 c:/Espressif/ESP8266_SDK/lib\libnet80211.a(ieee80211_output.o)
 .rodata        0x3ffe8c00       0x70 c:/Espressif/ESP8266_SDK/lib\libnet80211.a(ieee80211_proto.o)
 .rodata        0x3ffe8c70        0x8 c:/Espressif/ESP8266_SDK/lib\libnet80211.a(wl_cnx.o)
 .rodata        0x3ffe8c78        0x8 c:/Espressif/ESP8266_SDK/lib\liblwip.a(dhcpserver.o)
 .rodata        0x3ffe8c80        0x6 c:/Espressif/ESP8266_SDK/lib\liblwip.a(etharp.o)
                0x3ffe8c80                ethbroadcast
 *fill*         0x3ffe8c86        0x2 
 .rodata        0x3ffe8c88        0x4 c:/Espressif/ESP8266_SDK/lib\liblwip.a(ip_addr.o)
                0x3ffe8c88                ip_addr_broadcast
 *fill*         0x3ffe8c8c        0x4 
 .rodata        0x3ffe8c90       0x14 c:/Espressif/ESP8266_SDK/lib\liblwip.a(memp.o)
                0x3ffe8c90                memp_sizes
 *fill*         0x3ffe8ca4        0xc 
 .rodata        0x3ffe8cb0       0x2d c:/Espressif/ESP8266_SDK/lib\liblwip.a(tcp.o)
                0x3ffe8cb0                tcp_pcb_lists
                0x3ffe8cc0                tcp_persist_backoff
                0x3ffe8cd0                tcp_backoff
 *fill*         0x3ffe8cdd        0x3 
 .rodata        0x3ffe8ce0        0xc c:/Espressif/ESP8266_SDK/lib\libwpa.a(wpa_common.o)
 *fill*         0x3ffe8cec        0x4 
 .rodata        0x3ffe8cf0       0x34 c:/Espressif/ESP8266_SDK/lib\libssl.a(ssl_loader.o)
 *fill*         0x3ffe8d24        0xc 
 .rodata        0x3ffe8d30       0x40 c:/Espressif/ESP8266_SDK/lib\libssl.a(ssl_md5.o)
 .rodata        0x3ffe8d70       0x74 c:/Espressif/ESP8266_SDK/lib\libssl.a(ssl_tls1.o)
                0x3ffe8dc4                ssl_prot_prefs
 *fill*         0x3ffe8de4        0x4 
 .rodata        0x3ffe8de8       0x10 c:/Espressif/ESP8266_SDK/lib\libssl.a(ssl_tls1_svr.o)
 *fill*         0x3ffe8df8        0x8 
 .rodata        0x3ffe8e00      0x220 c:/Espressif/ESP8266_SDK/lib\libssl.a(ssl_aes.o)
 .rodata        0x3ffe9020       0x18 c:/Espressif/ESP8266_SDK/lib\libssl.a(ssl_asn1.o)
 *fill*         0x3ffe9038        0x8 
 .rodata        0x3ffe9040       0x90 c:/Espressif/ESP8266_SDK/lib\libssl.a(ssl_crypto_misc.o)
                0x3ffe9040                unsupported_str
 .rodata        0x3ffe90d0      0x100 c:/Espressif/ESP8266_SDK/lib\libssl.a(ssl_md2.o)
 .rodata        0x3ffe91d0       0x10 c:/Espressif/ESP8266_SDK/lib\libssl.a(ssl_sha1.o)
 .rodata        0x3ffe91e0       0x1c c:/Espressif/ESP8266_SDK/lib\libsmartconfig.a(sc_sniffer.o)
                0x3ffe91e0                SC_TOUCH_VERSION
                0x3ffe91e8                SC_KISS_VERSION
 .rodata        0x3ffe91fc        0x8 c:/Espressif/ESP8266_SDK/lib\libsmartconfig.a(sc_airkiss.o)
                0x3ffe91fc                RSSI_BEAR
                0x3ffe91fd                DATA_RSSI_BEAR
                0x3ffe91fe                RSSI_MIN
 .rodata        0x3ffe9204      0x100 c:/espressif/xtensa-lx106-elf/bin/../lib/gcc/xtensa-lx106-elf/4.8.2\libgcc.a(_popcount_tab.o)
                0x3ffe9204                __popcount_tab
 *(.rodata.*)
 .rodata.str1.4
                0x3ffe9304       0x6b c:/Espressif/ESP8266_SDK/lib\libmain.a(app_main.o)
 *fill*         0x3ffe936f        0x1 
 .rodata.str1.4
                0x3ffe9370       0x14 c:/Espressif/ESP8266_SDK/lib\libmain.a(ets_timer.o)
 .rodata.str1.4
                0x3ffe9384       0x28 c:/Espressif/ESP8266_SDK/lib\libmain.a(mem_manager.o)
 .rodata.str1.4
                0x3ffe93ac       0x1b c:/Espressif/ESP8266_SDK/lib\libmain.a(user_interface.o)
 *fill*         0x3ffe93c7        0x1 
 .rodata.str1.4
                0x3ffe93c8      0x358 build/app_app.a(user_main.o)
                                0x360 (size before relaxing)
 .rodata.str1.4
                0x3ffe9720        0x3 build/app_app.a(wifi.o)
 *fill*         0x3ffe9723        0x1 
 .rodata.str1.4
                0x3ffe9724       0x71 build/app_app.a(config.o)
                                 0x79 (size before relaxing)
 *fill*         0x3ffe9795        0x3 
 .rodata.str1.4
                0x3ffe9798       0xd8 build/app_app.a(easygpio.o)
 .rodata.str1.4
                0x3ffe9870        0x7 build/app_app.a(mqtt_msg.o)
 *fill*         0x3ffe9877        0x1 
 .rodata.str1.4
                0x3ffe9878        0x4 c:/espressif/xtensa-lx106-elf/bin/../lib/gcc/xtensa-lx106-elf/4.8.2/../../../../xtensa-lx106-elf/lib\libc.a(lib_a-tzvars.o)
 .rodata.str1.4
                0x3ffe987c        0x2 c:/espressif/xtensa-lx106-elf/bin/../lib/gcc/xtensa-lx106-elf/4.8.2/../../../../xtensa-lx106-elf/lib\libc.a(lib_a-impure.o)
 *fill*         0x3ffe987e        0x2 
 .rodata.str1.4
                0x3ffe9880        0x7 c:/Espressif/ESP8266_SDK/lib\libpp.a(lmac.o)
                                  0xf (size before relaxing)
 *fill*         0x3ffe9887        0x1 
 .rodata.str1.4
                0x3ffe9888       0x17 c:/Espressif/ESP8266_SDK/lib\libpp.a(pm.o)
                                 0x1f (size before relaxing)
 *fill*         0x3ffe989f        0x1 
 .rodata.str1.4
                0x3ffe98a0       0x17 c:/Espressif/ESP8266_SDK/lib\libpp.a(pm_for_bcn_only_mode.o)
                                 0x27 (size before relaxing)
 *fill*         0x3ffe98b7        0x1 
 .rodata.str1.4
                0x3ffe98b8        0x5 c:/Espressif/ESP8266_SDK/lib\libpp.a(pp.o)
                                  0xd (size before relaxing)
 *fill*         0x3ffe98bd        0x3 
 .rodata.str1.4
                0x3ffe98c0        0x7 c:/Espressif/ESP8266_SDK/lib\libpp.a(wdev.o)
                                  0xf (size before relaxing)
 .rodata.str1.4
                0x00000000        0x7 c:/Espressif/ESP8266_SDK/lib\libnet80211.a(ieee80211.o)
 .rodata.str1.4
                0x00000000        0x7 c:/Espressif/ESP8266_SDK/lib\libnet80211.a(ieee80211_output.o)
 *fill*         0x3ffe98c7        0x1 
 .rodata.str1.4
                0x3ffe98c8        0x4 c:/Espressif/ESP8266_SDK/lib\libnet80211.a(ieee80211_scan.o)
 .rodata.str1.4
                0x3ffe98cc        0x4 c:/Espressif/ESP8266_SDK/lib\libnet80211.a(ieee80211_action_vendor.o)
 .rodata.str1.4
                0x00000000        0x4 c:/Espressif/ESP8266_SDK/lib\libnet80211.a(ieee80211_ie_vendor.o)
 .rodata.str1.4
                0x3ffe98d0        0xf c:/Espressif/ESP8266_SDK/lib\liblwip.a(dns.o)
 .rodata.str1.4
                0x00000000        0x1 c:/Espressif/ESP8266_SDK/lib\liblwip.a(espconn_tcp.o)
 *fill*         0x3ffe98df        0x1 
 .rodata.str1.4
                0x3ffe98e0       0x88 c:/Espressif/ESP8266_SDK/lib\liblwip.a(mdns.o)
 .rodata.str1.4
                0x3ffe9968       0x3c c:/Espressif/ESP8266_SDK/lib\libwpa.a(wpa_auth.o)
                                 0x43 (size before relaxing)
 .rodata.str1.4
                0x00000000       0x17 c:/Espressif/ESP8266_SDK/lib\libwpa.a(wpa.o)
 .rodata.str1.4
                0x3ffe99a4        0x9 c:/Espressif/ESP8266_SDK/lib\libwpa.a(wpa_common.o)
 *fill*         0x3ffe99ad        0x3 
 .rodata.str1.4
                0x3ffe99b0        0x5 c:/Espressif/ESP8266_SDK/lib\libwpa.a(wpa_debug.o)
                                  0xd (size before relaxing)
 *fill*         0x3ffe99b5        0x3 
 .rodata.str1.4
                0x3ffe99b8      0x150 c:/Espressif/ESP8266_SDK/lib\libssl.a(ssl_loader.o)
                                0x151 (size before relaxing)
 .rodata.str1.4
                0x3ffe9b08       0x46 c:/Espressif/ESP8266_SDK/lib\libssl.a(ssl_tls1.o)
 *fill*         0x3ffe9b4e        0x2 
 .rodata.str1.4
                0x3ffe9b50       0xec c:/Espressif/ESP8266_SDK/lib\libssl.a(ssl_x509.o)
                                 0xf4 (size before relaxing)
 .rodata.str1.4
                0x3ffe9c3c       0x1e c:/Espressif/ESP8266_SDK/lib\libssl.a(ssl_crypto_misc.o)
 *fill*         0x3ffe9c5a        0x2 
 .rodata.str1.4
                0x3ffe9c5c       0x20 c:/Espressif/ESP8266_SDK/lib\libssl.a(ssl_rsa.o)
 .rodata.str1.4
                0x3ffe9c7c        0xd c:/Espressif/ESP8266_SDK/lib\libsmartconfig.a(sc_sniffer.o)
 *fill*         0x3ffe9c89        0x3 
 .rodata.str1.4
                0x3ffe9c8c        0xd c:/Espressif/ESP8266_SDK/lib\libsmartconfig.a(sc_airkiss.o)
 *fill*         0x3ffe9c99        0x3 
 .rodata.str1.4
                0x3ffe9c9c       0x10 c:/Espressif/ESP8266_SDK/lib\libsmartconfig.a(sc_esptouch.o)
                                  0xe (size before relaxing)
 *(.gnu.linkonce.r.*)
 *(.rodata1)
                0x3ffe9cac                __XT_EXCEPTION_TABLE__ = ABSOLUTE (.)
 *(.xt_except_table)
 *(.gcc_except_table)
 *(.gnu.linkonce.e.*)
 *(.gnu.version_r)
 *(.eh_frame)
 .eh_frame      0x3ffe9cac       0x38 c:/espressif/xtensa-lx106-elf/bin/../lib/gcc/xtensa-lx106-elf/4.8.2\libgcc.a(_divdi3.o)
 .eh_frame      0x3ffe9ce4       0x28 c:/espressif/xtensa-lx106-elf/bin/../lib/gcc/xtensa-lx106-elf/4.8.2\libgcc.a(_udivdi3.o)
                                 0x38 (size before relaxing)
 .eh_frame      0x3ffe9d0c       0x2c c:/espressif/xtensa-lx106-elf/bin/../lib/gcc/xtensa-lx106-elf/4.8.2\libgcc.a(_umoddi3.o)
                                 0x3c (size before relaxing)
 *crtbegin.o(.ctors)
 *(EXCLUDE_FILE(*crtend.o) .ctors)
 *(SORT(.ctors.*))
 *(.ctors)
 *crtbegin.o(.dtors)
 *(EXCLUDE_FILE(*crtend.o) .dtors)
 *(SORT(.dtors.*))
 *(.dtors)
                0x3ffe9d38                __XT_EXCEPTION_DESCS__ = ABSOLUTE (.)
 *(.xt_except_desc)
 *(.gnu.linkonce.h.*)
                0x3ffe9d38                __XT_EXCEPTION_DESCS_END__ = ABSOLUTE (.)
 *(.xt_except_desc_end)
 *(.dynamic)
 *(.gnu.version_d)
                0x3ffe9d38                . = ALIGN (0x4)
                0x3ffe9d38                _bss_table_start = ABSOLUTE (.)
                0x3ffe9d38        0x4 LONG 0x3ffe9d40 _bss_start
                0x3ffe9d3c        0x4 LONG 0x3fff3538 _bss_end
                0x3ffe9d40                _bss_table_end = ABSOLUTE (.)
                0x3ffe9d40                _rodata_end = ABSOLUTE (.)

.bss            0x3ffe9d40     0x97f8
                0x3ffe9d40                . = ALIGN (0x8)
                0x3ffe9d40                _bss_start = ABSOLUTE (.)
 *(.dynsbss)
 *(.sbss)
 *(.sbss.*)
 *(.gnu.linkonce.sb.*)
 *(.scommon)
 *(.sbss2)
 *(.sbss2.*)
 *(.gnu.linkonce.sb2.*)
 *(.dynbss)
 *(.bss)
 .bss           0x3ffe9d40        0x0 c:/Espressif/ESP8266_SDK/lib\libmain.a(debug-vector.o)
 .bss           0x3ffe9d40        0x0 c:/Espressif/ESP8266_SDK/lib\libmain.a(double-vector.o)
 .bss           0x3ffe9d40        0x0 c:/Espressif/ESP8266_SDK/lib\libmain.a(kernel-vector.o)
 .bss           0x3ffe9d40      0x1c0 c:/Espressif/ESP8266_SDK/lib\libmain.a(nmi-vector.o)
 .bss           0x3ffe9f00        0x0 c:/Espressif/ESP8266_SDK/lib\libmain.a(user-vector.o)
 .bss           0x3ffe9f00        0x0 c:/Espressif/ESP8266_SDK/lib\libmain.a(vector.o)
 .bss           0x3ffe9f00       0x41 c:/Espressif/ESP8266_SDK/lib\libmain.a(app_main.o)
                0x3ffe9f04                info
                0x3ffe9f28                lwip_timer_interval
                0x3ffe9f2c                check_timeouts_timer
                0x3ffe9f40                user_init_flag
 *fill*         0x3ffe9f41        0xf 
 .bss           0x3ffe9f50       0x30 c:/Espressif/ESP8266_SDK/lib\libmain.a(ets_timer.o)
                0x3ffe9f50                timer_list
                0x3ffe9f54                debug_timer
                0x3ffe9f58                debug_timerfn
 .bss           0x3ffe9f80       0x18 c:/Espressif/ESP8266_SDK/lib\libmain.a(mem_manager.o)
 .bss           0x3ffe9f98        0x4 c:/Espressif/ESP8266_SDK/lib\libmain.a(spi_flash.o)
                0x3ffe9f98                flash_read
 *fill*         0x3ffe9f9c        0x4 
 .bss           0x3ffe9fa0      0x151 c:/Espressif/ESP8266_SDK/lib\libmain.a(user_interface.o)
                0x3ffea097                deep_sleep_flag
                0x3ffea098                cpu_overclock
                0x3ffea09c                event_cb
                0x3ffea0a0                status_led_output_level
                0x3ffea0a4                done_cb
                0x3ffea0a8                rst_if
                0x3ffea0c4                default_interface
                0x3ffea0c5                OpmodChgIsOnGoing
                0x3ffea0c8                bcn_ie
                0x3ffea0d0                promiscuous_cb
 .bss           0x3ffea0f1        0x0 c:/Espressif/ESP8266_SDK/lib\libmain.a(eagle_lib.o)
 *fill*         0x3ffea0f1        0x3 
 .bss           0x3ffea0f4        0xc c:/Espressif/ESP8266_SDK/lib\libmain.a(eagle_lwip_if.o)
                0x3ffea0f4                hostname
 .bss           0x3ffea100       0xa0 build/app_app.a(user_main.o)
 .bss           0x3ffea1a0        0x8 build/app_app.a(mqtt.o)
                0x3ffea1a0                default_private_key_len
                0x3ffea1a4                default_certificate_len
 .bss           0x3ffea1a8       0x1c build/app_app.a(wifi.o)
                0x3ffea1a8                wifiCb
 .bss           0x3ffea1c4        0x0 build/app_app.a(config.o)
 .bss           0x3ffea1c4        0x0 build/app_app.a(easygpio.o)
 .bss           0x3ffea1c4       0x90 build/app_app.a(dht22.o)
 .bss           0x3ffea254        0x0 build/app_app.a(stdout.o)
 .bss           0x3ffea254        0x0 build/app_app.a(utils.o)
 .bss           0x3ffea254        0x0 build/app_app.a(queue.o)
 .bss           0x3ffea254        0x0 build/app_app.a(mqtt_msg.o)
 .bss           0x3ffea254        0x0 build/app_app.a(ringbuf.o)
 .bss           0x3ffea254        0x0 build/app_app.a(proto.o)
 .bss           0x3ffea254        0x0 c:/espressif/xtensa-lx106-elf/bin/../lib/gcc/xtensa-lx106-elf/4.8.2/../../../../xtensa-lx106-elf/lib\libc.a(lib_a-atoi.o)
 .bss           0x3ffea254        0x0 c:/espressif/xtensa-lx106-elf/bin/../lib/gcc/xtensa-lx106-elf/4.8.2/../../../../xtensa-lx106-elf/lib\libc.a(lib_a-lcltime.o)
 .bss           0x3ffea254        0x0 c:/espressif/xtensa-lx106-elf/bin/../lib/gcc/xtensa-lx106-elf/4.8.2/../../../../xtensa-lx106-elf/lib\libc.a(lib_a-lcltime_r.o)
 .bss           0x3ffea254        0x0 c:/espressif/xtensa-lx106-elf/bin/../lib/gcc/xtensa-lx106-elf/4.8.2/../../../../xtensa-lx106-elf/lib\libc.a(lib_a-memcpy.o)
 .bss           0x3ffea254        0x0 c:/espressif/xtensa-lx106-elf/bin/../lib/gcc/xtensa-lx106-elf/4.8.2/../../../../xtensa-lx106-elf/lib\libc.a(lib_a-mktm_r.o)
 .bss           0x3ffea254        0x0 c:/espressif/xtensa-lx106-elf/bin/../lib/gcc/xtensa-lx106-elf/4.8.2/../../../../xtensa-lx106-elf/lib\libc.a(lib_a-strcmp.o)
 .bss           0x3ffea254        0x0 c:/espressif/xtensa-lx106-elf/bin/../lib/gcc/xtensa-lx106-elf/4.8.2/../../../../xtensa-lx106-elf/lib\libc.a(lib_a-strlen.o)
 .bss           0x3ffea254        0x0 c:/espressif/xtensa-lx106-elf/bin/../lib/gcc/xtensa-lx106-elf/4.8.2/../../../../xtensa-lx106-elf/lib\libc.a(lib_a-strtol.o)
 .bss           0x3ffea254        0x0 c:/espressif/xtensa-lx106-elf/bin/../lib/gcc/xtensa-lx106-elf/4.8.2/../../../../xtensa-lx106-elf/lib\libc.a(lib_a-tzlock.o)
 .bss           0x3ffea254        0x8 c:/espressif/xtensa-lx106-elf/bin/../lib/gcc/xtensa-lx106-elf/4.8.2/../../../../xtensa-lx106-elf/lib\libc.a(lib_a-tzvars.o)
                0x3ffea254                _timezone
                0x3ffea258                _daylight
 .bss           0x3ffea25c        0x0 c:/espressif/xtensa-lx106-elf/bin/../lib/gcc/xtensa-lx106-elf/4.8.2/../../../../xtensa-lx106-elf/lib\libc.a(lib_a-ctype_.o)
 .bss           0x3ffea25c        0x0 c:/espressif/xtensa-lx106-elf/bin/../lib/gcc/xtensa-lx106-elf/4.8.2/../../../../xtensa-lx106-elf/lib\libc.a(lib_a-gettzinfo.o)
 .bss           0x3ffea25c        0x0 c:/espressif/xtensa-lx106-elf/bin/../lib/gcc/xtensa-lx106-elf/4.8.2/../../../../xtensa-lx106-elf/lib\libc.a(lib_a-impure.o)
 .bss           0x3ffea25c        0x0 c:/espressif/xtensa-lx106-elf/bin/../lib/gcc/xtensa-lx106-elf/4.8.2\libgcc.a(_divsi3.o)
 .bss           0x3ffea25c        0x0 c:/espressif/xtensa-lx106-elf/bin/../lib/gcc/xtensa-lx106-elf/4.8.2\libgcc.a(_modsi3.o)
 .bss           0x3ffea25c        0x0 c:/espressif/xtensa-lx106-elf/bin/../lib/gcc/xtensa-lx106-elf/4.8.2\libgcc.a(_udivsi3.o)
 .bss           0x3ffea25c        0x0 c:/espressif/xtensa-lx106-elf/bin/../lib/gcc/xtensa-lx106-elf/4.8.2\libgcc.a(_umodsi3.o)
 .bss           0x3ffea25c        0x0 c:/espressif/xtensa-lx106-elf/bin/../lib/gcc/xtensa-lx106-elf/4.8.2\libgcc.a(_addsubsf3.o)
 .bss           0x3ffea25c        0x0 c:/espressif/xtensa-lx106-elf/bin/../lib/gcc/xtensa-lx106-elf/4.8.2\libgcc.a(_mulsf3.o)
 .bss           0x3ffea25c        0x0 c:/espressif/xtensa-lx106-elf/bin/../lib/gcc/xtensa-lx106-elf/4.8.2\libgcc.a(_divsf3.o)
 .bss           0x3ffea25c        0x0 c:/espressif/xtensa-lx106-elf/bin/../lib/gcc/xtensa-lx106-elf/4.8.2\libgcc.a(_cmpsf2.o)
 .bss           0x3ffea25c        0x0 c:/espressif/xtensa-lx106-elf/bin/../lib/gcc/xtensa-lx106-elf/4.8.2\libgcc.a(_fixsfsi.o)
 .bss           0x3ffea25c        0x0 c:/espressif/xtensa-lx106-elf/bin/../lib/gcc/xtensa-lx106-elf/4.8.2\libgcc.a(_floatsisf.o)
 .bss           0x3ffea25c        0x0 c:/espressif/xtensa-lx106-elf/bin/../lib/gcc/xtensa-lx106-elf/4.8.2\libgcc.a(_muldi3.o)
 .bss           0x3ffea25c        0x0 c:/espressif/xtensa-lx106-elf/bin/../lib/gcc/xtensa-lx106-elf/4.8.2\libgcc.a(_umulsidi3.o)
 .bss           0x3ffea25c        0x0 c:/espressif/xtensa-lx106-elf/bin/../lib/gcc/xtensa-lx106-elf/4.8.2/../../../../xtensa-lx106-elf/lib\libhal.a(int_asm--set_intclear.o)
 .bss           0x3ffea25c        0x4 c:/Espressif/ESP8266_SDK/lib\libphy.a(phy.o)
 .bss           0x3ffea260        0x0 c:/Espressif/ESP8266_SDK/lib\libphy.a(phy_chip_v6_ana.o)
 .bss           0x3ffea260      0x3ab c:/Espressif/ESP8266_SDK/lib\libphy.a(phy_chip_v6.o)
                0x3ffea260                g_phyFuns
                0x3ffea264                rxiq_compute_num
                0x3ffea268                rxdc_init_flag
                0x3ffea26c                check_result
                0x3ffea270                chip6_sleep_params
                0x3ffea454                chip6_phy_init_ctrl
                0x3ffea4c8                phy_freq_offset
                0x3ffea4ca                do_pwctrl_flag
                0x3ffea4cb                pwctrl_debug
                0x3ffea4cc                txbk_dpdby_flag
                0x3ffea4ce                sw_scan_mode
                0x3ffea4e0                periodic_cal_dc_num
                0x3ffea4e4                periodic_cal_flag
                0x3ffea4e5                bbpll_cal_flag
                0x3ffea4e6                phy_in_most_power
                0x3ffea4e7                deep_sleep_en
                0x3ffea4e8                rtc_mem_check_fail
                0x3ffea4e9                rtc_recovery_en
                0x3ffea4ea                phy_in_vdd33_offset
                0x3ffea4eb                phy_set_most_tpw_disbg
                0x3ffea4ec                phy_set_most_tpw_index
                0x3ffea4f0                adc_rand_noise
                0x3ffea4f4                dpd_bypass_original
                0x3ffea4f8                noise_array
                0x3ffea600                tx_pwctrl_atten_init
 *fill*         0x3ffea60b        0x1 
 .bss           0x3ffea60c        0x6 c:/Espressif/ESP8266_SDK/lib\libphy.a(phy_chip_v6_cal.o)
                0x3ffea60c                loop_pwctrl_pwdet_error_accum_high_power
                0x3ffea60e                tx_pwctrl_pk_num
                0x3ffea60f                loop_pwctrl_correct_atten_high_power
                0x3ffea610                tx_pwctrl_set_chan_flag
                0x3ffea611                rxiq_cover_fail_num
 .bss           0x3ffea612        0x0 c:/Espressif/ESP8266_SDK/lib\libphy.a(phy_chip_v6_unused.o)
 *fill*         0x3ffea612        0x2 
 .bss           0x3ffea614        0x7 c:/Espressif/ESP8266_SDK/lib\libphy.a(phy_sleep.o)
                0x3ffea614                periodic_cal_sat
                0x3ffea616                lslp_mem_opt_8266
                0x3ffea618                software_slp_reject
                0x3ffea619                SDIO_slp_reject
                0x3ffea61a                hardware_reject
 *fill*         0x3ffea61b        0x5 
 .bss           0x3ffea620       0x30 c:/Espressif/ESP8266_SDK/lib\libpp.a(if_hwctrl.o)
                0x3ffea620                interface_mask
                0x3ffea630                if_ctrl
 .bss           0x3ffea650      0x150 c:/Espressif/ESP8266_SDK/lib\libpp.a(lmac.o)
                0x3ffea654                lmacConfMib
 .bss           0x3ffea7a0      0x11a c:/Espressif/ESP8266_SDK/lib\libpp.a(pm.o)
                0x3ffea7a0                pmc
 *fill*         0x3ffea8ba        0x2 
 .bss           0x3ffea8bc       0x30 c:/Espressif/ESP8266_SDK/lib\libpp.a(pm_for_bcn_only_mode.o)
 *fill*         0x3ffea8ec        0x4 
 .bss           0x3ffea8f0      0x2e2 c:/Espressif/ESP8266_SDK/lib\libpp.a(pp.o)
                0x3ffea908                pend_flag_noise_check
                0x3ffea910                pend_flag_periodic_cal
                0x3ffea928                idle_timer_reopen_flag
                0x3ffea929                dbg_stop_sw_wdt
                0x3ffea92a                dbg_stop_hw_wdt
                0x3ffea940                HighestFreqOffsetInOneChk
 *fill*         0x3ffeabd2        0xe 
 .bss           0x3ffeabe0      0x100 c:/Espressif/ESP8266_SDK/lib\libpp.a(rate_control.o)
 .bss           0x3ffeace0      0x448 c:/Espressif/ESP8266_SDK/lib\libpp.a(trc.o)
 *fill*         0x3ffeb128        0x8 
 .bss           0x3ffeb130     0x4e88 c:/Espressif/ESP8266_SDK/lib\libpp.a(wdev.o)
                0x3ffeb130                wDevCtrl
                0x3ffeb2d8                WdevTimOffSet
 *fill*         0x3ffeffb8        0x8 
 .bss           0x3ffeffc0     0x1294 c:/Espressif/ESP8266_SDK/lib\libpp.a(esf_buf.o)
 .bss           0x3fff1254      0x584 c:/Espressif/ESP8266_SDK/lib\libnet80211.a(ieee80211.o)
                0x3fff1254                g_ic
 .bss           0x3fff17d8        0x0 c:/Espressif/ESP8266_SDK/lib\libnet80211.a(ieee80211_crypto.o)
 .bss           0x3fff17d8        0x0 c:/Espressif/ESP8266_SDK/lib\libnet80211.a(ieee80211_ets.o)
 .bss           0x3fff17d8       0x40 c:/Espressif/ESP8266_SDK/lib\libnet80211.a(ieee80211_hostap.o)
                0x3fff17d8                BcnEb_update
                0x3fff17fc                PendFreeBcnEb
                0x3fff1800                ApFreqCalTimer
 .bss           0x3fff1818        0x0 c:/Espressif/ESP8266_SDK/lib\libnet80211.a(ieee80211_ht.o)
 .bss           0x3fff1818        0x0 c:/Espressif/ESP8266_SDK/lib\libnet80211.a(ieee80211_input.o)
 .bss           0x3fff1818        0x0 c:/Espressif/ESP8266_SDK/lib\libnet80211.a(ieee80211_output.o)
 .bss           0x3fff1818        0x0 c:/Espressif/ESP8266_SDK/lib\libnet80211.a(ieee80211_phy.o)
 .bss           0x3fff1818        0x0 c:/Espressif/ESP8266_SDK/lib\libnet80211.a(ieee80211_power.o)
 .bss           0x3fff1818        0x0 c:/Espressif/ESP8266_SDK/lib\libnet80211.a(ieee80211_proto.o)
 .bss           0x3fff1818       0xd0 c:/Espressif/ESP8266_SDK/lib\libnet80211.a(ieee80211_scan.o)
                0x3fff1818                gScanStruct
                0x3fff18cc                FreqCalCntForScan
                0x3fff18ce                TestStaFreqCalValInput
                0x3fff18d0                auth_type
                0x3fff18d2                scannum
 .bss           0x3fff18e8        0x0 c:/Espressif/ESP8266_SDK/lib\libnet80211.a(ieee80211_sta.o)
 .bss           0x3fff18e8       0x3c c:/Espressif/ESP8266_SDK/lib\libnet80211.a(wl_chm.o)
 *fill*         0x3fff1924        0x4 
 .bss           0x3fff1928      0x418 c:/Espressif/ESP8266_SDK/lib\libnet80211.a(wl_cnx.o)
                0x3fff1d28                sta_con_timer
                0x3fff1d3c                g_cnx_probe_rc_list_cb
 .bss           0x3fff1d40        0x0 c:/Espressif/ESP8266_SDK/lib\libnet80211.a(ieee80211_action.o)
 .bss           0x3fff1d40        0x8 c:/Espressif/ESP8266_SDK/lib\libnet80211.a(ieee80211_action_vendor.o)
 .bss           0x3fff1d48        0x0 c:/Espressif/ESP8266_SDK/lib\libnet80211.a(ieee80211_crypto_ccmp.o)
 .bss           0x3fff1d48        0x0 c:/Espressif/ESP8266_SDK/lib\libnet80211.a(ieee80211_ie_vendor.o)
 *fill*         0x3fff1d48        0x8 
 .bss           0x3fff1d50       0x38 c:/Espressif/ESP8266_SDK/lib\liblwip.a(dhcp.o)
                0x3fff1d50                dhcp_rx_options_given
                0x3fff1d60                dhcp_rx_options_val
 .bss           0x3fff1d88      0x24c c:/Espressif/ESP8266_SDK/lib\liblwip.a(dhcpserver.o)
                0x3fff1d98                s
 *fill*         0x3fff1fd4        0xc 
 .bss           0x3fff1fe0      0x690 c:/Espressif/ESP8266_SDK/lib\liblwip.a(dns.o)
 .bss           0x3fff2670      0x104 c:/Espressif/ESP8266_SDK/lib\liblwip.a(espconn.o)
                0x3fff2670                plink_active
                0x3fff2674                pserver_list
                0x3fff2680                premot
                0x3fff2740                pktinfo
 *fill*         0x3fff2774        0xc 
 .bss           0x3fff2780       0x78 c:/Espressif/ESP8266_SDK/lib\liblwip.a(espconn_tcp.o)
                0x3fff2780                espconn_TaskQueue
 .bss           0x3fff27f8        0x0 c:/Espressif/ESP8266_SDK/lib\liblwip.a(espconn_udp.o)
 *fill*         0x3fff27f8        0x8 
 .bss           0x3fff2800      0x100 c:/Espressif/ESP8266_SDK/lib\liblwip.a(etharp.o)
                0x3fff2804                ethzero
 .bss           0x3fff2900        0xc c:/Espressif/ESP8266_SDK/lib\liblwip.a(igmp.o)
 .bss           0x3fff290c        0x0 c:/Espressif/ESP8266_SDK/lib\liblwip.a(inet_chksum.o)
 .bss           0x3fff290c        0x0 c:/Espressif/ESP8266_SDK/lib\liblwip.a(init.o)
 *fill*         0x3fff290c        0x4 
 .bss           0x3fff2910       0x20 c:/Espressif/ESP8266_SDK/lib\liblwip.a(ip_addr.o)
                0x3fff2910                ip_addr_any
 .bss           0x3fff2930       0x12 c:/Espressif/ESP8266_SDK/lib\liblwip.a(ip.o)
                0x3fff2930                current_iphdr_dest
                0x3fff2934                current_iphdr_src
                0x3fff2938                current_netif
                0x3fff293c                current_header
 *fill*         0x3fff2942        0xe 
 .bss           0x3fff2950      0x421 c:/Espressif/ESP8266_SDK/lib\liblwip.a(mdns.o)
                0x3fff2954                PUCK_SERVICE
                0x3fff295c                PUCK_PORT
                0x3fff2968                mdns_timer
 .bss           0x3fff2d71        0x0 c:/Espressif/ESP8266_SDK/lib\liblwip.a(memp.o)
 *fill*         0x3fff2d71        0x3 
 .bss           0x3fff2d74        0x9 c:/Espressif/ESP8266_SDK/lib\liblwip.a(netif.o)
                0x3fff2d74                netif_list
                0x3fff2d78                netif_default
 .bss           0x3fff2d7d        0x0 c:/Espressif/ESP8266_SDK/lib\liblwip.a(pbuf.o)
 *fill*         0x3fff2d7d        0x3 
 .bss           0x3fff2d80        0x4 c:/Espressif/ESP8266_SDK/lib\liblwip.a(raw.o)
 .bss           0x3fff2d84       0x34 c:/Espressif/ESP8266_SDK/lib\liblwip.a(tcp_in.o)
                0x3fff2db4                tcp_input_pcb
 .bss           0x3fff2db8       0x1c c:/Espressif/ESP8266_SDK/lib\liblwip.a(tcp.o)
                0x3fff2dbc                tcp_active_pcbs
                0x3fff2dc0                tcp_tmp_pcb
                0x3fff2dc4                tcp_tw_pcbs
                0x3fff2dc8                tcp_bound_pcbs
                0x3fff2dcc                tcp_listen_pcbs
                0x3fff2dd0                tcp_ticks
 .bss           0x3fff2dd4        0x0 c:/Espressif/ESP8266_SDK/lib\liblwip.a(tcp_out.o)
 .bss           0x3fff2dd4        0xc c:/Espressif/ESP8266_SDK/lib\liblwip.a(timers.o)
 .bss           0x3fff2de0        0x4 c:/Espressif/ESP8266_SDK/lib\liblwip.a(udp.o)
                0x3fff2de0                udp_pcbs
 .bss           0x3fff2de4        0x0 c:/Espressif/ESP8266_SDK/lib\liblwip.a(icmp.o)
 .bss           0x3fff2de4        0x0 c:/Espressif/ESP8266_SDK/lib\libwpa.a(ap_config.o)
 .bss           0x3fff2de4        0x0 c:/Espressif/ESP8266_SDK/lib\libwpa.a(common.o)
 .bss           0x3fff2de4        0x0 c:/Espressif/ESP8266_SDK/lib\libwpa.a(os_xtensa.o)
 .bss           0x3fff2de4        0x0 c:/Espressif/ESP8266_SDK/lib\libwpa.a(wpa_auth.o)
 .bss           0x3fff2de4        0x0 c:/Espressif/ESP8266_SDK/lib\libwpa.a(wpa_auth_ie.o)
 *fill*         0x3fff2de4        0xc 
 .bss           0x3fff2df0      0x27a c:/Espressif/ESP8266_SDK/lib\libwpa.a(wpa.o)
 .bss           0x3fff306a        0x0 c:/Espressif/ESP8266_SDK/lib\libwpa.a(wpa_common.o)
 .bss           0x3fff306a        0x0 c:/Espressif/ESP8266_SDK/lib\libwpa.a(wpa_debug.o)
 .bss           0x3fff306a        0x0 c:/Espressif/ESP8266_SDK/lib\libwpa.a(wpa_ie.o)
 .bss           0x3fff306a        0x0 c:/Espressif/ESP8266_SDK/lib\libwpa.a(wpa_main.o)
 .bss           0x3fff306a        0x0 c:/Espressif/ESP8266_SDK/lib\libwpa.a(wpas_glue.o)
 .bss           0x3fff306a        0x0 c:/Espressif/ESP8266_SDK/lib\libwpa.a(aes-wrap.o)
 .bss           0x3fff306a        0x0 c:/Espressif/ESP8266_SDK/lib\libwpa.a(aes-internal-enc.o)
 .bss           0x3fff306a        0x0 c:/Espressif/ESP8266_SDK/lib\libssl.a(espconn_secure.o)
 *fill*         0x3fff306a        0x6 
 .bss           0x3fff3070       0x88 c:/Espressif/ESP8266_SDK/lib\libssl.a(espconn_ssl.o)
                0x3fff3070                pfile_param
 .bss           0x3fff30f8        0x0 c:/Espressif/ESP8266_SDK/lib\libssl.a(ssl_loader.o)
 .bss           0x3fff30f8        0x0 c:/Espressif/ESP8266_SDK/lib\libssl.a(ssl_md5.o)
 .bss           0x3fff30f8        0x0 c:/Espressif/ESP8266_SDK/lib\libssl.a(ssl_tls1_clnt.o)
 .bss           0x3fff30f8        0x4 c:/Espressif/ESP8266_SDK/lib\libssl.a(ssl_tls1.o)
 .bss           0x3fff30fc        0x0 c:/Espressif/ESP8266_SDK/lib\libssl.a(ssl_tls1_svr.o)
 .bss           0x3fff30fc        0x0 c:/Espressif/ESP8266_SDK/lib\libssl.a(ssl_x509.o)
 .bss           0x3fff30fc        0x0 c:/Espressif/ESP8266_SDK/lib\libssl.a(ssl_aes.o)
 .bss           0x3fff30fc        0x0 c:/Espressif/ESP8266_SDK/lib\libssl.a(ssl_asn1.o)
 .bss           0x3fff30fc        0x0 c:/Espressif/ESP8266_SDK/lib\libssl.a(ssl_bigint.o)
 .bss           0x3fff30fc        0x8 c:/Espressif/ESP8266_SDK/lib\libssl.a(ssl_crypto_misc.o)
                0x3fff30fc                hex_finish
                0x3fff3100                hex_index
 .bss           0x3fff3104        0x0 c:/Espressif/ESP8266_SDK/lib\libssl.a(ssl_hmac.o)
 .bss           0x3fff3104        0x0 c:/Espressif/ESP8266_SDK/lib\libssl.a(ssl_md2.o)
 .bss           0x3fff3104        0x0 c:/Espressif/ESP8266_SDK/lib\libssl.a(ssl_os_port.o)
 .bss           0x3fff3104        0x0 c:/Espressif/ESP8266_SDK/lib\libssl.a(ssl_rc4.o)
 .bss           0x3fff3104        0x0 c:/Espressif/ESP8266_SDK/lib\libssl.a(ssl_rsa.o)
 .bss           0x3fff3104        0x0 c:/Espressif/ESP8266_SDK/lib\libssl.a(ssl_sha1.o)
 .bss           0x3fff3104       0x30 c:/Espressif/ESP8266_SDK/lib\libsmartconfig.a(sc_sniffer.o)
                0x3fff3104                pAPListHead
                0x3fff3108                pAPListTral
                0x3fff310c                smartconfig_cb
                0x3fff3110                SnifGlob
                0x3fff3120                channel_timer
 .bss           0x3fff3134       0xcc c:/Espressif/ESP8266_SDK/lib\libsmartconfig.a(sc_airkiss.o)
                0x3fff3134                pAKGuideGlob
                0x3fff3138                p_kiss
                0x3fff313c                p_kiss_ht40
                0x3fff3140                KissRes_ht20_timer
                0x3fff31bc                KissRes_ht40_timer
                0x3fff31d0                pKissConn
                0x3fff31ec                weixin_timer
 .bss           0x3fff3200       0xcc c:/Espressif/ESP8266_SDK/lib\libsmartconfig.a(sc_esptouch.o)
                0x3fff3200                pETGuideGlob
                0x3fff3204                pTouchGlob
                0x3fff3208                TouchRestart_ht20_timer
                0x3fff3284                TouchRestart_ht40_timer
                0x3fff3298                pTouchConn
                0x3fff32b4                TouchUdpTimer
 .bss           0x3fff32cc        0x0 c:/espressif/xtensa-lx106-elf/bin/../lib/gcc/xtensa-lx106-elf/4.8.2/../../../../xtensa-lx106-elf/lib\libc.a(lib_a-memcmp.o)
 .bss           0x3fff32cc        0x0 c:/espressif/xtensa-lx106-elf/bin/../lib/gcc/xtensa-lx106-elf/4.8.2\libgcc.a(_ashrdi3.o)
 .bss           0x3fff32cc        0x0 c:/espressif/xtensa-lx106-elf/bin/../lib/gcc/xtensa-lx106-elf/4.8.2\libgcc.a(_fixunssfsi.o)
 .bss           0x3fff32cc        0x0 c:/espressif/xtensa-lx106-elf/bin/../lib/gcc/xtensa-lx106-elf/4.8.2\libgcc.a(_muldf3.o)
 .bss           0x3fff32cc        0x0 c:/espressif/xtensa-lx106-elf/bin/../lib/gcc/xtensa-lx106-elf/4.8.2\libgcc.a(_divdf3.o)
 .bss           0x3fff32cc        0x0 c:/espressif/xtensa-lx106-elf/bin/../lib/gcc/xtensa-lx106-elf/4.8.2\libgcc.a(_fixdfsi.o)
 .bss           0x3fff32cc        0x0 c:/espressif/xtensa-lx106-elf/bin/../lib/gcc/xtensa-lx106-elf/4.8.2\libgcc.a(_floatsidf.o)
 .bss           0x3fff32cc        0x0 c:/espressif/xtensa-lx106-elf/bin/../lib/gcc/xtensa-lx106-elf/4.8.2\libgcc.a(_truncdfsf2.o)
 .bss           0x3fff32cc        0x0 c:/espressif/xtensa-lx106-elf/bin/../lib/gcc/xtensa-lx106-elf/4.8.2\libgcc.a(_popcountsi2.o)
 .bss           0x3fff32cc        0x0 c:/espressif/xtensa-lx106-elf/bin/../lib/gcc/xtensa-lx106-elf/4.8.2\libgcc.a(_divdi3.o)
 .bss           0x3fff32cc        0x0 c:/espressif/xtensa-lx106-elf/bin/../lib/gcc/xtensa-lx106-elf/4.8.2\libgcc.a(_udivdi3.o)
 .bss           0x3fff32cc        0x0 c:/espressif/xtensa-lx106-elf/bin/../lib/gcc/xtensa-lx106-elf/4.8.2\libgcc.a(_umoddi3.o)
 .bss           0x3fff32cc        0x0 c:/espressif/xtensa-lx106-elf/bin/../lib/gcc/xtensa-lx106-elf/4.8.2\libgcc.a(_popcount_tab.o)
 *fill*         0x3fff32cc        0x4 
 .bss           0x3fff32d0        0x8 c:/Espressif/ESP8266_SDK/lib\libnet80211.a(ieee80211_crypto_tkip.o)
 .bss           0x3fff32d8        0x0 c:/Espressif/ESP8266_SDK/lib\libnet80211.a(ieee80211_crypto_wep.o)
 *(.bss.*)
 *(.gnu.linkonce.b.*)
 *(COMMON)
 COMMON         0x3fff32d8       0xd5 build/app_app.a(user_main.o)
                0x3fff32d8                mqttClient
                0x3fff33a4                currentOutputs
                0x3fff33a8                outputOverrides
                0x3fff33ac                mqttConnected
 *fill*         0x3fff33ad        0x3 
 COMMON         0x3fff33b0       0x10 build/app_app.a(mqtt.o)
                0x3fff33b0                default_private_key
                0x3fff33b4                default_certificate
                0x3fff33b8                mqtt_procTaskQueue
 COMMON         0x3fff33c0      0x178 build/app_app.a(config.o)
                0x3fff33c0                sysCfg
                0x3fff3534                saveFlag
                0x3fff3538                . = ALIGN (0x8)
                0x3fff3538                _bss_end = ABSOLUTE (.)
                0x3fff3538                _heap_start = ABSOLUTE (.)

.text           0x40100000     0x7206
                0x40100000                _stext = .
                0x40100000                _text_start = ABSOLUTE (.)
 *(.UserEnter.text)
 .UserEnter.text
                0x40100000        0xd c:/Espressif/ESP8266_SDK/lib\libmain.a(vector.o)
                                 0x14 (size before relaxing)
                0x40100004                call_user_start
                0x40100010                . = ALIGN (0x10)
 *fill*         0x4010000d        0x3 
 *(.DebugExceptionVector.text)
 .DebugExceptionVector.text
                0x40100010        0x6 c:/Espressif/ESP8266_SDK/lib\libmain.a(debug-vector.o)
                0x40100010                _DebugExceptionVector
                0x40100020                . = ALIGN (0x10)
 *fill*         0x40100016        0xa 
 *(.NMIExceptionVector.text)
 .NMIExceptionVector.text
                0x40100020        0x6 c:/Espressif/ESP8266_SDK/lib\libmain.a(nmi-vector.o)
                                  0xd (size before relaxing)
                0x40100020                _NMIExceptionVector
                0x40100030                . = ALIGN (0x10)
 *fill*         0x40100026        0xa 
 *(.KernelExceptionVector.text)
 .KernelExceptionVector.text
                0x40100030        0x6 c:/Espressif/ESP8266_SDK/lib\libmain.a(kernel-vector.o)
                0x40100030                _KernelExceptionVector
                0x40100036        0x4 LONG 0x0
                0x4010003a        0x4 LONG 0x0
                0x4010003e        0x4 LONG 0x0
                0x40100042        0x4 LONG 0x0
                0x40100050                . = ALIGN (0x10)
 *fill*         0x40100046        0xa 
 *(.UserExceptionVector.text)
 .UserExceptionVector.text
                0x40100050        0x6 c:/Espressif/ESP8266_SDK/lib\libmain.a(user-vector.o)
                                  0xd (size before relaxing)
                0x40100050                _UserExceptionVector
                0x40100056        0x4 LONG 0x0
                0x4010005a        0x4 LONG 0x0
                0x4010005e        0x4 LONG 0x0
                0x40100062        0x4 LONG 0x0
                0x40100070                . = ALIGN (0x10)
 *fill*         0x40100066        0xa 
 *(.DoubleExceptionVector.text)
 .DoubleExceptionVector.text
                0x40100070        0x6 c:/Espressif/ESP8266_SDK/lib\libmain.a(double-vector.o)
                0x40100070                _DoubleExceptionVector
                0x40100076        0x4 LONG 0x0
                0x4010007a        0x4 LONG 0x0
                0x4010007e        0x4 LONG 0x0
                0x40100082        0x4 LONG 0x0
                0x40100090                . = ALIGN (0x10)
 *fill*         0x40100086        0xa 
 *(.entry.text)
 *(.init.literal)
 *(.init)
 *(.literal .text .literal.* .text.* .stub .gnu.warning .gnu.linkonce.literal.* .gnu.linkonce.t.*.literal .gnu.linkonce.t.*)
 .text          0x40100090       0xc7 c:/Espressif/ESP8266_SDK/lib\libmain.a(nmi-vector.o)
                                 0xcb (size before relaxing)
                0x4010009c                _NMILevelVector
 *fill*         0x40100157        0x1 
 .text          0x40100158       0x1e c:/Espressif/ESP8266_SDK/lib\libmain.a(user-vector.o)
                0x4010015c                _UserExceptionVector_1
 *fill*         0x40100176        0x2 
 .text          0x40100178      0x505 c:/Espressif/ESP8266_SDK/lib\libmain.a(app_main.o)
                                0x56d (size before relaxing)
                0x40100180                Cache_Read_Enable_New
                0x401001bc                NmiTimSetFunc
                0x401001e0                NMI_Handler
                0x40100238                call_user_start_local
 *fill*         0x4010067d        0x3 
 .text          0x40100680      0x229 c:/Espressif/ESP8266_SDK/lib\libmain.a(ets_timer.o)
                                0x251 (size before relaxing)
                0x401006ec                ets_timer_setfn
                0x40100768                ets_timer_disarm
                0x401007e8                ets_timer_arm_new
 *fill*         0x401008a9        0x3 
 .text          0x401008ac      0x1b7 c:/Espressif/ESP8266_SDK/lib\libmain.a(mem_manager.o)
                                0x1df (size before relaxing)
                0x401008ac                xPortWantedSizeAlign
                0x401008d0                pvPortMalloc
                0x40100970                vPortFree
                0x401009ac                pvPortCalloc
                0x401009d4                pvPortZalloc
                0x401009e8                pvPortRealloc
 *fill*         0x40100a63        0x1 
 .text          0x40100a64      0x1a3 c:/Espressif/ESP8266_SDK/lib\libmain.a(spi_flash.o)
                                0x1e7 (size before relaxing)
                0x40100a74                spi_flash_get_id
                0x40100ad0                spi_flash_read_status
                0x40100b00                spi_flash_write_status
                0x40100b30                spi_flash_erase_sector
                0x40100b5c                spi_flash_write
                0x40100bac                spi_flash_read
 *fill*         0x40100c07        0x1 
 .text          0x40100c08      0x516 c:/Espressif/ESP8266_SDK/lib\libmain.a(user_interface.o)
                                0x596 (size before relaxing)
                0x40100c20                os_printf_plus
                0x40100d48                system_restart_local
                0x40101024                system_get_time
                0x4010103c                system_os_post
                0x40101070                system_rtc_mem_write
                0x401010c8                system_rtc_mem_read
 *fill*         0x4010111e        0x2 
 .text          0x40101120       0x36 build/app_app.a(user_main.o)
                0x40101120                user_rf_pre_init
                0x40101134                user_init
 *fill*         0x40101156        0x2 
 .text          0x40101158      0x14b build/app_app.a(easygpio.o)
                                0x157 (size before relaxing)
                0x40101160                easygpio_outputSet
                0x401011c4                easygpio_inputGet
                0x40101200                easygpio_outputDisable
                0x4010123c                easygpio_outputEnable
 *fill*         0x401012a3        0x1 
 .literal       0x401012a4        0x0 c:/espressif/xtensa-lx106-elf/bin/../lib/gcc/xtensa-lx106-elf/4.8.2/../../../../xtensa-lx106-elf/lib\libc.a(lib_a-atoi.o)
                                  0x8 (size before relaxing)
 .literal       0x401012a4        0x4 c:/espressif/xtensa-lx106-elf/bin/../lib/gcc/xtensa-lx106-elf/4.8.2/../../../../xtensa-lx106-elf/lib\libc.a(lib_a-lcltime.o)
                                  0x8 (size before relaxing)
 .literal       0x401012a8        0x0 c:/espressif/xtensa-lx106-elf/bin/../lib/gcc/xtensa-lx106-elf/4.8.2/../../../../xtensa-lx106-elf/lib\libc.a(lib_a-lcltime_r.o)
                                  0x4 (size before relaxing)
 .literal       0x401012a8       0x14 c:/espressif/xtensa-lx106-elf/bin/../lib/gcc/xtensa-lx106-elf/4.8.2/../../../../xtensa-lx106-elf/lib\libc.a(lib_a-mktm_r.o)
                                 0x84 (size before relaxing)
 .literal       0x401012bc       0x14 c:/espressif/xtensa-lx106-elf/bin/../lib/gcc/xtensa-lx106-elf/4.8.2/../../../../xtensa-lx106-elf/lib\libc.a(lib_a-strcmp.o)
                                 0x20 (size before relaxing)
 .literal       0x401012d0        0x0 c:/espressif/xtensa-lx106-elf/bin/../lib/gcc/xtensa-lx106-elf/4.8.2/../../../../xtensa-lx106-elf/lib\libc.a(lib_a-strlen.o)
                                  0xc (size before relaxing)
 .literal       0x401012d0        0xc c:/espressif/xtensa-lx106-elf/bin/../lib/gcc/xtensa-lx106-elf/4.8.2/../../../../xtensa-lx106-elf/lib\libc.a(lib_a-strtol.o)
                                 0x18 (size before relaxing)
 .literal       0x401012dc        0x4 c:/espressif/xtensa-lx106-elf/bin/../lib/gcc/xtensa-lx106-elf/4.8.2/../../../../xtensa-lx106-elf/lib\libc.a(lib_a-gettzinfo.o)
 .literal       0x401012e0        0x4 c:/espressif/xtensa-lx106-elf/bin/../lib/gcc/xtensa-lx106-elf/4.8.2\libgcc.a(_addsubsf3.o)
                                  0xc (size before relaxing)
 .literal       0x401012e4        0x0 c:/espressif/xtensa-lx106-elf/bin/../lib/gcc/xtensa-lx106-elf/4.8.2\libgcc.a(_mulsf3.o)
                                 0x10 (size before relaxing)
 .literal       0x401012e4        0x0 c:/espressif/xtensa-lx106-elf/bin/../lib/gcc/xtensa-lx106-elf/4.8.2\libgcc.a(_divsf3.o)
                                 0x10 (size before relaxing)
 .literal       0x401012e4        0x0 c:/espressif/xtensa-lx106-elf/bin/../lib/gcc/xtensa-lx106-elf/4.8.2\libgcc.a(_cmpsf2.o)
                                 0x18 (size before relaxing)
 .literal       0x401012e4        0x0 c:/espressif/xtensa-lx106-elf/bin/../lib/gcc/xtensa-lx106-elf/4.8.2\libgcc.a(_fixsfsi.o)
                                  0x4 (size before relaxing)
 .literal       0x401012e4        0x0 c:/espressif/xtensa-lx106-elf/bin/../lib/gcc/xtensa-lx106-elf/4.8.2\libgcc.a(_muldi3.o)
                                  0x4 (size before relaxing)
 .literal       0x401012e4        0x0 c:/espressif/xtensa-lx106-elf/bin/../lib/gcc/xtensa-lx106-elf/4.8.2\libgcc.a(_fixunssfsi.o)
                                  0x4 (size before relaxing)
 .literal       0x401012e4        0x8 c:/espressif/xtensa-lx106-elf/bin/../lib/gcc/xtensa-lx106-elf/4.8.2\libgcc.a(_muldf3.o)
                                 0x10 (size before relaxing)
 .literal       0x401012ec        0x0 c:/espressif/xtensa-lx106-elf/bin/../lib/gcc/xtensa-lx106-elf/4.8.2\libgcc.a(_divdf3.o)
                                 0x10 (size before relaxing)
 .literal       0x401012ec        0x0 c:/espressif/xtensa-lx106-elf/bin/../lib/gcc/xtensa-lx106-elf/4.8.2\libgcc.a(_fixdfsi.o)
                                  0x4 (size before relaxing)
 .literal       0x401012ec        0x4 c:/espressif/xtensa-lx106-elf/bin/../lib/gcc/xtensa-lx106-elf/4.8.2\libgcc.a(_truncdfsf2.o)
                                  0x8 (size before relaxing)
 .literal       0x401012f0        0x4 c:/espressif/xtensa-lx106-elf/bin/../lib/gcc/xtensa-lx106-elf/4.8.2\libgcc.a(_popcountsi2.o)
 .literal       0x401012f4        0x0 c:/espressif/xtensa-lx106-elf/bin/../lib/gcc/xtensa-lx106-elf/4.8.2\libgcc.a(_divdi3.o)
                                 0x48 (size before relaxing)
 .literal       0x401012f4        0x0 c:/espressif/xtensa-lx106-elf/bin/../lib/gcc/xtensa-lx106-elf/4.8.2\libgcc.a(_udivdi3.o)
                                 0x48 (size before relaxing)
 .literal       0x401012f4        0x0 c:/espressif/xtensa-lx106-elf/bin/../lib/gcc/xtensa-lx106-elf/4.8.2\libgcc.a(_umoddi3.o)
                                 0x40 (size before relaxing)
 .text          0x401012f4       0x27 c:/espressif/xtensa-lx106-elf/bin/../lib/gcc/xtensa-lx106-elf/4.8.2/../../../../xtensa-lx106-elf/lib\libc.a(lib_a-atoi.o)
                                 0x2f (size before relaxing)
                0x401012f4                atoi
                0x40101308                _atoi_r
 *fill*         0x4010131b        0x1 
 .text          0x4010131c       0x17 c:/espressif/xtensa-lx106-elf/bin/../lib/gcc/xtensa-lx106-elf/4.8.2/../../../../xtensa-lx106-elf/lib\libc.a(lib_a-lcltime.o)
                                 0x1b (size before relaxing)
                0x4010131c                localtime
 *fill*         0x40101333        0x1 
 .text          0x40101334       0x14 c:/espressif/xtensa-lx106-elf/bin/../lib/gcc/xtensa-lx106-elf/4.8.2/../../../../xtensa-lx106-elf/lib\libc.a(lib_a-lcltime_r.o)
                0x40101334                localtime_r
 .text          0x40101348      0x47c c:/espressif/xtensa-lx106-elf/bin/../lib/gcc/xtensa-lx106-elf/4.8.2/../../../../xtensa-lx106-elf/lib\libc.a(lib_a-mktm_r.o)
                                0x4bc (size before relaxing)
                0x40101348                __tzcalc_limits
                0x401014c4                _mktm_r
 .text          0x401017c4       0xff c:/espressif/xtensa-lx106-elf/bin/../lib/gcc/xtensa-lx106-elf/4.8.2/../../../../xtensa-lx106-elf/lib\libc.a(lib_a-strcmp.o)
                0x401017c4                strcmp
 *fill*         0x401018c3        0x1 
 .text          0x401018c4       0x5b c:/espressif/xtensa-lx106-elf/bin/../lib/gcc/xtensa-lx106-elf/4.8.2/../../../../xtensa-lx106-elf/lib\libc.a(lib_a-strlen.o)
                0x401018c4                strlen
 *fill*         0x4010191f        0x1 
 .text          0x40101920      0x173 c:/espressif/xtensa-lx106-elf/bin/../lib/gcc/xtensa-lx106-elf/4.8.2/../../../../xtensa-lx106-elf/lib\libc.a(lib_a-strtol.o)
                                0x177 (size before relaxing)
                0x40101920                _strtol_r
                0x40101a74                strtol
 *fill*         0x40101a93        0x1 
 .text          0x40101a94        0x5 c:/espressif/xtensa-lx106-elf/bin/../lib/gcc/xtensa-lx106-elf/4.8.2/../../../../xtensa-lx106-elf/lib\libc.a(lib_a-gettzinfo.o)
                0x40101a94                __gettzinfo
 *fill*         0x40101a99        0x3 
 .text          0x40101a9c      0x1ff c:/espressif/xtensa-lx106-elf/bin/../lib/gcc/xtensa-lx106-elf/4.8.2\libgcc.a(_addsubsf3.o)
                0x40101ab8                __addsf3
                0x40101ba0                __subsf3
 *fill*         0x40101c9b        0x1 
 .text          0x40101c9c      0x15d c:/espressif/xtensa-lx106-elf/bin/../lib/gcc/xtensa-lx106-elf/4.8.2\libgcc.a(_mulsf3.o)
                0x40101d14                __mulsf3
 *fill*         0x40101df9        0x3 
 .text          0x40101dfc      0x135 c:/espressif/xtensa-lx106-elf/bin/../lib/gcc/xtensa-lx106-elf/4.8.2\libgcc.a(_divsf3.o)
                0x40101e78                __divsf3
 *fill*         0x40101f31        0x3 
 .text          0x40101f34      0x122 c:/espressif/xtensa-lx106-elf/bin/../lib/gcc/xtensa-lx106-elf/4.8.2\libgcc.a(_cmpsf2.o)
                0x40101f34                __nesf2
                0x40101f34                __eqsf2
                0x40101f5c                __gtsf2
                0x40101f7c                __lesf2
                0x40101fc8                __gesf2
                0x40101fe8                __ltsf2
                0x40102034                __unordsf2
 *fill*         0x40102056        0x2 
 .text          0x40102058       0x40 c:/espressif/xtensa-lx106-elf/bin/../lib/gcc/xtensa-lx106-elf/4.8.2\libgcc.a(_fixsfsi.o)
                0x40102058                __fixsfsi
 .text          0x40102098       0x36 c:/espressif/xtensa-lx106-elf/bin/../lib/gcc/xtensa-lx106-elf/4.8.2\libgcc.a(_muldi3.o)
                0x40102098                __muldi3
 *fill*         0x401020ce        0x2 
 .text          0x401020d0       0x53 c:/Espressif/ESP8266_SDK/lib\libphy.a(phy.o)
                                 0x5f (size before relaxing)
                0x401020d8                register_phy_ops
                0x401020f8                register_get_phy_addr
                0x40102100                phy_change_channel
                0x40102118                phy_get_mactime
 *fill*         0x40102123        0x1 
 .text          0x40102124       0xbf c:/Espressif/ESP8266_SDK/lib\libphy.a(phy_chip_v6_cal.o)
                0x40102124                unsign_to_sign
                0x4010215c                phy_get_bb_freqoffset
 *fill*         0x401021e3        0x1 
 .text          0x401021e4       0xeb c:/Espressif/ESP8266_SDK/lib\libphy.a(phy_sleep.o)
                                0x103 (size before relaxing)
                0x401021ec                pm_rtc_clock_cali
                0x401022a4                clockgate_watchdog
 *fill*         0x401022cf        0x1 
 .text          0x401022d0     0x143a c:/Espressif/ESP8266_SDK/lib\libpp.a(lmac.o)
                               0x177a (size before relaxing)
                0x401022d4                lmacIsActive
                0x401022e8                lmacIsIdle
                0x40102728                lmacSetAcParam
                0x4010277c                lmacProcessTXStartData
                0x40102920                lmacProcessTxSuccess
                0x40102a5c                GetAccess
                0x40102a68                lmacDiscardAgedMSDU
                0x40102a7c                lmacRecycleMPDU
                0x40102f40                lmacProcessCollisions
                0x40102fa0                lmacProcessCollision
                0x40103024                lmacMSDUAged
                0x4010338c                lmacProcessCtsTimeout
                0x401033d4                lmacProcessAckTimeout
                0x40103428                lmacProcessRtsStart
                0x40103434                lmacProcessTxRtsError
                0x401034d0                lmacProcessTxError
                0x40103558                lmacTxFrame
                0x401036f4                lmacRxDone
 *fill*         0x4010370a        0x2 
 .text          0x4010370c      0x875 c:/Espressif/ESP8266_SDK/lib\libpp.a(pp.o)
                                0x979 (size before relaxing)
                0x4010373c                pp_soft_wdt_feed
                0x401037b0                ppProcessTxQ
                0x40103824                ppFetchTxQFirstAvail
                0x40103864                ppDequeueTxQ
                0x4010388c                ppRollBackTxQ
                0x401038b0                ppRecordBarRRC
                0x401038c0                ppTxqUpdateBitmap
                0x401038e8                ppEnqueueTxDone
                0x4010391c                ppEnqueueRxq
                0x40103e04                ppDiscardMPDU
                0x40103e28                pp_post
                0x40103e6c                pp_post2
                0x40103e94                ppCalTxop
                0x40103f14                ppCalFrameTimes
 *fill*         0x40103f81        0x3 
 .text          0x40103f84       0xf5 c:/Espressif/ESP8266_SDK/lib\libpp.a(rate_control.o)
                                0x109 (size before relaxing)
                0x40103fa4                RC_GetAckRate
                0x40103fb0                RC_GetRtsRate
                0x40103fc0                RC_GetAckTime
                0x40103fd4                RC_GetCtsTime
                0x4010400c                RC_GetBlockAckTime
 *fill*         0x40104079        0x3 
 .text          0x4010407c      0x809 c:/Espressif/ESP8266_SDK/lib\libpp.a(trc.o)
                                0x839 (size before relaxing)
                0x401041f0                rcUpdateTxDone
                0x40104284                rcUpdateRxDone
                0x401042e0                rcUpdateDataRxDone
                0x401042f8                rcGetSched
                0x401043a0                rcGetRate
                0x401047b8                rcReachRetryLimit
                0x401047d0                trc_NeedRTS
 *fill*         0x40104885        0x3 
 .text          0x40104888     0x1031 c:/Espressif/ESP8266_SDK/lib\libpp.a(wdev.o)
                               0x130d (size before relaxing)
                0x40104c68                wDev_MacTim1SetFunc
                0x40104c88                wDev_MacTim1Arm
                0x40104d18                wDev_ProcessFiq
                0x40105030                wDev_EnableTransmit
                0x4010506c                wDev_DisableTransmit
                0x4010508c                Tx_Copy2Queue
                0x401050d4                wDev_ProcessCollision
                0x401050f8                wDev_GetTxqCollisions
                0x40105108                wDev_ClearTxqCollisions
                0x40105124                wDev_SetWaitingQueue
                0x4010516c                wDev_ClearWaitingQueue
                0x40105190                wDev_SetFrameAckType
                0x401051f4                wDev_AppendRxBlocks
                0x40105338                wDev_AppendRxAmpduLensBlocks
                0x4010540c                wDev_GetBAInfo
                0x40105440                wDevDisableRx
 *fill*         0x401058b9        0x3 
 .text          0x401058bc       0x4c c:/Espressif/ESP8266_SDK/lib\libpp.a(esf_buf.o)
                                 0x5c (size before relaxing)
                0x401058c0                esf_rx_buf_alloc
 .text          0x40105908        0xb c:/Espressif/ESP8266_SDK/lib\libnet80211.a(wl_chm.o)
                0x4010590c                chm_get_current_channel
 *fill*         0x40105913        0x1 
 .text          0x40105914       0x33 c:/Espressif/ESP8266_SDK/lib\liblwip.a(etharp.o)
                                 0x37 (size before relaxing)
 *fill*         0x40105947        0x1 
 .text          0x40105948      0x1c8 c:/Espressif/ESP8266_SDK/lib\liblwip.a(tcp.o)
                                0x1e8 (size before relaxing)
 .text          0x40105b10      0x159 c:/Espressif/ESP8266_SDK/lib\liblwip.a(tcp_out.o)
                                0x161 (size before relaxing)
 *fill*         0x40105c69        0x3 
 .text          0x40105c6c       0xb4 c:/Espressif/ESP8266_SDK/lib\liblwip.a(timers.o)
                                 0xc0 (size before relaxing)
 .text          0x40105d20       0x29 c:/Espressif/ESP8266_SDK/lib\libssl.a(ssl_os_port.o)
                                 0x39 (size before relaxing)
                0x40105d20                gettimeofday
 *fill*         0x40105d49        0x3 
 .text          0x40105d4c       0x51 c:/espressif/xtensa-lx106-elf/bin/../lib/gcc/xtensa-lx106-elf/4.8.2\libgcc.a(_fixunssfsi.o)
                0x40105d4c                __fixunssfsi
 *fill*         0x40105d9d        0x3 
 .text          0x40105da0      0x29b c:/espressif/xtensa-lx106-elf/bin/../lib/gcc/xtensa-lx106-elf/4.8.2\libgcc.a(_muldf3.o)
                0x40105e80                __muldf3
 *fill*         0x4010603b        0x1 
 .text          0x4010603c      0x20b c:/espressif/xtensa-lx106-elf/bin/../lib/gcc/xtensa-lx106-elf/4.8.2\libgcc.a(_divdf3.o)
                0x40106124                __divdf3
 *fill*         0x40106247        0x1 
 .text          0x40106248       0x48 c:/espressif/xtensa-lx106-elf/bin/../lib/gcc/xtensa-lx106-elf/4.8.2\libgcc.a(_fixdfsi.o)
                0x40106248                __fixdfsi
 .text          0x40106290       0xa0 c:/espressif/xtensa-lx106-elf/bin/../lib/gcc/xtensa-lx106-elf/4.8.2\libgcc.a(_truncdfsf2.o)
                0x40106290                __truncdfsf2
 .text          0x40106330       0x21 c:/espressif/xtensa-lx106-elf/bin/../lib/gcc/xtensa-lx106-elf/4.8.2\libgcc.a(_popcountsi2.o)
                0x40106330                __popcountsi2
 *fill*         0x40106351        0x3 
 .text          0x40106354      0x3eb c:/espressif/xtensa-lx106-elf/bin/../lib/gcc/xtensa-lx106-elf/4.8.2\libgcc.a(_divdi3.o)
                                0x41b (size before relaxing)
                0x40106354                __divdi3
 *fill*         0x4010673f        0x1 
 .text          0x40106740      0x38d c:/espressif/xtensa-lx106-elf/bin/../lib/gcc/xtensa-lx106-elf/4.8.2\libgcc.a(_udivdi3.o)
                                0x3b5 (size before relaxing)
                0x40106740                __udivdi3
 *fill*         0x40106acd        0x3 
 .text          0x40106ad0      0x33a c:/espressif/xtensa-lx106-elf/bin/../lib/gcc/xtensa-lx106-elf/4.8.2\libgcc.a(_umoddi3.o)
                                0x366 (size before relaxing)
                0x40106ad0                __umoddi3
 .text          0x40106e0a        0x0 c:/Espressif/ESP8266_SDK/lib\libmain.a(debug-vector.o)
 .text          0x40106e0a        0x0 c:/Espressif/ESP8266_SDK/lib\libmain.a(double-vector.o)
 .text          0x40106e0a        0x0 c:/Espressif/ESP8266_SDK/lib\libmain.a(kernel-vector.o)
 *fill*         0x40106e0a        0x2 
 .literal       0x40106e0c        0x0 c:/Espressif/ESP8266_SDK/lib\libmain.a(nmi-vector.o)
 *fill*         0x40106e0c        0x0 
 .literal       0x40106e0c        0x0 c:/Espressif/ESP8266_SDK/lib\libmain.a(user-vector.o)
 .text          0x40106e0c        0x0 c:/Espressif/ESP8266_SDK/lib\libmain.a(vector.o)
 *fill*         0x40106e0c        0x0 
 .literal       0x40106e0c        0x0 c:/Espressif/ESP8266_SDK/lib\libmain.a(app_main.o)
 *fill*         0x40106e0c        0x0 
 .literal       0x40106e0c        0x0 c:/Espressif/ESP8266_SDK/lib\libmain.a(ets_timer.o)
 *fill*         0x40106e0c        0x0 
 .literal       0x40106e0c        0x0 c:/Espressif/ESP8266_SDK/lib\libmain.a(mem_manager.o)
 *fill*         0x40106e0c        0x0 
 .literal       0x40106e0c        0x0 c:/Espressif/ESP8266_SDK/lib\libmain.a(spi_flash.o)
 *fill*         0x40106e0c        0x0 
 .literal       0x40106e0c        0x0 c:/Espressif/ESP8266_SDK/lib\libmain.a(user_interface.o)
 .text          0x40106e0c        0x0 c:/Espressif/ESP8266_SDK/lib\libmain.a(eagle_lib.o)
 .text          0x40106e0c        0x0 c:/Espressif/ESP8266_SDK/lib\libmain.a(eagle_lwip_if.o)
 *fill*         0x40106e0c        0x0 
 .literal       0x40106e0c        0x0 build/app_app.a(user_main.o)
 .text          0x40106e0c        0x0 build/app_app.a(mqtt.o)
 .text          0x40106e0c        0x0 build/app_app.a(wifi.o)
 .text          0x40106e0c        0x0 build/app_app.a(config.o)
 *fill*         0x40106e0c        0x0 
 .literal       0x40106e0c        0x0 build/app_app.a(easygpio.o)
 .text          0x40106e0c        0x0 build/app_app.a(dht22.o)
 .text          0x40106e0c        0x0 build/app_app.a(stdout.o)
 .text          0x40106e0c        0x0 build/app_app.a(utils.o)
 .text          0x40106e0c        0x0 build/app_app.a(queue.o)
 .text          0x40106e0c        0x0 build/app_app.a(mqtt_msg.o)
 .text          0x40106e0c        0x0 build/app_app.a(ringbuf.o)
 .text          0x40106e0c        0x0 build/app_app.a(proto.o)
 *fill*         0x40106e0c        0x0 
 *fill*         0x40106e0c        0x0 
 *fill*         0x40106e0c        0x0 
 .text          0x40106e0c      0x145 c:/espressif/xtensa-lx106-elf/bin/../lib/gcc/xtensa-lx106-elf/4.8.2/../../../../xtensa-lx106-elf/lib\libc.a(lib_a-memcpy.o)
                0x40106e50                memcpy
 *fill*         0x40106f51        0x0 
 *fill*         0x40106f51        0x0 
 *fill*         0x40106f51        0x0 
 *fill*         0x40106f51        0x3 
 .text          0x40106f54        0x6 c:/espressif/xtensa-lx106-elf/bin/../lib/gcc/xtensa-lx106-elf/4.8.2/../../../../xtensa-lx106-elf/lib\libc.a(lib_a-tzlock.o)
                0x40106f54                __tz_lock
                0x40106f58                __tz_unlock
 .text          0x40106f5a        0x0 c:/espressif/xtensa-lx106-elf/bin/../lib/gcc/xtensa-lx106-elf/4.8.2/../../../../xtensa-lx106-elf/lib\libc.a(lib_a-tzvars.o)
 .text          0x40106f5a        0x0 c:/espressif/xtensa-lx106-elf/bin/../lib/gcc/xtensa-lx106-elf/4.8.2/../../../../xtensa-lx106-elf/lib\libc.a(lib_a-ctype_.o)
 *fill*         0x40106f5a        0x0 
 .text          0x40106f5a        0x0 c:/espressif/xtensa-lx106-elf/bin/../lib/gcc/xtensa-lx106-elf/4.8.2/../../../../xtensa-lx106-elf/lib\libc.a(lib_a-impure.o)
 *fill*         0x40106f5a        0x2 
 .text          0x40106f5c       0x64 c:/espressif/xtensa-lx106-elf/bin/../lib/gcc/xtensa-lx106-elf/4.8.2\libgcc.a(_divsi3.o)
                0x40106f5c                __divsi3
 .text          0x40106fc0       0x49 c:/espressif/xtensa-lx106-elf/bin/../lib/gcc/xtensa-lx106-elf/4.8.2\libgcc.a(_modsi3.o)
                0x40106fc0                __modsi3
 *fill*         0x40107009        0x3 
 .text          0x4010700c       0x4c c:/espressif/xtensa-lx106-elf/bin/../lib/gcc/xtensa-lx106-elf/4.8.2\libgcc.a(_udivsi3.o)
                0x4010700c                __udivsi3
 .text          0x40107058       0x39 c:/espressif/xtensa-lx106-elf/bin/../lib/gcc/xtensa-lx106-elf/4.8.2\libgcc.a(_umodsi3.o)
                0x40107058                __umodsi3
 *fill*         0x40107091        0x0 
 *fill*         0x40107091        0x0 
 *fill*         0x40107091        0x0 
 *fill*         0x40107091        0x0 
 *fill*         0x40107091        0x3 
 .text          0x40107094       0x44 c:/espressif/xtensa-lx106-elf/bin/../lib/gcc/xtensa-lx106-elf/4.8.2\libgcc.a(_floatsisf.o)
                0x40107094                __floatunsisf
                0x4010709c                __floatsisf
 *fill*         0x401070d8        0x0 
 .text          0x401070d8       0x48 c:/espressif/xtensa-lx106-elf/bin/../lib/gcc/xtensa-lx106-elf/4.8.2\libgcc.a(_umulsidi3.o)
                0x401070d8                __umulsidi3
 .text          0x40107120        0x5 c:/espressif/xtensa-lx106-elf/bin/../lib/gcc/xtensa-lx106-elf/4.8.2/../../../../xtensa-lx106-elf/lib\libhal.a(int_asm--set_intclear.o)
                0x40107120                xthal_set_intclear
 *fill*         0x40107125        0x3 
 .literal       0x40107128        0x0 c:/Espressif/ESP8266_SDK/lib\libphy.a(phy.o)
 .text          0x40107128        0x0 c:/Espressif/ESP8266_SDK/lib\libphy.a(phy_chip_v6_ana.o)
 *fill*         0x40107128        0x0 
 .literal       0x40107128        0x0 c:/Espressif/ESP8266_SDK/lib\libphy.a(phy_chip_v6.o)
 .text          0x40107128        0x2 c:/Espressif/ESP8266_SDK/lib\libphy.a(phy_chip_v6.o)
                0x40107128                ram_tx_mac_disable
 *fill*         0x4010712a        0x2 
 .literal       0x4010712c        0x0 c:/Espressif/ESP8266_SDK/lib\libphy.a(phy_chip_v6_cal.o)
 .text          0x4010712c        0x0 c:/Espressif/ESP8266_SDK/lib\libphy.a(phy_chip_v6_unused.o)
 *fill*         0x4010712c        0x0 
 .literal       0x4010712c        0x0 c:/Espressif/ESP8266_SDK/lib\libphy.a(phy_sleep.o)
 .text          0x4010712c        0x0 c:/Espressif/ESP8266_SDK/lib\libpp.a(if_hwctrl.o)
 *fill*         0x4010712c        0x0 
 .literal       0x4010712c        0x0 c:/Espressif/ESP8266_SDK/lib\libpp.a(lmac.o)
 .text          0x4010712c        0x0 c:/Espressif/ESP8266_SDK/lib\libpp.a(pm.o)
 .text          0x4010712c        0x0 c:/Espressif/ESP8266_SDK/lib\libpp.a(pm_for_bcn_only_mode.o)
 *fill*         0x4010712c        0x0 
 .literal       0x4010712c        0x0 c:/Espressif/ESP8266_SDK/lib\libpp.a(pp.o)
 *fill*         0x4010712c        0x0 
 .literal       0x4010712c        0x0 c:/Espressif/ESP8266_SDK/lib\libpp.a(rate_control.o)
 *fill*         0x4010712c        0x0 
 .literal       0x4010712c        0x0 c:/Espressif/ESP8266_SDK/lib\libpp.a(trc.o)
 *fill*         0x4010712c        0x0 
 .literal       0x4010712c        0x0 c:/Espressif/ESP8266_SDK/lib\libpp.a(wdev.o)
 *fill*         0x4010712c        0x0 
 .literal       0x4010712c        0x0 c:/Espressif/ESP8266_SDK/lib\libpp.a(esf_buf.o)
 .text          0x4010712c        0x0 c:/Espressif/ESP8266_SDK/lib\libnet80211.a(ieee80211.o)
 .text          0x4010712c        0x0 c:/Espressif/ESP8266_SDK/lib\libnet80211.a(ieee80211_crypto.o)
 .text          0x4010712c        0x0 c:/Espressif/ESP8266_SDK/lib\libnet80211.a(ieee80211_ets.o)
 .literal       0x4010712c        0x0 c:/Espressif/ESP8266_SDK/lib\libnet80211.a(ieee80211_hostap.o)
 .text          0x4010712c       0x25 c:/Espressif/ESP8266_SDK/lib\libnet80211.a(ieee80211_hostap.o)
 .text          0x40107151        0x0 c:/Espressif/ESP8266_SDK/lib\libnet80211.a(ieee80211_ht.o)
 .text          0x40107151        0x0 c:/Espressif/ESP8266_SDK/lib\libnet80211.a(ieee80211_input.o)
 .text          0x40107151        0x0 c:/Espressif/ESP8266_SDK/lib\libnet80211.a(ieee80211_output.o)
 .text          0x40107151        0x0 c:/Espressif/ESP8266_SDK/lib\libnet80211.a(ieee80211_phy.o)
 .text          0x40107151        0x0 c:/Espressif/ESP8266_SDK/lib\libnet80211.a(ieee80211_power.o)
 .text          0x40107151        0x0 c:/Espressif/ESP8266_SDK/lib\libnet80211.a(ieee80211_proto.o)
 .text          0x40107151        0x0 c:/Espressif/ESP8266_SDK/lib\libnet80211.a(ieee80211_scan.o)
 .text          0x40107151        0x0 c:/Espressif/ESP8266_SDK/lib\libnet80211.a(ieee80211_sta.o)
 *fill*         0x40107151        0x3 
 .literal       0x40107154        0x0 c:/Espressif/ESP8266_SDK/lib\libnet80211.a(wl_chm.o)
 .text          0x40107154        0x0 c:/Espressif/ESP8266_SDK/lib\libnet80211.a(wl_cnx.o)
 .text          0x40107154        0x0 c:/Espressif/ESP8266_SDK/lib\libnet80211.a(ieee80211_action.o)
 .text          0x40107154        0x0 c:/Espressif/ESP8266_SDK/lib\libnet80211.a(ieee80211_action_vendor.o)
 .text          0x40107154        0x0 c:/Espressif/ESP8266_SDK/lib\libnet80211.a(ieee80211_crypto_ccmp.o)
 .text          0x40107154        0x0 c:/Espressif/ESP8266_SDK/lib\libnet80211.a(ieee80211_ie_vendor.o)
 .text          0x40107154        0x0 c:/Espressif/ESP8266_SDK/lib\liblwip.a(dhcp.o)
 .text          0x40107154        0x0 c:/Espressif/ESP8266_SDK/lib\liblwip.a(dhcpserver.o)
 .text          0x40107154        0x0 c:/Espressif/ESP8266_SDK/lib\liblwip.a(dns.o)
 .text          0x40107154        0x0 c:/Espressif/ESP8266_SDK/lib\liblwip.a(espconn.o)
 .text          0x40107154        0x0 c:/Espressif/ESP8266_SDK/lib\liblwip.a(espconn_tcp.o)
 .text          0x40107154        0x0 c:/Espressif/ESP8266_SDK/lib\liblwip.a(espconn_udp.o)
 *fill*         0x40107154        0x0 
 .literal       0x40107154        0x0 c:/Espressif/ESP8266_SDK/lib\liblwip.a(etharp.o)
 .text          0x40107154        0x0 c:/Espressif/ESP8266_SDK/lib\liblwip.a(igmp.o)
 .text          0x40107154        0x0 c:/Espressif/ESP8266_SDK/lib\liblwip.a(inet_chksum.o)
 .text          0x40107154        0x0 c:/Espressif/ESP8266_SDK/lib\liblwip.a(init.o)
 .text          0x40107154        0x0 c:/Espressif/ESP8266_SDK/lib\liblwip.a(ip_addr.o)
 .text          0x40107154        0x0 c:/Espressif/ESP8266_SDK/lib\liblwip.a(ip.o)
 .text          0x40107154        0x0 c:/Espressif/ESP8266_SDK/lib\liblwip.a(mdns.o)
 .text          0x40107154        0x0 c:/Espressif/ESP8266_SDK/lib\liblwip.a(memp.o)
 .text          0x40107154        0x0 c:/Espressif/ESP8266_SDK/lib\liblwip.a(netif.o)
 .text          0x40107154        0x0 c:/Espressif/ESP8266_SDK/lib\liblwip.a(pbuf.o)
 .text          0x40107154        0x0 c:/Espressif/ESP8266_SDK/lib\liblwip.a(raw.o)
 .text          0x40107154        0x0 c:/Espressif/ESP8266_SDK/lib\liblwip.a(tcp_in.o)
 *fill*         0x40107154        0x0 
 .literal       0x40107154        0x0 c:/Espressif/ESP8266_SDK/lib\liblwip.a(tcp.o)
 .literal       0x40107154        0x0 c:/Espressif/ESP8266_SDK/lib\liblwip.a(tcp_out.o)
 *fill*         0x40107154        0x0 
 .literal       0x40107154        0x0 c:/Espressif/ESP8266_SDK/lib\liblwip.a(timers.o)
 .text          0x40107154        0x0 c:/Espressif/ESP8266_SDK/lib\liblwip.a(udp.o)
 .text          0x40107154        0x0 c:/Espressif/ESP8266_SDK/lib\liblwip.a(icmp.o)
 .text          0x40107154        0x0 c:/Espressif/ESP8266_SDK/lib\libwpa.a(ap_config.o)
 .text          0x40107154        0x0 c:/Espressif/ESP8266_SDK/lib\libwpa.a(common.o)
 .text          0x40107154        0x0 c:/Espressif/ESP8266_SDK/lib\libwpa.a(os_xtensa.o)
 .literal       0x40107154        0x0 c:/Espressif/ESP8266_SDK/lib\libwpa.a(wpa_auth.o)
 .text          0x40107154       0x11 c:/Espressif/ESP8266_SDK/lib\libwpa.a(wpa_auth.o)
 .text          0x40107165        0x0 c:/Espressif/ESP8266_SDK/lib\libwpa.a(wpa_auth_ie.o)
 .text          0x40107165        0x0 c:/Espressif/ESP8266_SDK/lib\libwpa.a(wpa.o)
 .text          0x40107165        0x0 c:/Espressif/ESP8266_SDK/lib\libwpa.a(wpa_common.o)
 .text          0x40107165        0x0 c:/Espressif/ESP8266_SDK/lib\libwpa.a(wpa_debug.o)
 .text          0x40107165        0x0 c:/Espressif/ESP8266_SDK/lib\libwpa.a(wpa_ie.o)
 .text          0x40107165        0x0 c:/Espressif/ESP8266_SDK/lib\libwpa.a(wpa_main.o)
 .text          0x40107165        0x0 c:/Espressif/ESP8266_SDK/lib\libwpa.a(wpas_glue.o)
 .text          0x40107165        0x0 c:/Espressif/ESP8266_SDK/lib\libwpa.a(aes-wrap.o)
 .text          0x40107165        0x0 c:/Espressif/ESP8266_SDK/lib\libwpa.a(aes-internal-enc.o)
 .text          0x40107165        0x0 c:/Espressif/ESP8266_SDK/lib\libssl.a(espconn_secure.o)
 .text          0x40107165        0x0 c:/Espressif/ESP8266_SDK/lib\libssl.a(espconn_ssl.o)
 .text          0x40107165        0x0 c:/Espressif/ESP8266_SDK/lib\libssl.a(ssl_loader.o)
 .text          0x40107165        0x0 c:/Espressif/ESP8266_SDK/lib\libssl.a(ssl_md5.o)
 .text          0x40107165        0x0 c:/Espressif/ESP8266_SDK/lib\libssl.a(ssl_tls1_clnt.o)
 .text          0x40107165        0x0 c:/Espressif/ESP8266_SDK/lib\libssl.a(ssl_tls1.o)
 .text          0x40107165        0x0 c:/Espressif/ESP8266_SDK/lib\libssl.a(ssl_tls1_svr.o)
 .text          0x40107165        0x0 c:/Espressif/ESP8266_SDK/lib\libssl.a(ssl_x509.o)
 .text          0x40107165        0x0 c:/Espressif/ESP8266_SDK/lib\libssl.a(ssl_aes.o)
 .text          0x40107165        0x0 c:/Espressif/ESP8266_SDK/lib\libssl.a(ssl_asn1.o)
 .text          0x40107165        0x0 c:/Espressif/ESP8266_SDK/lib\libssl.a(ssl_bigint.o)
 .text          0x40107165        0x0 c:/Espressif/ESP8266_SDK/lib\libssl.a(ssl_crypto_misc.o)
 .text          0x40107165        0x0 c:/Espressif/ESP8266_SDK/lib\libssl.a(ssl_hmac.o)
 .text          0x40107165        0x0 c:/Espressif/ESP8266_SDK/lib\libssl.a(ssl_md2.o)
 *fill*         0x40107165        0x3 
 .literal       0x40107168        0x0 c:/Espressif/ESP8266_SDK/lib\libssl.a(ssl_os_port.o)
 .text          0x40107168        0x0 c:/Espressif/ESP8266_SDK/lib\libssl.a(ssl_rc4.o)
 .text          0x40107168        0x0 c:/Espressif/ESP8266_SDK/lib\libssl.a(ssl_rsa.o)
 .text          0x40107168        0x0 c:/Espressif/ESP8266_SDK/lib\libssl.a(ssl_sha1.o)
 .text          0x40107168        0x0 c:/Espressif/ESP8266_SDK/lib\libsmartconfig.a(sc_sniffer.o)
 .text          0x40107168        0x0 c:/Espressif/ESP8266_SDK/lib\libsmartconfig.a(sc_airkiss.o)
 .text          0x40107168        0x0 c:/Espressif/ESP8266_SDK/lib\libsmartconfig.a(sc_esptouch.o)
 *fill*         0x40107168        0x0 
 .text          0x40107168       0x50 c:/espressif/xtensa-lx106-elf/bin/../lib/gcc/xtensa-lx106-elf/4.8.2/../../../../xtensa-lx106-elf/lib\libc.a(lib_a-memcmp.o)
                0x40107168                memcmp
 .text          0x401071b8       0x18 c:/espressif/xtensa-lx106-elf/bin/../lib/gcc/xtensa-lx106-elf/4.8.2\libgcc.a(_ashrdi3.o)
                0x401071b8                __ashrdi3
 *fill*         0x401071d0        0x0 
 *fill*         0x401071d0        0x0 
 *fill*         0x401071d0        0x0 
 .text          0x401071d0       0x36 c:/espressif/xtensa-lx106-elf/bin/../lib/gcc/xtensa-lx106-elf/4.8.2\libgcc.a(_floatsidf.o)
                0x401071d0                __floatunsidf
                0x401071d8                __floatsidf
 *fill*         0x40107206        0x0 
 *fill*         0x40107206        0x0 
 *fill*         0x40107206        0x0 
 *fill*         0x40107206        0x0 
 .text          0x40107206        0x0 c:/espressif/xtensa-lx106-elf/bin/../lib/gcc/xtensa-lx106-elf/4.8.2\libgcc.a(_popcount_tab.o)
 .text          0x40107206        0x0 c:/Espressif/ESP8266_SDK/lib\libnet80211.a(ieee80211_crypto_tkip.o)
 .text          0x40107206        0x0 c:/Espressif/ESP8266_SDK/lib\libnet80211.a(ieee80211_crypto_wep.o)
 *(.fini.literal)
 *(.fini)
 *(.gnu.version)
                0x40107206                _text_end = ABSOLUTE (.)
                0x40107206                _etext = .

.NMIExceptionVector.literal
                0x40107208        0x0
 .NMIExceptionVector.literal
                0x40107208        0x0 c:/Espressif/ESP8266_SDK/lib\libmain.a(nmi-vector.o)

.UserExceptionVector.literal
                0x40107208        0x0
 .UserExceptionVector.literal
                0x40107208        0x0 c:/Espressif/ESP8266_SDK/lib\libmain.a(user-vector.o)

.UserEnter.literal
                0x40107208        0x0
 .UserEnter.literal
                0x40107208        0x0 c:/Espressif/ESP8266_SDK/lib\libmain.a(vector.o)

.lit4           0x40107208        0x0
                0x40107208                _lit4_start = ABSOLUTE (.)
 *(*.lit4)
 *(.lit4.*)
 *(.gnu.linkonce.lit4.*)
                0x40107208                _lit4_end = ABSOLUTE (.)

.irom0.text     0x40240000    0x396a8
                0x40240000                _irom0_text_start = ABSOLUTE (.)
 *(.irom0.literal .irom.literal .irom.text.literal .irom0.text .irom.text)
 .irom0.text    0x40240000      0x671 c:/Espressif/ESP8266_SDK/lib\libmain.a(app_main.o)
                                0x795 (size before relaxing)
                0x402401e4                wdt_init
                0x40240270                user_uart_wait_tx_fifo_empty
 *fill*         0x40240671        0x3 
 .irom0.text    0x40240674      0x15e c:/Espressif/ESP8266_SDK/lib\libmain.a(ets_timer.o)
                                0x192 (size before relaxing)
                0x4024067c                ets_timer_done
                0x402406c0                ets_timer_handler_isr
                0x40240770                ets_timer_init
 *fill*         0x402407d2        0x2 
 .irom0.text    0x402407d4       0x4e c:/Espressif/ESP8266_SDK/lib\libmain.a(mem_manager.o)
                                 0x52 (size before relaxing)
                0x402407d8                xPortGetFreeHeapSize
                0x402407e0                vPortInitialiseBlocks
 *fill*         0x40240822        0x2 
 .irom0.text    0x40240824        0xb c:/Espressif/ESP8266_SDK/lib\libmain.a(spi_flash.o)
                0x40240828                spi_flash_set_read_func
 *fill*         0x4024082f        0x1 
 .irom0.text    0x40240830     0x28dd c:/Espressif/ESP8266_SDK/lib\libmain.a(user_interface.o)
                               0x30cd (size before relaxing)
                0x40240834                system_set_os_print
                0x40240844                system_get_os_print
                0x40240a10                system_pp_recycle_rx_pkt
                0x40240a24                system_adc_read
                0x40240a3c                system_get_vdd33
                0x40240a58                system_restart
                0x40240ab0                system_restore
                0x40240b0c                system_get_flash_size_map
                0x40240b2c                system_get_boot_version
                0x40240b64                system_get_test_result
                0x40240b8c                system_get_userbin_addr
                0x40240c24                system_get_boot_mode
                0x40240c54                system_restart_enhance
                0x40240d84                system_upgrade_userbin_set
                0x40240dd0                system_upgrade_userbin_check
                0x40240e10                system_upgrade_flag_set
                0x40240e24                system_upgrade_flag_check
                0x40240e4c                system_upgrade_reboot
                0x40240f5c                system_deep_sleep
                0x40240fbc                system_deep_sleep_set_option
                0x40240fd8                system_phy_temperature_alert
                0x40240fec                system_phy_set_max_tpw
                0x40241000                system_phy_set_tpw_via_vdd33
                0x40241014                system_phy_set_rfoption
                0x4024102c                system_update_cpu_freq
                0x40241088                system_get_cpu_freq
                0x402410a0                system_overclock
                0x402410cc                system_restoreclock
                0x402410fc                system_timer_reinit
                0x40241118                system_relative_time
                0x40241138                system_station_got_ip_set
                0x40241240                system_print_meminfo
                0x402412a0                system_get_free_heap_size
                0x402412b8                system_get_chip_id
                0x402412dc                system_rtc_clock_cali_proc
                0x402412f0                system_get_rtc_time
                0x40241304                system_mktime
                0x402413d4                system_init_done_cb
                0x402413dc                system_get_rst_info
                0x402413e4                wifi_softap_dhcps_start
                0x4024142c                wifi_softap_dhcps_stop
                0x4024146c                wifi_softap_dhcps_status
                0x40241474                wifi_station_dhcpc_start
                0x402414cc                wifi_station_dhcpc_stop
                0x4024150c                wifi_station_dhcpc_status
                0x40241578                wifi_get_opmode
                0x4024158c                wifi_get_opmode_default
                0x40241608                wifi_get_broadcast_if
                0x40241644                wifi_set_broadcast_if
                0x40241754                wifi_set_opmode
                0x40241768                wifi_set_opmode_current
                0x4024177c                system_get_checksum
                0x40241844                system_param_save_with_protect
                0x402418ec                system_save_sys_param
                0x40241918                system_param_load
                0x40241a44                wifi_station_get_config
                0x40241a58                wifi_station_get_config_default
                0x40241a78                wifi_station_get_ap_info
                0x40241b30                wifi_station_ap_number_set
                0x40241dd4                wifi_station_set_config
                0x40241de8                wifi_station_set_config_current
                0x40241dfc                wifi_station_get_current_ap_id
                0x40241e10                wifi_station_ap_check
                0x40241e48                wifi_station_ap_change
                0x40241f30                wifi_station_scan
                0x40241f7c                wifi_station_get_auto_connect
                0x40241f90                wifi_station_set_auto_connect
                0x40241fe4                wifi_station_connect
                0x40242078                wifi_station_disconnect
                0x40242124                wifi_station_get_connect_status
                0x40242154                wifi_station_set_reconnect_policy
                0x4024216c                wifi_station_get_reconnect_policy
                0x40242174                wifi_station_get_rssi
                0x402421bc                wifi_station_set_default_hostname
                0x40242204                wifi_station_get_hostname
                0x4024222c                wifi_station_set_hostname
                0x402422b8                wifi_softap_cacl_mac
                0x40242328                wifi_softap_set_default_ssid
                0x402424d0                wifi_softap_get_config
                0x402424e4                wifi_softap_get_config_default
                0x40242754                wifi_softap_set_config
                0x40242768                wifi_softap_set_config_current
                0x4024277c                wifi_softap_set_station_info
                0x402427e8                wifi_softap_get_station_info
                0x4024288c                wifi_softap_free_station_info
                0x402428c0                wifi_softap_get_station_num
                0x40242914                wifi_softap_deauth
                0x402429c4                wifi_softap_get_beacon_only_mode
                0x402429d8                wifi_softap_set_beacon_only_mode
                0x40242a40                wifi_set_user_ie
                0x40242ab0                wifi_get_user_ie
                0x40242ac0                wifi_get_phy_mode
                0x40242ac8                wifi_set_phy_mode
                0x40242b90                wifi_set_sleep_type
                0x40242bac                wifi_get_sleep_type
                0x40242bc4                wifi_get_channel
                0x40242bdc                wifi_set_channel
                0x40242c20                wifi_promiscuous_set_mac
                0x40242c80                wifi_promiscuous_enable
                0x40242d64                wifi_set_promiscuous_rx_cb
                0x40242d74                wifi_get_ip_info
                0x40242df4                wifi_set_ip_info
                0x40242e68                wifi_get_macaddr
                0x40242ec8                wifi_set_macaddr
                0x40242fb4                wifi_status_led_install
                0x40242fe8                wifi_status_led_uninstall
                0x4024300c                wifi_set_status_led_output_level
                0x40243020                wifi_set_event_handler_cb
                0x40243030                system_os_task
                0x40243074                system_uart_swap
                0x402430d4                system_uart_de_swap
                0x40243108                system_get_sdk_version
 *fill*         0x4024310d        0x3 
 .irom0.text    0x40243110      0x5cf c:/Espressif/ESP8266_SDK/lib\libmain.a(eagle_lib.o)
                                0x5df (size before relaxing)
                0x40243114                divide
                0x40243150                skip_atoi
                0x402432d0                ets_vsnprintf
                0x40243630                ets_vsprintf
                0x40243654                ets_sprintf
                0x4024367c                ets_strcat
                0x4024369c                ets_strrchr
                0x402436c8                ets_strchr
 *fill*         0x402436df        0x1 
 .irom0.text    0x402436e0      0x2c6 c:/Espressif/ESP8266_SDK/lib\libmain.a(eagle_lwip_if.o)
                                0x366 (size before relaxing)
                0x40243790                eagle_lwip_if_alloc
                0x40243928                eagle_lwip_if_free
                0x40243984                eagle_lwip_getif
 *fill*         0x402439a6        0x2 
 .irom0.text    0x402439a8     0x1270 build/app_app.a(user_main.o)
                               0x16e8 (size before relaxing)
                0x402439c0                pirCb
                0x40243a68                timeOnCb
                0x40243a94                mqttDisconnectedCb
                0x40243abc                wifiConnectCb
                0x40243afc                dateTimerCb
                0x40243cb0                mqttConnectedCb
                0x40243e34                splitString
                0x40243e7c                initOutputs
                0x40243eb8                initInputs
                0x4024403c                setOutput
                0x40244054                forceOutput
                0x40244084                clrOverride
                0x402440b8                setLED
                0x4024411c                smartConfigFlash_cb
                0x40244138                startSmartConfigFlash
                0x40244184                stopSmartConfigFlash
                0x402441ac                publishError
                0x4024422c                publishSensorData
                0x4024429c                publishData
                0x40244340                publishDeviceInfo
                0x40244360                checkHumidityHigh
                0x402443d4                checkTemperatureHigh
                0x40244478                setPirActive
                0x40244508                checkPirActive
                0x4024453c                setSpeed
                0x40244578                processData
                0x402445dc                transmitCb
                0x40244608                checkSmartConfig
                0x402446c4                smartConfig_done
                0x40244734                switchAction
                0x40244770                switchTimerCb
                0x40244840                setDeviceParameters
                0x40244908                setExternalTemperature
                0x4024493c                setTime
                0x402449c4                outputOverride
                0x40244a00                setSettings
                0x40244a5c                mqttDataCb
 .irom0.text    0x40244c18      0x8cd build/app_app.a(mqtt.o)
                                0xac5 (size before relaxing)
                0x40244c1c                mqtt_tcpclient_sent_cb
                0x40244c58                mqtt_tcpclient_discon_cb
                0x40244c88                mqtt_tcpclient_recon_cb
                0x40244ca8                mqtt_tcpclient_recv
                0x40244e60                mqtt_timer
                0x40244f24                mqtt_tcpclient_connect_cb
                0x40245018                MQTT_Publish
                0x40245098                MQTT_Subscribe
                0x40245104                MQTT_InitConnection
                0x40245170                MQTT_InitClient
                0x40245280                MQTT_InitLWT
                0x40245308                MQTT_Disconnect
                0x40245358                MQTT_Connect
                0x40245420                MQTT_Task
                0x402454c8                MQTT_OnConnected
                0x402454d0                MQTT_OnDisconnected
                0x402454d8                MQTT_OnData
                0x402454e0                MQTT_OnPublished
 *fill*         0x402454e5        0x3 
 .irom0.text    0x402454e8      0x145 build/app_app.a(wifi.o)
                                0x1b9 (size before relaxing)
                0x4024559c                WIFI_Connect
 *fill*         0x4024562d        0x3 
 .irom0.text    0x40245630      0x1e3 build/app_app.a(config.o)
                                0x28b (size before relaxing)
                0x40245640                CFG_Save
                0x402456ec                CFG_Load
 *fill*         0x40245813        0x1 
 .irom0.text    0x40245814      0x41a build/app_app.a(easygpio.o)
                                0x442 (size before relaxing)
                0x40245814                easygpio_countBits
                0x40245870                easygpio_getGPIONameFunc
                0x4024598c                easygpio_pullMode
                0x402459e4                easygpio_pinMode
                0x40245b1c                easygpio_attachInterrupt
                0x40245c04                easygpio_detachInterrupt
 *fill*         0x40245c2e        0x2 
 .irom0.text    0x40245c30      0x3c5 build/app_app.a(dht22.o)
                                0x44d (size before relaxing)
                0x40245f18                dht1Read
                0x40245f24                dht2Read
                0x40245f34                dht1Init
                0x40245f98                dht2Init
 *fill*         0x40245ff5        0x3 
 .irom0.text    0x40245ff8       0xd9 build/app_app.a(stdout.o)
                                 0xe1 (size before relaxing)
                0x40246058                stdout_init
 *fill*         0x402460d1        0x3 
 .irom0.text    0x402460d4       0x6b build/app_app.a(queue.o)
                                 0x83 (size before relaxing)
                0x402460d4                QUEUE_Init
                0x40246100                QUEUE_Puts
                0x40246118                QUEUE_Gets
                0x40246130                QUEUE_IsEmpty
 *fill*         0x4024613f        0x1 
 .irom0.text    0x40246140      0x76f build/app_app.a(mqtt_msg.o)
                                0x79b (size before relaxing)
                0x40246248                mqtt_msg_init
                0x40246260                mqtt_get_total_length
                0x402462ac                mqtt_get_publish_topic
                0x40246304                mqtt_get_publish_data
                0x4024639c                mqtt_get_id
                0x40246458                mqtt_msg_connect
                0x402465b8                mqtt_msg_publish
                0x4024666c                mqtt_msg_puback
                0x402466a8                mqtt_msg_pubrec
                0x402466e4                mqtt_msg_pubrel
                0x40246720                mqtt_msg_pubcomp
                0x4024675c                mqtt_msg_subscribe
                0x402467ec                mqtt_msg_unsubscribe
                0x4024685c                mqtt_msg_pingreq
                0x40246878                mqtt_msg_pingresp
                0x40246894                mqtt_msg_disconnect
 *fill*         0x402468af        0x1 
 .irom0.text    0x402468b0      0x26d build/app_app.a(proto.o)
                                0x289 (size before relaxing)
                0x402468b0                PROTO_Init
                0x402468c4                PROTO_ParseByte
                0x40246948                PROTO_Parse
                0x40246984                PROTO_ParseRb
                0x402469d4                PROTO_Add
                0x40246a74                PROTO_AddRb
 *fill*         0x40246b1d        0x3 
 .irom0.text    0x40246b20       0xfa c:/Espressif/ESP8266_SDK/lib\libphy.a(phy.o)
                                0x11e (size before relaxing)
                0x40246b24                rf_init
                0x40246b40                bb_init
                0x40246b58                phy_init
                0x40246b88                RFChannelSel
                0x40246ba4                phy_delete_channel
                0x40246bbc                phy_enable_agc
                0x40246bd4                phy_disable_agc
                0x40246bec                phy_initialize_bb
                0x40246c04                phy_set_sense
 *fill*         0x40246c1a        0x2 
 .irom0.text    0x40246c1c     0x18c4 c:/Espressif/ESP8266_SDK/lib\libphy.a(phy_chip_v6_ana.o)
                               0x1b00 (size before relaxing)
                0x40246c20                ram_pbus_set_rxgain
                0x40246cf8                ram_pbus_debugmode
                0x40246dac                ram_pbus_xpd_tx_on
                0x40246e18                set_rf_freq_offset
                0x40246e8c                chip_v6_rxmax_ext_ana
                0x40246fdc                ram_chip_v6_rx_init
                0x40247010                tsen_meas
                0x402470c0                readvdd33
                0x40247254                txpwr_offset
                0x40247314                set_txcap_reg
                0x40247394                ram_ana_inf_gating_en
                0x402474f4                ram_restart_cal
                0x40247560                wait_rfpll_cal_end
                0x402475e4                ram_rfpll_set_freq
                0x402476f0                ram_set_channel_freq
                0x40247a28                chip_60_set_channel
                0x40247bf0                chip_v6_set_chan_offset
                0x40247c28                chip_v6_set_chan
                0x40247ca0                chip_v6_set_chan_wakeup
                0x40247d20                chip_v6_rf_init
                0x40247f2c                low_power_set
                0x40247f8c                test_tout
                0x402481d0                check_data_flag
                0x402481f4                phy_get_check_flag
                0x40248364                phy_get_vdd33
 .irom0.text    0x402484e0     0x3950 c:/Espressif/ESP8266_SDK/lib\libphy.a(phy_chip_v6.o)
                               0x3f50 (size before relaxing)
                0x402484e0                ram_tx_mac_enable
                0x402484e4                rtc_mem_backup
                0x40248514                rtc_mem_recovery
                0x40248544                set_cal_rxdc
                0x402485f8                set_rx_gain_cal_iq
                0x40248954                gen_rx_gain_table
                0x40248a94                pbus_set_rxbbgain
                0x40248b14                set_rx_gain_testchip_50
                0x40248e24                ram_get_corr_power
                0x40248f14                check_data_func
                0x40248f34                do_noisefloor_lsleep_v50
                0x40248f68                do_noisefloor
                0x40248fd8                start_dig_rx
                0x4024901c                stop_dig_rx
                0x40249048                chip_v6_set_chanfreq
                0x40249080                tx_cap_init
                0x40249240                target_power_add_backoff
                0x40249290                tx_pwctrl_init_cal
                0x402493f8                tx_atten_set_interp
                0x40249674                tx_pwctrl_init
                0x40249768                ram_get_noisefloor
                0x40249784                get_noisefloor_sat
                0x402497b4                ram_set_noise_floor
                0x40249810                ram_start_noisefloor
                0x4024985c                read_hw_noisefloor
                0x40249888                noise_check_loop
                0x402499e4                noise_init
                0x40249be0                target_power_backoff
                0x40249c34                sdt_on_noise_start
                0x40249cb8                chip_v6_set_chan_rx_cmp
                0x40249e40                chip_v6_set_chan_misc
                0x40249ecc                phy_dig_spur_set
                0x4024a22c                phy_dig_spur_prot
                0x4024a464                chip_v6_rxmax_ext_dig
                0x4024a4b0                chip_v6_rxmax_ext
                0x4024a568                phy_bb_rx_cfg
                0x4024a968                uart_wait_idle
                0x4024a9a0                phy_pbus_soc_cfg
                0x4024aa64                phy_gpio_cfg
                0x4024adac                tx_cont_en
                0x4024ae54                tx_cont_dis
                0x4024aea8                tx_cont_cfg
                0x4024aecc                chip_v6_initialize_bb
                0x4024b038                periodic_cal
                0x4024b144                bbpll_cal
                0x4024b1dc                periodic_cal_top
                0x4024b23c                register_chipv6_phy_init_param
                0x4024b4dc                change_bbpll160_sleep
                0x4024b5cc                change_bbpll160
                0x4024b604                set_crystal_uart
                0x4024b678                ant_switch_init
                0x4024b724                reduce_current_init
                0x4024b78c                rtc_mem_check
                0x4024b7c4                phy_afterwake_set_rfoption
                0x4024b7f0                deep_sleep_set_option
                0x4024b86c                register_chipv6_phy
                0x4024bb2c                set_dpd_bypass
                0x4024bb84                set_rf_gain_stage10
                0x4024bbb4                get_vdd33_offset
                0x4024bc28                get_phy_target_power
                0x4024bcd8                set_most_pwr_reg
                0x4024bdac                phy_set_most_tpw
                0x4024bdd0                phy_vdd33_set_tpw
                0x4024bde8                get_adc_rand
                0x4024be1c                phy_get_rand
 .irom0.text    0x4024be30     0x214c c:/Espressif/ESP8266_SDK/lib\libphy.a(phy_chip_v6_cal.o)
                               0x2388 (size before relaxing)
                0x4024be30                txbbgain2dcoindex
                0x4024be50                dcoindex2txbbgain
                0x4024be74                init_cal_dcoffset
                0x4024bf38                set_rfanagain_dc_reg
                0x4024bfd4                set_txdc_pbus
                0x4024c040                get_rf_gain_qdb
                0x4024c068                correct_rf_ana_gain
                0x4024c170                get_sar_dout
                0x4024c208                cal_rf_ana_gain
                0x4024c2e0                meas_tone_pwr_db
                0x4024c350                tx_pwr_backoff
                0x4024c49c                get_fcc_1m2m_pwr_offset
                0x4024c4d8                ram_set_txbb_atten
                0x4024c56c                txiq_get_mis_pwr
                0x4024c610                txiq_cover
                0x4024c82c                ram_rfcal_txiq
                0x4024ca9c                rc_cal
                0x4024cc5c                get_target_power_offset
                0x4024cd64                get_pwctrl_correct
                0x4024cdbc                tx_pwctrl_cal
                0x4024d0fc                tx_pwctrl_bg_init
                0x4024d178                tx_pwctrl_background
                0x4024d230                read_sar_dout
                0x4024d294                ram_get_fm_sar_dout
                0x4024d338                ram_cal_tos_v60
                0x4024d518                ram_get_bb_atten
                0x4024d548                ram_rfcal_txcap
                0x4024d70c                ram_rfcal_pwrctrl
                0x4024d938                ram_rxiq_get_mis
                0x4024db08                ram_rxiq_cover_mg_mp
                0x4024dcac                ram_rfcal_rxiq
                0x4024deb8                dpd_scale_set
                0x4024df00                dpd_mem_write
 .irom0.text    0x4024df7c      0x271 c:/Espressif/ESP8266_SDK/lib\libphy.a(phy_chip_v6_unused.o)
                                0x2fd (size before relaxing)
                0x4024df7c                chip_v6_set_sense
                0x4024df80                chip_v6_get_sense
                0x4024df84                chip_v6_unset_chanfreq
                0x4024df90                data_collect
                0x4024e064                operation_test
                0x4024e0dc                slop_wdt_feed
                0x4024e0f0                slop_test
                0x4024e1a4                wd_reset_cnt
 *fill*         0x4024e1ed        0x3 
 .irom0.text    0x4024e1f0      0xd12 c:/Espressif/ESP8266_SDK/lib\libphy.a(phy_sleep.o)
                                0xf2e (size before relaxing)
                0x4024e1f0                pm_usec2rtc
                0x4024e224                pm_rtc2usec
                0x4024e234                pm_set_sleep_cycles
                0x4024e25c                pm_sleep_opt
                0x4024e360                pm_wakeup_opt
                0x4024e398                get_chip_version
                0x4024e3d8                pm_sleep_opt_bb_off
                0x4024e418                pm_sleep_opt_bb_on
                0x4024e464                pm_set_pll_xtal_wait_time
                0x4024e4ac                pm_prepare_to_sleep
                0x4024e4d0                pm_sdio_nidle
                0x4024e544                chg_lslp_mem_opt_8266
                0x4024e574                pm_goto_sleep
                0x4024e6c0                pm_wait4wakeup
                0x4024e6f8                pm_open_rf
                0x4024e73c                pm_sleep_set_mac
                0x4024e7c0                pm_set_wakeup_mac
                0x4024e85c                pm_check_mac_idle
                0x4024e8b4                pm_set_sleep_btco
                0x4024e954                pm_set_wakeup_btco
                0x4024ea68                pm_set_sleep_mode
                0x4024eb38                pm_unmask_bt
                0x4024eb9c                pm_wakeup_init
                0x4024eda4                sleep_opt_8266
                0x4024edc4                sleep_opt_bb_on_8266
                0x4024ee00                sleep_reset_analog_rtcreg_8266
 *fill*         0x4024ef02        0x2 
 .irom0.text    0x4024ef04      0x405 c:/Espressif/ESP8266_SDK/lib\libpp.a(if_hwctrl.o)
                                0x4f9 (size before relaxing)
                0x4024ef08                ic_get_addr
                0x4024ef14                ic_set_opmode
                0x4024ef2c                ic_enable_interface
                0x4024ef7c                ic_interface_enabled
                0x4024ef90                ic_disable_interface
                0x4024efd8                ic_is_pure_sta
                0x4024eff4                ic_get_ptk_alg
                0x4024f004                ic_get_gtk_alg
                0x4024f014                ic_set_ptk_alg
                0x4024f024                ic_set_gtk_alg
                0x4024f034                ic_interface_is_p2p
                0x4024f0c4                ic_set_vif
                0x4024f160                ic_set_sta
                0x4024f218                ic_bss_info_update
                0x4024f274                ic_set_key
                0x4024f2d0                ic_remove_key
                0x4024f2e4                ic_get_rssi
 *fill*         0x4024f309        0x3 
 .irom0.text    0x4024f30c       0xfc c:/Espressif/ESP8266_SDK/lib\libpp.a(lmac.o)
                                0x114 (size before relaxing)
                0x4024f310                lmacInitAc
                0x4024f344                lmacInit
                0x4024f3ec                lmacSetRetryLimit
 .irom0.text    0x4024f408     0x19bd c:/Espressif/ESP8266_SDK/lib\libpp.a(pm.o)
                               0x1f35 (size before relaxing)
                0x4024f410                pm_rtc_clock_cali_proc
                0x4024f448                pm_get_ck170_period
                0x4024f46c                pm_set_sleep_time
                0x4024f728                pm_rf_is_closed
                0x4024f760                pm_set_sleep_type_from_upper
                0x4024f854                pm_get_sleep_type
                0x4024fa28                uart_tx_flush
                0x4024fa2c                pm_suspend
                0x4024fc68                pm_shutdown
                0x4024fd44                pm_reset_idle_sleep
                0x4024fd84                pm_idle_sleep
                0x4024fd90                pm_open
                0x4024fe74                pm_onBcnRx
                0x40250208                StopLightSleepSetFunc
                0x40250210                LightSleepWakedCbSetFunc
                0x402507ec                pm_enable_gpio_wakeup
                0x40250824                pm_attach
                0x40250914                pm_send_nullfunc
                0x40250ab8                pm_is_waked
                0x40250ad0                pm_is_open
                0x40250ae8                pm_scan_lock
                0x40250b10                pm_try_scan_unlock
                0x40250b28                pm_force_scan_unlock
                0x40250be4                pm_scan_unlocked
                0x40250bf8                pm_allow_tx
                0x40250c14                pm_assoc_parse
                0x40250c2c                pm_set_addr
                0x40250c4c                pm_sleep_for
                0x40250c80                pm_post
                0x40250d84                pm_get_idle_wait_time
 *fill*         0x40250dc5        0x3 
 .irom0.text    0x40250dc8      0x9a5 c:/Espressif/ESP8266_SDK/lib\libpp.a(pm_for_bcn_only_mode.o)
                                0xcbd (size before relaxing)
                0x40250de4                fpm_set_type_from_upper
                0x40250ea8                fpm_get_slp_type
                0x40250eb0                fpm_rf_is_closed
                0x40250ec4                fpm_is_open
                0x40250ed0                fpm_allow_tx
                0x40250ef4                fpm_close
                0x40250f70                fpm_open
                0x40250fd8                fpm_attach
                0x40251274                fpm_do_wakeup
                0x402516f4                fpm_do_sleep
 *fill*         0x4025176d        0x3 
 .irom0.text    0x40251770     0x1392 c:/Espressif/ESP8266_SDK/lib\libpp.a(pp.o)
                               0x170a (size before relaxing)
                0x40251778                PPWdtReset
                0x402517a4                pp_soft_wdt_init
                0x402517cc                system_soft_wdt_stop
                0x402517cc                pp_soft_wdt_stop
                0x402517f8                pp_soft_wdt_restart
                0x402517f8                system_soft_wdt_restart
                0x40251828                RxNodeNum
                0x4025184c                TxNodeNum
                0x40251870                pp_disable_noise_timer
                0x40251890                pp_enable_noise_timer
                0x402519a0                pp_noise_test
                0x402519b0                reset_noise_timer
                0x402519e8                pp_disable_idle_timer
                0x40251a0c                pp_enable_idle_timer
                0x40251a34                pp_try_enable_idle_timer
                0x40251a6c                ppPeocessRxPktHdr
                0x40251d58                ppTxPkt
                0x40251e6c                ppProcessWaitQ
                0x40251e7c                ppRegisterTxCallback
                0x40251eb4                ppRecycleRxPkt
                0x40251f14                ppCheckTxIdle
                0x40252180                pp_tx_idle_timeout
                0x40252644                ppGetTxQFirstAvail_Locked
                0x40252720                pp_attach
 *fill*         0x40252b02        0x2 
 .irom0.text    0x40252b04      0x296 c:/Espressif/ESP8266_SDK/lib\libpp.a(rate_control.o)
                                0x2a2 (size before relaxing)
                0x40252d50                RC_SetBasicRate
 *fill*         0x40252d9a        0x2 
 .irom0.text    0x40252d9c      0x3d9 c:/Espressif/ESP8266_SDK/lib\libpp.a(trc.o)
                                0x431 (size before relaxing)
                0x40252dc8                rcUpdatePhyMode
                0x40252ea4                rcAttach
                0x40252ef0                rcGetTrc
                0x40252ef8                trc_onDisconnect
                0x40252efc                trc_onScanStart
                0x40252f10                trc_onScanDone
                0x40252f2c                rc_enable_trc
                0x40252ff4                rc_get_mask
                0x40253008                rc_disable_trc
                0x4025305c                rc_disable_trc_by_interface
                0x40253078                rc_get_sta_trc
                0x402530b8                rc_get_trc
                0x40253128                rc_get_trc_by_index
                0x40253148                rc_only_sta_trc
 *fill*         0x40253175        0x3 
 .irom0.text    0x40253178      0xaff c:/Espressif/ESP8266_SDK/lib\libpp.a(wdev.o)
                                0xc4f (size before relaxing)
                0x40253184                wDev_Option_Init
                0x40253278                wDev_Enable_Beacon_Tsf
                0x40253294                wDev_Disable_Beacon_Tsf
                0x402532b0                wDev_Set_Beacon_Int
                0x402532b8                wDev_Reset_TBTT
                0x402532e8                wDev_Get_Next_TBTT
                0x40253564                wDev_Initialize
                0x402535d4                wDevForceAck6M
                0x402535f0                wDev_SetMacAddress
                0x40253690                wDev_SetRxPolicy
                0x402536e4                wDev_SetBssid
                0x402537bc                wDev_ClearBssid
                0x402537f4                wDev_Insert_KeyEntry
                0x402538e8                wDev_remove_KeyEntry
                0x40253924                wDev_remove_KeyEntry_all_cnx
                0x40253974                wDev_Crypto_Conf
                0x40253a10                wDev_Crypto_Disable
                0x40253a48                wDevEnableRx
                0x40253a74                wdev_go_sniffer
                0x40253b50                wdev_set_sniffer_addr
                0x40253ba8                wdev_exit_sniffer
 *fill*         0x40253c77        0x1 
 .irom0.text    0x40253c78      0x3bf c:/Espressif/ESP8266_SDK/lib\libpp.a(esf_buf.o)
                                0x483 (size before relaxing)
                0x40253c7c                esf_buf_alloc
                0x40253e10                esf_buf_recycle
                0x40253f30                esf_buf_setup
 *fill*         0x40254037        0x1 
 .irom0.text    0x40254038      0x3a9 c:/Espressif/ESP8266_SDK/lib\libnet80211.a(ieee80211.o)
                                0x45d (size before relaxing)
                0x402540c8                ieee80211_ifattach
                0x40254118                ieee80211_mhz2ieee
                0x40254174                ieee80211_chan2ieee
                0x40254190                ieee80211_ieee2mhz
                0x402541d0                ieee80211_find_channel
                0x402541fc                ieee80211_find_channel_byieee
                0x4025424c                wifi_mode_set
 *fill*         0x402543e1        0x3 
 .irom0.text    0x402543e4       0xc7 c:/Espressif/ESP8266_SDK/lib\libnet80211.a(ieee80211_crypto.o)
                                 0xcf (size before relaxing)
                0x402543e4                ieee80211_crypto_attach
                0x402543e8                ieee80211_crypto_available
                0x402543ec                ieee80211_crypto_setkey
                0x402543f0                ieee80211_crypto_encap
                0x40254440                ieee80211_crypto_decap
 *fill*         0x402544ab        0x1 
 .irom0.text    0x402544ac       0x4c c:/Espressif/ESP8266_SDK/lib\libnet80211.a(ieee80211_ets.o)
                                 0x50 (size before relaxing)
                0x402544b0                ieee80211_getmgtframe
 .irom0.text    0x402544f8     0x12ea c:/Espressif/ESP8266_SDK/lib\libnet80211.a(ieee80211_hostap.o)
                               0x1722 (size before relaxing)
                0x402549a0                ieee80211_hostap_attach
                0x40254a7c                hostap_handle_timer
                0x40254b10                hostap_input
                0x40255504                wifi_softap_start
                0x40255660                wifi_softap_stop
 *fill*         0x402557e2        0x2 
 .irom0.text    0x402557e4      0xa46 c:/Espressif/ESP8266_SDK/lib\libnet80211.a(ieee80211_ht.o)
                                0xb16 (size before relaxing)
                0x402557f4                ieee80211_ht_attach
                0x40255844                ieee80211_ht_node_init
                0x40255880                ieee80211_ht_node_cleanup
                0x402558b8                ieee80211_parse_htcap
                0x40255988                ieee80211_ht_updateparams
                0x40255a90                ieee80211_setup_htrates
                0x40255b5c                ieee80211_setup_basic_htrates
                0x40255e94                ieee80211_add_htcap
                0x40255eb0                ieee80211_add_htcap_vendor
                0x40255fd4                ieee80211_add_htinfo
                0x40255ff0                ieee80211_add_htinfo_vendor
 *fill*         0x4025622a        0x2 
 .irom0.text    0x4025622c      0x958 c:/Espressif/ESP8266_SDK/lib\libnet80211.a(ieee80211_input.o)
                                0x9d0 (size before relaxing)
                0x4025622c                ieee80211_deliver_data
                0x40256280                ieee80211_decap
                0x40256384                ieee80211_setup_rates
                0x402563f0                ieee80211_alloc_challenge
                0x40256428                ieee80211_parse_beacon
                0x402568d0                ieee80211_parse_wpa
                0x402569e4                ieee80211_parse_rsn
                0x40256ae4                ieee80211_parse_action
                0x40256b80                ieee80211_setup_rateset
 .irom0.text    0x40256b84     0x16a9 c:/Espressif/ESP8266_SDK/lib\libnet80211.a(ieee80211_output.o)
                               0x1951 (size before relaxing)
                0x40256b88                ieee80211_output_pbuf
                0x40256de4                ieee80211_send_setup
                0x40256f18                ieee80211_mgmt_output
                0x40256ffc                ieee80211_tx_mgt_cb
                0x40257000                ieee80211_send_nulldata
                0x4025745c                ieee80211_add_rates
                0x40257494                ieee80211_add_xrates
                0x40257558                ieee80211_send_probereq
                0x40257704                ieee80211_getcapinfo
                0x4025775c                ieee80211_send_mgmt
                0x40257c7c                ieee80211_alloc_proberesp
                0x40257dd8                ieee80211_send_proberesp
                0x402580f4                ieee80211_beacon_alloc
 *fill*         0x4025822d        0x3 
 .irom0.text    0x40258230      0x147 c:/Espressif/ESP8266_SDK/lib\libnet80211.a(ieee80211_phy.o)
                                0x16f (size before relaxing)
                0x40258234                ieee80211_get_11g_ratetable
                0x40258240                ieee80211_get_ratetable
                0x40258258                ieee80211_phy_init
                0x4025828c                ieee80211_phy_type_get
                0x4025829c                ieee80211_setup_ratetable
                0x402582d0                ieee80211_compute_duration
                0x40258350                ieee80211_dot11Rate_rix
 *fill*         0x40258377        0x1 
 .irom0.text    0x40258378      0x1b6 c:/Espressif/ESP8266_SDK/lib\libnet80211.a(ieee80211_power.o)
                                0x1f2 (size before relaxing)
                0x40258378                ieee80211_psq_init
                0x40258398                ieee80211_psq_cleanup
                0x402583a0                ieee80211_set_tim
                0x402583e0                ieee80211_pwrsave
                0x40258448                pwrsave_flushq
                0x402584f8                ieee80211_node_pwrsave
 *fill*         0x4025852e        0x2 
 .irom0.text    0x40258530      0x15b c:/Espressif/ESP8266_SDK/lib\libnet80211.a(ieee80211_proto.o)
                                0x177 (size before relaxing)
                0x40258534                ieee80211_proto_attach
                0x4025855c                ieee80211_set_shortslottime
                0x40258578                ieee80211_iserp_rateset
                0x4025860c                ieee80211_setbasicrates
                0x40258620                ieee80211_addbasicrates
                0x40258634                ieee80211_wme_initparams
                0x40258638                ieee80211_wme_updateparams
                0x4025863c                ieee80211_mlme_connect_bss
 *fill*         0x4025868b        0x1 
 .irom0.text    0x4025868c      0xdb8 c:/Espressif/ESP8266_SDK/lib\libnet80211.a(ieee80211_scan.o)
                               0x10c0 (size before relaxing)
                0x40258698                ieee80211_scan_attach
                0x40258728                scan_start
                0x40258898                scan_pm_channel_op_cb
                0x40258a38                scan_cancel
                0x40258b70                scan_add_bssid
                0x40258b94                scan_remove_bssid
                0x40258ba0                scan_hidden_ssid
                0x40258ba8                scan_add_probe_ssid
                0x40258be8                scan_remove_probe_ssid
                0x40258d24                scan_clear_channles
                0x40258d98                scan_set_desChan
                0x40258da4                scan_get_type
                0x40258dac                cannel_scan_connect_state
                0x40258dc4                scan_connect_state
                0x40258e0c                scan_check_hidden
                0x40258e34                scan_profile_check
                0x40259154                scan_parse_beacon
 .irom0.text    0x40259444      0xc56 c:/Espressif/ESP8266_SDK/lib\libnet80211.a(ieee80211_sta.o)
                                0xe41 (size before relaxing)
                0x40259470                sta_status_set
                0x402594b8                ieee80211_sta_new_state
                0x40259790                sta_input
                0x40259b0c                ieee80211_parse_wmeparams
                0x40259ff0                wifi_station_start
                0x4025a060                wifi_station_stop
 *fill*         0x4025a09a        0x2 
 .irom0.text    0x4025a09c      0x29e c:/Espressif/ESP8266_SDK/lib\libnet80211.a(wl_chm.o)
                                0x31e (size before relaxing)
                0x4025a0a8                chm_init
                0x4025a10c                chm_acquire_lock
                0x4025a150                chm_release_lock
                0x4025a164                chm_start_op
                0x4025a208                chm_end_op
                0x4025a250                chm_cancel_op
                0x4025a284                chm_return_home_channel
                0x4025a2b4                chm_set_current_channel
                0x4025a2e4                chm_freq2index
                0x4025a30c                chm_check_same_channel
 *fill*         0x4025a33a        0x2 
 .irom0.text    0x4025a33c     0x14d3 c:/Espressif/ESP8266_SDK/lib\libnet80211.a(wl_cnx.o)
                               0x1907 (size before relaxing)
                0x4025a348                cnx_attach
                0x4025a388                cnx_sta_connect_led_timer_cb
                0x4025a3e0                cnx_sta_connect_cmd
                0x4025a49c                cnx_sta_scan_cmd
                0x4025a6dc                cnx_connect_timeout
                0x4025a744                cnx_start_handoff_cb
                0x4025ab8c                cnx_bss_alloc
                0x4025ac30                cnx_rc_search
                0x4025acf8                cnx_add_rc
                0x4025adf4                cnx_remove_rc
                0x4025af54                cnx_rc_update_rssi
                0x4025afdc                cnx_rc_update_state_metric
                0x4025b048                cnx_rc_update_age
                0x4025b06c                cnx_update_bss
                0x4025b0a0                cnx_update_bss_more
                0x4025b240                cnx_sta_leave
                0x4025b384                cnx_sta_associated
                0x4025b41c                cnx_node_alloc
                0x4025b488                cnx_node_remove
                0x4025b500                cnx_node_search
                0x4025b57c                cnx_node_leave
                0x4025b660                cnx_node_join
 *fill*         0x4025b80f        0x1 
 .irom0.text    0x4025b810      0x16f c:/Espressif/ESP8266_SDK/lib\libnet80211.a(ieee80211_action.o)
                                0x193 (size before relaxing)
                0x4025b820                ieee80211_send_action_register
                0x4025b854                ieee80211_send_action_unregister
                0x4025b868                ieee80211_send_action
                0x4025b8d4                ieee80211_recv_action_register
                0x4025b908                ieee80211_recv_action_unregister
                0x4025b91c                ieee80211_recv_action
 *fill*         0x4025b97f        0x1 
 .irom0.text    0x4025b980      0x451 c:/Espressif/ESP8266_SDK/lib\libnet80211.a(ieee80211_action_vendor.o)
                                0x4c9 (size before relaxing)
                0x4025b984                get_iav_key
                0x4025b9a4                register_ieee80211_action_vendor_get_key_cb
                0x4025b9b8                unregister_ieee80211_action_vendor_get_key_cb
                0x4025b9c8                ieee80211_add_action_vendor_spec_esp
                0x4025ba10                ieee80211_alloc_action_vendor_spec
                0x4025bafc                ieee80211_send_action_vendor_spec
                0x4025bca8                ieee80211_recv_action_vendor_spec
                0x4025bd78                ieee80211_action_vendor_spec_attach
                0x4025bdb4                register_ieee80211_action_vendor_spec_cb
                0x4025bdc8                unregister_ieee80211_action_vendor_spec_cb
 *fill*         0x4025bdd1        0x3 
 .irom0.text    0x4025bdd4      0x131 c:/Espressif/ESP8266_SDK/lib\libnet80211.a(ieee80211_crypto_ccmp.o)
                                0x135 (size before relaxing)
 *fill*         0x4025bf05        0x3 
 .irom0.text    0x4025bf08      0x1fd c:/Espressif/ESP8266_SDK/lib\libnet80211.a(ieee80211_ie_vendor.o)
                                0x225 (size before relaxing)
                0x4025bf0c                ieee80211_add_ie_vendor_esp_head
                0x4025bf44                ieee80211_add_ie_vendor_esp_mesh_assoc
                0x4025bfd0                ieee80211_add_ie_vendor_esp_mesh_group
                0x4025c000                ieee80211_add_ie_vendor_esp_simple_pair
                0x4025c050                ieee80211_add_ie_vendor_esp_freq_annon
                0x4025c088                ieee80211_add_ie_vendor_esp_now
                0x4025c0c0                ieee80211_add_ie_vendor_esp_manufacturer
 *fill*         0x4025c105        0x3 
 .irom0.text    0x4025c108     0x12c2 c:/Espressif/ESP8266_SDK/lib\liblwip.a(dhcp.o)
                               0x149e (size before relaxing)
                0x4025c34c                dhcp_coarse_tmr
                0x4025c394                dhcp_fine_tmr
                0x4025c5bc                dhcp_set_struct
                0x4025c5e0                dhcp_cleanup
                0x4025c604                dhcp_start
                0x4025c6b4                dhcp_inform
                0x4025c760                dhcp_network_changed
                0x4025c7a8                dhcp_arp_reply
                0x4025ca34                dhcp_renew
                0x4025cca8                dhcp_release
                0x4025cd68                dhcp_stop
 *fill*         0x4025d3ca        0x2 
 .irom0.text    0x4025d3cc      0xa0b c:/Espressif/ESP8266_SDK/lib\liblwip.a(dhcpserver.o)
                                0xb7f (size before relaxing)
                0x4025d3cc                node_insert_to_list
                0x4025d3e8                node_remove_from_list
                0x4025db30                dhcps_start
                0x4025dba8                dhcps_stop
                0x4025dc10                wifi_softap_set_dhcps_lease
                0x4025dd28                dhcps_coarse_tmr
                0x4025dd94                wifi_softap_set_dhcps_offer_option
 *fill*         0x4025ddd7        0x1 
 .irom0.text    0x4025ddd8      0x5ab c:/Espressif/ESP8266_SDK/lib\liblwip.a(dns.o)
                                0x667 (size before relaxing)
                0x4025dde4                dns_init
                0x4025de38                dns_setserver
                0x4025de54                dns_getserver
                0x4025de68                dns_tmr
                0x4025e32c                dns_gethostbyname
 *fill*         0x4025e383        0x1 
 .irom0.text    0x4025e384      0x92e c:/Espressif/ESP8266_SDK/lib\liblwip.a(espconn.o)
                                0xa0a (size before relaxing)
                0x4025e384                espconn_copy_partial
                0x4025e414                espconn_list_creat
                0x4025e434                espconn_list_delete
                0x4025e45c                espconn_pbuf_create
                0x4025e478                espconn_pbuf_delete
                0x4025e4a0                espconn_find_connection
                0x4025e568                espconn_connect
                0x4025e64c                espconn_create
                0x4025e690                espconn_sent
                0x4025e730                espconn_tcp_get_wnd
                0x4025e754                espconn_tcp_set_wnd
                0x4025e770                espconn_tcp_get_mss
                0x4025e778                espconn_tcp_get_max_con
                0x4025e788                espconn_tcp_set_max_con
                0x4025e7a0                espconn_tcp_get_max_con_allow
                0x4025e7c8                espconn_tcp_set_max_con_allow
                0x4025e7f8                espconn_regist_sentcb
                0x4025e804                espconn_regist_write_finish
                0x4025e81c                espconn_regist_connectcb
                0x4025e82c                espconn_regist_recvcb
                0x4025e838                espconn_regist_reconcb
                0x4025e848                espconn_regist_disconcb
                0x4025e85c                espconn_get_connection_info
                0x4025e924                espconn_accept
                0x4025e968                espconn_regist_time
                0x4025e9a8                espconn_disconnect
                0x4025e9e0                espconn_get_packet_info
                0x4025ea70                espconn_set_opt
                0x4025eac8                espconn_clear_opt
                0x4025eb28                espconn_set_keepalive
                0x4025eb94                espconn_get_keepalive
                0x4025ec04                espconn_delete
                0x4025ec4c                espconn_port
                0x4025ec84                espconn_gethostbyname
                0x4025eca0                espconn_dns_setserver
 *fill*         0x4025ecb2        0x2 
 .irom0.text    0x4025ecb4      0xe54 c:/Espressif/ESP8266_SDK/lib\liblwip.a(espconn_tcp.o)
                               0x10f4 (size before relaxing)
                0x4025ed44                espconn_kill_oldest_pcb
                0x4025edb0                espconn_kill_pcb
                0x4025ee28                espconn_find_current_pcb
                0x4025f0f0                espconn_tcp_sent
                0x4025f1a8                espconn_tcp_disconnect
                0x4025f228                espconn_recv_hold
                0x4025f26c                espconn_recv_unhold
                0x4025f368                espconn_tcp_write
                0x4025f590                espconn_tcp_client
                0x4025f9c8                espconn_tcp_server
                0x4025fa64                espconn_tcp_delete
                0x4025faec                espconn_init
 .irom0.text    0x4025fb08      0x432 c:/Espressif/ESP8266_SDK/lib\liblwip.a(espconn_udp.o)
                                0x53e (size before relaxing)
                0x4025fb48                espconn_udp_sent
                0x4025fda0                espconn_udp_disconnect
                0x4025fdd8                espconn_udp_server
                0x4025fe3c                espconn_igmp_leave
                0x4025fe58                espconn_igmp_join
                0x4025fe74                espconn_mdns_enable
                0x4025fe88                espconn_mdns_disable
                0x4025fe9c                espconn_mdns_set_hostname
                0x4025feb0                espconn_mdns_get_hostname
                0x4025fec4                espconn_mdns_set_servername
                0x4025fed8                espconn_mdns_get_servername
                0x4025feec                espconn_mdns_server_register
                0x4025ff00                espconn_mdns_server_unregister
                0x4025ff14                espconn_mdns_close
                0x4025ff28                espconn_mdns_init
 *fill*         0x4025ff3a        0x2 
 .irom0.text    0x4025ff3c      0x8bb c:/Espressif/ESP8266_SDK/lib\liblwip.a(etharp.o)
                                0x99b (size before relaxing)
                0x4025ff70                etharp_tmr
                0x40260190                etharp_cleanup_netif
                0x402601cc                etharp_find_addr
                0x40260424                etharp_output
                0x40260538                etharp_query
                0x4026075c                etharp_request
                0x40260780                ethernet_input
 *fill*         0x402607f7        0x1 
 .irom0.text    0x402607f8      0x5ca c:/Espressif/ESP8266_SDK/lib\liblwip.a(igmp.o)
                                0x656 (size before relaxing)
                0x40260804                igmp_init
                0x40260814                igmp_start
                0x40260850                igmp_stop
                0x402608b0                igmp_report_groups
                0x402608e0                igmp_lookfor_group
                0x40260998                igmp_input
                0x40260ae0                igmp_joingroup
                0x40260b88                igmp_leavegroup
                0x40260c2c                igmp_tmr
 *fill*         0x40260dc2        0x2 
 .irom0.text    0x40260dc4       0x30 c:/Espressif/ESP8266_SDK/lib\liblwip.a(init.o)
                                 0x50 (size before relaxing)
                0x40260dc8                lwip_init
 .irom0.text    0x40260df4      0x37a c:/Espressif/ESP8266_SDK/lib\liblwip.a(ip_addr.o)
                                0x3a2 (size before relaxing)
                0x40260df4                ip4_addr_isbroadcast
                0x40260e20                ip4_addr_netmask_valid
                0x40260e60                ipaddr_addr
                0x40260e7c                ipaddr_aton
                0x40261098                ipaddr_ntoa
                0x402610ac                ipaddr_ntoa_r
 *fill*         0x4026116e        0x2 
 .irom0.text    0x40261170      0x581 c:/Espressif/ESP8266_SDK/lib\liblwip.a(ip.o)
                                0x62d (size before relaxing)
                0x40261170                ip_route
                0x402611ec                ip_router
                0x40261268                ip_input
                0x402614c0                ip_output_if
                0x402614dc                ip_output_if_opt
                0x402616b8                ip_output
 *fill*         0x402616f1        0x3 
 .irom0.text    0x402616f4      0xc39 c:/Espressif/ESP8266_SDK/lib\liblwip.a(mdns.o)
                                0xec5 (size before relaxing)
                0x402616f8                getPcb
                0x40262024                mdns_close
                0x40262040                mdns_set_name
                0x4026205c                mdns_enable
                0x40262080                mdns_disable
                0x402620a4                mdns_get_hostname
                0x402620b8                mdns_set_hostname
                0x40262124                mdns_set_servername
                0x40262150                mdns_get_servername
                0x40262164                mdns_server_unregister
                0x402621a8                mdns_server_register
                0x402621f8                mdns_reg
                0x4026224c                mdns_init
 *fill*         0x4026232d        0x3 
 .irom0.text    0x40262330      0x27d c:/Espressif/ESP8266_SDK/lib\liblwip.a(netif.o)
                                0x2bd (size before relaxing)
                0x40262330                netif_init
                0x40262338                netif_add
                0x402623a0                netif_set_addr
                0x402623c8                netif_remove
                0x40262424                netif_find
                0x40262460                netif_set_ipaddr
                0x402624c8                netif_set_gw
                0x402624d8                netif_set_netmask
                0x402624e8                netif_set_default
                0x402624f0                netif_set_up
                0x4026252c                netif_set_down
                0x40262550                netif_set_link_up
                0x4026259c                netif_set_link_down
 *fill*         0x402625ad        0x3 
 .irom0.text    0x402625b0      0x612 c:/Espressif/ESP8266_SDK/lib\liblwip.a(pbuf.o)
                                0x65a (size before relaxing)
                0x402625b0                pbuf_alloc
                0x40262700                pbuf_realloc
                0x40262748                pbuf_header
                0x402627b4                pbuf_free
                0x4026282c                pbuf_clen
                0x40262844                pbuf_ref
                0x40262850                pbuf_cat
                0x4026287c                pbuf_chain
                0x40262898                pbuf_dechain
                0x402628d4                pbuf_copy
                0x40262978                pbuf_copy_partial
                0x402629f8                pbuf_take
                0x40262a58                pbuf_coalesce
                0x40262a8c                pbuf_get_at
                0x40262ab4                pbuf_memcmp
                0x40262b20                pbuf_memfind
                0x40262b78                pbuf_strstr
 *fill*         0x40262bc2        0x2 
 .irom0.text    0x40262bc4      0x1df c:/Espressif/ESP8266_SDK/lib\liblwip.a(raw.o)
                                0x233 (size before relaxing)
                0x40262bcc                raw_input
                0x40262c54                raw_bind
                0x40262c64                raw_connect
                0x40262c74                raw_recv
                0x40262c7c                raw_sendto
                0x40262d18                raw_send
                0x40262d2c                raw_remove
                0x40262d60                raw_new
 *fill*         0x40262da3        0x1 
 .irom0.text    0x40262da4     0x1074 c:/Espressif/ESP8266_SDK/lib\liblwip.a(tcp_in.o)
                               0x1240 (size before relaxing)
                0x40262da8                tcp_input
 .irom0.text    0x40263e18      0xa27 c:/Espressif/ESP8266_SDK/lib\liblwip.a(tcp.o)
                                0xb2b (size before relaxing)
                0x40263e1c                tcp_tmr
                0x40263e40                tcp_close
                0x40263e64                tcp_shutdown
                0x40263ec0                tcp_abandon
                0x40263f54                tcp_abort
                0x40263f6c                tcp_bind
                0x40263fe8                tcp_listen_with_backlog
                0x40264098                tcp_update_rcv_ann_wnd
                0x402640dc                tcp_recved
                0x40264138                tcp_connect
                0x40264244                tcp_slowtmr
                0x402644b4                tcp_fasttmr
                0x40264530                tcp_segs_free
                0x4026454c                tcp_seg_free
                0x40264574                tcp_setprio
                0x4026457c                tcp_recv_null
                0x40264634                tcp_alloc
                0x4026470c                tcp_new
                0x40264720                tcp_arg
                0x40264724                tcp_recv
                0x4026472c                tcp_sent
                0x40264734                tcp_err
                0x4026473c                tcp_accept
                0x40264740                tcp_poll
                0x40264748                tcp_pcb_purge
                0x40264790                tcp_pcb_remove
                0x402647f8                tcp_next_iss
                0x4026480c                tcp_eff_send_mss
 *fill*         0x4026483f        0x1 
 .irom0.text    0x40264840      0xe83 c:/Espressif/ESP8266_SDK/lib\liblwip.a(tcp_out.o)
                                0xf83 (size before relaxing)
                0x40264938                tcp_send_fin
                0x40264b14                tcp_write
                0x40264e50                tcp_enqueue_flags
                0x40264f34                tcp_send_empty_ack
                0x40264fc8                tcp_output
                0x402652cc                tcp_rst
                0x4026540c                tcp_rexmit_rto
                0x40265448                tcp_rexmit
                0x402654f4                tcp_rexmit_fast
                0x4026554c                tcp_keepalive
                0x402655cc                tcp_zero_window_probe
 *fill*         0x402656c3        0x1 
 .irom0.text    0x402656c4      0x2a7 c:/Espressif/ESP8266_SDK/lib\liblwip.a(timers.o)
                                0x32b (size before relaxing)
                0x40265704                tcp_timer_needed
                0x4026578c                sys_timeouts_init
                0x402657e8                sys_timeout
                0x4026585c                sys_untimeout
                0x402658a8                sys_check_timeouts
                0x4026595c                sys_restart_timeouts
 *fill*         0x4026596b        0x1 
 .irom0.text    0x4026596c      0x559 c:/Espressif/ESP8266_SDK/lib\liblwip.a(udp.o)
                                0x60d (size before relaxing)
                0x40265970                udp_input
                0x40265bc0                udp_send
                0x40265bd4                udp_sendto
                0x40265c20                udp_sendto_if
                0x40265d68                udp_bind
                0x40265de4                udp_connect
                0x40265e40                udp_disconnect
                0x40265e58                udp_recv
                0x40265e60                udp_remove
                0x40265e94                udp_new
 *fill*         0x40265ec5        0x3 
 .irom0.text    0x40265ec8      0x26e c:/Espressif/ESP8266_SDK/lib\liblwip.a(icmp.o)
                                0x312 (size before relaxing)
                0x40265ecc                icmp_input
                0x40266078                icmp_dest_unreach
 *fill*         0x40266136        0x2 
 .irom0.text    0x40266138      0x282 c:/Espressif/ESP8266_SDK/lib\libwpa.a(ap_config.o)
                                0x2be (size before relaxing)
                0x4026613c                hostapd_config_defaults_bss
                0x40266184                hostapd_config_defaults
                0x402661f0                hostapd_mac_comp
                0x40266204                hostapd_mac_comp_empty
                0x40266264                hostapd_setup_wpa_psk
                0x40266294                hostapd_wep_key_cmp
                0x402662e4                hostapd_maclist_found
                0x4026634c                hostapd_rate_found
                0x40266368                hostapd_get_psk
 *fill*         0x402663ba        0x2 
 .irom0.text    0x402663bc      0x250 c:/Espressif/ESP8266_SDK/lib\libwpa.a(common.o)
                                0x28c (size before relaxing)
                0x402663bc                inc_byte_array
                0x40266410                hex2byte
                0x40266444                hexstr2bin
                0x40266490                wpa_get_ntp_timestamp
                0x40266524                wpa_config_parse_string
 .irom0.text    0x4026660c       0xc4 c:/Espressif/ESP8266_SDK/lib\libwpa.a(os_xtensa.o)
                                 0xd4 (size before relaxing)
                0x4026660c                ets_strdup
                0x4026664c                os_get_time
                0x40266650                r_rand
                0x40266664                os_random
                0x40266674                os_get_random
 .irom0.text    0x402666d0     0x1b92 c:/Espressif/ESP8266_SDK/lib\libwpa.a(wpa_auth.o)
                               0x1dfe (size before relaxing)
                0x40266808                wpa_auth_for_each_sta
                0x40266970                wpa_init
                0x402669e4                wpa_auth_sta_init
                0x40266a24                wpa_auth_sta_associated
                0x40266a90                wpa_auth_sta_no_wpa
                0x40266adc                wpa_auth_sta_deinit
                0x40266bac                wpa_receive
                0x40267000                __wpa_send_eapol
                0x402674ec                wpa_remove_ptk
                0x40267538                wpa_auth_sm_event
 *fill*         0x40268262        0x2 
 .irom0.text    0x40268264      0x562 c:/Espressif/ESP8266_SDK/lib\libwpa.a(wpa_auth_ie.o)
                                0x5ce (size before relaxing)
                0x40268328                wpa_write_rsn_ie
                0x40268430                wpa_auth_gen_wpa_ie
                0x402684b4                wpa_add_kde
                0x40268520                wpa_validate_wpa_ie
                0x4026871c                wpa_parse_kde_ies
                0x402687b8                wpa_auth_uses_mfp
 *fill*         0x402687c6        0x2 
 .irom0.text    0x402687c8     0x148c c:/Espressif/ESP8266_SDK/lib\libwpa.a(wpa.o)
                               0x16a4 (size before relaxing)
                0x40269730                wpa_sm_rx_eapol
                0x402698a8                wpa_register
                0x402698d4                wpa_set_profile
                0x402698e4                wpa_set_pmk
                0x40269910                wpa_set_bss
                0x40269b00                pp_michael_mic_failure
                0x40269ba4                eapol_txcb
                0x40269c2c                wpa_sm_set_state
 .irom0.text    0x40269c54      0x756 c:/Espressif/ESP8266_SDK/lib\libwpa.a(wpa_common.o)
                                0x7e2 (size before relaxing)
                0x40269d9c                wpa_parse_wpa_ie_rsn
                0x40269f30                wpa_parse_wpa_ie_wpa
                0x4026a0c0                wpa_eapol_key_mic
                0x4026a100                wpa_compare_rsn_ie
                0x4026a128                wpa_pmk_to_ptk
                0x4026a218                rsn_pmkid
                0x4026a260                wpa_cipher_key_len
                0x4026a284                wpa_cipher_to_alg
                0x4026a2ac                wpa_cipher_to_suite
                0x4026a300                rsn_cipher_put_suites
                0x4026a360                wpa_cipher_put_suites
 *fill*         0x4026a3aa        0x2 
 .irom0.text    0x4026a3ac       0xa8 c:/Espressif/ESP8266_SDK/lib\libwpa.a(wpa_debug.o)
                                 0xac (size before relaxing)
                0x4026a424                wpa_snprintf_hex_uppercase
                0x4026a438                wpa_snprintf_hex
                0x4026a44c                eloop_cancel_timeout
                0x4026a450                eloop_register_timeout
 .irom0.text    0x4026a454      0x325 c:/Espressif/ESP8266_SDK/lib\libwpa.a(wpa_ie.o)
                                0x341 (size before relaxing)
                0x4026a454                wpa_parse_wpa_ie
                0x4026a548                wpa_supplicant_parse_ies
                0x4026a748                wpa_gen_wpa_ie
 *fill*         0x4026a779        0x3 
 .irom0.text    0x4026a77c      0x3f8 c:/Espressif/ESP8266_SDK/lib\libwpa.a(wpa_main.o)
                                0x4f8 (size before relaxing)
                0x4026a77c                ppInstallKey
                0x4026a8fc                wpa_config_profile
                0x4026a930                wpa_config_bss
                0x4026a960                wpa_config_assoc_ie
                0x4026a974                dhcp_bind_check
                0x4026a9a8                eagle_auth_done
                0x4026ab14                wpa_neg_complete
                0x4026ab3c                wpa_attach
 .irom0.text    0x4026ab74       0xd6 c:/Espressif/ESP8266_SDK/lib\libwpa.a(wpas_glue.o)
                                 0xe2 (size before relaxing)
                0x4026abe4                wpa_sm_alloc_eapol
                0x4026ac24                wpa_sm_deauthenticate
                0x4026ac40                wpa_sm_mlme_setprotection
                0x4026ac44                wpa_sm_get_beacon_ie
                0x4026ac48                wpa_sm_disassociate
 *fill*         0x4026ac4a        0x2 
 .irom0.text    0x4026ac4c       0xdf c:/Espressif/ESP8266_SDK/lib\libwpa.a(aes-wrap.o)
                                0x103 (size before relaxing)
                0x4026ac4c                aes_wrap
 *fill*         0x4026ad2b        0x1 
 .irom0.text    0x4026ad2c      0x485 c:/Espressif/ESP8266_SDK/lib\libwpa.a(aes-internal-enc.o)
                                0x49d (size before relaxing)
                0x4026ad30                rijndaelEncrypt
                0x4026b14c                aes_encrypt_init
                0x4026b17c                aes_encrypt
                0x4026b18c                aes_encrypt_deinit
 *fill*         0x4026b1b1        0x3 
 .irom0.text    0x4026b1b4      0x213 c:/Espressif/ESP8266_SDK/lib\libssl.a(espconn_secure.o)
                                0x27b (size before relaxing)
                0x4026b1b4                espconn_secure_connect
                0x4026b27c                espconn_secure_disconnect
                0x4026b2a4                espconn_secure_sent
                0x4026b2dc                espconn_secure_accept
                0x4026b2fc                espconn_secure_set_size
                0x4026b330                espconn_secure_get_size
                0x4026b368                espconn_secure_ca_enable
                0x4026b3a0                espconn_secure_ca_disable
 *fill*         0x4026b3c7        0x1 
 .irom0.text    0x4026b3c8     0x106c c:/Espressif/ESP8266_SDK/lib\libssl.a(espconn_ssl.o)
                               0x13cc (size before relaxing)
                0x4026b408                espconn_ssl_read
                0x4026b564                espconn_ssl_read_param_from_flash
                0x4026b61c                espconn_ssl_sent
                0x4026b670                espconn_sent_packet
                0x4026bc50                espconn_ssl_disconnect
                0x4026bc78                espconn_ssl_client
                0x4026c3a8                espconn_ssl_server
 .irom0.text    0x4026c434      0x53d c:/Espressif/ESP8266_SDK/lib\libssl.a(ssl_loader.o)
                                0x61d (size before relaxing)
                0x4026c43c                ssl_obj_load
                0x4026c4bc                ssl_obj_memory_load
                0x4026c550                ssl_obj_free
                0x4026c8ec                load_key_certs
 *fill*         0x4026c971        0x3 
 .irom0.text    0x4026c974      0x9f2 c:/Espressif/ESP8266_SDK/lib\libssl.a(ssl_md5.o)
                                0x9fa (size before relaxing)
                0x4026c984                MD5_Init
                0x4026c9a0                MD5_Update
                0x4026ca44                MD5_Final
 *fill*         0x4026d366        0x2 
 .irom0.text    0x4026d368      0x487 c:/Espressif/ESP8266_SDK/lib\libssl.a(ssl_tls1_clnt.o)
                                0x50b (size before relaxing)
                0x4026d368                SSLClient_new
                0x4026d3dc                do_clnt_handshake
                0x4026d4b0                do_client_connect
 *fill*         0x4026d7ef        0x1 
 .irom0.text    0x4026d7f0     0x15e3 c:/Espressif/ESP8266_SDK/lib\libssl.a(ssl_tls1.o)
                               0x17df (size before relaxing)
                0x4026d7f0                ssl_ctx_new
                0x4026d84c                ssl_ctx_free
                0x4026d8d8                ssl_free
                0x4026d948                ssl_read
                0x4026d988                ssl_write
                0x4026d9d8                add_cert
                0x4026da7c                add_cert_auth
                0x4026daf0                ssl_get_cert_dn
                0x4026db28                ssl_get_cert_subject_alt_dnsname
                0x4026db58                ssl_renegotiate
                0x4026dbb8                ssl_new_context
                0x4026dc48                add_private_key
                0x4026dddc                add_packet
                0x4026dff4                generate_master_secret
                0x4026e0b8                finished_digest
                0x4026e2a8                send_packet
                0x4026e5a0                basic_read
                0x4026e84c                send_change_cipher_spec
                0x4026e89c                send_finished
                0x4026e904                send_alert
                0x4026e9bc                process_finished
                0x4026ea38                send_certificate
                0x4026eaec                disposable_new
                0x4026eb1c                disposable_free
                0x4026eb58                ssl_session_update
                0x4026ec78                kill_ssl_session
                0x4026eca4                ssl_get_session_id
                0x4026ecac                ssl_get_session_id_size
                0x4026ecb4                ssl_get_cipher_id
                0x4026ecbc                ssl_handshake_status
                0x4026ecc4                ssl_get_config
                0x4026ece4                ssl_verify_cert
                0x4026ed08                process_certificate
                0x4026edcc                ssl_version
 *fill*         0x4026edd3        0x1 
 .irom0.text    0x4026edd4      0x475 c:/Espressif/ESP8266_SDK/lib\libssl.a(ssl_tls1_svr.o)
                                0x4f5 (size before relaxing)
                0x4026edd4                sslserver_new
                0x4026edec                do_svr_handshake
 *fill*         0x4026f249        0x3 
 .irom0.text    0x4026f24c      0x66e c:/Espressif/ESP8266_SDK/lib\libssl.a(ssl_x509.o)
                                0x7c2 (size before relaxing)
                0x4026f2a4                x509_new
                0x4026f578                x509_free
                0x4026f6c4                x509_verify
                0x4026f808                x509_print
                0x4026f84c                x509_display_error
 *fill*         0x4026f8ba        0x2 
 .irom0.text    0x4026f8bc      0x8e5 c:/Espressif/ESP8266_SDK/lib\libssl.a(ssl_aes.o)
                                0x925 (size before relaxing)
                0x4026f8dc                AES_set_key
                0x4026fa58                AES_convert_key
                0x4026fb04                AES_cbc_encrypt
                0x4026fc74                AES_cbc_decrypt
 *fill*         0x402701a1        0x3 
 .irom0.text    0x402701a4      0x8b6 c:/Espressif/ESP8266_SDK/lib\libssl.a(ssl_asn1.o)
                                0x936 (size before relaxing)
                0x402701a4                get_asn1_length
                0x402701f0                asn1_next_obj
                0x40270214                asn1_skip_obj
                0x40270248                asn1_get_int
                0x402702a4                asn1_get_private_key
                0x40270558                asn1_version
                0x40270578                asn1_validity
                0x402706e4                asn1_name
                0x40270784                asn1_public_key
                0x40270814                asn1_signature
                0x402708a0                remove_ca_certs
                0x402708e4                asn1_compare_dn
                0x4027091c                asn1_find_oid
                0x402709b0                asn1_find_subjectaltname
                0x402709dc                asn1_signature_type
 *fill*         0x40270a5a        0x2 
 .irom0.text    0x40270a5c     0x1303 c:/Espressif/ESP8266_SDK/lib\libssl.a(ssl_bigint.o)
                               0x139f (size before relaxing)
                0x40270a5c                bi_initialize
                0x40270aa0                bi_terminate
                0x40270ad0                bi_clear_cache
                0x40270b10                bi_copy
                0x40270b34                bi_permanent
                0x40270b54                bi_depermanent
                0x40270b78                bi_free
                0x40270bb4                int_to_bi
                0x40270bd0                bi_clone
                0x40270c08                bi_add
                0x40270c88                bi_subtract
                0x40270da4                bi_divide
                0x402711b4                bi_import
                0x4027122c                bi_str_import
                0x402712b8                bi_print
                0x40271330                bi_export
                0x402713b0                bi_set_mod
                0x40271430                bi_free_mod
                0x40271598                bi_multiply
                0x40271754                bi_square
                0x40271774                bi_compare
                0x40271988                bi_barrett
                0x40271ae4                bi_mod_power
                0x40271c3c                bi_mod_power2
                0x40271cd8                bi_crt
 *fill*         0x40271d5f        0x1 
 .irom0.text    0x40271d60      0x18a c:/Espressif/ESP8266_SDK/lib\libssl.a(ssl_crypto_misc.o)
                                0x1ae (size before relaxing)
                0x40271d60                get_file
                0x40271dd8                RNG_initialize
                0x40271ddc                RNG_custom_init
                0x40271de0                RNG_terminate
                0x40271de4                get_random
                0x40271dfc                get_random_NZ
                0x40271e3c                print_blob
                0x40271e48                base64_decode
 *fill*         0x40271eea        0x2 
 .irom0.text    0x40271eec      0x1c2 c:/Espressif/ESP8266_SDK/lib\libssl.a(ssl_hmac.o)
                                0x252 (size before relaxing)
                0x40271eec                ssl_hmac_md5
                0x40271fd0                ssl_hmac_sha1
 *fill*         0x402720ae        0x2 
 .irom0.text    0x402720b0      0x141 c:/Espressif/ESP8266_SDK/lib\libssl.a(ssl_md2.o)
                                0x151 (size before relaxing)
                0x402720b0                MD2_Init
                0x40272130                MD2_Update
                0x40272198                MD2_Final
 *fill*         0x402721f1        0x3 
 .irom0.text    0x402721f4      0x359 c:/Espressif/ESP8266_SDK/lib\libssl.a(ssl_rsa.o)
                                0x489 (size before relaxing)
                0x402721f4                RSA_priv_key_new
                0x4027227c                RSA_pub_key_new
                0x402722e4                RSA_free
                0x40272364                RSA_decrypt
                0x4027242c                RSA_private
                0x4027245c                RSA_print
                0x4027248c                RSA_public
                0x402724ac                RSA_encrypt
 *fill*         0x4027254d        0x3 
 .irom0.text    0x40272550      0x350 c:/Espressif/ESP8266_SDK/lib\libssl.a(ssl_sha1.o)
                                0x368 (size before relaxing)
                0x40272554                SHA1_Init
                0x40272578                SHA1_Update
                0x402725cc                SHA1_Final
 .irom0.text    0x402728a0      0x76c c:/Espressif/ESP8266_SDK/lib\libsmartconfig.a(sc_sniffer.o)
                                0x954 (size before relaxing)
                0x402728b0                sc_init_snif_glob
                0x40272900                sc_free_snif_glob
                0x40272934                sc_smartconfig_restart
                0x4027295c                sc_channel_timer_cb
                0x40272a00                sc_PackCallback
                0x40272ab0                sc_wifi_scan_done
                0x40272cd0                sc_system_init_done
                0x40272d10                smartconfig_start
                0x40272dec                smartconfig_stop
                0x40272f1c                smartconfig_get_status
                0x40272fbc                smartconfig_get_version
                0x40272fd8                esptouch_set_timeout
 .irom0.text    0x4027300c     0x266d c:/Espressif/ESP8266_SDK/lib\libsmartconfig.a(sc_airkiss.o)
                               0x2b75 (size before relaxing)
                0x4027301c                KISS_Init_guide_glob
                0x40273068                KISS_Free_guide_glob
                0x40273098                KISS_Init_Glob
                0x40273118                KISS_Free_Glob
                0x402737a8                KISS_Find_channel
                0x40274850                KISS_Find_channel_ht40
                0x40275470                KISS_Deal_with
 *fill*         0x40275679        0x3 
 .irom0.text    0x4027567c     0x1953 c:/Espressif/ESP8266_SDK/lib\libsmartconfig.a(sc_esptouch.o)
                               0x1d4b (size before relaxing)
                0x402756d4                TOUCH_Init_guide_glob
                0x40275720                TOUCH_Free_guide_glob
                0x40275748                TOUCH_Init_glob
                0x40275798                TOUCH_Free_glob
                0x402757e0                TOUCH_Find_sync_ht20
                0x402762a8                TOUCH_Find_sync_ht40
                0x40276cd8                TOUCH_Deal_with
 *fill*         0x40276fcf        0x1 
 .irom0.text    0x40276fd0      0x15b c:/Espressif/ESP8266_SDK/lib\libnet80211.a(ieee80211_crypto_tkip.o)
                                0x167 (size before relaxing)
 *fill*         0x4027712b        0x1 
 .irom0.text    0x4027712c       0x7c c:/Espressif/ESP8266_SDK/lib\libnet80211.a(ieee80211_crypto_wep.o)
                                 0x80 (size before relaxing)
 .irom0.literal
                0x402771a8        0x0 c:/Espressif/ESP8266_SDK/lib\libmain.a(app_main.o)
 *fill*         0x402771a8        0x8 
 .irom.text     0x402771b0      0x154 c:/Espressif/ESP8266_SDK/lib\libmain.a(app_main.o)
 .irom0.literal
                0x40277304        0x0 c:/Espressif/ESP8266_SDK/lib\libmain.a(ets_timer.o)
 *fill*         0x40277304        0x0 
 .irom0.literal
                0x40277304        0x0 c:/Espressif/ESP8266_SDK/lib\libmain.a(mem_manager.o)
 *fill*         0x40277304        0x0 
 .irom0.literal
                0x40277304        0x0 c:/Espressif/ESP8266_SDK/lib\libmain.a(spi_flash.o)
 *fill*         0x40277304        0x0 
 .irom0.literal
                0x40277304        0x0 c:/Espressif/ESP8266_SDK/lib\libmain.a(user_interface.o)
 *fill*         0x40277304        0xc 
 .irom.text     0x40277310      0x2b5 c:/Espressif/ESP8266_SDK/lib\libmain.a(user_interface.o)
 *fill*         0x402775c5        0x3 
 .irom0.literal
                0x402775c8        0x0 c:/Espressif/ESP8266_SDK/lib\libmain.a(eagle_lib.o)
 *fill*         0x402775c8        0x0 
 .irom0.literal
                0x402775c8        0x0 c:/Espressif/ESP8266_SDK/lib\libmain.a(eagle_lwip_if.o)
 *fill*         0x402775c8        0x8 
 .irom.text     0x402775d0       0x53 c:/Espressif/ESP8266_SDK/lib\libmain.a(eagle_lwip_if.o)
 *fill*         0x40277623        0x1 
 .irom0.literal
                0x40277624        0x0 build/app_app.a(user_main.o)
 .irom0.literal
                0x40277624        0x0 build/app_app.a(mqtt.o)
 *fill*         0x40277624        0x0 
 .irom0.literal
                0x40277624        0x0 build/app_app.a(wifi.o)
 *fill*         0x40277624        0x0 
 .irom0.literal
                0x40277624        0x0 build/app_app.a(config.o)
 *fill*         0x40277624        0x0 
 .irom0.literal
                0x40277624        0x0 build/app_app.a(easygpio.o)
 *fill*         0x40277624        0x0 
 .irom0.literal
                0x40277624        0x0 build/app_app.a(dht22.o)
 *fill*         0x40277624        0x0 
 .irom0.literal
                0x40277624        0x0 build/app_app.a(stdout.o)
 *fill*         0x40277624        0x0 
 .irom0.literal
                0x40277624        0x0 build/app_app.a(utils.o)
 .irom0.text    0x40277624      0x107 build/app_app.a(utils.o)
                0x40277624                UTILS_IsIPV4
                0x40277678                UTILS_StrToIP
                0x402776d4                UTILS_Atoh
 *fill*         0x4027772b        0x1 
 .irom0.literal
                0x4027772c        0x0 build/app_app.a(queue.o)
 *fill*         0x4027772c        0x0 
 .irom0.literal
                0x4027772c        0x0 build/app_app.a(mqtt_msg.o)
 *fill*         0x4027772c        0x0 
 .irom0.literal
                0x4027772c        0x0 build/app_app.a(ringbuf.o)
 .irom0.text    0x4027772c       0xbc build/app_app.a(ringbuf.o)
                0x4027772c                RINGBUF_Init
                0x4027775c                RINGBUF_Put
                0x402777a4                RINGBUF_Get
 .irom0.literal
                0x402777e8        0x0 build/app_app.a(proto.o)
 *fill*         0x402777e8        0x0 
 .irom0.literal
                0x402777e8        0x0 c:/Espressif/ESP8266_SDK/lib\libphy.a(phy.o)
 *fill*         0x402777e8        0x0 
 .irom0.literal
                0x402777e8        0x0 c:/Espressif/ESP8266_SDK/lib\libphy.a(phy_chip_v6_ana.o)
 *fill*         0x402777e8        0x8 
 .irom.text     0x402777f0       0x85 c:/Espressif/ESP8266_SDK/lib\libphy.a(phy_chip_v6_ana.o)
 *fill*         0x40277875        0x3 
 .irom0.literal
                0x40277878        0x0 c:/Espressif/ESP8266_SDK/lib\libphy.a(phy_chip_v6.o)
 *fill*         0x40277878        0x8 
 .irom.text     0x40277880      0x170 c:/Espressif/ESP8266_SDK/lib\libphy.a(phy_chip_v6.o)
 .irom0.literal
                0x402779f0        0x0 c:/Espressif/ESP8266_SDK/lib\libphy.a(phy_chip_v6_cal.o)
 *fill*         0x402779f0        0x0 
 .irom.text     0x402779f0      0x194 c:/Espressif/ESP8266_SDK/lib\libphy.a(phy_chip_v6_cal.o)
 .irom0.literal
                0x40277b84        0x0 c:/Espressif/ESP8266_SDK/lib\libphy.a(phy_chip_v6_unused.o)
 *fill*         0x40277b84        0xc 
 .irom.text     0x40277b90       0x3d c:/Espressif/ESP8266_SDK/lib\libphy.a(phy_chip_v6_unused.o)
 *fill*         0x40277bcd        0x3 
 .irom0.literal
                0x40277bd0        0x0 c:/Espressif/ESP8266_SDK/lib\libphy.a(phy_sleep.o)
 *fill*         0x40277bd0        0x0 
 .irom0.literal
                0x40277bd0        0x0 c:/Espressif/ESP8266_SDK/lib\libpp.a(if_hwctrl.o)
 *fill*         0x40277bd0        0x0 
 .irom.text     0x40277bd0       0x50 c:/Espressif/ESP8266_SDK/lib\libpp.a(if_hwctrl.o)
 .irom0.literal
                0x40277c20        0x0 c:/Espressif/ESP8266_SDK/lib\libpp.a(lmac.o)
 *fill*         0x40277c20        0x0 
 .irom.text     0x40277c20       0x2f c:/Espressif/ESP8266_SDK/lib\libpp.a(lmac.o)
 *fill*         0x40277c4f        0x1 
 .irom0.literal
                0x40277c50        0x0 c:/Espressif/ESP8266_SDK/lib\libpp.a(pm.o)
 *fill*         0x40277c50        0x0 
 .irom.text     0x40277c50      0x1ab c:/Espressif/ESP8266_SDK/lib\libpp.a(pm.o)
 *fill*         0x40277dfb        0x1 
 .irom0.literal
                0x40277dfc        0x0 c:/Espressif/ESP8266_SDK/lib\libpp.a(pm_for_bcn_only_mode.o)
 *fill*         0x40277dfc        0x4 
 .irom.text     0x40277e00      0x15f c:/Espressif/ESP8266_SDK/lib\libpp.a(pm_for_bcn_only_mode.o)
 *fill*         0x40277f5f        0x1 
 .irom0.literal
                0x40277f60        0x0 c:/Espressif/ESP8266_SDK/lib\libpp.a(pp.o)
 *fill*         0x40277f60        0x0 
 .irom.text     0x40277f60       0x3a c:/Espressif/ESP8266_SDK/lib\libpp.a(pp.o)
 *fill*         0x40277f9a        0x2 
 .irom0.literal
                0x40277f9c        0x0 c:/Espressif/ESP8266_SDK/lib\libpp.a(rate_control.o)
 *fill*         0x40277f9c        0x0 
 .irom0.literal
                0x40277f9c        0x0 c:/Espressif/ESP8266_SDK/lib\libpp.a(trc.o)
 *fill*         0x40277f9c        0x4 
 .irom.text     0x40277fa0       0x38 c:/Espressif/ESP8266_SDK/lib\libpp.a(trc.o)
 .irom0.literal
                0x40277fd8        0x0 c:/Espressif/ESP8266_SDK/lib\libpp.a(wdev.o)
 *fill*         0x40277fd8        0x0 
 .irom0.literal
                0x40277fd8        0x0 c:/Espressif/ESP8266_SDK/lib\libpp.a(esf_buf.o)
 *fill*         0x40277fd8        0x0 
 .irom0.literal
                0x40277fd8        0x0 c:/Espressif/ESP8266_SDK/lib\libnet80211.a(ieee80211.o)
 *fill*         0x40277fd8        0x8 
 .irom.text     0x40277fe0       0x72 c:/Espressif/ESP8266_SDK/lib\libnet80211.a(ieee80211.o)
 *fill*         0x40278052        0x2 
 .irom0.literal
                0x40278054        0x0 c:/Espressif/ESP8266_SDK/lib\libnet80211.a(ieee80211_crypto.o)
 *fill*         0x40278054        0x0 
 .irom0.literal
                0x40278054        0x0 c:/Espressif/ESP8266_SDK/lib\libnet80211.a(ieee80211_ets.o)
 .irom0.literal
                0x40278054        0x0 c:/Espressif/ESP8266_SDK/lib\libnet80211.a(ieee80211_hostap.o)
 *fill*         0x40278054        0xc 
 .irom.text     0x40278060        0x9 c:/Espressif/ESP8266_SDK/lib\libnet80211.a(ieee80211_hostap.o)
 *fill*         0x40278069        0x3 
 .irom0.literal
                0x4027806c        0x0 c:/Espressif/ESP8266_SDK/lib\libnet80211.a(ieee80211_ht.o)
 *fill*         0x4027806c        0x4 
 .irom.text     0x40278070       0x19 c:/Espressif/ESP8266_SDK/lib\libnet80211.a(ieee80211_ht.o)
 *fill*         0x40278089        0x3 
 .irom0.literal
                0x4027808c        0x0 c:/Espressif/ESP8266_SDK/lib\libnet80211.a(ieee80211_input.o)
 .irom0.literal
                0x4027808c        0x0 c:/Espressif/ESP8266_SDK/lib\libnet80211.a(ieee80211_output.o)
 *fill*         0x4027808c        0x4 
 .irom.text     0x40278090       0x1d c:/Espressif/ESP8266_SDK/lib\libnet80211.a(ieee80211_output.o)
 *fill*         0x402780ad        0x3 
 .irom0.literal
                0x402780b0        0x0 c:/Espressif/ESP8266_SDK/lib\libnet80211.a(ieee80211_phy.o)
 *fill*         0x402780b0        0x0 
 .irom0.literal
                0x402780b0        0x0 c:/Espressif/ESP8266_SDK/lib\libnet80211.a(ieee80211_power.o)
 *fill*         0x402780b0        0x0 
 .irom0.literal
                0x402780b0        0x0 c:/Espressif/ESP8266_SDK/lib\libnet80211.a(ieee80211_proto.o)
 *fill*         0x402780b0        0x0 
 .irom0.literal
                0x402780b0        0x0 c:/Espressif/ESP8266_SDK/lib\libnet80211.a(ieee80211_scan.o)
 *fill*         0x402780b0        0x0 
 .irom.text     0x402780b0       0x44 c:/Espressif/ESP8266_SDK/lib\libnet80211.a(ieee80211_scan.o)
 .irom0.literal
                0x402780f4        0x0 c:/Espressif/ESP8266_SDK/lib\libnet80211.a(ieee80211_sta.o)
 *fill*         0x402780f4        0x0 
 .irom0.literal
                0x402780f4        0x0 c:/Espressif/ESP8266_SDK/lib\libnet80211.a(wl_chm.o)
 *fill*         0x402780f4        0x0 
 .irom0.literal
                0x402780f4        0x0 c:/Espressif/ESP8266_SDK/lib\libnet80211.a(wl_cnx.o)
 *fill*         0x402780f4        0xc 
 .irom.text     0x40278100      0x107 c:/Espressif/ESP8266_SDK/lib\libnet80211.a(wl_cnx.o)
 *fill*         0x40278207        0x1 
 .irom0.literal
                0x40278208        0x0 c:/Espressif/ESP8266_SDK/lib\libnet80211.a(ieee80211_action.o)
 *fill*         0x40278208        0x0 
 .irom0.literal
                0x40278208        0x0 c:/Espressif/ESP8266_SDK/lib\libnet80211.a(ieee80211_action_vendor.o)
 *fill*         0x40278208        0x8 
 .irom.text     0x40278210       0x83 c:/Espressif/ESP8266_SDK/lib\libnet80211.a(ieee80211_action_vendor.o)
 *fill*         0x40278293        0x1 
 .irom0.literal
                0x40278294        0x0 c:/Espressif/ESP8266_SDK/lib\libnet80211.a(ieee80211_crypto_ccmp.o)
 *fill*         0x40278294        0x0 
 .irom0.literal
                0x40278294        0x0 c:/Espressif/ESP8266_SDK/lib\libnet80211.a(ieee80211_ie_vendor.o)
 *fill*         0x40278294        0x0 
 .irom0.literal
                0x40278294        0x0 c:/Espressif/ESP8266_SDK/lib\liblwip.a(dhcp.o)
 *fill*         0x40278294        0x0 
 .irom0.literal
                0x40278294        0x0 c:/Espressif/ESP8266_SDK/lib\liblwip.a(dhcpserver.o)
 *fill*         0x40278294        0xc 
 .irom.text     0x402782a0       0x45 c:/Espressif/ESP8266_SDK/lib\liblwip.a(dhcpserver.o)
 *fill*         0x402782e5        0x3 
 .irom0.literal
                0x402782e8        0x0 c:/Espressif/ESP8266_SDK/lib\liblwip.a(dns.o)
 *fill*         0x402782e8        0x0 
 .irom0.literal
                0x402782e8        0x0 c:/Espressif/ESP8266_SDK/lib\liblwip.a(espconn.o)
 *fill*         0x402782e8        0x0 
 .irom0.literal
                0x402782e8        0x0 c:/Espressif/ESP8266_SDK/lib\liblwip.a(espconn_tcp.o)
 *fill*         0x402782e8        0x8 
 .irom.text     0x402782f0       0x9b c:/Espressif/ESP8266_SDK/lib\liblwip.a(espconn_tcp.o)
 *fill*         0x4027838b        0x1 
 .irom0.literal
                0x4027838c        0x0 c:/Espressif/ESP8266_SDK/lib\liblwip.a(espconn_udp.o)
 *fill*         0x4027838c        0x0 
 .irom0.literal
                0x4027838c        0x0 c:/Espressif/ESP8266_SDK/lib\liblwip.a(etharp.o)
 *fill*         0x4027838c        0x0 
 .irom0.literal
                0x4027838c        0x0 c:/Espressif/ESP8266_SDK/lib\liblwip.a(igmp.o)
 *fill*         0x4027838c        0x0 
 .irom0.literal
                0x4027838c        0x0 c:/Espressif/ESP8266_SDK/lib\liblwip.a(inet_chksum.o)
 .irom0.text    0x4027838c      0x298 c:/Espressif/ESP8266_SDK/lib\liblwip.a(inet_chksum.o)
                0x40278404                inet_chksum_pseudo
                0x402784c4                inet_chksum_pseudo_partial
                0x402785a0                inet_chksum
                0x402785b8                inet_chksum_pbuf
 .irom0.literal
                0x40278624        0x0 c:/Espressif/ESP8266_SDK/lib\liblwip.a(init.o)
 .irom0.literal
                0x40278624        0x0 c:/Espressif/ESP8266_SDK/lib\liblwip.a(ip_addr.o)
 *fill*         0x40278624        0x0 
 .irom0.literal
                0x40278624        0x0 c:/Espressif/ESP8266_SDK/lib\liblwip.a(ip.o)
 *fill*         0x40278624        0xc 
 .irom.text     0x40278630       0x11 c:/Espressif/ESP8266_SDK/lib\liblwip.a(ip.o)
 *fill*         0x40278641        0x3 
 .irom0.literal
                0x40278644        0x0 c:/Espressif/ESP8266_SDK/lib\liblwip.a(mdns.o)
 *fill*         0x40278644        0xc 
 .irom.text     0x40278650      0x102 c:/Espressif/ESP8266_SDK/lib\liblwip.a(mdns.o)
 *fill*         0x40278752        0x2 
 .irom0.literal
                0x40278754        0x0 c:/Espressif/ESP8266_SDK/lib\liblwip.a(netif.o)
 *fill*         0x40278754        0x0 
 .irom0.literal
                0x40278754        0x0 c:/Espressif/ESP8266_SDK/lib\liblwip.a(pbuf.o)
 *fill*         0x40278754        0x0 
 .irom0.literal
                0x40278754        0x0 c:/Espressif/ESP8266_SDK/lib\liblwip.a(raw.o)
 *fill*         0x40278754        0x0 
 .irom0.literal
                0x40278754        0x0 c:/Espressif/ESP8266_SDK/lib\liblwip.a(tcp_in.o)
 .irom0.literal
                0x40278754        0x0 c:/Espressif/ESP8266_SDK/lib\liblwip.a(tcp.o)
 *fill*         0x40278754        0x0 
 .irom0.literal
                0x40278754        0x0 c:/Espressif/ESP8266_SDK/lib\liblwip.a(tcp_out.o)
 *fill*         0x40278754        0x0 
 .irom0.literal
                0x40278754        0x0 c:/Espressif/ESP8266_SDK/lib\liblwip.a(timers.o)
 *fill*         0x40278754        0x0 
 .irom0.literal
                0x40278754        0x0 c:/Espressif/ESP8266_SDK/lib\liblwip.a(udp.o)
 *fill*         0x40278754        0x0 
 .irom0.literal
                0x40278754        0x0 c:/Espressif/ESP8266_SDK/lib\liblwip.a(icmp.o)
 *fill*         0x40278754        0x0 
 .irom0.literal
                0x40278754        0x0 c:/Espressif/ESP8266_SDK/lib\libwpa.a(ap_config.o)
 *fill*         0x40278754        0x0 
 .irom0.literal
                0x40278754        0x0 c:/Espressif/ESP8266_SDK/lib\libwpa.a(common.o)
 .irom0.literal
                0x40278754        0x0 c:/Espressif/ESP8266_SDK/lib\libwpa.a(os_xtensa.o)
 .irom0.literal
                0x40278754        0x0 c:/Espressif/ESP8266_SDK/lib\libwpa.a(wpa_auth.o)
 *fill*         0x40278754        0x0 
 .irom0.literal
                0x40278754        0x0 c:/Espressif/ESP8266_SDK/lib\libwpa.a(wpa_auth_ie.o)
 *fill*         0x40278754        0x0 
 .irom0.literal
                0x40278754        0x0 c:/Espressif/ESP8266_SDK/lib\libwpa.a(wpa.o)
 .irom0.literal
                0x40278754        0x0 c:/Espressif/ESP8266_SDK/lib\libwpa.a(wpa_common.o)
 *fill*         0x40278754        0x0 
 .irom0.literal
                0x40278754        0x0 c:/Espressif/ESP8266_SDK/lib\libwpa.a(wpa_debug.o)
 .irom0.literal
                0x40278754        0x0 c:/Espressif/ESP8266_SDK/lib\libwpa.a(wpa_ie.o)
 *fill*         0x40278754        0x0 
 .irom0.literal
                0x40278754        0x0 c:/Espressif/ESP8266_SDK/lib\libwpa.a(wpa_main.o)
 *fill*         0x40278754        0xc 
 .irom.text     0x40278760       0x57 c:/Espressif/ESP8266_SDK/lib\libwpa.a(wpa_main.o)
 *fill*         0x402787b7        0x1 
 .irom0.literal
                0x402787b8        0x0 c:/Espressif/ESP8266_SDK/lib\libwpa.a(wpas_glue.o)
 *fill*         0x402787b8        0x0 
 .irom0.literal
                0x402787b8        0x0 c:/Espressif/ESP8266_SDK/lib\libwpa.a(aes-wrap.o)
 *fill*         0x402787b8        0x0 
 .irom0.literal
                0x402787b8        0x0 c:/Espressif/ESP8266_SDK/lib\libwpa.a(aes-internal-enc.o)
 *fill*         0x402787b8        0x0 
 .irom0.literal
                0x402787b8        0x0 c:/Espressif/ESP8266_SDK/lib\libssl.a(espconn_secure.o)
 *fill*         0x402787b8        0x0 
 .irom0.literal
                0x402787b8        0x0 c:/Espressif/ESP8266_SDK/lib\libssl.a(espconn_ssl.o)
 *fill*         0x402787b8        0x8 
 .irom.text     0x402787c0       0xf9 c:/Espressif/ESP8266_SDK/lib\libssl.a(espconn_ssl.o)
 *fill*         0x402788b9        0x3 
 .irom0.literal
                0x402788bc        0x0 c:/Espressif/ESP8266_SDK/lib\libssl.a(ssl_loader.o)
 *fill*         0x402788bc        0x0 
 .irom0.literal
                0x402788bc        0x0 c:/Espressif/ESP8266_SDK/lib\libssl.a(ssl_md5.o)
 *fill*         0x402788bc        0x0 
 .irom0.literal
                0x402788bc        0x0 c:/Espressif/ESP8266_SDK/lib\libssl.a(ssl_tls1_clnt.o)
 *fill*         0x402788bc        0x0 
 .irom0.literal
                0x402788bc        0x0 c:/Espressif/ESP8266_SDK/lib\libssl.a(ssl_tls1.o)
 *fill*         0x402788bc        0x0 
 .irom0.literal
                0x402788bc        0x0 c:/Espressif/ESP8266_SDK/lib\libssl.a(ssl_tls1_svr.o)
 *fill*         0x402788bc        0x0 
 .irom0.literal
                0x402788bc        0x0 c:/Espressif/ESP8266_SDK/lib\libssl.a(ssl_x509.o)
 *fill*         0x402788bc        0x0 
 .irom0.literal
                0x402788bc        0x0 c:/Espressif/ESP8266_SDK/lib\libssl.a(ssl_aes.o)
 *fill*         0x402788bc        0x0 
 .irom0.literal
                0x402788bc        0x0 c:/Espressif/ESP8266_SDK/lib\libssl.a(ssl_asn1.o)
 *fill*         0x402788bc        0x0 
 .irom0.literal
                0x402788bc        0x0 c:/Espressif/ESP8266_SDK/lib\libssl.a(ssl_bigint.o)
 *fill*         0x402788bc        0x0 
 .irom0.literal
                0x402788bc        0x0 c:/Espressif/ESP8266_SDK/lib\libssl.a(ssl_crypto_misc.o)
 *fill*         0x402788bc        0x0 
 .irom0.literal
                0x402788bc        0x0 c:/Espressif/ESP8266_SDK/lib\libssl.a(ssl_hmac.o)
 *fill*         0x402788bc        0x0 
 .irom0.literal
                0x402788bc        0x0 c:/Espressif/ESP8266_SDK/lib\libssl.a(ssl_md2.o)
 *fill*         0x402788bc        0x0 
 .irom0.literal
                0x402788bc        0x0 c:/Espressif/ESP8266_SDK/lib\libssl.a(ssl_rc4.o)
 .irom0.text    0x402788bc       0x9d c:/Espressif/ESP8266_SDK/lib\libssl.a(ssl_rc4.o)
                0x402788bc                RC4_setup
                0x40278914                RC4_crypt
 *fill*         0x40278959        0x3 
 .irom0.literal
                0x4027895c        0x0 c:/Espressif/ESP8266_SDK/lib\libssl.a(ssl_rsa.o)
 *fill*         0x4027895c        0x0 
 .irom0.literal
                0x4027895c        0x0 c:/Espressif/ESP8266_SDK/lib\libssl.a(ssl_sha1.o)
 .irom0.literal
                0x4027895c        0x0 c:/Espressif/ESP8266_SDK/lib\libsmartconfig.a(sc_sniffer.o)
 *fill*         0x4027895c        0x4 
 .irom.text     0x40278960      0x1c3 c:/Espressif/ESP8266_SDK/lib\libsmartconfig.a(sc_sniffer.o)
 *fill*         0x40278b23        0x1 
 .irom0.literal
                0x40278b24        0x0 c:/Espressif/ESP8266_SDK/lib\libsmartconfig.a(sc_airkiss.o)
 *fill*         0x40278b24        0xc 
 .irom.text     0x40278b30      0x746 c:/Espressif/ESP8266_SDK/lib\libsmartconfig.a(sc_airkiss.o)
 *fill*         0x40279276        0x2 
 .irom0.literal
                0x40279278        0x0 c:/Espressif/ESP8266_SDK/lib\libsmartconfig.a(sc_esptouch.o)
 *fill*         0x40279278        0x8 
 .irom.text     0x40279280      0x426 c:/Espressif/ESP8266_SDK/lib\libsmartconfig.a(sc_esptouch.o)
 *fill*         0x402796a6        0x2 
 .irom0.literal
                0x402796a8        0x0 c:/Espressif/ESP8266_SDK/lib\libnet80211.a(ieee80211_crypto_tkip.o)
 *fill*         0x402796a8        0x0 
 .irom0.literal
                0x402796a8        0x0 c:/Espressif/ESP8266_SDK/lib\libnet80211.a(ieee80211_crypto_wep.o)
                0x402796a8                _irom0_text_end = ABSOLUTE (.)
                0x400047f0                PROVIDE (Cache_Read_Disable, 0x400047f0)
                0x40004678                PROVIDE (Cache_Read_Enable, 0x40004678)
                0x400035a0                PROVIDE (FilePacketSendReqMsgProc, 0x400035a0)
                0x4000368c                PROVIDE (FlashDwnLdParamCfgMsgProc, 0x4000368c)
                0x40003538                PROVIDE (FlashDwnLdStartMsgProc, 0x40003538)
                0x40003658                PROVIDE (FlashDwnLdStopReqMsgProc, 0x40003658)
                0x40003f4c                PROVIDE (GetUartDevice, 0x40003f4c)
                0x40009900                PROVIDE (MD5Final, 0x40009900)
                0x40009818                PROVIDE (MD5Init, 0x40009818)
                0x40009834                PROVIDE (MD5Update, 0x40009834)
                0x400036c4                PROVIDE (MemDwnLdStartMsgProc, 0x400036c4)
                0x4000377c                PROVIDE (MemDwnLdStopReqMsgProc, 0x4000377c)
                0x400036f0                PROVIDE (MemPacketSendReqMsgProc, 0x400036f0)
                0x40003eac                PROVIDE (RcvMsg, 0x40003eac)
                0x4000b648                PROVIDE (SHA1Final, 0x4000b648)
                0x4000b584                PROVIDE (SHA1Init, 0x4000b584)
                0x4000a364                PROVIDE (SHA1Transform, 0x4000a364)
                0x4000b5a8                PROVIDE (SHA1Update, 0x4000b5a8)
                0x400043c8                PROVIDE (SPI_read_status, 0x400043c8)
                0x40004400                PROVIDE (SPI_write_status, 0x40004400)
                0x4000443c                PROVIDE (SPI_write_enable, 0x4000443c)
                0x4000448c                PROVIDE (Wait_SPI_Idle, 0x4000448c)
                0x40004b44                PROVIDE (SPIEraseArea, 0x40004b44)
                0x400049b4                PROVIDE (SPIEraseBlock, 0x400049b4)
                0x40004984                PROVIDE (SPIEraseChip, 0x40004984)
                0x40004a00                PROVIDE (SPIEraseSector, 0x40004a00)
                0x400048a8                PROVIDE (SPILock, 0x400048a8)
                0x40004c2c                PROVIDE (SPIParamCfg, 0x40004c2c)
                0x40004b1c                PROVIDE (SPIRead, 0x40004b1c)
                0x400048ec                PROVIDE (SPIReadModeCnfig, 0x400048ec)
                0x40004878                PROVIDE (SPIUnlock, 0x40004878)
                0x40004a4c                PROVIDE (SPIWrite, 0x40004a4c)
                0x40003f58                PROVIDE (SelectSpiFunction, 0x40003f58)
                0x40003cf4                PROVIDE (SendMsg, 0x40003cf4)
                0x40003230                PROVIDE (UartConnCheck, 0x40003230)
                0x400037a0                PROVIDE (UartConnectProc, 0x400037a0)
                0x40003368                PROVIDE (UartDwnLdProc, 0x40003368)
                0x40003ef4                PROVIDE (UartGetCmdLn, 0x40003ef4)
                0x4000381c                PROVIDE (UartRegReadProc, 0x4000381c)
                0x400037ac                PROVIDE (UartRegWriteProc, 0x400037ac)
                0x40003c30                PROVIDE (UartRxString, 0x40003c30)
                0x40003a14                PROVIDE (Uart_Init, 0x40003a14)
                0x40000010                PROVIDE (_DebugExceptionVector, 0x40000010)
                0x40000070                PROVIDE (_DoubleExceptionVector, 0x40000070)
                0x40000030                PROVIDE (_KernelExceptionVector, 0x40000030)
                0x40000020                PROVIDE (_NMIExceptionVector, 0x40000020)
                0x400000a4                PROVIDE (_ResetHandler, 0x400000a4)
                0x40000080                PROVIDE (_ResetVector, 0x40000080)
                0x40000050                PROVIDE (_UserExceptionVector, 0x40000050)
                0x4000c538                PROVIDE (__adddf3, 0x4000c538)
                0x4000c180                PROVIDE (__addsf3, 0x4000c180)
                0x4000cb94                PROVIDE (__divdf3, 0x4000cb94)
                0x4000ce60                PROVIDE (__divdi3, 0x4000ce60)
                0x4000dc88                PROVIDE (__divsi3, 0x4000dc88)
                0x4000cdfc                PROVIDE (__extendsfdf2, 0x4000cdfc)
                0x4000ccb8                PROVIDE (__fixdfsi, 0x4000ccb8)
                0x4000cd00                PROVIDE (__fixunsdfsi, 0x4000cd00)
                0x4000c4c4                PROVIDE (__fixunssfsi, 0x4000c4c4)
                0x4000e2f0                PROVIDE (__floatsidf, 0x4000e2f0)
                0x4000e2ac                PROVIDE (__floatsisf, 0x4000e2ac)
                0x4000e2e8                PROVIDE (__floatunsidf, 0x4000e2e8)
                0x4000e2a4                PROVIDE (__floatunsisf, 0x4000e2a4)
                0x4000c8f0                PROVIDE (__muldf3, 0x4000c8f0)
                0x40000650                PROVIDE (__muldi3, 0x40000650)
                0x4000c3dc                PROVIDE (__mulsf3, 0x4000c3dc)
                0x4000c688                PROVIDE (__subdf3, 0x4000c688)
                0x4000c268                PROVIDE (__subsf3, 0x4000c268)
                0x4000cd5c                PROVIDE (__truncdfsf2, 0x4000cd5c)
                0x4000d310                PROVIDE (__udivdi3, 0x4000d310)
                0x4000e21c                PROVIDE (__udivsi3, 0x4000e21c)
                0x4000d770                PROVIDE (__umoddi3, 0x4000d770)
                0x4000e268                PROVIDE (__umodsi3, 0x4000e268)
                0x4000dcf0                PROVIDE (__umulsidi3, 0x4000dcf0)
                0x4000e388                PROVIDE (_rom_store, 0x4000e388)
                0x4000e328                PROVIDE (_rom_store_table, 0x4000e328)
                0x4000042c                PROVIDE (_start, 0x4000042c)
                0x4000dbe0                PROVIDE (_xtos_alloca_handler, 0x4000dbe0)
                0x40000598                PROVIDE (_xtos_c_wrapper_handler, 0x40000598)
                0x40000590                PROVIDE (_xtos_cause3_handler, 0x40000590)
                0x4000bda4                PROVIDE (_xtos_ints_off, 0x4000bda4)
                0x4000bd84                PROVIDE (_xtos_ints_on, 0x4000bd84)
                0x4000048c                PROVIDE (_xtos_l1int_handler, 0x4000048c)
                0x4000dbf8                PROVIDE (_xtos_p_none, 0x4000dbf8)
                0x4000056c                PROVIDE (_xtos_restore_intlevel, 0x4000056c)
                0x4000dc54                PROVIDE (_xtos_return_from_exc, 0x4000dc54)
                0x40000454                PROVIDE (_xtos_set_exception_handler, 0x40000454)
                0x4000bd70                PROVIDE (_xtos_set_interrupt_handler, 0x4000bd70)
                0x4000bd28                PROVIDE (_xtos_set_interrupt_handler_arg, 0x4000bd28)
                0x4000dbfc                PROVIDE (_xtos_set_intlevel, 0x4000dbfc)
                0x4000dc18                PROVIDE (_xtos_set_min_intlevel, 0x4000dc18)
                0x40000574                PROVIDE (_xtos_set_vpri, 0x40000574)
                0x4000dbe4                PROVIDE (_xtos_syscall_handler, 0x4000dbe4)
                0x4000dc44                PROVIDE (_xtos_unhandled_exception, 0x4000dc44)
                0x4000dc3c                PROVIDE (_xtos_unhandled_interrupt, 0x4000dc3c)
                0x400092d4                PROVIDE (aes_decrypt, 0x400092d4)
                0x400092e4                PROVIDE (aes_decrypt_deinit, 0x400092e4)
                0x40008ea4                PROVIDE (aes_decrypt_init, 0x40008ea4)
                0x40009410                PROVIDE (aes_unwrap, 0x40009410)
                0x40009648                PROVIDE (base64_decode, 0x40009648)
                0x400094fc                PROVIDE (base64_encode, 0x400094fc)
                0x4000de84                PROVIDE (bzero, 0x4000de84)
                0x40000814                PROVIDE (cmd_parse, 0x40000814)
                0x40000b24                PROVIDE (conv_str_decimal, 0x40000b24)
                0x40000cb8                PROVIDE (conv_str_hex, 0x40000cb8)
                0x40000a60                PROVIDE (convert_para_str, 0x40000a60)
                0x400026d0                PROVIDE (dtm_get_intr_mask, 0x400026d0)
                0x4000269c                PROVIDE (dtm_params_init, 0x4000269c)
                0x400026c8                PROVIDE (dtm_set_intr_mask, 0x400026c8)
                0x400026dc                PROVIDE (dtm_set_params, 0x400026dc)
                0x40001d14                PROVIDE (eprintf, 0x40001d14)
                0x40001cb8                PROVIDE (eprintf_init_buf, 0x40001cb8)
                0x40001d48                PROVIDE (eprintf_to_host, 0x40001d48)
                0x40002494                PROVIDE (est_get_printf_buf_remain_len, 0x40002494)
                0x4000249c                PROVIDE (est_reset_printf_buf_len, 0x4000249c)
                0x40002ae8                PROVIDE (ets_bzero, 0x40002ae8)
                0x40002b74                PROVIDE (ets_char2xdigit, 0x40002b74)
                0x40002ecc                PROVIDE (ets_delay_us, 0x40002ecc)
                0x400027b8                PROVIDE (ets_enter_sleep, 0x400027b8)
                0x40002578                PROVIDE (ets_external_printf, 0x40002578)
                0x40002f0c                PROVIDE (ets_get_cpu_frequency, 0x40002f0c)
                0x40002bcc                PROVIDE (ets_getc, 0x40002bcc)
                0x40002450                PROVIDE (ets_install_external_printf, 0x40002450)
                0x4000242c                PROVIDE (ets_install_putc1, 0x4000242c)
                0x4000248c                PROVIDE (ets_install_putc2, 0x4000248c)
                0x40002438                PROVIDE (ets_install_uart_printf, 0x40002438)
                0x40000f74                PROVIDE (ets_intr_lock, 0x40000f74)
                0x40000f80                PROVIDE (ets_intr_unlock, 0x40000f80)
                0x40000f88                PROVIDE (ets_isr_attach, 0x40000f88)
                0x40000f98                PROVIDE (ets_isr_mask, 0x40000f98)
                0x40000fa8                PROVIDE (ets_isr_unmask, 0x40000fa8)
                0x400018d4                PROVIDE (ets_memcmp, 0x400018d4)
                0x400018b4                PROVIDE (ets_memcpy, 0x400018b4)
                0x400018c4                PROVIDE (ets_memmove, 0x400018c4)
                0x400018a4                PROVIDE (ets_memset, 0x400018a4)
                0x40000e24                PROVIDE (ets_post, 0x40000e24)
                0x400024cc                PROVIDE (ets_printf, 0x400024cc)
                0x40002be8                PROVIDE (ets_putc, 0x40002be8)
                0x40002a40                PROVIDE (ets_rtc_int_register, 0x40002a40)
                0x40000e04                PROVIDE (ets_run, 0x40000e04)
                0x40000dc0                PROVIDE (ets_set_idle_cb, 0x40000dc0)
                0x40000fbc                PROVIDE (ets_set_user_start, 0x40000fbc)
                0x40002af8                PROVIDE (ets_str2macaddr, 0x40002af8)
                0x40002aa8                PROVIDE (ets_strcmp, 0x40002aa8)
                0x40002a88                PROVIDE (ets_strcpy, 0x40002a88)
                0x40002ac8                PROVIDE (ets_strlen, 0x40002ac8)
                0x40002ab8                PROVIDE (ets_strncmp, 0x40002ab8)
                0x40002a98                PROVIDE (ets_strncpy, 0x40002a98)
                0x40002ad8                PROVIDE (ets_strstr, 0x40002ad8)
                0x40000dd0                PROVIDE (ets_task, 0x40000dd0)
                0x40002cc4                PROVIDE (ets_timer_arm, 0x40002cc4)
                0x40002d40                PROVIDE (ets_timer_disarm, 0x40002d40)
                0x40002d80                PROVIDE (ets_timer_done, 0x40002d80)
                0x40002da8                PROVIDE (ets_timer_handler_isr, 0x40002da8)
                0x40002e68                PROVIDE (ets_timer_init, 0x40002e68)
                0x40002c48                PROVIDE (ets_timer_setfn, 0x40002c48)
                0x40002544                PROVIDE (ets_uart_printf, 0x40002544)
                0x40002f04                PROVIDE (ets_update_cpu_frequency, 0x40002f04)
                0x40001f00                PROVIDE (ets_vprintf, 0x40001f00)
                0x400030f0                PROVIDE (ets_wdt_disable, 0x400030f0)
                0x40002fa0                PROVIDE (ets_wdt_enable, 0x40002fa0)
                0x40002f34                PROVIDE (ets_wdt_get_mode, 0x40002f34)
                0x40003170                PROVIDE (ets_wdt_init, 0x40003170)
                0x40003158                PROVIDE (ets_wdt_restore, 0x40003158)
                0x40001da0                PROVIDE (ets_write_char, 0x40001da0)
                0x4000091c                PROVIDE (get_first_seg, 0x4000091c)
                0x40004c50                PROVIDE (gpio_init, 0x40004c50)
                0x40004cf0                PROVIDE (gpio_input_get, 0x40004cf0)
                0x40004dcc                PROVIDE (gpio_intr_ack, 0x40004dcc)
                0x40004e28                PROVIDE (gpio_intr_handler_register, 0x40004e28)
                0x40004d88                PROVIDE (gpio_intr_pending, 0x40004d88)
                0x40004efc                PROVIDE (gpio_intr_test, 0x40004efc)
                0x40004cd0                PROVIDE (gpio_output_set, 0x40004cd0)
                0x40004d90                PROVIDE (gpio_pin_intr_state_set, 0x40004d90)
                0x40004ed4                PROVIDE (gpio_pin_wakeup_disable, 0x40004ed4)
                0x40004e90                PROVIDE (gpio_pin_wakeup_enable, 0x40004e90)
                0x40004d5c                PROVIDE (gpio_register_get, 0x40004d5c)
                0x40004d04                PROVIDE (gpio_register_set, 0x40004d04)
                0x4000a2cc                PROVIDE (hmac_md5, 0x4000a2cc)
                0x4000a160                PROVIDE (hmac_md5_vector, 0x4000a160)
                0x4000ba28                PROVIDE (hmac_sha1, 0x4000ba28)
                0x4000b8b4                PROVIDE (hmac_sha1_vector, 0x4000b8b4)
                0x40004f40                PROVIDE (lldesc_build_chain, 0x40004f40)
                0x40005050                PROVIDE (lldesc_num2link, 0x40005050)
                0x4000507c                PROVIDE (lldesc_set_owner, 0x4000507c)
                0x40000fec                PROVIDE (main, 0x40000fec)
                0x400097ac                PROVIDE (md5_vector, 0x400097ac)
                0x40001c2c                PROVIDE (mem_calloc, 0x40001c2c)
                0x400019e0                PROVIDE (mem_free, 0x400019e0)
                0x40001998                PROVIDE (mem_init, 0x40001998)
                0x40001b40                PROVIDE (mem_malloc, 0x40001b40)
                0x40001c6c                PROVIDE (mem_realloc, 0x40001c6c)
                0x40001a14                PROVIDE (mem_trim, 0x40001a14)
                0x40001c58                PROVIDE (mem_zalloc, 0x40001c58)
                0x4000dea8                PROVIDE (memcmp, 0x4000dea8)
                0x4000df48                PROVIDE (memcpy, 0x4000df48)
                0x4000e04c                PROVIDE (memmove, 0x4000e04c)
                0x4000e190                PROVIDE (memset, 0x4000e190)
                0x400031c0                PROVIDE (multofup, 0x400031c0)
                0x4000b840                PROVIDE (pbkdf2_sha1, 0x4000b840)
                0x40006b08                PROVIDE (phy_get_romfuncs, 0x40006b08)
                0x40000600                PROVIDE (rand, 0x40000600)
                0x4000dd68                PROVIDE (rc4_skip, 0x4000dd68)
                0x40003d08                PROVIDE (recv_packet, 0x40003d08)
                0x40000a04                PROVIDE (remove_head_space, 0x40000a04)
                0x40008dd0                PROVIDE (rijndaelKeySetupDec, 0x40008dd0)
                0x40009300                PROVIDE (rijndaelKeySetupEnc, 0x40009300)
                0x400060c0                PROVIDE (rom_abs_temp, 0x400060c0)
                0x40006b10                PROVIDE (rom_ana_inf_gating_en, 0x40006b10)
                0x40007a28                PROVIDE (rom_cal_tos_v50, 0x40007a28)
                0x40006f84                PROVIDE (rom_chip_50_set_channel, 0x40006f84)
                0x400060d0                PROVIDE (rom_chip_v5_disable_cca, 0x400060d0)
                0x400060ec                PROVIDE (rom_chip_v5_enable_cca, 0x400060ec)
                0x4000711c                PROVIDE (rom_chip_v5_rx_init, 0x4000711c)
                0x4000610c                PROVIDE (rom_chip_v5_sense_backoff, 0x4000610c)
                0x4000718c                PROVIDE (rom_chip_v5_tx_init, 0x4000718c)
                0x4000615c                PROVIDE (rom_dc_iq_est, 0x4000615c)
                0x400061b8                PROVIDE (rom_en_pwdet, 0x400061b8)
                0x40006238                PROVIDE (rom_get_bb_atten, 0x40006238)
                0x40006260                PROVIDE (rom_get_corr_power, 0x40006260)
                0x400062dc                PROVIDE (rom_get_fm_sar_dout, 0x400062dc)
                0x40006394                PROVIDE (rom_get_noisefloor, 0x40006394)
                0x400063b0                PROVIDE (rom_get_power_db, 0x400063b0)
                0x40007268                PROVIDE (rom_i2c_readReg, 0x40007268)
                0x4000729c                PROVIDE (rom_i2c_readReg_Mask, 0x4000729c)
                0x400072d8                PROVIDE (rom_i2c_writeReg, 0x400072d8)
                0x4000730c                PROVIDE (rom_i2c_writeReg_Mask, 0x4000730c)
                0x40006400                PROVIDE (rom_iq_est_disable, 0x40006400)
                0x40006430                PROVIDE (rom_iq_est_enable, 0x40006430)
                0x40006484                PROVIDE (rom_linear_to_db, 0x40006484)
                0x400065a4                PROVIDE (rom_mhz2ieee, 0x400065a4)
                0x40007bf0                PROVIDE (rom_pbus_dco___SA2, 0x40007bf0)
                0x4000737c                PROVIDE (rom_pbus_debugmode, 0x4000737c)
                0x40007410                PROVIDE (rom_pbus_enter_debugmode, 0x40007410)
                0x40007448                PROVIDE (rom_pbus_exit_debugmode, 0x40007448)
                0x4000747c                PROVIDE (rom_pbus_force_test, 0x4000747c)
                0x400074d8                PROVIDE (rom_pbus_rd, 0x400074d8)
                0x4000754c                PROVIDE (rom_pbus_set_rxgain, 0x4000754c)
                0x40007610                PROVIDE (rom_pbus_set_txgain, 0x40007610)
                0x40007648                PROVIDE (rom_pbus_workmode, 0x40007648)
                0x40007688                PROVIDE (rom_pbus_xpd_rx_off, 0x40007688)
                0x400076cc                PROVIDE (rom_pbus_xpd_rx_on, 0x400076cc)
                0x400076fc                PROVIDE (rom_pbus_xpd_tx_off, 0x400076fc)
                0x40007740                PROVIDE (rom_pbus_xpd_tx_on, 0x40007740)
                0x400077a0                PROVIDE (rom_pbus_xpd_tx_on__low_gain, 0x400077a0)
                0x40007804                PROVIDE (rom_phy_reset_req, 0x40007804)
                0x4000781c                PROVIDE (rom_restart_cal, 0x4000781c)
                0x40007eb4                PROVIDE (rom_rfcal_pwrctrl, 0x40007eb4)
                0x4000804c                PROVIDE (rom_rfcal_rxiq, 0x4000804c)
                0x40008264                PROVIDE (rom_rfcal_rxiq_set_reg, 0x40008264)
                0x40008388                PROVIDE (rom_rfcal_txcap, 0x40008388)
                0x40008610                PROVIDE (rom_rfcal_txiq, 0x40008610)
                0x400088b8                PROVIDE (rom_rfcal_txiq_cover, 0x400088b8)
                0x40008a70                PROVIDE (rom_rfcal_txiq_set_reg, 0x40008a70)
                0x40007868                PROVIDE (rom_rfpll_reset, 0x40007868)
                0x40007968                PROVIDE (rom_rfpll_set_freq, 0x40007968)
                0x40008b6c                PROVIDE (rom_rxiq_cover_mg_mp, 0x40008b6c)
                0x40006628                PROVIDE (rom_rxiq_get_mis, 0x40006628)
                0x40006738                PROVIDE (rom_sar_init, 0x40006738)
                0x4000678c                PROVIDE (rom_set_ana_inf_tx_scale, 0x4000678c)
                0x40006c50                PROVIDE (rom_set_channel_freq, 0x40006c50)
                0x400067c8                PROVIDE (rom_set_loopback_gain, 0x400067c8)
                0x40006830                PROVIDE (rom_set_noise_floor, 0x40006830)
                0x40006550                PROVIDE (rom_set_rxclk_en, 0x40006550)
                0x40008c6c                PROVIDE (rom_set_txbb_atten, 0x40008c6c)
                0x4000650c                PROVIDE (rom_set_txclk_en, 0x4000650c)
                0x40008d34                PROVIDE (rom_set_txiq_cal, 0x40008d34)
                0x40006874                PROVIDE (rom_start_noisefloor, 0x40006874)
                0x400068b4                PROVIDE (rom_start_tx_tone, 0x400068b4)
                0x4000698c                PROVIDE (rom_stop_tx_tone, 0x4000698c)
                0x40006a98                PROVIDE (rom_tx_mac_disable, 0x40006a98)
                0x40006ad4                PROVIDE (rom_tx_mac_enable, 0x40006ad4)
                0x40006a1c                PROVIDE (rom_txtone_linear_pwr, 0x40006a1c)
                0x400078dc                PROVIDE (rom_write_rfpll_sdm, 0x400078dc)
                0x400031b4                PROVIDE (roundup2, 0x400031b4)
                0x40002870                PROVIDE (rtc_enter_sleep, 0x40002870)
                0x400025e0                PROVIDE (rtc_get_reset_reason, 0x400025e0)
                0x400029ec                PROVIDE (rtc_intr_handler, 0x400029ec)
                0x40002668                PROVIDE (rtc_set_sleep_mode, 0x40002668)
                0x400027a4                PROVIDE (save_rxbcn_mactime, 0x400027a4)
                0x400027ac                PROVIDE (save_tsf_us, 0x400027ac)
                0x40003c80                PROVIDE (send_packet, 0x40003c80)
                0x4000ba48                PROVIDE (sha1_prf, 0x4000ba48)
                0x4000a2ec                PROVIDE (sha1_vector, 0x4000a2ec)
                0x40005180                PROVIDE (sip_alloc_to_host_evt, 0x40005180)
                0x400058a8                PROVIDE (sip_get_ptr, 0x400058a8)
                0x40005668                PROVIDE (sip_get_state, 0x40005668)
                0x4000567c                PROVIDE (sip_init_attach, 0x4000567c)
                0x4000544c                PROVIDE (sip_install_rx_ctrl_cb, 0x4000544c)
                0x4000545c                PROVIDE (sip_install_rx_data_cb, 0x4000545c)
                0x400050fc                PROVIDE (sip_post, 0x400050fc)
                0x400056c4                PROVIDE (sip_post_init, 0x400056c4)
                0x4000534c                PROVIDE (sip_reclaim_from_host_cmd, 0x4000534c)
                0x400052c0                PROVIDE (sip_reclaim_tx_data_pkt, 0x400052c0)
                0x40005808                PROVIDE (sip_send, 0x40005808)
                0x40005864                PROVIDE (sip_to_host_chain_append, 0x40005864)
                0x40005234                PROVIDE (sip_to_host_evt_send_done, 0x40005234)
                0x400060ac                PROVIDE (slc_add_credits, 0x400060ac)
                0x40005d90                PROVIDE (slc_enable, 0x40005d90)
                0x40005f24                PROVIDE (slc_from_host_chain_fetch, 0x40005f24)
                0x40005e94                PROVIDE (slc_from_host_chain_recycle, 0x40005e94)
                0x40005c50                PROVIDE (slc_init_attach, 0x40005c50)
                0x4000608c                PROVIDE (slc_init_credit, 0x4000608c)
                0x40006014                PROVIDE (slc_pause_from_host, 0x40006014)
                0x40005c1c                PROVIDE (slc_reattach, 0x40005c1c)
                0x4000603c                PROVIDE (slc_resume_from_host, 0x4000603c)
                0x40005dc0                PROVIDE (slc_select_tohost_gpio, 0x40005dc0)
                0x40005db8                PROVIDE (slc_select_tohost_gpio_mode, 0x40005db8)
                0x40005de4                PROVIDE (slc_send_to_host_chain, 0x40005de4)
                0x40006068                PROVIDE (slc_set_host_io_max_window, 0x40006068)
                0x40005f10                PROVIDE (slc_to_host_chain_recycle, 0x40005f10)
                0x4000264c                PROVIDE (software_reset, 0x4000264c)
                0x40004644                PROVIDE (spi_flash_attach, 0x40004644)
                0x400005f0                PROVIDE (srand, 0x400005f0)
                0x4000bdc8                PROVIDE (strcmp, 0x4000bdc8)
                0x4000bec8                PROVIDE (strcpy, 0x4000bec8)
                0x4000bf4c                PROVIDE (strlen, 0x4000bf4c)
                0x4000bfa8                PROVIDE (strncmp, 0x4000bfa8)
                0x4000c0a0                PROVIDE (strncpy, 0x4000c0a0)
                0x4000e1e0                PROVIDE (strstr, 0x4000e1e0)
                0x40002c64                PROVIDE (timer_insert, 0x40002c64)
                0x4000383c                PROVIDE (uartAttach, 0x4000383c)
                0x40003924                PROVIDE (uart_baudrate_detect, 0x40003924)
                0x400038a4                PROVIDE (uart_buff_switch, 0x400038a4)
                0x400039d8                PROVIDE (uart_div_modify, 0x400039d8)
                0x40003bbc                PROVIDE (uart_rx_intr_handler, 0x40003bbc)
                0x40003b8c                PROVIDE (uart_rx_one_char, 0x40003b8c)
                0x40003b64                PROVIDE (uart_rx_one_char_block, 0x40003b64)
                0x40003ec8                PROVIDE (uart_rx_readbuff, 0x40003ec8)
                0x40003b30                PROVIDE (uart_tx_one_char, 0x40003b30)
                0x4000bc40                PROVIDE (wepkey_128, 0x4000bc40)
                0x4000bb3c                PROVIDE (wepkey_64, 0x4000bb3c)
                0x40000688                PROVIDE (xthal_bcopy, 0x40000688)
                0x4000074c                PROVIDE (xthal_copy123, 0x4000074c)
                0x4000dd4c                PROVIDE (xthal_get_ccompare, 0x4000dd4c)
                0x4000dd38                PROVIDE (xthal_get_ccount, 0x4000dd38)
                0x4000dd58                PROVIDE (xthal_get_interrupt, 0x4000dd58)
                0x4000dd58                PROVIDE (xthal_get_intread, 0x4000dd58)
                0x400006c4                PROVIDE (xthal_memcpy, 0x400006c4)
                0x4000dd40                PROVIDE (xthal_set_ccompare, 0x4000dd40)
                0x4000dd60                PROVIDE (xthal_set_intclear, 0x4000dd60)
                0x4000e320                PROVIDE (xthal_spill_registers_into_stack_nw, 0x4000e320)
                0x4000e324                PROVIDE (xthal_window_spill, 0x4000e324)
                0x4000e320                PROVIDE (xthal_window_spill_nw, 0x4000e320)
                0x3fffccf0                PROVIDE (Te0, 0x3fffccf0)
                0x3fffde10                PROVIDE (UartDev, 0x3fffde10)
                0x3fffc714                PROVIDE (flashchip, 0x3fffc714)
OUTPUT(build/app.out elf32-xtensa-le)

.xtensa.info    0x00000000       0x38
 .xtensa.info   0x00000000       0x38 c:/Espressif/ESP8266_SDK/lib\libmain.a(debug-vector.o)
 .xtensa.info   0x00000000        0x0 c:/Espressif/ESP8266_SDK/lib\libmain.a(double-vector.o)
 .xtensa.info   0x00000000        0x0 c:/Espressif/ESP8266_SDK/lib\libmain.a(kernel-vector.o)
 .xtensa.info   0x00000000        0x0 c:/Espressif/ESP8266_SDK/lib\libmain.a(nmi-vector.o)
 .xtensa.info   0x00000000        0x0 c:/Espressif/ESP8266_SDK/lib\libmain.a(user-vector.o)
 .xtensa.info   0x00000000        0x0 c:/Espressif/ESP8266_SDK/lib\libmain.a(vector.o)
 .xtensa.info   0x00000000        0x0 c:/Espressif/ESP8266_SDK/lib\libmain.a(app_main.o)
 .xtensa.info   0x00000000        0x0 c:/Espressif/ESP8266_SDK/lib\libmain.a(ets_timer.o)
 .xtensa.info   0x00000000        0x0 c:/Espressif/ESP8266_SDK/lib\libmain.a(mem_manager.o)
 .xtensa.info   0x00000000        0x0 c:/Espressif/ESP8266_SDK/lib\libmain.a(spi_flash.o)
 .xtensa.info   0x00000000        0x0 c:/Espressif/ESP8266_SDK/lib\libmain.a(user_interface.o)
 .xtensa.info   0x00000000        0x0 c:/Espressif/ESP8266_SDK/lib\libmain.a(eagle_lib.o)
 .xtensa.info   0x00000000        0x0 c:/Espressif/ESP8266_SDK/lib\libmain.a(eagle_lwip_if.o)
 .xtensa.info   0x00000000        0x0 build/app_app.a(user_main.o)
 .xtensa.info   0x00000000        0x0 build/app_app.a(mqtt.o)
 .xtensa.info   0x00000000        0x0 build/app_app.a(wifi.o)
 .xtensa.info   0x00000000        0x0 build/app_app.a(config.o)
 .xtensa.info   0x00000000        0x0 build/app_app.a(easygpio.o)
 .xtensa.info   0x00000000        0x0 build/app_app.a(dht22.o)
 .xtensa.info   0x00000000        0x0 build/app_app.a(stdout.o)
 .xtensa.info   0x00000000        0x0 build/app_app.a(utils.o)
 .xtensa.info   0x00000000        0x0 build/app_app.a(queue.o)
 .xtensa.info   0x00000000        0x0 build/app_app.a(mqtt_msg.o)
 .xtensa.info   0x00000000        0x0 build/app_app.a(ringbuf.o)
 .xtensa.info   0x00000000        0x0 build/app_app.a(proto.o)
 .xtensa.info   0x00000000        0x0 c:/espressif/xtensa-lx106-elf/bin/../lib/gcc/xtensa-lx106-elf/4.8.2/../../../../xtensa-lx106-elf/lib\libc.a(lib_a-atoi.o)
 .xtensa.info   0x00000000        0x0 c:/espressif/xtensa-lx106-elf/bin/../lib/gcc/xtensa-lx106-elf/4.8.2/../../../../xtensa-lx106-elf/lib\libc.a(lib_a-lcltime.o)
 .xtensa.info   0x00000000        0x0 c:/espressif/xtensa-lx106-elf/bin/../lib/gcc/xtensa-lx106-elf/4.8.2/../../../../xtensa-lx106-elf/lib\libc.a(lib_a-lcltime_r.o)
 .xtensa.info   0x00000000        0x0 c:/espressif/xtensa-lx106-elf/bin/../lib/gcc/xtensa-lx106-elf/4.8.2/../../../../xtensa-lx106-elf/lib\libc.a(lib_a-memcpy.o)
 .xtensa.info   0x00000000        0x0 c:/espressif/xtensa-lx106-elf/bin/../lib/gcc/xtensa-lx106-elf/4.8.2/../../../../xtensa-lx106-elf/lib\libc.a(lib_a-mktm_r.o)
 .xtensa.info   0x00000000        0x0 c:/espressif/xtensa-lx106-elf/bin/../lib/gcc/xtensa-lx106-elf/4.8.2/../../../../xtensa-lx106-elf/lib\libc.a(lib_a-strcmp.o)
 .xtensa.info   0x00000000        0x0 c:/espressif/xtensa-lx106-elf/bin/../lib/gcc/xtensa-lx106-elf/4.8.2/../../../../xtensa-lx106-elf/lib\libc.a(lib_a-strlen.o)
 .xtensa.info   0x00000000        0x0 c:/espressif/xtensa-lx106-elf/bin/../lib/gcc/xtensa-lx106-elf/4.8.2/../../../../xtensa-lx106-elf/lib\libc.a(lib_a-strtol.o)
 .xtensa.info   0x00000000        0x0 c:/espressif/xtensa-lx106-elf/bin/../lib/gcc/xtensa-lx106-elf/4.8.2/../../../../xtensa-lx106-elf/lib\libc.a(lib_a-tzlock.o)
 .xtensa.info   0x00000000        0x0 c:/espressif/xtensa-lx106-elf/bin/../lib/gcc/xtensa-lx106-elf/4.8.2/../../../../xtensa-lx106-elf/lib\libc.a(lib_a-tzvars.o)
 .xtensa.info   0x00000000        0x0 c:/espressif/xtensa-lx106-elf/bin/../lib/gcc/xtensa-lx106-elf/4.8.2/../../../../xtensa-lx106-elf/lib\libc.a(lib_a-ctype_.o)
 .xtensa.info   0x00000000        0x0 c:/espressif/xtensa-lx106-elf/bin/../lib/gcc/xtensa-lx106-elf/4.8.2/../../../../xtensa-lx106-elf/lib\libc.a(lib_a-gettzinfo.o)
 .xtensa.info   0x00000000        0x0 c:/espressif/xtensa-lx106-elf/bin/../lib/gcc/xtensa-lx106-elf/4.8.2/../../../../xtensa-lx106-elf/lib\libc.a(lib_a-impure.o)
 .xtensa.info   0x00000000        0x0 c:/espressif/xtensa-lx106-elf/bin/../lib/gcc/xtensa-lx106-elf/4.8.2\libgcc.a(_divsi3.o)
 .xtensa.info   0x00000000        0x0 c:/espressif/xtensa-lx106-elf/bin/../lib/gcc/xtensa-lx106-elf/4.8.2\libgcc.a(_modsi3.o)
 .xtensa.info   0x00000000        0x0 c:/espressif/xtensa-lx106-elf/bin/../lib/gcc/xtensa-lx106-elf/4.8.2\libgcc.a(_udivsi3.o)
 .xtensa.info   0x00000000        0x0 c:/espressif/xtensa-lx106-elf/bin/../lib/gcc/xtensa-lx106-elf/4.8.2\libgcc.a(_umodsi3.o)
 .xtensa.info   0x00000000        0x0 c:/espressif/xtensa-lx106-elf/bin/../lib/gcc/xtensa-lx106-elf/4.8.2\libgcc.a(_addsubsf3.o)
 .xtensa.info   0x00000000        0x0 c:/espressif/xtensa-lx106-elf/bin/../lib/gcc/xtensa-lx106-elf/4.8.2\libgcc.a(_mulsf3.o)
 .xtensa.info   0x00000000        0x0 c:/espressif/xtensa-lx106-elf/bin/../lib/gcc/xtensa-lx106-elf/4.8.2\libgcc.a(_divsf3.o)
 .xtensa.info   0x00000000        0x0 c:/espressif/xtensa-lx106-elf/bin/../lib/gcc/xtensa-lx106-elf/4.8.2\libgcc.a(_cmpsf2.o)
 .xtensa.info   0x00000000        0x0 c:/espressif/xtensa-lx106-elf/bin/../lib/gcc/xtensa-lx106-elf/4.8.2\libgcc.a(_fixsfsi.o)
 .xtensa.info   0x00000000        0x0 c:/espressif/xtensa-lx106-elf/bin/../lib/gcc/xtensa-lx106-elf/4.8.2\libgcc.a(_floatsisf.o)
 .xtensa.info   0x00000000        0x0 c:/espressif/xtensa-lx106-elf/bin/../lib/gcc/xtensa-lx106-elf/4.8.2\libgcc.a(_muldi3.o)
 .xtensa.info   0x00000000        0x0 c:/espressif/xtensa-lx106-elf/bin/../lib/gcc/xtensa-lx106-elf/4.8.2\libgcc.a(_umulsidi3.o)
 .xtensa.info   0x00000000        0x0 c:/espressif/xtensa-lx106-elf/bin/../lib/gcc/xtensa-lx106-elf/4.8.2/../../../../xtensa-lx106-elf/lib\libhal.a(int_asm--set_intclear.o)
 .xtensa.info   0x00000000        0x0 c:/Espressif/ESP8266_SDK/lib\libphy.a(phy.o)
 .xtensa.info   0x00000000        0x0 c:/Espressif/ESP8266_SDK/lib\libphy.a(phy_chip_v6_ana.o)
 .xtensa.info   0x00000000        0x0 c:/Espressif/ESP8266_SDK/lib\libphy.a(phy_chip_v6.o)
 .xtensa.info   0x00000000        0x0 c:/Espressif/ESP8266_SDK/lib\libphy.a(phy_chip_v6_cal.o)
 .xtensa.info   0x00000000        0x0 c:/Espressif/ESP8266_SDK/lib\libphy.a(phy_chip_v6_unused.o)
 .xtensa.info   0x00000000        0x0 c:/Espressif/ESP8266_SDK/lib\libphy.a(phy_sleep.o)
 .xtensa.info   0x00000000        0x0 c:/Espressif/ESP8266_SDK/lib\libpp.a(if_hwctrl.o)
 .xtensa.info   0x00000000        0x0 c:/Espressif/ESP8266_SDK/lib\libpp.a(lmac.o)
 .xtensa.info   0x00000000        0x0 c:/Espressif/ESP8266_SDK/lib\libpp.a(pm.o)
 .xtensa.info   0x00000000        0x0 c:/Espressif/ESP8266_SDK/lib\libpp.a(pm_for_bcn_only_mode.o)
 .xtensa.info   0x00000000        0x0 c:/Espressif/ESP8266_SDK/lib\libpp.a(pp.o)
 .xtensa.info   0x00000000        0x0 c:/Espressif/ESP8266_SDK/lib\libpp.a(rate_control.o)
 .xtensa.info   0x00000000        0x0 c:/Espressif/ESP8266_SDK/lib\libpp.a(trc.o)
 .xtensa.info   0x00000000        0x0 c:/Espressif/ESP8266_SDK/lib\libpp.a(wdev.o)
 .xtensa.info   0x00000000        0x0 c:/Espressif/ESP8266_SDK/lib\libpp.a(esf_buf.o)
 .xtensa.info   0x00000000        0x0 c:/Espressif/ESP8266_SDK/lib\libnet80211.a(ieee80211.o)
 .xtensa.info   0x00000000        0x0 c:/Espressif/ESP8266_SDK/lib\libnet80211.a(ieee80211_crypto.o)
 .xtensa.info   0x00000000        0x0 c:/Espressif/ESP8266_SDK/lib\libnet80211.a(ieee80211_ets.o)
 .xtensa.info   0x00000000        0x0 c:/Espressif/ESP8266_SDK/lib\libnet80211.a(ieee80211_hostap.o)
 .xtensa.info   0x00000000        0x0 c:/Espressif/ESP8266_SDK/lib\libnet80211.a(ieee80211_ht.o)
 .xtensa.info   0x00000000        0x0 c:/Espressif/ESP8266_SDK/lib\libnet80211.a(ieee80211_input.o)
 .xtensa.info   0x00000000        0x0 c:/Espressif/ESP8266_SDK/lib\libnet80211.a(ieee80211_output.o)
 .xtensa.info   0x00000000        0x0 c:/Espressif/ESP8266_SDK/lib\libnet80211.a(ieee80211_phy.o)
 .xtensa.info   0x00000000        0x0 c:/Espressif/ESP8266_SDK/lib\libnet80211.a(ieee80211_power.o)
 .xtensa.info   0x00000000        0x0 c:/Espressif/ESP8266_SDK/lib\libnet80211.a(ieee80211_proto.o)
 .xtensa.info   0x00000000        0x0 c:/Espressif/ESP8266_SDK/lib\libnet80211.a(ieee80211_scan.o)
 .xtensa.info   0x00000000        0x0 c:/Espressif/ESP8266_SDK/lib\libnet80211.a(ieee80211_sta.o)
 .xtensa.info   0x00000000        0x0 c:/Espressif/ESP8266_SDK/lib\libnet80211.a(wl_chm.o)
 .xtensa.info   0x00000000        0x0 c:/Espressif/ESP8266_SDK/lib\libnet80211.a(wl_cnx.o)
 .xtensa.info   0x00000000        0x0 c:/Espressif/ESP8266_SDK/lib\libnet80211.a(ieee80211_action.o)
 .xtensa.info   0x00000000        0x0 c:/Espressif/ESP8266_SDK/lib\libnet80211.a(ieee80211_action_vendor.o)
 .xtensa.info   0x00000000        0x0 c:/Espressif/ESP8266_SDK/lib\libnet80211.a(ieee80211_crypto_ccmp.o)
 .xtensa.info   0x00000000        0x0 c:/Espressif/ESP8266_SDK/lib\libnet80211.a(ieee80211_ie_vendor.o)
 .xtensa.info   0x00000000        0x0 c:/Espressif/ESP8266_SDK/lib\liblwip.a(dhcp.o)
 .xtensa.info   0x00000000        0x0 c:/Espressif/ESP8266_SDK/lib\liblwip.a(dhcpserver.o)
 .xtensa.info   0x00000000        0x0 c:/Espressif/ESP8266_SDK/lib\liblwip.a(dns.o)
 .xtensa.info   0x00000000        0x0 c:/Espressif/ESP8266_SDK/lib\liblwip.a(espconn.o)
 .xtensa.info   0x00000000        0x0 c:/Espressif/ESP8266_SDK/lib\liblwip.a(espconn_tcp.o)
 .xtensa.info   0x00000000        0x0 c:/Espressif/ESP8266_SDK/lib\liblwip.a(espconn_udp.o)
 .xtensa.info   0x00000000        0x0 c:/Espressif/ESP8266_SDK/lib\liblwip.a(etharp.o)
 .xtensa.info   0x00000000        0x0 c:/Espressif/ESP8266_SDK/lib\liblwip.a(igmp.o)
 .xtensa.info   0x00000000        0x0 c:/Espressif/ESP8266_SDK/lib\liblwip.a(inet_chksum.o)
 .xtensa.info   0x00000000        0x0 c:/Espressif/ESP8266_SDK/lib\liblwip.a(init.o)
 .xtensa.info   0x00000000        0x0 c:/Espressif/ESP8266_SDK/lib\liblwip.a(ip_addr.o)
 .xtensa.info   0x00000000        0x0 c:/Espressif/ESP8266_SDK/lib\liblwip.a(ip.o)
 .xtensa.info   0x00000000        0x0 c:/Espressif/ESP8266_SDK/lib\liblwip.a(mdns.o)
 .xtensa.info   0x00000000        0x0 c:/Espressif/ESP8266_SDK/lib\liblwip.a(memp.o)
 .xtensa.info   0x00000000        0x0 c:/Espressif/ESP8266_SDK/lib\liblwip.a(netif.o)
 .xtensa.info   0x00000000        0x0 c:/Espressif/ESP8266_SDK/lib\liblwip.a(pbuf.o)
 .xtensa.info   0x00000000        0x0 c:/Espressif/ESP8266_SDK/lib\liblwip.a(raw.o)
 .xtensa.info   0x00000000        0x0 c:/Espressif/ESP8266_SDK/lib\liblwip.a(tcp_in.o)
 .xtensa.info   0x00000000        0x0 c:/Espressif/ESP8266_SDK/lib\liblwip.a(tcp.o)
 .xtensa.info   0x00000000        0x0 c:/Espressif/ESP8266_SDK/lib\liblwip.a(tcp_out.o)
 .xtensa.info   0x00000000        0x0 c:/Espressif/ESP8266_SDK/lib\liblwip.a(timers.o)
 .xtensa.info   0x00000000        0x0 c:/Espressif/ESP8266_SDK/lib\liblwip.a(udp.o)
 .xtensa.info   0x00000000        0x0 c:/Espressif/ESP8266_SDK/lib\liblwip.a(icmp.o)
 .xtensa.info   0x00000000        0x0 c:/Espressif/ESP8266_SDK/lib\libwpa.a(ap_config.o)
 .xtensa.info   0x00000000        0x0 c:/Espressif/ESP8266_SDK/lib\libwpa.a(common.o)
 .xtensa.info   0x00000000        0x0 c:/Espressif/ESP8266_SDK/lib\libwpa.a(os_xtensa.o)
 .xtensa.info   0x00000000        0x0 c:/Espressif/ESP8266_SDK/lib\libwpa.a(wpa_auth.o)
 .xtensa.info   0x00000000        0x0 c:/Espressif/ESP8266_SDK/lib\libwpa.a(wpa_auth_ie.o)
 .xtensa.info   0x00000000        0x0 c:/Espressif/ESP8266_SDK/lib\libwpa.a(wpa.o)
 .xtensa.info   0x00000000        0x0 c:/Espressif/ESP8266_SDK/lib\libwpa.a(wpa_common.o)
 .xtensa.info   0x00000000        0x0 c:/Espressif/ESP8266_SDK/lib\libwpa.a(wpa_debug.o)
 .xtensa.info   0x00000000        0x0 c:/Espressif/ESP8266_SDK/lib\libwpa.a(wpa_ie.o)
 .xtensa.info   0x00000000        0x0 c:/Espressif/ESP8266_SDK/lib\libwpa.a(wpa_main.o)
 .xtensa.info   0x00000000        0x0 c:/Espressif/ESP8266_SDK/lib\libwpa.a(wpas_glue.o)
 .xtensa.info   0x00000000        0x0 c:/Espressif/ESP8266_SDK/lib\libwpa.a(aes-wrap.o)
 .xtensa.info   0x00000000        0x0 c:/Espressif/ESP8266_SDK/lib\libwpa.a(aes-internal-enc.o)
 .xtensa.info   0x00000000        0x0 c:/Espressif/ESP8266_SDK/lib\libssl.a(espconn_secure.o)
 .xtensa.info   0x00000000        0x0 c:/Espressif/ESP8266_SDK/lib\libssl.a(espconn_ssl.o)
 .xtensa.info   0x00000000        0x0 c:/Espressif/ESP8266_SDK/lib\libssl.a(ssl_loader.o)
 .xtensa.info   0x00000000        0x0 c:/Espressif/ESP8266_SDK/lib\libssl.a(ssl_md5.o)
 .xtensa.info   0x00000000        0x0 c:/Espressif/ESP8266_SDK/lib\libssl.a(ssl_tls1_clnt.o)
 .xtensa.info   0x00000000        0x0 c:/Espressif/ESP8266_SDK/lib\libssl.a(ssl_tls1.o)
 .xtensa.info   0x00000000        0x0 c:/Espressif/ESP8266_SDK/lib\libssl.a(ssl_tls1_svr.o)
 .xtensa.info   0x00000000        0x0 c:/Espressif/ESP8266_SDK/lib\libssl.a(ssl_x509.o)
 .xtensa.info   0x00000000        0x0 c:/Espressif/ESP8266_SDK/lib\libssl.a(ssl_aes.o)
 .xtensa.info   0x00000000        0x0 c:/Espressif/ESP8266_SDK/lib\libssl.a(ssl_asn1.o)
 .xtensa.info   0x00000000        0x0 c:/Espressif/ESP8266_SDK/lib\libssl.a(ssl_bigint.o)
 .xtensa.info   0x00000000        0x0 c:/Espressif/ESP8266_SDK/lib\libssl.a(ssl_crypto_misc.o)
 .xtensa.info   0x00000000        0x0 c:/Espressif/ESP8266_SDK/lib\libssl.a(ssl_hmac.o)
 .xtensa.info   0x00000000        0x0 c:/Espressif/ESP8266_SDK/lib\libssl.a(ssl_md2.o)
 .xtensa.info   0x00000000        0x0 c:/Espressif/ESP8266_SDK/lib\libssl.a(ssl_os_port.o)
 .xtensa.info   0x00000000        0x0 c:/Espressif/ESP8266_SDK/lib\libssl.a(ssl_rc4.o)
 .xtensa.info   0x00000000        0x0 c:/Espressif/ESP8266_SDK/lib\libssl.a(ssl_rsa.o)
 .xtensa.info   0x00000000        0x0 c:/Espressif/ESP8266_SDK/lib\libssl.a(ssl_sha1.o)
 .xtensa.info   0x00000000        0x0 c:/Espressif/ESP8266_SDK/lib\libsmartconfig.a(sc_sniffer.o)
 .xtensa.info   0x00000000        0x0 c:/Espressif/ESP8266_SDK/lib\libsmartconfig.a(sc_airkiss.o)
 .xtensa.info   0x00000000        0x0 c:/Espressif/ESP8266_SDK/lib\libsmartconfig.a(sc_esptouch.o)
 .xtensa.info   0x00000000        0x0 c:/espressif/xtensa-lx106-elf/bin/../lib/gcc/xtensa-lx106-elf/4.8.2/../../../../xtensa-lx106-elf/lib\libc.a(lib_a-memcmp.o)
 .xtensa.info   0x00000000        0x0 c:/espressif/xtensa-lx106-elf/bin/../lib/gcc/xtensa-lx106-elf/4.8.2\libgcc.a(_ashrdi3.o)
 .xtensa.info   0x00000000        0x0 c:/espressif/xtensa-lx106-elf/bin/../lib/gcc/xtensa-lx106-elf/4.8.2\libgcc.a(_fixunssfsi.o)
 .xtensa.info   0x00000000        0x0 c:/espressif/xtensa-lx106-elf/bin/../lib/gcc/xtensa-lx106-elf/4.8.2\libgcc.a(_muldf3.o)
 .xtensa.info   0x00000000        0x0 c:/espressif/xtensa-lx106-elf/bin/../lib/gcc/xtensa-lx106-elf/4.8.2\libgcc.a(_divdf3.o)
 .xtensa.info   0x00000000        0x0 c:/espressif/xtensa-lx106-elf/bin/../lib/gcc/xtensa-lx106-elf/4.8.2\libgcc.a(_fixdfsi.o)
 .xtensa.info   0x00000000        0x0 c:/espressif/xtensa-lx106-elf/bin/../lib/gcc/xtensa-lx106-elf/4.8.2\libgcc.a(_floatsidf.o)
 .xtensa.info   0x00000000        0x0 c:/espressif/xtensa-lx106-elf/bin/../lib/gcc/xtensa-lx106-elf/4.8.2\libgcc.a(_truncdfsf2.o)
 .xtensa.info   0x00000000        0x0 c:/espressif/xtensa-lx106-elf/bin/../lib/gcc/xtensa-lx106-elf/4.8.2\libgcc.a(_popcountsi2.o)
 .xtensa.info   0x00000000        0x0 c:/espressif/xtensa-lx106-elf/bin/../lib/gcc/xtensa-lx106-elf/4.8.2\libgcc.a(_divdi3.o)
 .xtensa.info   0x00000000        0x0 c:/espressif/xtensa-lx106-elf/bin/../lib/gcc/xtensa-lx106-elf/4.8.2\libgcc.a(_udivdi3.o)
 .xtensa.info   0x00000000        0x0 c:/espressif/xtensa-lx106-elf/bin/../lib/gcc/xtensa-lx106-elf/4.8.2\libgcc.a(_umoddi3.o)
 .xtensa.info   0x00000000        0x0 c:/espressif/xtensa-lx106-elf/bin/../lib/gcc/xtensa-lx106-elf/4.8.2\libgcc.a(_popcount_tab.o)
 .xtensa.info   0x00000000        0x0 c:/Espressif/ESP8266_SDK/lib\libnet80211.a(ieee80211_crypto_tkip.o)
 .xtensa.info   0x00000000        0x0 c:/Espressif/ESP8266_SDK/lib\libnet80211.a(ieee80211_crypto_wep.o)

.xt.prop        0x00000000    0x2f8c8
 .xt.prop       0x00000000       0x18 c:/Espressif/ESP8266_SDK/lib\libmain.a(debug-vector.o)
 .xt.prop       0x00000018       0x18 c:/Espressif/ESP8266_SDK/lib\libmain.a(double-vector.o)
 .xt.prop       0x00000030       0x18 c:/Espressif/ESP8266_SDK/lib\libmain.a(kernel-vector.o)
 .xt.prop       0x00000048       0x30 c:/Espressif/ESP8266_SDK/lib\libmain.a(nmi-vector.o)
                                 0x3c (size before relaxing)
 .xt.prop       0x00000078       0x30 c:/Espressif/ESP8266_SDK/lib\libmain.a(user-vector.o)
                                 0x3c (size before relaxing)
 .xt.prop       0x000000a8       0x18 c:/Espressif/ESP8266_SDK/lib\libmain.a(vector.o)
 .xt.prop       0x000000c0      0x774 c:/Espressif/ESP8266_SDK/lib\libmain.a(app_main.o)
                                0x7d4 (size before relaxing)
 .xt.prop       0x00000834      0x378 c:/Espressif/ESP8266_SDK/lib\libmain.a(ets_timer.o)
                                0x3a8 (size before relaxing)
 .xt.prop       0x00000bac      0x240 c:/Espressif/ESP8266_SDK/lib\libmain.a(mem_manager.o)
                                0x27c (size before relaxing)
 .xt.prop       0x00000dec      0x180 c:/Espressif/ESP8266_SDK/lib\libmain.a(spi_flash.o)
                                0x18c (size before relaxing)
 .xt.prop       0x00000f6c     0x2c7c c:/Espressif/ESP8266_SDK/lib\libmain.a(user_interface.o)
                               0x2df0 (size before relaxing)
 .xt.prop       0x00003be8      0x804 c:/Espressif/ESP8266_SDK/lib\libmain.a(eagle_lib.o)
 .xt.prop       0x000043ec      0x258 c:/Espressif/ESP8266_SDK/lib\libmain.a(eagle_lwip_if.o)
                                0x288 (size before relaxing)
 .xt.prop       0x00004644      0xb7c build/app_app.a(user_main.o)
                                0xc24 (size before relaxing)
 .xt.prop       0x000051c0      0x57c build/app_app.a(mqtt.o)
 .xt.prop       0x0000573c       0x6c build/app_app.a(wifi.o)
                                 0xa8 (size before relaxing)
 .xt.prop       0x000057a8       0x84 build/app_app.a(config.o)
 .xt.prop       0x0000582c      0x438 build/app_app.a(easygpio.o)
 .xt.prop       0x00005c64      0x228 build/app_app.a(dht22.o)
                                0x240 (size before relaxing)
 .xt.prop       0x00005e8c       0x60 build/app_app.a(stdout.o)
 .xt.prop       0x00005eec      0x174 build/app_app.a(utils.o)
 .xt.prop       0x00006060       0x90 build/app_app.a(queue.o)
 .xt.prop       0x000060f0      0x684 build/app_app.a(mqtt_msg.o)
 .xt.prop       0x00006774       0xc0 build/app_app.a(ringbuf.o)
 .xt.prop       0x00006834      0x228 build/app_app.a(proto.o)
 .xt.prop       0x00006a5c       0x3c c:/espressif/xtensa-lx106-elf/bin/../lib/gcc/xtensa-lx106-elf/4.8.2/../../../../xtensa-lx106-elf/lib\libc.a(lib_a-atoi.o)
                                 0x48 (size before relaxing)
 .xt.prop       0x00006a98       0x30 c:/espressif/xtensa-lx106-elf/bin/../lib/gcc/xtensa-lx106-elf/4.8.2/../../../../xtensa-lx106-elf/lib\libc.a(lib_a-lcltime.o)
 .xt.prop       0x00006ac8       0x24 c:/espressif/xtensa-lx106-elf/bin/../lib/gcc/xtensa-lx106-elf/4.8.2/../../../../xtensa-lx106-elf/lib\libc.a(lib_a-lcltime_r.o)
                                 0x30 (size before relaxing)
 .xt.prop       0x00006aec      0x174 c:/espressif/xtensa-lx106-elf/bin/../lib/gcc/xtensa-lx106-elf/4.8.2/../../../../xtensa-lx106-elf/lib\libc.a(lib_a-memcpy.o)
 .xt.prop       0x00006c60      0x348 c:/espressif/xtensa-lx106-elf/bin/../lib/gcc/xtensa-lx106-elf/4.8.2/../../../../xtensa-lx106-elf/lib\libc.a(lib_a-mktm_r.o)
                                0x354 (size before relaxing)
 .xt.prop       0x00006fa8      0x108 c:/espressif/xtensa-lx106-elf/bin/../lib/gcc/xtensa-lx106-elf/4.8.2/../../../../xtensa-lx106-elf/lib\libc.a(lib_a-strcmp.o)
 .xt.prop       0x000070b0       0xa8 c:/espressif/xtensa-lx106-elf/bin/../lib/gcc/xtensa-lx106-elf/4.8.2/../../../../xtensa-lx106-elf/lib\libc.a(lib_a-strlen.o)
                                 0xb4 (size before relaxing)
 .xt.prop       0x00007158      0x180 c:/espressif/xtensa-lx106-elf/bin/../lib/gcc/xtensa-lx106-elf/4.8.2/../../../../xtensa-lx106-elf/lib\libc.a(lib_a-strtol.o)
 .xt.prop       0x000072d8       0x3c c:/espressif/xtensa-lx106-elf/bin/../lib/gcc/xtensa-lx106-elf/4.8.2/../../../../xtensa-lx106-elf/lib\libc.a(lib_a-tzlock.o)
 .xt.prop       0x00007314        0xc c:/espressif/xtensa-lx106-elf/bin/../lib/gcc/xtensa-lx106-elf/4.8.2/../../../../xtensa-lx106-elf/lib\libc.a(lib_a-tzvars.o)
 .xt.prop       0x00007320       0x18 c:/espressif/xtensa-lx106-elf/bin/../lib/gcc/xtensa-lx106-elf/4.8.2/../../../../xtensa-lx106-elf/lib\libc.a(lib_a-ctype_.o)
 .xt.prop       0x00007338       0x3c c:/espressif/xtensa-lx106-elf/bin/../lib/gcc/xtensa-lx106-elf/4.8.2/../../../../xtensa-lx106-elf/lib\libc.a(lib_a-gettzinfo.o)
 .xt.prop       0x00007374       0x24 c:/espressif/xtensa-lx106-elf/bin/../lib/gcc/xtensa-lx106-elf/4.8.2/../../../../xtensa-lx106-elf/lib\libc.a(lib_a-impure.o)
 .xt.prop       0x00007398       0x9c c:/espressif/xtensa-lx106-elf/bin/../lib/gcc/xtensa-lx106-elf/4.8.2\libgcc.a(_divsi3.o)
 .xt.prop       0x00007434       0x84 c:/espressif/xtensa-lx106-elf/bin/../lib/gcc/xtensa-lx106-elf/4.8.2\libgcc.a(_modsi3.o)
 .xt.prop       0x000074b8       0x9c c:/espressif/xtensa-lx106-elf/bin/../lib/gcc/xtensa-lx106-elf/4.8.2\libgcc.a(_udivsi3.o)
 .xt.prop       0x00007554       0x78 c:/espressif/xtensa-lx106-elf/bin/../lib/gcc/xtensa-lx106-elf/4.8.2\libgcc.a(_umodsi3.o)
 .xt.prop       0x000075cc      0x2e8 c:/espressif/xtensa-lx106-elf/bin/../lib/gcc/xtensa-lx106-elf/4.8.2\libgcc.a(_addsubsf3.o)
 .xt.prop       0x000078b4      0x15c c:/espressif/xtensa-lx106-elf/bin/../lib/gcc/xtensa-lx106-elf/4.8.2\libgcc.a(_mulsf3.o)
                                0x168 (size before relaxing)
 .xt.prop       0x00007a10      0x15c c:/espressif/xtensa-lx106-elf/bin/../lib/gcc/xtensa-lx106-elf/4.8.2\libgcc.a(_divsf3.o)
                                0x168 (size before relaxing)
 .xt.prop       0x00007b6c      0x27c c:/espressif/xtensa-lx106-elf/bin/../lib/gcc/xtensa-lx106-elf/4.8.2\libgcc.a(_cmpsf2.o)
                                0x288 (size before relaxing)
 .xt.prop       0x00007de8       0x60 c:/espressif/xtensa-lx106-elf/bin/../lib/gcc/xtensa-lx106-elf/4.8.2\libgcc.a(_fixsfsi.o)
                                 0x6c (size before relaxing)
 .xt.prop       0x00007e48       0x60 c:/espressif/xtensa-lx106-elf/bin/../lib/gcc/xtensa-lx106-elf/4.8.2\libgcc.a(_floatsisf.o)
 .xt.prop       0x00007ea8       0x24 c:/espressif/xtensa-lx106-elf/bin/../lib/gcc/xtensa-lx106-elf/4.8.2\libgcc.a(_muldi3.o)
                                 0x30 (size before relaxing)
 .xt.prop       0x00007ecc       0x3c c:/espressif/xtensa-lx106-elf/bin/../lib/gcc/xtensa-lx106-elf/4.8.2\libgcc.a(_umulsidi3.o)
 .xt.prop       0x00007f08       0x24 c:/espressif/xtensa-lx106-elf/bin/../lib/gcc/xtensa-lx106-elf/4.8.2/../../../../xtensa-lx106-elf/lib\libhal.a(int_asm--set_intclear.o)
 .xt.prop       0x00007f2c      0x1d4 c:/Espressif/ESP8266_SDK/lib\libphy.a(phy.o)
                                0x1e0 (size before relaxing)
 .xt.prop       0x00008100      0xd5c c:/Espressif/ESP8266_SDK/lib\libphy.a(phy_chip_v6_ana.o)
 .xt.prop       0x00008e5c     0x1db8 c:/Espressif/ESP8266_SDK/lib\libphy.a(phy_chip_v6.o)
                               0x1fb0 (size before relaxing)
 .xt.prop       0x0000ac14      0xf30 c:/Espressif/ESP8266_SDK/lib\libphy.a(phy_chip_v6_cal.o)
                                0xf84 (size before relaxing)
 .xt.prop       0x0000bb44      0x1a4 c:/Espressif/ESP8266_SDK/lib\libphy.a(phy_chip_v6_unused.o)
                                0x1b0 (size before relaxing)
 .xt.prop       0x0000bce8      0x870 c:/Espressif/ESP8266_SDK/lib\libphy.a(phy_sleep.o)
                                0x8c4 (size before relaxing)
 .xt.prop       0x0000c558      0x4c8 c:/Espressif/ESP8266_SDK/lib\libpp.a(if_hwctrl.o)
                                0x4e0 (size before relaxing)
 .xt.prop       0x0000ca20     0x1440 c:/Espressif/ESP8266_SDK/lib\libpp.a(lmac.o)
                               0x1494 (size before relaxing)
 .xt.prop       0x0000de60     0x1668 c:/Espressif/ESP8266_SDK/lib\libpp.a(pm.o)
                               0x1740 (size before relaxing)
 .xt.prop       0x0000f4c8      0x984 c:/Espressif/ESP8266_SDK/lib\libpp.a(pm_for_bcn_only_mode.o)
                                0x99c (size before relaxing)
 .xt.prop       0x0000fe4c     0x1764 c:/Espressif/ESP8266_SDK/lib\libpp.a(pp.o)
                               0x18a8 (size before relaxing)
 .xt.prop       0x000115b0      0x1bc c:/Espressif/ESP8266_SDK/lib\libpp.a(rate_control.o)
                                0x1d4 (size before relaxing)
 .xt.prop       0x0001176c      0xe1c c:/Espressif/ESP8266_SDK/lib\libpp.a(trc.o)
                                0xe7c (size before relaxing)
 .xt.prop       0x00012588     0x126c c:/Espressif/ESP8266_SDK/lib\libpp.a(wdev.o)
                               0x1344 (size before relaxing)
 .xt.prop       0x000137f4      0x270 c:/Espressif/ESP8266_SDK/lib\libpp.a(esf_buf.o)
                                0x2d0 (size before relaxing)
 .xt.prop       0x00013a64      0x3e4 c:/Espressif/ESP8266_SDK/lib\libnet80211.a(ieee80211.o)
                                0x414 (size before relaxing)
 .xt.prop       0x00013e48      0x138 c:/Espressif/ESP8266_SDK/lib\libnet80211.a(ieee80211_crypto.o)
 .xt.prop       0x00013f80       0x48 c:/Espressif/ESP8266_SDK/lib\libnet80211.a(ieee80211_ets.o)
 .xt.prop       0x00013fc8      0xbe8 c:/Espressif/ESP8266_SDK/lib\libnet80211.a(ieee80211_hostap.o)
                                0xc9c (size before relaxing)
 .xt.prop       0x00014bb0      0x684 c:/Espressif/ESP8266_SDK/lib\libnet80211.a(ieee80211_ht.o)
                                0x690 (size before relaxing)
 .xt.prop       0x00015234      0x870 c:/Espressif/ESP8266_SDK/lib\libnet80211.a(ieee80211_input.o)
 .xt.prop       0x00015aa4      0xd68 c:/Espressif/ESP8266_SDK/lib\libnet80211.a(ieee80211_output.o)
                                0xd80 (size before relaxing)
 .xt.prop       0x0001680c      0x27c c:/Espressif/ESP8266_SDK/lib\libnet80211.a(ieee80211_phy.o)
 .xt.prop       0x00016a88      0x1bc c:/Espressif/ESP8266_SDK/lib\libnet80211.a(ieee80211_power.o)
 .xt.prop       0x00016c44      0x1d4 c:/Espressif/ESP8266_SDK/lib\libnet80211.a(ieee80211_proto.o)
                                0x1e0 (size before relaxing)
 .xt.prop       0x00016e18      0xb58 c:/Espressif/ESP8266_SDK/lib\libnet80211.a(ieee80211_scan.o)
                                0xbf4 (size before relaxing)
 .xt.prop       0x00017970      0x8f4 c:/Espressif/ESP8266_SDK/lib\libnet80211.a(ieee80211_sta.o)
 .xt.prop       0x00018264      0x2d0 c:/Espressif/ESP8266_SDK/lib\libnet80211.a(wl_chm.o)
                                0x2dc (size before relaxing)
 .xt.prop       0x00018534      0xf00 c:/Espressif/ESP8266_SDK/lib\libnet80211.a(wl_cnx.o)
                                0xf3c (size before relaxing)
 .xt.prop       0x00019434      0x33c c:/Espressif/ESP8266_SDK/lib\libnet80211.a(ieee80211_action.o)
 .xt.prop       0x00019770      0x348 c:/Espressif/ESP8266_SDK/lib\libnet80211.a(ieee80211_action_vendor.o)
                                0x360 (size before relaxing)
 .xt.prop       0x00019ab8       0xcc c:/Espressif/ESP8266_SDK/lib\libnet80211.a(ieee80211_crypto_ccmp.o)
                                 0xd8 (size before relaxing)
 .xt.prop       0x00019b84       0xf0 c:/Espressif/ESP8266_SDK/lib\libnet80211.a(ieee80211_ie_vendor.o)
 .xt.prop       0x00019c74      0xd68 c:/Espressif/ESP8266_SDK/lib\liblwip.a(dhcp.o)
                                0xd8c (size before relaxing)
 .xt.prop       0x0001a9dc      0x720 c:/Espressif/ESP8266_SDK/lib\liblwip.a(dhcpserver.o)
                                0x7a4 (size before relaxing)
 .xt.prop       0x0001b0fc      0x414 c:/Espressif/ESP8266_SDK/lib\liblwip.a(dns.o)
                                0x480 (size before relaxing)
 .xt.prop       0x0001b510      0xcb4 c:/Espressif/ESP8266_SDK/lib\liblwip.a(espconn.o)
                                0xd08 (size before relaxing)
 .xt.prop       0x0001c1c4      0xca8 c:/Espressif/ESP8266_SDK/lib\liblwip.a(espconn_tcp.o)
                                0xcb4 (size before relaxing)
 .xt.prop       0x0001ce6c      0x39c c:/Espressif/ESP8266_SDK/lib\liblwip.a(espconn_udp.o)
 .xt.prop       0x0001d208      0x708 c:/Espressif/ESP8266_SDK/lib\liblwip.a(etharp.o)
                                0x744 (size before relaxing)
 .xt.prop       0x0001d910      0x618 c:/Espressif/ESP8266_SDK/lib\liblwip.a(igmp.o)
                                0x63c (size before relaxing)
 .xt.prop       0x0001df28      0x168 c:/Espressif/ESP8266_SDK/lib\liblwip.a(inet_chksum.o)
 .xt.prop       0x0001e090       0x24 c:/Espressif/ESP8266_SDK/lib\liblwip.a(init.o)
 .xt.prop       0x0001e0b4      0x318 c:/Espressif/ESP8266_SDK/lib\liblwip.a(ip_addr.o)
                                0x33c (size before relaxing)
 .xt.prop       0x0001e3cc      0x438 c:/Espressif/ESP8266_SDK/lib\liblwip.a(ip.o)
                                0x480 (size before relaxing)
 .xt.prop       0x0001e804      0x8b8 c:/Espressif/ESP8266_SDK/lib\liblwip.a(mdns.o)
                                0x9cc (size before relaxing)
 .xt.prop       0x0001f0bc        0x0 c:/Espressif/ESP8266_SDK/lib\liblwip.a(memp.o)
                                 0x18 (size before relaxing)
 .xt.prop       0x0001f0bc      0x330 c:/Espressif/ESP8266_SDK/lib\liblwip.a(netif.o)
                                0x354 (size before relaxing)
 .xt.prop       0x0001f3ec      0x720 c:/Espressif/ESP8266_SDK/lib\liblwip.a(pbuf.o)
 .xt.prop       0x0001fb0c      0x294 c:/Espressif/ESP8266_SDK/lib\liblwip.a(raw.o)
                                0x2a0 (size before relaxing)
 .xt.prop       0x0001fda0      0xa80 c:/Espressif/ESP8266_SDK/lib\liblwip.a(tcp_in.o)
                                0xb04 (size before relaxing)
 .xt.prop       0x00020820      0xcc0 c:/Espressif/ESP8266_SDK/lib\liblwip.a(tcp.o)
                                0xd20 (size before relaxing)
 .xt.prop       0x000214e0      0x8b8 c:/Espressif/ESP8266_SDK/lib\liblwip.a(tcp_out.o)
 .xt.prop       0x00021d98      0x354 c:/Espressif/ESP8266_SDK/lib\liblwip.a(timers.o)
                                0x378 (size before relaxing)
 .xt.prop       0x000220ec      0x5a0 c:/Espressif/ESP8266_SDK/lib\liblwip.a(udp.o)
                                0x5ac (size before relaxing)
 .xt.prop       0x0002268c      0x114 c:/Espressif/ESP8266_SDK/lib\liblwip.a(icmp.o)
 .xt.prop       0x000227a0      0x2e8 c:/Espressif/ESP8266_SDK/lib\libwpa.a(ap_config.o)
 .xt.prop       0x00022a88      0x1c8 c:/Espressif/ESP8266_SDK/lib\libwpa.a(common.o)
 .xt.prop       0x00022c50       0xf0 c:/Espressif/ESP8266_SDK/lib\libwpa.a(os_xtensa.o)
 .xt.prop       0x00022d40     0x15d8 c:/Espressif/ESP8266_SDK/lib\libwpa.a(wpa_auth.o)
 .xt.prop       0x00024318      0x480 c:/Espressif/ESP8266_SDK/lib\libwpa.a(wpa_auth_ie.o)
 .xt.prop       0x00024798      0xd68 c:/Espressif/ESP8266_SDK/lib\libwpa.a(wpa.o)
                                0xd80 (size before relaxing)
 .xt.prop       0x00025500      0x78c c:/Espressif/ESP8266_SDK/lib\libwpa.a(wpa_common.o)
                                0x798 (size before relaxing)
 .xt.prop       0x00025c8c       0xc0 c:/Espressif/ESP8266_SDK/lib\libwpa.a(wpa_debug.o)
 .xt.prop       0x00025d4c      0x378 c:/Espressif/ESP8266_SDK/lib\libwpa.a(wpa_ie.o)
 .xt.prop       0x000260c4      0x330 c:/Espressif/ESP8266_SDK/lib\libwpa.a(wpa_main.o)
 .xt.prop       0x000263f4      0x12c c:/Espressif/ESP8266_SDK/lib\libwpa.a(wpas_glue.o)
 .xt.prop       0x00026520       0x6c c:/Espressif/ESP8266_SDK/lib\libwpa.a(aes-wrap.o)
 .xt.prop       0x0002658c       0xd8 c:/Espressif/ESP8266_SDK/lib\libwpa.a(aes-internal-enc.o)
 .xt.prop       0x00026664      0x360 c:/Espressif/ESP8266_SDK/lib\libssl.a(espconn_secure.o)
                                0x36c (size before relaxing)
 .xt.prop       0x000269c4      0xd68 c:/Espressif/ESP8266_SDK/lib\libssl.a(espconn_ssl.o)
                                0xda4 (size before relaxing)
 .xt.prop       0x0002772c      0x3cc c:/Espressif/ESP8266_SDK/lib\libssl.a(ssl_loader.o)
                                0x3e4 (size before relaxing)
 .xt.prop       0x00027af8      0x15c c:/Espressif/ESP8266_SDK/lib\libssl.a(ssl_md5.o)
                                0x168 (size before relaxing)
 .xt.prop       0x00027c54      0x2f4 c:/Espressif/ESP8266_SDK/lib\libssl.a(ssl_tls1_clnt.o)
 .xt.prop       0x00027f48     0x1278 c:/Espressif/ESP8266_SDK/lib\libssl.a(ssl_tls1.o)
                               0x1284 (size before relaxing)
 .xt.prop       0x000291c0      0x360 c:/Espressif/ESP8266_SDK/lib\libssl.a(ssl_tls1_svr.o)
 .xt.prop       0x00029520      0x504 c:/Espressif/ESP8266_SDK/lib\libssl.a(ssl_x509.o)
 .xt.prop       0x00029a24      0x300 c:/Espressif/ESP8266_SDK/lib\libssl.a(ssl_aes.o)
                                0x30c (size before relaxing)
 .xt.prop       0x00029d24      0x69c c:/Espressif/ESP8266_SDK/lib\libssl.a(ssl_asn1.o)
 .xt.prop       0x0002a3c0      0xc0c c:/Espressif/ESP8266_SDK/lib\libssl.a(ssl_bigint.o)
 .xt.prop       0x0002afcc      0x210 c:/Espressif/ESP8266_SDK/lib\libssl.a(ssl_crypto_misc.o)
                                0x228 (size before relaxing)
 .xt.prop       0x0002b1dc       0x60 c:/Espressif/ESP8266_SDK/lib\libssl.a(ssl_hmac.o)
 .xt.prop       0x0002b23c      0x138 c:/Espressif/ESP8266_SDK/lib\libssl.a(ssl_md2.o)
                                0x144 (size before relaxing)
 .xt.prop       0x0002b374       0x24 c:/Espressif/ESP8266_SDK/lib\libssl.a(ssl_os_port.o)
 .xt.prop       0x0002b398       0x6c c:/Espressif/ESP8266_SDK/lib\libssl.a(ssl_rc4.o)
 .xt.prop       0x0002b404      0x228 c:/Espressif/ESP8266_SDK/lib\libssl.a(ssl_rsa.o)
 .xt.prop       0x0002b62c      0x174 c:/Espressif/ESP8266_SDK/lib\libssl.a(ssl_sha1.o)
                                0x180 (size before relaxing)
 .xt.prop       0x0002b7a0      0x774 c:/Espressif/ESP8266_SDK/lib\libsmartconfig.a(sc_sniffer.o)
                                0x7c8 (size before relaxing)
 .xt.prop       0x0002bf14     0x1af4 c:/Espressif/ESP8266_SDK/lib\libsmartconfig.a(sc_airkiss.o)
                               0x1b84 (size before relaxing)
 .xt.prop       0x0002da08     0x1050 c:/Espressif/ESP8266_SDK/lib\libsmartconfig.a(sc_esptouch.o)
                               0x10e0 (size before relaxing)
 .xt.prop       0x0002ea58       0x90 c:/espressif/xtensa-lx106-elf/bin/../lib/gcc/xtensa-lx106-elf/4.8.2/../../../../xtensa-lx106-elf/lib\libc.a(lib_a-memcmp.o)
 .xt.prop       0x0002eae8       0x3c c:/espressif/xtensa-lx106-elf/bin/../lib/gcc/xtensa-lx106-elf/4.8.2\libgcc.a(_ashrdi3.o)
 .xt.prop       0x0002eb24       0x9c c:/espressif/xtensa-lx106-elf/bin/../lib/gcc/xtensa-lx106-elf/4.8.2\libgcc.a(_fixunssfsi.o)
                                 0xa8 (size before relaxing)
 .xt.prop       0x0002ebc0      0x294 c:/espressif/xtensa-lx106-elf/bin/../lib/gcc/xtensa-lx106-elf/4.8.2\libgcc.a(_muldf3.o)
 .xt.prop       0x0002ee54      0x258 c:/espressif/xtensa-lx106-elf/bin/../lib/gcc/xtensa-lx106-elf/4.8.2\libgcc.a(_divdf3.o)
                                0x264 (size before relaxing)
 .xt.prop       0x0002f0ac       0x60 c:/espressif/xtensa-lx106-elf/bin/../lib/gcc/xtensa-lx106-elf/4.8.2\libgcc.a(_fixdfsi.o)
                                 0x6c (size before relaxing)
 .xt.prop       0x0002f10c       0x54 c:/espressif/xtensa-lx106-elf/bin/../lib/gcc/xtensa-lx106-elf/4.8.2\libgcc.a(_floatsidf.o)
 .xt.prop       0x0002f160       0xb4 c:/espressif/xtensa-lx106-elf/bin/../lib/gcc/xtensa-lx106-elf/4.8.2\libgcc.a(_truncdfsf2.o)
 .xt.prop       0x0002f214       0x3c c:/espressif/xtensa-lx106-elf/bin/../lib/gcc/xtensa-lx106-elf/4.8.2\libgcc.a(_popcountsi2.o)
 .xt.prop       0x0002f250      0x1f8 c:/espressif/xtensa-lx106-elf/bin/../lib/gcc/xtensa-lx106-elf/4.8.2\libgcc.a(_divdi3.o)
                                0x204 (size before relaxing)
 .xt.prop       0x0002f448      0x1d4 c:/espressif/xtensa-lx106-elf/bin/../lib/gcc/xtensa-lx106-elf/4.8.2\libgcc.a(_udivdi3.o)
                                0x1e0 (size before relaxing)
 .xt.prop       0x0002f61c      0x144 c:/espressif/xtensa-lx106-elf/bin/../lib/gcc/xtensa-lx106-elf/4.8.2\libgcc.a(_umoddi3.o)
                                0x150 (size before relaxing)
 .xt.prop       0x0002f760        0xc c:/espressif/xtensa-lx106-elf/bin/../lib/gcc/xtensa-lx106-elf/4.8.2\libgcc.a(_popcount_tab.o)
 .xt.prop       0x0002f76c       0xf0 c:/Espressif/ESP8266_SDK/lib\libnet80211.a(ieee80211_crypto_tkip.o)
                                0x108 (size before relaxing)
 .xt.prop       0x0002f85c       0x6c c:/Espressif/ESP8266_SDK/lib\libnet80211.a(ieee80211_crypto_wep.o)
                                 0x78 (size before relaxing)

.xt.lit         0x00000000     0x1528
 .xt.lit        0x00000000        0x8 c:/Espressif/ESP8266_SDK/lib\libmain.a(nmi-vector.o)
                                 0x10 (size before relaxing)
 .xt.lit        0x00000008        0x8 c:/Espressif/ESP8266_SDK/lib\libmain.a(user-vector.o)
                                 0x10 (size before relaxing)
 .xt.lit        0x00000010        0x8 c:/Espressif/ESP8266_SDK/lib\libmain.a(vector.o)
 .xt.lit        0x00000018       0x88 c:/Espressif/ESP8266_SDK/lib\libmain.a(app_main.o)
 .xt.lit        0x000000a0       0x40 c:/Espressif/ESP8266_SDK/lib\libmain.a(ets_timer.o)
                                 0x48 (size before relaxing)
 .xt.lit        0x000000e0       0x20 c:/Espressif/ESP8266_SDK/lib\libmain.a(mem_manager.o)
                                 0x38 (size before relaxing)
 .xt.lit        0x00000100       0x38 c:/Espressif/ESP8266_SDK/lib\libmain.a(spi_flash.o)
 .xt.lit        0x00000138      0x1b0 c:/Espressif/ESP8266_SDK/lib\libmain.a(user_interface.o)
                                0x3b0 (size before relaxing)
 .xt.lit        0x000002e8       0x18 c:/Espressif/ESP8266_SDK/lib\libmain.a(eagle_lib.o)
 .xt.lit        0x00000300        0x8 c:/Espressif/ESP8266_SDK/lib\libmain.a(eagle_lwip_if.o)
                                 0x28 (size before relaxing)
 .xt.lit        0x00000308       0xb8 build/app_app.a(user_main.o)
                                0x118 (size before relaxing)
 .xt.lit        0x000003c0       0x20 build/app_app.a(mqtt.o)
                                 0x78 (size before relaxing)
 .xt.lit        0x000003e0       0x10 build/app_app.a(wifi.o)
 .xt.lit        0x000003f0       0x10 build/app_app.a(config.o)
 .xt.lit        0x00000400       0x38 build/app_app.a(easygpio.o)
                                 0x40 (size before relaxing)
 .xt.lit        0x00000438       0x30 build/app_app.a(dht22.o)
 .xt.lit        0x00000468       0x10 build/app_app.a(stdout.o)
 .xt.lit        0x00000478        0x0 build/app_app.a(queue.o)
                                 0x18 (size before relaxing)
 .xt.lit        0x00000478        0x8 build/app_app.a(mqtt_msg.o)
                                 0x28 (size before relaxing)
 .xt.lit        0x00000480        0x0 build/app_app.a(proto.o)
                                 0x10 (size before relaxing)
 .xt.lit        0x00000480        0x0 c:/espressif/xtensa-lx106-elf/bin/../lib/gcc/xtensa-lx106-elf/4.8.2/../../../../xtensa-lx106-elf/lib\libc.a(lib_a-atoi.o)
                                  0x8 (size before relaxing)
 .xt.lit        0x00000480        0x8 c:/espressif/xtensa-lx106-elf/bin/../lib/gcc/xtensa-lx106-elf/4.8.2/../../../../xtensa-lx106-elf/lib\libc.a(lib_a-lcltime.o)
 .xt.lit        0x00000488        0x0 c:/espressif/xtensa-lx106-elf/bin/../lib/gcc/xtensa-lx106-elf/4.8.2/../../../../xtensa-lx106-elf/lib\libc.a(lib_a-lcltime_r.o)
                                  0x8 (size before relaxing)
 .xt.lit        0x00000488        0x8 c:/espressif/xtensa-lx106-elf/bin/../lib/gcc/xtensa-lx106-elf/4.8.2/../../../../xtensa-lx106-elf/lib\libc.a(lib_a-mktm_r.o)
 .xt.lit        0x00000490        0x8 c:/espressif/xtensa-lx106-elf/bin/../lib/gcc/xtensa-lx106-elf/4.8.2/../../../../xtensa-lx106-elf/lib\libc.a(lib_a-strcmp.o)
 .xt.lit        0x00000498        0x0 c:/espressif/xtensa-lx106-elf/bin/../lib/gcc/xtensa-lx106-elf/4.8.2/../../../../xtensa-lx106-elf/lib\libc.a(lib_a-strlen.o)
                                  0x8 (size before relaxing)
 .xt.lit        0x00000498        0x8 c:/espressif/xtensa-lx106-elf/bin/../lib/gcc/xtensa-lx106-elf/4.8.2/../../../../xtensa-lx106-elf/lib\libc.a(lib_a-strtol.o)
 .xt.lit        0x000004a0        0x8 c:/espressif/xtensa-lx106-elf/bin/../lib/gcc/xtensa-lx106-elf/4.8.2/../../../../xtensa-lx106-elf/lib\libc.a(lib_a-gettzinfo.o)
 .xt.lit        0x000004a8        0x8 c:/espressif/xtensa-lx106-elf/bin/../lib/gcc/xtensa-lx106-elf/4.8.2\libgcc.a(_addsubsf3.o)
 .xt.lit        0x000004b0        0x0 c:/espressif/xtensa-lx106-elf/bin/../lib/gcc/xtensa-lx106-elf/4.8.2\libgcc.a(_mulsf3.o)
                                  0x8 (size before relaxing)
 .xt.lit        0x000004b0        0x0 c:/espressif/xtensa-lx106-elf/bin/../lib/gcc/xtensa-lx106-elf/4.8.2\libgcc.a(_divsf3.o)
                                  0x8 (size before relaxing)
 .xt.lit        0x000004b0        0x0 c:/espressif/xtensa-lx106-elf/bin/../lib/gcc/xtensa-lx106-elf/4.8.2\libgcc.a(_cmpsf2.o)
                                  0x8 (size before relaxing)
 .xt.lit        0x000004b0        0x0 c:/espressif/xtensa-lx106-elf/bin/../lib/gcc/xtensa-lx106-elf/4.8.2\libgcc.a(_fixsfsi.o)
                                  0x8 (size before relaxing)
 .xt.lit        0x000004b0        0x0 c:/espressif/xtensa-lx106-elf/bin/../lib/gcc/xtensa-lx106-elf/4.8.2\libgcc.a(_muldi3.o)
                                  0x8 (size before relaxing)
 .xt.lit        0x000004b0       0x10 c:/Espressif/ESP8266_SDK/lib\libphy.a(phy.o)
                                 0x68 (size before relaxing)
 .xt.lit        0x000004c0       0x90 c:/Espressif/ESP8266_SDK/lib\libphy.a(phy_chip_v6_ana.o)
                                 0xc0 (size before relaxing)
 .xt.lit        0x00000550      0x130 c:/Espressif/ESP8266_SDK/lib\libphy.a(phy_chip_v6.o)
                                0x1f0 (size before relaxing)
 .xt.lit        0x00000680       0x80 c:/Espressif/ESP8266_SDK/lib\libphy.a(phy_chip_v6_cal.o)
                                 0xe0 (size before relaxing)
 .xt.lit        0x00000700       0x20 c:/Espressif/ESP8266_SDK/lib\libphy.a(phy_chip_v6_unused.o)
                                 0x28 (size before relaxing)
 .xt.lit        0x00000720       0x68 c:/Espressif/ESP8266_SDK/lib\libphy.a(phy_sleep.o)
                                 0xd8 (size before relaxing)
 .xt.lit        0x00000788       0x30 c:/Espressif/ESP8266_SDK/lib\libpp.a(if_hwctrl.o)
                                 0x98 (size before relaxing)
 .xt.lit        0x000007b8       0x60 c:/Espressif/ESP8266_SDK/lib\libpp.a(lmac.o)
                                0x110 (size before relaxing)
 .xt.lit        0x00000818       0xf0 c:/Espressif/ESP8266_SDK/lib\libpp.a(pm.o)
                                0x198 (size before relaxing)
 .xt.lit        0x00000908       0x60 c:/Espressif/ESP8266_SDK/lib\libpp.a(pm_for_bcn_only_mode.o)
                                 0x90 (size before relaxing)
 .xt.lit        0x00000968       0xe0 c:/Espressif/ESP8266_SDK/lib\libpp.a(pp.o)
                                0x198 (size before relaxing)
 .xt.lit        0x00000a48       0x18 c:/Espressif/ESP8266_SDK/lib\libpp.a(rate_control.o)
                                 0x38 (size before relaxing)
 .xt.lit        0x00000a60       0x50 c:/Espressif/ESP8266_SDK/lib\libpp.a(trc.o)
                                 0xa0 (size before relaxing)
 .xt.lit        0x00000ab0       0xe8 c:/Espressif/ESP8266_SDK/lib\libpp.a(wdev.o)
                                0x198 (size before relaxing)
 .xt.lit        0x00000b98       0x18 c:/Espressif/ESP8266_SDK/lib\libpp.a(esf_buf.o)
                                 0x20 (size before relaxing)
 .xt.lit        0x00000bb0       0x18 c:/Espressif/ESP8266_SDK/lib\libnet80211.a(ieee80211.o)
                                 0x30 (size before relaxing)
 .xt.lit        0x00000bc8        0x0 c:/Espressif/ESP8266_SDK/lib\libnet80211.a(ieee80211_crypto.o)
                                 0x10 (size before relaxing)
 .xt.lit        0x00000bc8        0x8 c:/Espressif/ESP8266_SDK/lib\libnet80211.a(ieee80211_ets.o)
 .xt.lit        0x00000bd0       0x60 c:/Espressif/ESP8266_SDK/lib\libnet80211.a(ieee80211_hostap.o)
                                 0x78 (size before relaxing)
 .xt.lit        0x00000c30       0x48 c:/Espressif/ESP8266_SDK/lib\libnet80211.a(ieee80211_ht.o)
                                 0x68 (size before relaxing)
 .xt.lit        0x00000c78       0x30 c:/Espressif/ESP8266_SDK/lib\libnet80211.a(ieee80211_input.o)
                                 0x60 (size before relaxing)
 .xt.lit        0x00000ca8       0x38 c:/Espressif/ESP8266_SDK/lib\libnet80211.a(ieee80211_output.o)
                                 0x88 (size before relaxing)
 .xt.lit        0x00000ce0       0x10 c:/Espressif/ESP8266_SDK/lib\libnet80211.a(ieee80211_phy.o)
                                 0x38 (size before relaxing)
 .xt.lit        0x00000cf0        0x8 c:/Espressif/ESP8266_SDK/lib\libnet80211.a(ieee80211_power.o)
                                 0x20 (size before relaxing)
 .xt.lit        0x00000cf8       0x18 c:/Espressif/ESP8266_SDK/lib\libnet80211.a(ieee80211_proto.o)
                                 0x20 (size before relaxing)
 .xt.lit        0x00000d10       0x50 c:/Espressif/ESP8266_SDK/lib\libnet80211.a(ieee80211_scan.o)
                                 0xd8 (size before relaxing)
 .xt.lit        0x00000d60       0x10 c:/Espressif/ESP8266_SDK/lib\libnet80211.a(ieee80211_sta.o)
                                 0x50 (size before relaxing)
 .xt.lit        0x00000d70       0x20 c:/Espressif/ESP8266_SDK/lib\libnet80211.a(wl_chm.o)
                                 0x60 (size before relaxing)
 .xt.lit        0x00000d90       0x88 c:/Espressif/ESP8266_SDK/lib\libnet80211.a(wl_cnx.o)
                                 0xf8 (size before relaxing)
 .xt.lit        0x00000e18       0x20 c:/Espressif/ESP8266_SDK/lib\libnet80211.a(ieee80211_action.o)
                                 0x30 (size before relaxing)
 .xt.lit        0x00000e38       0x20 c:/Espressif/ESP8266_SDK/lib\libnet80211.a(ieee80211_action_vendor.o)
                                 0x50 (size before relaxing)
 .xt.lit        0x00000e58        0x0 c:/Espressif/ESP8266_SDK/lib\libnet80211.a(ieee80211_crypto_ccmp.o)
                                  0x8 (size before relaxing)
 .xt.lit        0x00000e58        0x8 c:/Espressif/ESP8266_SDK/lib\libnet80211.a(ieee80211_ie_vendor.o)
                                 0x30 (size before relaxing)
 .xt.lit        0x00000e60       0x40 c:/Espressif/ESP8266_SDK/lib\liblwip.a(dhcp.o)
                                 0xc0 (size before relaxing)
 .xt.lit        0x00000ea0       0x30 c:/Espressif/ESP8266_SDK/lib\liblwip.a(dhcpserver.o)
                                 0x78 (size before relaxing)
 .xt.lit        0x00000ed0       0x20 c:/Espressif/ESP8266_SDK/lib\liblwip.a(dns.o)
                                 0x48 (size before relaxing)
 .xt.lit        0x00000ef0       0x20 c:/Espressif/ESP8266_SDK/lib\liblwip.a(espconn.o)
                                 0xb0 (size before relaxing)
 .xt.lit        0x00000f10       0x68 c:/Espressif/ESP8266_SDK/lib\liblwip.a(espconn_tcp.o)
                                 0xc0 (size before relaxing)
 .xt.lit        0x00000f78       0x10 c:/Espressif/ESP8266_SDK/lib\liblwip.a(espconn_udp.o)
                                 0x80 (size before relaxing)
 .xt.lit        0x00000f88       0x28 c:/Espressif/ESP8266_SDK/lib\liblwip.a(etharp.o)
                                 0x78 (size before relaxing)
 .xt.lit        0x00000fb0       0x10 c:/Espressif/ESP8266_SDK/lib\liblwip.a(igmp.o)
                                 0x70 (size before relaxing)
 .xt.lit        0x00000fc0        0x8 c:/Espressif/ESP8266_SDK/lib\liblwip.a(init.o)
 .xt.lit        0x00000fc8        0x8 c:/Espressif/ESP8266_SDK/lib\liblwip.a(ip_addr.o)
                                 0x20 (size before relaxing)
 .xt.lit        0x00000fd0       0x10 c:/Espressif/ESP8266_SDK/lib\liblwip.a(ip.o)
                                 0x20 (size before relaxing)
 .xt.lit        0x00000fe0       0x50 c:/Espressif/ESP8266_SDK/lib\liblwip.a(mdns.o)
                                 0x80 (size before relaxing)
 .xt.lit        0x00001030       0x10 c:/Espressif/ESP8266_SDK/lib\liblwip.a(netif.o)
                                 0x40 (size before relaxing)
 .xt.lit        0x00001040        0x8 c:/Espressif/ESP8266_SDK/lib\liblwip.a(pbuf.o)
                                 0x40 (size before relaxing)
 .xt.lit        0x00001048        0x8 c:/Espressif/ESP8266_SDK/lib\liblwip.a(raw.o)
                                 0x20 (size before relaxing)
 .xt.lit        0x00001050       0x18 c:/Espressif/ESP8266_SDK/lib\liblwip.a(tcp_in.o)
                                 0x30 (size before relaxing)
 .xt.lit        0x00001068       0x48 c:/Espressif/ESP8266_SDK/lib\liblwip.a(tcp.o)
                                 0xb0 (size before relaxing)
 .xt.lit        0x000010b0       0x20 c:/Espressif/ESP8266_SDK/lib\liblwip.a(tcp_out.o)
                                 0x68 (size before relaxing)
 .xt.lit        0x000010d0       0x40 c:/Espressif/ESP8266_SDK/lib\liblwip.a(timers.o)
                                 0x68 (size before relaxing)
 .xt.lit        0x00001110       0x10 c:/Espressif/ESP8266_SDK/lib\liblwip.a(udp.o)
                                 0x38 (size before relaxing)
 .xt.lit        0x00001120        0x8 c:/Espressif/ESP8266_SDK/lib\liblwip.a(icmp.o)
                                 0x10 (size before relaxing)
 .xt.lit        0x00001128        0x8 c:/Espressif/ESP8266_SDK/lib\libwpa.a(ap_config.o)
                                 0x40 (size before relaxing)
 .xt.lit        0x00001130        0x8 c:/Espressif/ESP8266_SDK/lib\libwpa.a(common.o)
                                 0x10 (size before relaxing)
 .xt.lit        0x00001138        0x0 c:/Espressif/ESP8266_SDK/lib\libwpa.a(os_xtensa.o)
                                 0x10 (size before relaxing)
 .xt.lit        0x00001138       0x70 c:/Espressif/ESP8266_SDK/lib\libwpa.a(wpa_auth.o)
                                0x100 (size before relaxing)
 .xt.lit        0x000011a8        0x8 c:/Espressif/ESP8266_SDK/lib\libwpa.a(wpa_auth_ie.o)
                                 0x38 (size before relaxing)
 .xt.lit        0x000011b0       0x40 c:/Espressif/ESP8266_SDK/lib\libwpa.a(wpa.o)
                                0x110 (size before relaxing)
 .xt.lit        0x000011f0       0x28 c:/Espressif/ESP8266_SDK/lib\libwpa.a(wpa_common.o)
                                 0x58 (size before relaxing)
 .xt.lit        0x00001218        0x8 c:/Espressif/ESP8266_SDK/lib\libwpa.a(wpa_debug.o)
 .xt.lit        0x00001220        0x0 c:/Espressif/ESP8266_SDK/lib\libwpa.a(wpa_ie.o)
                                 0x18 (size before relaxing)
 .xt.lit        0x00001220       0x10 c:/Espressif/ESP8266_SDK/lib\libwpa.a(wpa_main.o)
                                 0x48 (size before relaxing)
 .xt.lit        0x00001230        0x0 c:/Espressif/ESP8266_SDK/lib\libwpa.a(wpas_glue.o)
                                 0x10 (size before relaxing)
 .xt.lit        0x00001230        0x0 c:/Espressif/ESP8266_SDK/lib\libwpa.a(aes-wrap.o)
                                  0x8 (size before relaxing)
 .xt.lit        0x00001230       0x10 c:/Espressif/ESP8266_SDK/lib\libwpa.a(aes-internal-enc.o)
                                 0x18 (size before relaxing)
 .xt.lit        0x00001240        0x8 c:/Espressif/ESP8266_SDK/lib\libssl.a(espconn_secure.o)
                                 0x40 (size before relaxing)
 .xt.lit        0x00001248       0x58 c:/Espressif/ESP8266_SDK/lib\libssl.a(espconn_ssl.o)
                                 0xc0 (size before relaxing)
 .xt.lit        0x000012a0       0x28 c:/Espressif/ESP8266_SDK/lib\libssl.a(ssl_loader.o)
                                 0x40 (size before relaxing)
 .xt.lit        0x000012c8       0x18 c:/Espressif/ESP8266_SDK/lib\libssl.a(ssl_md5.o)
                                 0x20 (size before relaxing)
 .xt.lit        0x000012e0        0x8 c:/Espressif/ESP8266_SDK/lib\libssl.a(ssl_tls1_clnt.o)
                                 0x30 (size before relaxing)
 .xt.lit        0x000012e8       0x60 c:/Espressif/ESP8266_SDK/lib\libssl.a(ssl_tls1.o)
                                0x110 (size before relaxing)
 .xt.lit        0x00001348       0x18 c:/Espressif/ESP8266_SDK/lib\libssl.a(ssl_tls1_svr.o)
                                 0x48 (size before relaxing)
 .xt.lit        0x00001360       0x10 c:/Espressif/ESP8266_SDK/lib\libssl.a(ssl_x509.o)
                                 0x30 (size before relaxing)
 .xt.lit        0x00001370       0x18 c:/Espressif/ESP8266_SDK/lib\libssl.a(ssl_aes.o)
                                 0x30 (size before relaxing)
 .xt.lit        0x00001388       0x20 c:/Espressif/ESP8266_SDK/lib\libssl.a(ssl_asn1.o)
                                 0x68 (size before relaxing)
 .xt.lit        0x000013a8       0x20 c:/Espressif/ESP8266_SDK/lib\libssl.a(ssl_bigint.o)
                                 0xc8 (size before relaxing)
 .xt.lit        0x000013c8        0x8 c:/Espressif/ESP8266_SDK/lib\libssl.a(ssl_crypto_misc.o)
                                 0x20 (size before relaxing)
 .xt.lit        0x000013d0        0x0 c:/Espressif/ESP8266_SDK/lib\libssl.a(ssl_hmac.o)
                                 0x10 (size before relaxing)
 .xt.lit        0x000013d0        0x8 c:/Espressif/ESP8266_SDK/lib\libssl.a(ssl_md2.o)
                                 0x20 (size before relaxing)
 .xt.lit        0x000013d8        0x0 c:/Espressif/ESP8266_SDK/lib\libssl.a(ssl_os_port.o)
                                  0x8 (size before relaxing)
 .xt.lit        0x000013d8        0x8 c:/Espressif/ESP8266_SDK/lib\libssl.a(ssl_rsa.o)
                                 0x40 (size before relaxing)
 .xt.lit        0x000013e0       0x10 c:/Espressif/ESP8266_SDK/lib\libssl.a(ssl_sha1.o)
                                 0x18 (size before relaxing)
 .xt.lit        0x000013f0       0x58 c:/Espressif/ESP8266_SDK/lib\libsmartconfig.a(sc_sniffer.o)
                                 0x60 (size before relaxing)
 .xt.lit        0x00001448       0x70 c:/Espressif/ESP8266_SDK/lib\libsmartconfig.a(sc_airkiss.o)
                                 0x90 (size before relaxing)
 .xt.lit        0x000014b8       0x50 c:/Espressif/ESP8266_SDK/lib\libsmartconfig.a(sc_esptouch.o)
                                 0x60 (size before relaxing)
 .xt.lit        0x00001508        0x0 c:/espressif/xtensa-lx106-elf/bin/../lib/gcc/xtensa-lx106-elf/4.8.2\libgcc.a(_fixunssfsi.o)
                                  0x8 (size before relaxing)
 .xt.lit        0x00001508        0x8 c:/espressif/xtensa-lx106-elf/bin/../lib/gcc/xtensa-lx106-elf/4.8.2\libgcc.a(_muldf3.o)
 .xt.lit        0x00001510        0x0 c:/espressif/xtensa-lx106-elf/bin/../lib/gcc/xtensa-lx106-elf/4.8.2\libgcc.a(_divdf3.o)
                                  0x8 (size before relaxing)
 .xt.lit        0x00001510        0x0 c:/espressif/xtensa-lx106-elf/bin/../lib/gcc/xtensa-lx106-elf/4.8.2\libgcc.a(_fixdfsi.o)
                                  0x8 (size before relaxing)
 .xt.lit        0x00001510        0x8 c:/espressif/xtensa-lx106-elf/bin/../lib/gcc/xtensa-lx106-elf/4.8.2\libgcc.a(_truncdfsf2.o)
 .xt.lit        0x00001518        0x8 c:/espressif/xtensa-lx106-elf/bin/../lib/gcc/xtensa-lx106-elf/4.8.2\libgcc.a(_popcountsi2.o)
 .xt.lit        0x00001520        0x0 c:/espressif/xtensa-lx106-elf/bin/../lib/gcc/xtensa-lx106-elf/4.8.2\libgcc.a(_divdi3.o)
                                  0x8 (size before relaxing)
 .xt.lit        0x00001520        0x0 c:/espressif/xtensa-lx106-elf/bin/../lib/gcc/xtensa-lx106-elf/4.8.2\libgcc.a(_udivdi3.o)
                                  0x8 (size before relaxing)
 .xt.lit        0x00001520        0x0 c:/espressif/xtensa-lx106-elf/bin/../lib/gcc/xtensa-lx106-elf/4.8.2\libgcc.a(_umoddi3.o)
                                  0x8 (size before relaxing)
 .xt.lit        0x00001520        0x8 c:/Espressif/ESP8266_SDK/lib\libnet80211.a(ieee80211_crypto_tkip.o)
                                 0x10 (size before relaxing)
 .xt.lit        0x00001528        0x0 c:/Espressif/ESP8266_SDK/lib\libnet80211.a(ieee80211_crypto_wep.o)
                                  0x8 (size before relaxing)

.comment        0x00000000     0x2133
 .comment       0x00000000       0x55 c:/Espressif/ESP8266_SDK/lib\libmain.a(app_main.o)
                                 0x56 (size before relaxing)
 .comment       0x00000055       0x56 c:/Espressif/ESP8266_SDK/lib\libmain.a(ets_timer.o)
                                 0x57 (size before relaxing)
 .comment       0x000000ab       0x58 c:/Espressif/ESP8266_SDK/lib\libmain.a(mem_manager.o)
                                 0x59 (size before relaxing)
 .comment       0x00000103       0x56 c:/Espressif/ESP8266_SDK/lib\libmain.a(spi_flash.o)
                                 0x57 (size before relaxing)
 .comment       0x00000159       0x5b c:/Espressif/ESP8266_SDK/lib\libmain.a(user_interface.o)
                                 0x5c (size before relaxing)
 .comment       0x000001b4       0x56 c:/Espressif/ESP8266_SDK/lib\libmain.a(eagle_lib.o)
                                 0x57 (size before relaxing)
 .comment       0x0000020a       0x5a c:/Espressif/ESP8266_SDK/lib\libmain.a(eagle_lwip_if.o)
                                 0x5b (size before relaxing)
 .comment       0x00000264       0x11 build/app_app.a(user_main.o)
                                 0x12 (size before relaxing)
 .comment       0x00000000       0x12 build/app_app.a(mqtt.o)
 .comment       0x00000000       0x12 build/app_app.a(wifi.o)
 .comment       0x00000000       0x12 build/app_app.a(config.o)
 .comment       0x00000000       0x12 build/app_app.a(easygpio.o)
 .comment       0x00000000       0x12 build/app_app.a(dht22.o)
 .comment       0x00000000       0x12 build/app_app.a(stdout.o)
 .comment       0x00000000       0x12 build/app_app.a(utils.o)
 .comment       0x00000000       0x12 build/app_app.a(queue.o)
 .comment       0x00000000       0x12 build/app_app.a(mqtt_msg.o)
 .comment       0x00000000       0x12 build/app_app.a(ringbuf.o)
 .comment       0x00000000       0x12 build/app_app.a(proto.o)
 .comment       0x00000000       0x12 c:/espressif/xtensa-lx106-elf/bin/../lib/gcc/xtensa-lx106-elf/4.8.2/../../../../xtensa-lx106-elf/lib\libc.a(lib_a-atoi.o)
 .comment       0x00000000       0x12 c:/espressif/xtensa-lx106-elf/bin/../lib/gcc/xtensa-lx106-elf/4.8.2/../../../../xtensa-lx106-elf/lib\libc.a(lib_a-lcltime.o)
 .comment       0x00000000       0x12 c:/espressif/xtensa-lx106-elf/bin/../lib/gcc/xtensa-lx106-elf/4.8.2/../../../../xtensa-lx106-elf/lib\libc.a(lib_a-lcltime_r.o)
 .comment       0x00000000       0x12 c:/espressif/xtensa-lx106-elf/bin/../lib/gcc/xtensa-lx106-elf/4.8.2/../../../../xtensa-lx106-elf/lib\libc.a(lib_a-mktm_r.o)
 .comment       0x00000000       0x12 c:/espressif/xtensa-lx106-elf/bin/../lib/gcc/xtensa-lx106-elf/4.8.2/../../../../xtensa-lx106-elf/lib\libc.a(lib_a-strtol.o)
 .comment       0x00000000       0x12 c:/espressif/xtensa-lx106-elf/bin/../lib/gcc/xtensa-lx106-elf/4.8.2/../../../../xtensa-lx106-elf/lib\libc.a(lib_a-tzlock.o)
 .comment       0x00000000       0x12 c:/espressif/xtensa-lx106-elf/bin/../lib/gcc/xtensa-lx106-elf/4.8.2/../../../../xtensa-lx106-elf/lib\libc.a(lib_a-tzvars.o)
 .comment       0x00000000       0x12 c:/espressif/xtensa-lx106-elf/bin/../lib/gcc/xtensa-lx106-elf/4.8.2/../../../../xtensa-lx106-elf/lib\libc.a(lib_a-ctype_.o)
 .comment       0x00000000       0x12 c:/espressif/xtensa-lx106-elf/bin/../lib/gcc/xtensa-lx106-elf/4.8.2/../../../../xtensa-lx106-elf/lib\libc.a(lib_a-gettzinfo.o)
 .comment       0x00000000       0x12 c:/espressif/xtensa-lx106-elf/bin/../lib/gcc/xtensa-lx106-elf/4.8.2/../../../../xtensa-lx106-elf/lib\libc.a(lib_a-impure.o)
 .comment       0x00000000       0x12 c:/espressif/xtensa-lx106-elf/bin/../lib/gcc/xtensa-lx106-elf/4.8.2\libgcc.a(_muldi3.o)
 .comment       0x00000275       0x41 c:/Espressif/ESP8266_SDK/lib\libphy.a(phy.o)
 .comment       0x000002b6       0x4d c:/Espressif/ESP8266_SDK/lib\libphy.a(phy_chip_v6_ana.o)
 .comment       0x00000303       0x49 c:/Espressif/ESP8266_SDK/lib\libphy.a(phy_chip_v6.o)
 .comment       0x0000034c       0x4d c:/Espressif/ESP8266_SDK/lib\libphy.a(phy_chip_v6_cal.o)
 .comment       0x00000399       0x50 c:/Espressif/ESP8266_SDK/lib\libphy.a(phy_chip_v6_unused.o)
 .comment       0x000003e9       0x47 c:/Espressif/ESP8266_SDK/lib\libphy.a(phy_sleep.o)
 .comment       0x00000430       0x56 c:/Espressif/ESP8266_SDK/lib\libpp.a(if_hwctrl.o)
                                 0x57 (size before relaxing)
 .comment       0x00000486       0x51 c:/Espressif/ESP8266_SDK/lib\libpp.a(lmac.o)
                                 0x52 (size before relaxing)
 .comment       0x000004d7       0x4f c:/Espressif/ESP8266_SDK/lib\libpp.a(pm.o)
                                 0x50 (size before relaxing)
 .comment       0x00000526       0x61 c:/Espressif/ESP8266_SDK/lib\libpp.a(pm_for_bcn_only_mode.o)
                                 0x62 (size before relaxing)
 .comment       0x00000587       0x4f c:/Espressif/ESP8266_SDK/lib\libpp.a(pp.o)
                                 0x50 (size before relaxing)
 .comment       0x000005d6       0x59 c:/Espressif/ESP8266_SDK/lib\libpp.a(rate_control.o)
                                 0x5a (size before relaxing)
 .comment       0x0000062f       0x50 c:/Espressif/ESP8266_SDK/lib\libpp.a(trc.o)
                                 0x51 (size before relaxing)
 .comment       0x0000067f       0x51 c:/Espressif/ESP8266_SDK/lib\libpp.a(wdev.o)
                                 0x52 (size before relaxing)
 .comment       0x000006d0       0x54 c:/Espressif/ESP8266_SDK/lib\libpp.a(esf_buf.o)
                                 0x55 (size before relaxing)
 .comment       0x00000724       0x56 c:/Espressif/ESP8266_SDK/lib\libnet80211.a(ieee80211.o)
                                 0x57 (size before relaxing)
 .comment       0x0000077a       0x5d c:/Espressif/ESP8266_SDK/lib\libnet80211.a(ieee80211_crypto.o)
                                 0x5e (size before relaxing)
 .comment       0x000007d7       0x5a c:/Espressif/ESP8266_SDK/lib\libnet80211.a(ieee80211_ets.o)
                                 0x5b (size before relaxing)
 .comment       0x00000831       0x5d c:/Espressif/ESP8266_SDK/lib\libnet80211.a(ieee80211_hostap.o)
                                 0x5e (size before relaxing)
 .comment       0x0000088e       0x59 c:/Espressif/ESP8266_SDK/lib\libnet80211.a(ieee80211_ht.o)
                                 0x5a (size before relaxing)
 .comment       0x000008e7       0x5c c:/Espressif/ESP8266_SDK/lib\libnet80211.a(ieee80211_input.o)
                                 0x5d (size before relaxing)
 .comment       0x00000943       0x5d c:/Espressif/ESP8266_SDK/lib\libnet80211.a(ieee80211_output.o)
                                 0x5e (size before relaxing)
 .comment       0x000009a0       0x5a c:/Espressif/ESP8266_SDK/lib\libnet80211.a(ieee80211_phy.o)
                                 0x5b (size before relaxing)
 .comment       0x000009fa       0x5c c:/Espressif/ESP8266_SDK/lib\libnet80211.a(ieee80211_power.o)
                                 0x5d (size before relaxing)
 .comment       0x00000a56       0x5c c:/Espressif/ESP8266_SDK/lib\libnet80211.a(ieee80211_proto.o)
                                 0x5d (size before relaxing)
 .comment       0x00000ab2       0x5b c:/Espressif/ESP8266_SDK/lib\libnet80211.a(ieee80211_scan.o)
                                 0x5c (size before relaxing)
 .comment       0x00000b0d       0x5a c:/Espressif/ESP8266_SDK/lib\libnet80211.a(ieee80211_sta.o)
                                 0x5b (size before relaxing)
 .comment       0x00000b67       0x53 c:/Espressif/ESP8266_SDK/lib\libnet80211.a(wl_chm.o)
                                 0x54 (size before relaxing)
 .comment       0x00000bba       0x53 c:/Espressif/ESP8266_SDK/lib\libnet80211.a(wl_cnx.o)
                                 0x54 (size before relaxing)
 .comment       0x00000c0d       0x5d c:/Espressif/ESP8266_SDK/lib\libnet80211.a(ieee80211_action.o)
                                 0x5e (size before relaxing)
 .comment       0x00000c6a       0x64 c:/Espressif/ESP8266_SDK/lib\libnet80211.a(ieee80211_action_vendor.o)
                                 0x65 (size before relaxing)
 .comment       0x00000cce       0x62 c:/Espressif/ESP8266_SDK/lib\libnet80211.a(ieee80211_crypto_ccmp.o)
                                 0x63 (size before relaxing)
 .comment       0x00000d30       0x60 c:/Espressif/ESP8266_SDK/lib\libnet80211.a(ieee80211_ie_vendor.o)
                                 0x61 (size before relaxing)
 .comment       0x00000d90       0x51 c:/Espressif/ESP8266_SDK/lib\liblwip.a(dhcp.o)
                                 0x52 (size before relaxing)
 .comment       0x00000de1       0x57 c:/Espressif/ESP8266_SDK/lib\liblwip.a(dhcpserver.o)
                                 0x58 (size before relaxing)
 .comment       0x00000e38       0x50 c:/Espressif/ESP8266_SDK/lib\liblwip.a(dns.o)
                                 0x51 (size before relaxing)
 .comment       0x00000e88       0x54 c:/Espressif/ESP8266_SDK/lib\liblwip.a(espconn.o)
                                 0x55 (size before relaxing)
 .comment       0x00000edc       0x58 c:/Espressif/ESP8266_SDK/lib\liblwip.a(espconn_tcp.o)
                                 0x59 (size before relaxing)
 .comment       0x00000f34       0x58 c:/Espressif/ESP8266_SDK/lib\liblwip.a(espconn_udp.o)
                                 0x59 (size before relaxing)
 .comment       0x00000f8c       0x53 c:/Espressif/ESP8266_SDK/lib\liblwip.a(etharp.o)
                                 0x54 (size before relaxing)
 .comment       0x00000fdf       0x51 c:/Espressif/ESP8266_SDK/lib\liblwip.a(igmp.o)
                                 0x52 (size before relaxing)
 .comment       0x00001030       0x58 c:/Espressif/ESP8266_SDK/lib\liblwip.a(inet_chksum.o)
                                 0x59 (size before relaxing)
 .comment       0x00001088       0x51 c:/Espressif/ESP8266_SDK/lib\liblwip.a(init.o)
                                 0x52 (size before relaxing)
 .comment       0x000010d9       0x54 c:/Espressif/ESP8266_SDK/lib\liblwip.a(ip_addr.o)
                                 0x55 (size before relaxing)
 .comment       0x0000112d       0x4f c:/Espressif/ESP8266_SDK/lib\liblwip.a(ip.o)
                                 0x50 (size before relaxing)
 .comment       0x0000117c       0x51 c:/Espressif/ESP8266_SDK/lib\liblwip.a(mdns.o)
                                 0x52 (size before relaxing)
 .comment       0x000011cd       0x51 c:/Espressif/ESP8266_SDK/lib\liblwip.a(memp.o)
                                 0x52 (size before relaxing)
 .comment       0x0000121e       0x52 c:/Espressif/ESP8266_SDK/lib\liblwip.a(netif.o)
                                 0x53 (size before relaxing)
 .comment       0x00001270       0x51 c:/Espressif/ESP8266_SDK/lib\liblwip.a(pbuf.o)
                                 0x52 (size before relaxing)
 .comment       0x000012c1       0x50 c:/Espressif/ESP8266_SDK/lib\liblwip.a(raw.o)
                                 0x51 (size before relaxing)
 .comment       0x00001311       0x53 c:/Espressif/ESP8266_SDK/lib\liblwip.a(tcp_in.o)
                                 0x54 (size before relaxing)
 .comment       0x00001364       0x50 c:/Espressif/ESP8266_SDK/lib\liblwip.a(tcp.o)
                                 0x51 (size before relaxing)
 .comment       0x000013b4       0x54 c:/Espressif/ESP8266_SDK/lib\liblwip.a(tcp_out.o)
                                 0x55 (size before relaxing)
 .comment       0x00001408       0x53 c:/Espressif/ESP8266_SDK/lib\liblwip.a(timers.o)
                                 0x54 (size before relaxing)
 .comment       0x0000145b       0x50 c:/Espressif/ESP8266_SDK/lib\liblwip.a(udp.o)
                                 0x51 (size before relaxing)
 .comment       0x000014ab       0x51 c:/Espressif/ESP8266_SDK/lib\liblwip.a(icmp.o)
                                 0x52 (size before relaxing)
 .comment       0x000014fc       0x56 c:/Espressif/ESP8266_SDK/lib\libwpa.a(ap_config.o)
                                 0x57 (size before relaxing)
 .comment       0x00001552       0x53 c:/Espressif/ESP8266_SDK/lib\libwpa.a(common.o)
                                 0x54 (size before relaxing)
 .comment       0x000015a5       0x56 c:/Espressif/ESP8266_SDK/lib\libwpa.a(os_xtensa.o)
                                 0x57 (size before relaxing)
 .comment       0x000015fb       0x55 c:/Espressif/ESP8266_SDK/lib\libwpa.a(wpa_auth.o)
                                 0x56 (size before relaxing)
 .comment       0x00001650       0x58 c:/Espressif/ESP8266_SDK/lib\libwpa.a(wpa_auth_ie.o)
                                 0x59 (size before relaxing)
 .comment       0x000016a8       0x50 c:/Espressif/ESP8266_SDK/lib\libwpa.a(wpa.o)
                                 0x51 (size before relaxing)
 .comment       0x000016f8       0x57 c:/Espressif/ESP8266_SDK/lib\libwpa.a(wpa_common.o)
                                 0x58 (size before relaxing)
 .comment       0x0000174f       0x56 c:/Espressif/ESP8266_SDK/lib\libwpa.a(wpa_debug.o)
                                 0x57 (size before relaxing)
 .comment       0x000017a5       0x53 c:/Espressif/ESP8266_SDK/lib\libwpa.a(wpa_ie.o)
                                 0x54 (size before relaxing)
 .comment       0x000017f8       0x55 c:/Espressif/ESP8266_SDK/lib\libwpa.a(wpa_main.o)
                                 0x56 (size before relaxing)
 .comment       0x0000184d       0x56 c:/Espressif/ESP8266_SDK/lib\libwpa.a(wpas_glue.o)
                                 0x57 (size before relaxing)
 .comment       0x000018a3       0x55 c:/Espressif/ESP8266_SDK/lib\libwpa.a(aes-wrap.o)
                                 0x56 (size before relaxing)
 .comment       0x000018f8       0x5d c:/Espressif/ESP8266_SDK/lib\libwpa.a(aes-internal-enc.o)
                                 0x5e (size before relaxing)
 .comment       0x00001955       0x5b c:/Espressif/ESP8266_SDK/lib\libssl.a(espconn_secure.o)
                                 0x5c (size before relaxing)
 .comment       0x000019b0       0x58 c:/Espressif/ESP8266_SDK/lib\libssl.a(espconn_ssl.o)
                                 0x59 (size before relaxing)
 .comment       0x00001a08       0x57 c:/Espressif/ESP8266_SDK/lib\libssl.a(ssl_loader.o)
                                 0x58 (size before relaxing)
 .comment       0x00001a5f       0x54 c:/Espressif/ESP8266_SDK/lib\libssl.a(ssl_md5.o)
                                 0x55 (size before relaxing)
 .comment       0x00001ab3       0x5a c:/Espressif/ESP8266_SDK/lib\libssl.a(ssl_tls1_clnt.o)
                                 0x5b (size before relaxing)
 .comment       0x00001b0d       0x55 c:/Espressif/ESP8266_SDK/lib\libssl.a(ssl_tls1.o)
                                 0x56 (size before relaxing)
 .comment       0x00001b62       0x59 c:/Espressif/ESP8266_SDK/lib\libssl.a(ssl_tls1_svr.o)
                                 0x5a (size before relaxing)
 .comment       0x00001bbb       0x55 c:/Espressif/ESP8266_SDK/lib\libssl.a(ssl_x509.o)
                                 0x56 (size before relaxing)
 .comment       0x00001c10       0x54 c:/Espressif/ESP8266_SDK/lib\libssl.a(ssl_aes.o)
                                 0x55 (size before relaxing)
 .comment       0x00001c64       0x55 c:/Espressif/ESP8266_SDK/lib\libssl.a(ssl_asn1.o)
                                 0x56 (size before relaxing)
 .comment       0x00001cb9       0x57 c:/Espressif/ESP8266_SDK/lib\libssl.a(ssl_bigint.o)
                                 0x58 (size before relaxing)
 .comment       0x00001d10       0x5c c:/Espressif/ESP8266_SDK/lib\libssl.a(ssl_crypto_misc.o)
                                 0x5d (size before relaxing)
 .comment       0x00001d6c       0x55 c:/Espressif/ESP8266_SDK/lib\libssl.a(ssl_hmac.o)
                                 0x56 (size before relaxing)
 .comment       0x00001dc1       0x54 c:/Espressif/ESP8266_SDK/lib\libssl.a(ssl_md2.o)
                                 0x55 (size before relaxing)
 .comment       0x00001e15       0x58 c:/Espressif/ESP8266_SDK/lib\libssl.a(ssl_os_port.o)
                                 0x59 (size before relaxing)
 .comment       0x00001e6d       0x54 c:/Espressif/ESP8266_SDK/lib\libssl.a(ssl_rc4.o)
                                 0x55 (size before relaxing)
 .comment       0x00001ec1       0x54 c:/Espressif/ESP8266_SDK/lib\libssl.a(ssl_rsa.o)
                                 0x55 (size before relaxing)
 .comment       0x00001f15       0x55 c:/Espressif/ESP8266_SDK/lib\libssl.a(ssl_sha1.o)
                                 0x56 (size before relaxing)
 .comment       0x00001f6a       0x57 c:/Espressif/ESP8266_SDK/lib\libsmartconfig.a(sc_sniffer.o)
                                 0x58 (size before relaxing)
 .comment       0x00001fc1       0x57 c:/Espressif/ESP8266_SDK/lib\libsmartconfig.a(sc_airkiss.o)
                                 0x58 (size before relaxing)
 .comment       0x00002018       0x58 c:/Espressif/ESP8266_SDK/lib\libsmartconfig.a(sc_esptouch.o)
                                 0x59 (size before relaxing)
 .comment       0x00000000       0x12 c:/espressif/xtensa-lx106-elf/bin/../lib/gcc/xtensa-lx106-elf/4.8.2/../../../../xtensa-lx106-elf/lib\libc.a(lib_a-memcmp.o)
 .comment       0x00000000       0x12 c:/espressif/xtensa-lx106-elf/bin/../lib/gcc/xtensa-lx106-elf/4.8.2\libgcc.a(_popcountsi2.o)
 .comment       0x00000000       0x12 c:/espressif/xtensa-lx106-elf/bin/../lib/gcc/xtensa-lx106-elf/4.8.2\libgcc.a(_divdi3.o)
 .comment       0x00000000       0x12 c:/espressif/xtensa-lx106-elf/bin/../lib/gcc/xtensa-lx106-elf/4.8.2\libgcc.a(_udivdi3.o)
 .comment       0x00000000       0x12 c:/espressif/xtensa-lx106-elf/bin/../lib/gcc/xtensa-lx106-elf/4.8.2\libgcc.a(_umoddi3.o)
 .comment       0x00000000       0x12 c:/espressif/xtensa-lx106-elf/bin/../lib/gcc/xtensa-lx106-elf/4.8.2\libgcc.a(_popcount_tab.o)
 .comment       0x00002070       0x62 c:/Espressif/ESP8266_SDK/lib\libnet80211.a(ieee80211_crypto_tkip.o)
                                 0x63 (size before relaxing)
 .comment       0x000020d2       0x61 c:/Espressif/ESP8266_SDK/lib\libnet80211.a(ieee80211_crypto_wep.o)
                                 0x62 (size before relaxing)

.debug_frame    0x00000000     0x12e4
 .debug_frame   0x00000000      0x604 build/app_app.a(user_main.o)
 .debug_frame   0x00000604      0x2b4 build/app_app.a(mqtt.o)
 .debug_frame   0x000008b8       0x64 build/app_app.a(wifi.o)
 .debug_frame   0x0000091c       0x60 build/app_app.a(config.o)
 .debug_frame   0x0000097c      0x144 build/app_app.a(easygpio.o)
 .debug_frame   0x00000ac0       0xd4 build/app_app.a(dht22.o)
 .debug_frame   0x00000b94       0x40 build/app_app.a(stdout.o)
 .debug_frame   0x00000bd4       0x40 build/app_app.a(utils.o)
 .debug_frame   0x00000c14       0x88 build/app_app.a(queue.o)
 .debug_frame   0x00000c9c      0x238 build/app_app.a(mqtt_msg.o)
 .debug_frame   0x00000ed4       0x40 build/app_app.a(ringbuf.o)
 .debug_frame   0x00000f14       0xe4 build/app_app.a(proto.o)
 .debug_frame   0x00000ff8       0x50 c:/espressif/xtensa-lx106-elf/bin/../lib/gcc/xtensa-lx106-elf/4.8.2/../../../../xtensa-lx106-elf/lib\libc.a(lib_a-atoi.o)
 .debug_frame   0x00001048       0x30 c:/espressif/xtensa-lx106-elf/bin/../lib/gcc/xtensa-lx106-elf/4.8.2/../../../../xtensa-lx106-elf/lib\libc.a(lib_a-lcltime.o)
 .debug_frame   0x00001078       0x30 c:/espressif/xtensa-lx106-elf/bin/../lib/gcc/xtensa-lx106-elf/4.8.2/../../../../xtensa-lx106-elf/lib\libc.a(lib_a-lcltime_r.o)
 .debug_frame   0x000010a8       0x64 c:/espressif/xtensa-lx106-elf/bin/../lib/gcc/xtensa-lx106-elf/4.8.2/../../../../xtensa-lx106-elf/lib\libc.a(lib_a-mktm_r.o)
 .debug_frame   0x0000110c       0x60 c:/espressif/xtensa-lx106-elf/bin/../lib/gcc/xtensa-lx106-elf/4.8.2/../../../../xtensa-lx106-elf/lib\libc.a(lib_a-strtol.o)
 .debug_frame   0x0000116c       0x30 c:/espressif/xtensa-lx106-elf/bin/../lib/gcc/xtensa-lx106-elf/4.8.2/../../../../xtensa-lx106-elf/lib\libc.a(lib_a-tzlock.o)
 .debug_frame   0x0000119c       0x20 c:/espressif/xtensa-lx106-elf/bin/../lib/gcc/xtensa-lx106-elf/4.8.2/../../../../xtensa-lx106-elf/lib\libc.a(lib_a-gettzinfo.o)
 .debug_frame   0x000011bc       0x3c c:/espressif/xtensa-lx106-elf/bin/../lib/gcc/xtensa-lx106-elf/4.8.2\libgcc.a(_muldi3.o)
 .debug_frame   0x000011f8       0x20 c:/espressif/xtensa-lx106-elf/bin/../lib/gcc/xtensa-lx106-elf/4.8.2/../../../../xtensa-lx106-elf/lib\libc.a(lib_a-memcmp.o)
 .debug_frame   0x00001218       0x20 c:/espressif/xtensa-lx106-elf/bin/../lib/gcc/xtensa-lx106-elf/4.8.2\libgcc.a(_popcountsi2.o)
 .debug_frame   0x00001238       0x38 c:/espressif/xtensa-lx106-elf/bin/../lib/gcc/xtensa-lx106-elf/4.8.2\libgcc.a(_divdi3.o)
 .debug_frame   0x00001270       0x38 c:/espressif/xtensa-lx106-elf/bin/../lib/gcc/xtensa-lx106-elf/4.8.2\libgcc.a(_udivdi3.o)
 .debug_frame   0x000012a8       0x3c c:/espressif/xtensa-lx106-elf/bin/../lib/gcc/xtensa-lx106-elf/4.8.2\libgcc.a(_umoddi3.o)

.debug_info     0x00000000     0xe43b
 .debug_info    0x00000000     0x3747 build/app_app.a(user_main.o)
 .debug_info    0x00003747     0x1fd7 build/app_app.a(mqtt.o)
 .debug_info    0x0000571e      0x6a0 build/app_app.a(wifi.o)
 .debug_info    0x00005dbe      0x653 build/app_app.a(config.o)
 .debug_info    0x00006411      0x839 build/app_app.a(easygpio.o)
 .debug_info    0x00006c4a      0x79e build/app_app.a(dht22.o)
 .debug_info    0x000073e8      0x21f build/app_app.a(stdout.o)
 .debug_info    0x00007607      0x1e3 build/app_app.a(utils.o)
 .debug_info    0x000077ea      0x381 build/app_app.a(queue.o)
 .debug_info    0x00007b6b      0xfca build/app_app.a(mqtt_msg.o)
 .debug_info    0x00008b35      0x1b3 build/app_app.a(ringbuf.o)
 .debug_info    0x00008ce8      0x4f2 build/app_app.a(proto.o)
 .debug_info    0x000091da      0x941 c:/espressif/xtensa-lx106-elf/bin/../lib/gcc/xtensa-lx106-elf/4.8.2/../../../../xtensa-lx106-elf/lib\libc.a(lib_a-atoi.o)
 .debug_info    0x00009b1b      0x952 c:/espressif/xtensa-lx106-elf/bin/../lib/gcc/xtensa-lx106-elf/4.8.2/../../../../xtensa-lx106-elf/lib\libc.a(lib_a-lcltime.o)
 .debug_info    0x0000a46d      0x17e c:/espressif/xtensa-lx106-elf/bin/../lib/gcc/xtensa-lx106-elf/4.8.2/../../../../xtensa-lx106-elf/lib\libc.a(lib_a-lcltime_r.o)
 .debug_info    0x0000a5eb       0xc9 c:/espressif/xtensa-lx106-elf/bin/../lib/gcc/xtensa-lx106-elf/4.8.2/../../../../xtensa-lx106-elf/lib\libc.a(lib_a-memcpy.o)
 .debug_info    0x0000a6b4      0x440 c:/espressif/xtensa-lx106-elf/bin/../lib/gcc/xtensa-lx106-elf/4.8.2/../../../../xtensa-lx106-elf/lib\libc.a(lib_a-mktm_r.o)
 .debug_info    0x0000aaf4       0xc9 c:/espressif/xtensa-lx106-elf/bin/../lib/gcc/xtensa-lx106-elf/4.8.2/../../../../xtensa-lx106-elf/lib\libc.a(lib_a-strcmp.o)
 .debug_info    0x0000abbd       0xc9 c:/espressif/xtensa-lx106-elf/bin/../lib/gcc/xtensa-lx106-elf/4.8.2/../../../../xtensa-lx106-elf/lib\libc.a(lib_a-strlen.o)
 .debug_info    0x0000ac86      0x9a9 c:/espressif/xtensa-lx106-elf/bin/../lib/gcc/xtensa-lx106-elf/4.8.2/../../../../xtensa-lx106-elf/lib\libc.a(lib_a-strtol.o)
 .debug_info    0x0000b62f       0xa8 c:/espressif/xtensa-lx106-elf/bin/../lib/gcc/xtensa-lx106-elf/4.8.2/../../../../xtensa-lx106-elf/lib\libc.a(lib_a-tzlock.o)
 .debug_info    0x0000b6d7       0xbb c:/espressif/xtensa-lx106-elf/bin/../lib/gcc/xtensa-lx106-elf/4.8.2/../../../../xtensa-lx106-elf/lib\libc.a(lib_a-tzvars.o)
 .debug_info    0x0000b792       0x6f c:/espressif/xtensa-lx106-elf/bin/../lib/gcc/xtensa-lx106-elf/4.8.2/../../../../xtensa-lx106-elf/lib\libc.a(lib_a-ctype_.o)
 .debug_info    0x0000b801      0x160 c:/espressif/xtensa-lx106-elf/bin/../lib/gcc/xtensa-lx106-elf/4.8.2/../../../../xtensa-lx106-elf/lib\libc.a(lib_a-gettzinfo.o)
 .debug_info    0x0000b961      0x894 c:/espressif/xtensa-lx106-elf/bin/../lib/gcc/xtensa-lx106-elf/4.8.2/../../../../xtensa-lx106-elf/lib\libc.a(lib_a-impure.o)
 .debug_info    0x0000c1f5       0xab c:/espressif/xtensa-lx106-elf/bin/../lib/gcc/xtensa-lx106-elf/4.8.2\libgcc.a(_divsi3.o)
 .debug_info    0x0000c2a0       0xab c:/espressif/xtensa-lx106-elf/bin/../lib/gcc/xtensa-lx106-elf/4.8.2\libgcc.a(_modsi3.o)
 .debug_info    0x0000c34b       0xab c:/espressif/xtensa-lx106-elf/bin/../lib/gcc/xtensa-lx106-elf/4.8.2\libgcc.a(_udivsi3.o)
 .debug_info    0x0000c3f6       0xab c:/espressif/xtensa-lx106-elf/bin/../lib/gcc/xtensa-lx106-elf/4.8.2\libgcc.a(_umodsi3.o)
 .debug_info    0x0000c4a1       0xac c:/espressif/xtensa-lx106-elf/bin/../lib/gcc/xtensa-lx106-elf/4.8.2\libgcc.a(_addsubsf3.o)
 .debug_info    0x0000c54d       0xac c:/espressif/xtensa-lx106-elf/bin/../lib/gcc/xtensa-lx106-elf/4.8.2\libgcc.a(_mulsf3.o)
 .debug_info    0x0000c5f9       0xac c:/espressif/xtensa-lx106-elf/bin/../lib/gcc/xtensa-lx106-elf/4.8.2\libgcc.a(_divsf3.o)
 .debug_info    0x0000c6a5       0xac c:/espressif/xtensa-lx106-elf/bin/../lib/gcc/xtensa-lx106-elf/4.8.2\libgcc.a(_cmpsf2.o)
 .debug_info    0x0000c751       0xac c:/espressif/xtensa-lx106-elf/bin/../lib/gcc/xtensa-lx106-elf/4.8.2\libgcc.a(_fixsfsi.o)
 .debug_info    0x0000c7fd       0xac c:/espressif/xtensa-lx106-elf/bin/../lib/gcc/xtensa-lx106-elf/4.8.2\libgcc.a(_floatsisf.o)
 .debug_info    0x0000c8a9      0x174 c:/espressif/xtensa-lx106-elf/bin/../lib/gcc/xtensa-lx106-elf/4.8.2\libgcc.a(_muldi3.o)
 .debug_info    0x0000ca1d       0xab c:/espressif/xtensa-lx106-elf/bin/../lib/gcc/xtensa-lx106-elf/4.8.2\libgcc.a(_umulsidi3.o)
 .debug_info    0x0000cac8      0x113 c:/espressif/xtensa-lx106-elf/bin/../lib/gcc/xtensa-lx106-elf/4.8.2/../../../../xtensa-lx106-elf/lib\libc.a(lib_a-memcmp.o)
 .debug_info    0x0000cbdb       0xab c:/espressif/xtensa-lx106-elf/bin/../lib/gcc/xtensa-lx106-elf/4.8.2\libgcc.a(_ashrdi3.o)
 .debug_info    0x0000cc86       0xac c:/espressif/xtensa-lx106-elf/bin/../lib/gcc/xtensa-lx106-elf/4.8.2\libgcc.a(_fixunssfsi.o)
 .debug_info    0x0000cd32       0xac c:/espressif/xtensa-lx106-elf/bin/../lib/gcc/xtensa-lx106-elf/4.8.2\libgcc.a(_muldf3.o)
 .debug_info    0x0000cdde       0xac c:/espressif/xtensa-lx106-elf/bin/../lib/gcc/xtensa-lx106-elf/4.8.2\libgcc.a(_divdf3.o)
 .debug_info    0x0000ce8a       0xac c:/espressif/xtensa-lx106-elf/bin/../lib/gcc/xtensa-lx106-elf/4.8.2\libgcc.a(_fixdfsi.o)
 .debug_info    0x0000cf36       0xac c:/espressif/xtensa-lx106-elf/bin/../lib/gcc/xtensa-lx106-elf/4.8.2\libgcc.a(_floatsidf.o)
 .debug_info    0x0000cfe2       0xac c:/espressif/xtensa-lx106-elf/bin/../lib/gcc/xtensa-lx106-elf/4.8.2\libgcc.a(_truncdfsf2.o)
 .debug_info    0x0000d08e       0xff c:/espressif/xtensa-lx106-elf/bin/../lib/gcc/xtensa-lx106-elf/4.8.2\libgcc.a(_popcountsi2.o)
 .debug_info    0x0000d18d      0x60c c:/espressif/xtensa-lx106-elf/bin/../lib/gcc/xtensa-lx106-elf/4.8.2\libgcc.a(_divdi3.o)
 .debug_info    0x0000d799      0x5da c:/espressif/xtensa-lx106-elf/bin/../lib/gcc/xtensa-lx106-elf/4.8.2\libgcc.a(_udivdi3.o)
 .debug_info    0x0000dd73      0x61d c:/espressif/xtensa-lx106-elf/bin/../lib/gcc/xtensa-lx106-elf/4.8.2\libgcc.a(_umoddi3.o)
 .debug_info    0x0000e390       0xab c:/espressif/xtensa-lx106-elf/bin/../lib/gcc/xtensa-lx106-elf/4.8.2\libgcc.a(_popcount_tab.o)

.debug_abbrev   0x00000000     0x2da5
 .debug_abbrev  0x00000000      0x5b3 build/app_app.a(user_main.o)
 .debug_abbrev  0x000005b3      0x39c build/app_app.a(mqtt.o)
 .debug_abbrev  0x0000094f      0x1ab build/app_app.a(wifi.o)
 .debug_abbrev  0x00000afa      0x188 build/app_app.a(config.o)
 .debug_abbrev  0x00000c82      0x250 build/app_app.a(easygpio.o)
 .debug_abbrev  0x00000ed2      0x278 build/app_app.a(dht22.o)
 .debug_abbrev  0x0000114a      0x129 build/app_app.a(stdout.o)
 .debug_abbrev  0x00001273       0xc7 build/app_app.a(utils.o)
 .debug_abbrev  0x0000133a      0x132 build/app_app.a(queue.o)
 .debug_abbrev  0x0000146c      0x287 build/app_app.a(mqtt_msg.o)
 .debug_abbrev  0x000016f3       0xe2 build/app_app.a(ringbuf.o)
 .debug_abbrev  0x000017d5      0x1df build/app_app.a(proto.o)
 .debug_abbrev  0x000019b4      0x1ce c:/espressif/xtensa-lx106-elf/bin/../lib/gcc/xtensa-lx106-elf/4.8.2/../../../../xtensa-lx106-elf/lib\libc.a(lib_a-atoi.o)
 .debug_abbrev  0x00001b82      0x1d9 c:/espressif/xtensa-lx106-elf/bin/../lib/gcc/xtensa-lx106-elf/4.8.2/../../../../xtensa-lx106-elf/lib\libc.a(lib_a-lcltime.o)
 .debug_abbrev  0x00001d5b       0xd0 c:/espressif/xtensa-lx106-elf/bin/../lib/gcc/xtensa-lx106-elf/4.8.2/../../../../xtensa-lx106-elf/lib\libc.a(lib_a-lcltime_r.o)
 .debug_abbrev  0x00001e2b       0x14 c:/espressif/xtensa-lx106-elf/bin/../lib/gcc/xtensa-lx106-elf/4.8.2/../../../../xtensa-lx106-elf/lib\libc.a(lib_a-memcpy.o)
 .debug_abbrev  0x00001e3f      0x15e c:/espressif/xtensa-lx106-elf/bin/../lib/gcc/xtensa-lx106-elf/4.8.2/../../../../xtensa-lx106-elf/lib\libc.a(lib_a-mktm_r.o)
 .debug_abbrev  0x00001f9d       0x14 c:/espressif/xtensa-lx106-elf/bin/../lib/gcc/xtensa-lx106-elf/4.8.2/../../../../xtensa-lx106-elf/lib\libc.a(lib_a-strcmp.o)
 .debug_abbrev  0x00001fb1       0x14 c:/espressif/xtensa-lx106-elf/bin/../lib/gcc/xtensa-lx106-elf/4.8.2/../../../../xtensa-lx106-elf/lib\libc.a(lib_a-strlen.o)
 .debug_abbrev  0x00001fc5      0x211 c:/espressif/xtensa-lx106-elf/bin/../lib/gcc/xtensa-lx106-elf/4.8.2/../../../../xtensa-lx106-elf/lib\libc.a(lib_a-strtol.o)
 .debug_abbrev  0x000021d6       0x51 c:/espressif/xtensa-lx106-elf/bin/../lib/gcc/xtensa-lx106-elf/4.8.2/../../../../xtensa-lx106-elf/lib\libc.a(lib_a-tzlock.o)
 .debug_abbrev  0x00002227       0x52 c:/espressif/xtensa-lx106-elf/bin/../lib/gcc/xtensa-lx106-elf/4.8.2/../../../../xtensa-lx106-elf/lib\libc.a(lib_a-tzvars.o)
 .debug_abbrev  0x00002279       0x4e c:/espressif/xtensa-lx106-elf/bin/../lib/gcc/xtensa-lx106-elf/4.8.2/../../../../xtensa-lx106-elf/lib\libc.a(lib_a-ctype_.o)
 .debug_abbrev  0x000022c7       0xa8 c:/espressif/xtensa-lx106-elf/bin/../lib/gcc/xtensa-lx106-elf/4.8.2/../../../../xtensa-lx106-elf/lib\libc.a(lib_a-gettzinfo.o)
 .debug_abbrev  0x0000236f      0x180 c:/espressif/xtensa-lx106-elf/bin/../lib/gcc/xtensa-lx106-elf/4.8.2/../../../../xtensa-lx106-elf/lib\libc.a(lib_a-impure.o)
 .debug_abbrev  0x000024ef       0x14 c:/espressif/xtensa-lx106-elf/bin/../lib/gcc/xtensa-lx106-elf/4.8.2\libgcc.a(_divsi3.o)
 .debug_abbrev  0x00002503       0x14 c:/espressif/xtensa-lx106-elf/bin/../lib/gcc/xtensa-lx106-elf/4.8.2\libgcc.a(_modsi3.o)
 .debug_abbrev  0x00002517       0x14 c:/espressif/xtensa-lx106-elf/bin/../lib/gcc/xtensa-lx106-elf/4.8.2\libgcc.a(_udivsi3.o)
 .debug_abbrev  0x0000252b       0x14 c:/espressif/xtensa-lx106-elf/bin/../lib/gcc/xtensa-lx106-elf/4.8.2\libgcc.a(_umodsi3.o)
 .debug_abbrev  0x0000253f       0x14 c:/espressif/xtensa-lx106-elf/bin/../lib/gcc/xtensa-lx106-elf/4.8.2\libgcc.a(_addsubsf3.o)
 .debug_abbrev  0x00002553       0x14 c:/espressif/xtensa-lx106-elf/bin/../lib/gcc/xtensa-lx106-elf/4.8.2\libgcc.a(_mulsf3.o)
 .debug_abbrev  0x00002567       0x14 c:/espressif/xtensa-lx106-elf/bin/../lib/gcc/xtensa-lx106-elf/4.8.2\libgcc.a(_divsf3.o)
 .debug_abbrev  0x0000257b       0x14 c:/espressif/xtensa-lx106-elf/bin/../lib/gcc/xtensa-lx106-elf/4.8.2\libgcc.a(_cmpsf2.o)
 .debug_abbrev  0x0000258f       0x14 c:/espressif/xtensa-lx106-elf/bin/../lib/gcc/xtensa-lx106-elf/4.8.2\libgcc.a(_fixsfsi.o)
 .debug_abbrev  0x000025a3       0x14 c:/espressif/xtensa-lx106-elf/bin/../lib/gcc/xtensa-lx106-elf/4.8.2\libgcc.a(_floatsisf.o)
 .debug_abbrev  0x000025b7       0xfd c:/espressif/xtensa-lx106-elf/bin/../lib/gcc/xtensa-lx106-elf/4.8.2\libgcc.a(_muldi3.o)
 .debug_abbrev  0x000026b4       0x14 c:/espressif/xtensa-lx106-elf/bin/../lib/gcc/xtensa-lx106-elf/4.8.2\libgcc.a(_umulsidi3.o)
 .debug_abbrev  0x000026c8       0x7f c:/espressif/xtensa-lx106-elf/bin/../lib/gcc/xtensa-lx106-elf/4.8.2/../../../../xtensa-lx106-elf/lib\libc.a(lib_a-memcmp.o)
 .debug_abbrev  0x00002747       0x14 c:/espressif/xtensa-lx106-elf/bin/../lib/gcc/xtensa-lx106-elf/4.8.2\libgcc.a(_ashrdi3.o)
 .debug_abbrev  0x0000275b       0x14 c:/espressif/xtensa-lx106-elf/bin/../lib/gcc/xtensa-lx106-elf/4.8.2\libgcc.a(_fixunssfsi.o)
 .debug_abbrev  0x0000276f       0x14 c:/espressif/xtensa-lx106-elf/bin/../lib/gcc/xtensa-lx106-elf/4.8.2\libgcc.a(_muldf3.o)
 .debug_abbrev  0x00002783       0x14 c:/espressif/xtensa-lx106-elf/bin/../lib/gcc/xtensa-lx106-elf/4.8.2\libgcc.a(_divdf3.o)
 .debug_abbrev  0x00002797       0x14 c:/espressif/xtensa-lx106-elf/bin/../lib/gcc/xtensa-lx106-elf/4.8.2\libgcc.a(_fixdfsi.o)
 .debug_abbrev  0x000027ab       0x14 c:/espressif/xtensa-lx106-elf/bin/../lib/gcc/xtensa-lx106-elf/4.8.2\libgcc.a(_floatsidf.o)
 .debug_abbrev  0x000027bf       0x14 c:/espressif/xtensa-lx106-elf/bin/../lib/gcc/xtensa-lx106-elf/4.8.2\libgcc.a(_truncdfsf2.o)
 .debug_abbrev  0x000027d3       0x9b c:/espressif/xtensa-lx106-elf/bin/../lib/gcc/xtensa-lx106-elf/4.8.2\libgcc.a(_popcountsi2.o)
 .debug_abbrev  0x0000286e      0x1a3 c:/espressif/xtensa-lx106-elf/bin/../lib/gcc/xtensa-lx106-elf/4.8.2\libgcc.a(_divdi3.o)
 .debug_abbrev  0x00002a11      0x194 c:/espressif/xtensa-lx106-elf/bin/../lib/gcc/xtensa-lx106-elf/4.8.2\libgcc.a(_udivdi3.o)
 .debug_abbrev  0x00002ba5      0x1a3 c:/espressif/xtensa-lx106-elf/bin/../lib/gcc/xtensa-lx106-elf/4.8.2\libgcc.a(_umoddi3.o)
 .debug_abbrev  0x00002d48       0x5d c:/espressif/xtensa-lx106-elf/bin/../lib/gcc/xtensa-lx106-elf/4.8.2\libgcc.a(_popcount_tab.o)

.debug_loc      0x00000000     0x65f7
 .debug_loc     0x00000000      0xe8e build/app_app.a(user_main.o)
 .debug_loc     0x00000e8e      0x8f2 build/app_app.a(mqtt.o)
 .debug_loc     0x00001780       0xa5 build/app_app.a(wifi.o)
 .debug_loc     0x00001825       0x65 build/app_app.a(config.o)
 .debug_loc     0x0000188a      0x5da build/app_app.a(easygpio.o)
 .debug_loc     0x00001e64      0x4c3 build/app_app.a(dht22.o)
 .debug_loc     0x00002327      0x278 build/app_app.a(utils.o)
 .debug_loc     0x0000259f      0x17a build/app_app.a(queue.o)
 .debug_loc     0x00002719      0xb03 build/app_app.a(mqtt_msg.o)
 .debug_loc     0x0000321c       0xd7 build/app_app.a(ringbuf.o)
 .debug_loc     0x000032f3      0x540 build/app_app.a(proto.o)
 .debug_loc     0x00003833       0x63 c:/espressif/xtensa-lx106-elf/bin/../lib/gcc/xtensa-lx106-elf/4.8.2/../../../../xtensa-lx106-elf/lib\libc.a(lib_a-atoi.o)
 .debug_loc     0x00003896       0x21 c:/espressif/xtensa-lx106-elf/bin/../lib/gcc/xtensa-lx106-elf/4.8.2/../../../../xtensa-lx106-elf/lib\libc.a(lib_a-lcltime.o)
 .debug_loc     0x000038b7       0x42 c:/espressif/xtensa-lx106-elf/bin/../lib/gcc/xtensa-lx106-elf/4.8.2/../../../../xtensa-lx106-elf/lib\libc.a(lib_a-lcltime_r.o)
 .debug_loc     0x000038f9      0x4e0 c:/espressif/xtensa-lx106-elf/bin/../lib/gcc/xtensa-lx106-elf/4.8.2/../../../../xtensa-lx106-elf/lib\libc.a(lib_a-mktm_r.o)
 .debug_loc     0x00003dd9      0x3a9 c:/espressif/xtensa-lx106-elf/bin/../lib/gcc/xtensa-lx106-elf/4.8.2/../../../../xtensa-lx106-elf/lib\libc.a(lib_a-strtol.o)
 .debug_loc     0x00004182       0x50 c:/espressif/xtensa-lx106-elf/bin/../lib/gcc/xtensa-lx106-elf/4.8.2\libgcc.a(_muldi3.o)
 .debug_loc     0x000041d2       0xe9 c:/espressif/xtensa-lx106-elf/bin/../lib/gcc/xtensa-lx106-elf/4.8.2/../../../../xtensa-lx106-elf/lib\libc.a(lib_a-memcmp.o)
 .debug_loc     0x000042bb       0x77 c:/espressif/xtensa-lx106-elf/bin/../lib/gcc/xtensa-lx106-elf/4.8.2\libgcc.a(_popcountsi2.o)
 .debug_loc     0x00004332      0xb8b c:/espressif/xtensa-lx106-elf/bin/../lib/gcc/xtensa-lx106-elf/4.8.2\libgcc.a(_divdi3.o)
 .debug_loc     0x00004ebd      0xcf5 c:/espressif/xtensa-lx106-elf/bin/../lib/gcc/xtensa-lx106-elf/4.8.2\libgcc.a(_udivdi3.o)
 .debug_loc     0x00005bb2      0xa45 c:/espressif/xtensa-lx106-elf/bin/../lib/gcc/xtensa-lx106-elf/4.8.2\libgcc.a(_umoddi3.o)

.debug_aranges  0x00000000      0x960
 .debug_aranges
                0x00000000      0x170 build/app_app.a(user_main.o)
 .debug_aranges
                0x00000170       0xb0 build/app_app.a(mqtt.o)
 .debug_aranges
                0x00000220       0x28 build/app_app.a(wifi.o)
 .debug_aranges
                0x00000248       0x28 build/app_app.a(config.o)
 .debug_aranges
                0x00000270       0x50 build/app_app.a(easygpio.o)
 .debug_aranges
                0x000002c0       0x48 build/app_app.a(dht22.o)
 .debug_aranges
                0x00000308       0x28 build/app_app.a(stdout.o)
 .debug_aranges
                0x00000330       0x30 build/app_app.a(utils.o)
 .debug_aranges
                0x00000360       0x38 build/app_app.a(queue.o)
 .debug_aranges
                0x00000398       0xb0 build/app_app.a(mqtt_msg.o)
 .debug_aranges
                0x00000448       0x30 build/app_app.a(ringbuf.o)
 .debug_aranges
                0x00000478       0x48 build/app_app.a(proto.o)
 .debug_aranges
                0x000004c0       0x20 c:/espressif/xtensa-lx106-elf/bin/../lib/gcc/xtensa-lx106-elf/4.8.2/../../../../xtensa-lx106-elf/lib\libc.a(lib_a-atoi.o)
 .debug_aranges
                0x000004e0       0x20 c:/espressif/xtensa-lx106-elf/bin/../lib/gcc/xtensa-lx106-elf/4.8.2/../../../../xtensa-lx106-elf/lib\libc.a(lib_a-lcltime.o)
 .debug_aranges
                0x00000500       0x20 c:/espressif/xtensa-lx106-elf/bin/../lib/gcc/xtensa-lx106-elf/4.8.2/../../../../xtensa-lx106-elf/lib\libc.a(lib_a-lcltime_r.o)
 .debug_aranges
                0x00000520       0x20 c:/espressif/xtensa-lx106-elf/bin/../lib/gcc/xtensa-lx106-elf/4.8.2/../../../../xtensa-lx106-elf/lib\libc.a(lib_a-memcpy.o)
 .debug_aranges
                0x00000540       0x20 c:/espressif/xtensa-lx106-elf/bin/../lib/gcc/xtensa-lx106-elf/4.8.2/../../../../xtensa-lx106-elf/lib\libc.a(lib_a-mktm_r.o)
 .debug_aranges
                0x00000560       0x20 c:/espressif/xtensa-lx106-elf/bin/../lib/gcc/xtensa-lx106-elf/4.8.2/../../../../xtensa-lx106-elf/lib\libc.a(lib_a-strcmp.o)
 .debug_aranges
                0x00000580       0x20 c:/espressif/xtensa-lx106-elf/bin/../lib/gcc/xtensa-lx106-elf/4.8.2/../../../../xtensa-lx106-elf/lib\libc.a(lib_a-strlen.o)
 .debug_aranges
                0x000005a0       0x20 c:/espressif/xtensa-lx106-elf/bin/../lib/gcc/xtensa-lx106-elf/4.8.2/../../../../xtensa-lx106-elf/lib\libc.a(lib_a-strtol.o)
 .debug_aranges
                0x000005c0       0x20 c:/espressif/xtensa-lx106-elf/bin/../lib/gcc/xtensa-lx106-elf/4.8.2/../../../../xtensa-lx106-elf/lib\libc.a(lib_a-tzlock.o)
 .debug_aranges
                0x000005e0       0x18 c:/espressif/xtensa-lx106-elf/bin/../lib/gcc/xtensa-lx106-elf/4.8.2/../../../../xtensa-lx106-elf/lib\libc.a(lib_a-tzvars.o)
 .debug_aranges
                0x000005f8       0x18 c:/espressif/xtensa-lx106-elf/bin/../lib/gcc/xtensa-lx106-elf/4.8.2/../../../../xtensa-lx106-elf/lib\libc.a(lib_a-ctype_.o)
 .debug_aranges
                0x00000610       0x20 c:/espressif/xtensa-lx106-elf/bin/../lib/gcc/xtensa-lx106-elf/4.8.2/../../../../xtensa-lx106-elf/lib\libc.a(lib_a-gettzinfo.o)
 .debug_aranges
                0x00000630       0x18 c:/espressif/xtensa-lx106-elf/bin/../lib/gcc/xtensa-lx106-elf/4.8.2/../../../../xtensa-lx106-elf/lib\libc.a(lib_a-impure.o)
 .debug_aranges
                0x00000648       0x20 c:/espressif/xtensa-lx106-elf/bin/../lib/gcc/xtensa-lx106-elf/4.8.2\libgcc.a(_divsi3.o)
 .debug_aranges
                0x00000668       0x20 c:/espressif/xtensa-lx106-elf/bin/../lib/gcc/xtensa-lx106-elf/4.8.2\libgcc.a(_modsi3.o)
 .debug_aranges
                0x00000688       0x20 c:/espressif/xtensa-lx106-elf/bin/../lib/gcc/xtensa-lx106-elf/4.8.2\libgcc.a(_udivsi3.o)
 .debug_aranges
                0x000006a8       0x20 c:/espressif/xtensa-lx106-elf/bin/../lib/gcc/xtensa-lx106-elf/4.8.2\libgcc.a(_umodsi3.o)
 .debug_aranges
                0x000006c8       0x20 c:/espressif/xtensa-lx106-elf/bin/../lib/gcc/xtensa-lx106-elf/4.8.2\libgcc.a(_addsubsf3.o)
 .debug_aranges
                0x000006e8       0x20 c:/espressif/xtensa-lx106-elf/bin/../lib/gcc/xtensa-lx106-elf/4.8.2\libgcc.a(_mulsf3.o)
 .debug_aranges
                0x00000708       0x20 c:/espressif/xtensa-lx106-elf/bin/../lib/gcc/xtensa-lx106-elf/4.8.2\libgcc.a(_divsf3.o)
 .debug_aranges
                0x00000728       0x20 c:/espressif/xtensa-lx106-elf/bin/../lib/gcc/xtensa-lx106-elf/4.8.2\libgcc.a(_cmpsf2.o)
 .debug_aranges
                0x00000748       0x20 c:/espressif/xtensa-lx106-elf/bin/../lib/gcc/xtensa-lx106-elf/4.8.2\libgcc.a(_fixsfsi.o)
 .debug_aranges
                0x00000768       0x20 c:/espressif/xtensa-lx106-elf/bin/../lib/gcc/xtensa-lx106-elf/4.8.2\libgcc.a(_floatsisf.o)
 .debug_aranges
                0x00000788       0x20 c:/espressif/xtensa-lx106-elf/bin/../lib/gcc/xtensa-lx106-elf/4.8.2\libgcc.a(_muldi3.o)
 .debug_aranges
                0x000007a8       0x20 c:/espressif/xtensa-lx106-elf/bin/../lib/gcc/xtensa-lx106-elf/4.8.2\libgcc.a(_umulsidi3.o)
 .debug_aranges
                0x000007c8       0x20 c:/espressif/xtensa-lx106-elf/bin/../lib/gcc/xtensa-lx106-elf/4.8.2/../../../../xtensa-lx106-elf/lib\libc.a(lib_a-memcmp.o)
 .debug_aranges
                0x000007e8       0x20 c:/espressif/xtensa-lx106-elf/bin/../lib/gcc/xtensa-lx106-elf/4.8.2\libgcc.a(_ashrdi3.o)
 .debug_aranges
                0x00000808       0x20 c:/espressif/xtensa-lx106-elf/bin/../lib/gcc/xtensa-lx106-elf/4.8.2\libgcc.a(_fixunssfsi.o)
 .debug_aranges
                0x00000828       0x20 c:/espressif/xtensa-lx106-elf/bin/../lib/gcc/xtensa-lx106-elf/4.8.2\libgcc.a(_muldf3.o)
 .debug_aranges
                0x00000848       0x20 c:/espressif/xtensa-lx106-elf/bin/../lib/gcc/xtensa-lx106-elf/4.8.2\libgcc.a(_divdf3.o)
 .debug_aranges
                0x00000868       0x20 c:/espressif/xtensa-lx106-elf/bin/../lib/gcc/xtensa-lx106-elf/4.8.2\libgcc.a(_fixdfsi.o)
 .debug_aranges
                0x00000888       0x20 c:/espressif/xtensa-lx106-elf/bin/../lib/gcc/xtensa-lx106-elf/4.8.2\libgcc.a(_floatsidf.o)
 .debug_aranges
                0x000008a8       0x20 c:/espressif/xtensa-lx106-elf/bin/../lib/gcc/xtensa-lx106-elf/4.8.2\libgcc.a(_truncdfsf2.o)
 .debug_aranges
                0x000008c8       0x20 c:/espressif/xtensa-lx106-elf/bin/../lib/gcc/xtensa-lx106-elf/4.8.2\libgcc.a(_popcountsi2.o)
 .debug_aranges
                0x000008e8       0x20 c:/espressif/xtensa-lx106-elf/bin/../lib/gcc/xtensa-lx106-elf/4.8.2\libgcc.a(_divdi3.o)
 .debug_aranges
                0x00000908       0x20 c:/espressif/xtensa-lx106-elf/bin/../lib/gcc/xtensa-lx106-elf/4.8.2\libgcc.a(_udivdi3.o)
 .debug_aranges
                0x00000928       0x20 c:/espressif/xtensa-lx106-elf/bin/../lib/gcc/xtensa-lx106-elf/4.8.2\libgcc.a(_umoddi3.o)
 .debug_aranges
                0x00000948       0x18 c:/espressif/xtensa-lx106-elf/bin/../lib/gcc/xtensa-lx106-elf/4.8.2\libgcc.a(_popcount_tab.o)

.debug_ranges   0x00000000      0x7f0
 .debug_ranges  0x00000000      0x1f0 build/app_app.a(user_main.o)
 .debug_ranges  0x000001f0      0x118 build/app_app.a(mqtt.o)
 .debug_ranges  0x00000308       0x18 build/app_app.a(wifi.o)
 .debug_ranges  0x00000320       0x18 build/app_app.a(config.o)
 .debug_ranges  0x00000338       0x78 build/app_app.a(easygpio.o)
 .debug_ranges  0x000003b0       0xa8 build/app_app.a(dht22.o)
 .debug_ranges  0x00000458       0x18 build/app_app.a(stdout.o)
 .debug_ranges  0x00000470       0x38 build/app_app.a(utils.o)
 .debug_ranges  0x000004a8       0x28 build/app_app.a(queue.o)
 .debug_ranges  0x000004d0      0x118 build/app_app.a(mqtt_msg.o)
 .debug_ranges  0x000005e8       0x20 build/app_app.a(ringbuf.o)
 .debug_ranges  0x00000608       0x58 build/app_app.a(proto.o)
 .debug_ranges  0x00000660       0x38 c:/espressif/xtensa-lx106-elf/bin/../lib/gcc/xtensa-lx106-elf/4.8.2/../../../../xtensa-lx106-elf/lib\libc.a(lib_a-mktm_r.o)
 .debug_ranges  0x00000698       0x60 c:/espressif/xtensa-lx106-elf/bin/../lib/gcc/xtensa-lx106-elf/4.8.2\libgcc.a(_divdi3.o)
 .debug_ranges  0x000006f8       0x60 c:/espressif/xtensa-lx106-elf/bin/../lib/gcc/xtensa-lx106-elf/4.8.2\libgcc.a(_udivdi3.o)
 .debug_ranges  0x00000758       0x98 c:/espressif/xtensa-lx106-elf/bin/../lib/gcc/xtensa-lx106-elf/4.8.2\libgcc.a(_umoddi3.o)

.debug_line     0x00000000     0x7bd2
 .debug_line    0x00000000      0xeb4 build/app_app.a(user_main.o)
 .debug_line    0x00000eb4      0x9f9 build/app_app.a(mqtt.o)
 .debug_line    0x000018ad      0x1b7 build/app_app.a(wifi.o)
 .debug_line    0x00001a64      0x20c build/app_app.a(config.o)
 .debug_line    0x00001c70      0x49d build/app_app.a(easygpio.o)
 .debug_line    0x0000210d      0x383 build/app_app.a(dht22.o)
 .debug_line    0x00002490      0x10e build/app_app.a(stdout.o)
 .debug_line    0x0000259e      0x219 build/app_app.a(utils.o)
 .debug_line    0x000027b7      0x126 build/app_app.a(queue.o)
 .debug_line    0x000028dd      0x89a build/app_app.a(mqtt_msg.o)
 .debug_line    0x00003177      0x120 build/app_app.a(ringbuf.o)
 .debug_line    0x00003297      0x32f build/app_app.a(proto.o)
 .debug_line    0x000035c6      0x1d0 c:/espressif/xtensa-lx106-elf/bin/../lib/gcc/xtensa-lx106-elf/4.8.2/../../../../xtensa-lx106-elf/lib\libc.a(lib_a-atoi.o)
 .debug_line    0x00003796      0x1c7 c:/espressif/xtensa-lx106-elf/bin/../lib/gcc/xtensa-lx106-elf/4.8.2/../../../../xtensa-lx106-elf/lib\libc.a(lib_a-lcltime.o)
 .debug_line    0x0000395d      0x136 c:/espressif/xtensa-lx106-elf/bin/../lib/gcc/xtensa-lx106-elf/4.8.2/../../../../xtensa-lx106-elf/lib\libc.a(lib_a-lcltime_r.o)
 .debug_line    0x00003a93      0x355 c:/espressif/xtensa-lx106-elf/bin/../lib/gcc/xtensa-lx106-elf/4.8.2/../../../../xtensa-lx106-elf/lib\libc.a(lib_a-memcpy.o)
 .debug_line    0x00003de8      0x709 c:/espressif/xtensa-lx106-elf/bin/../lib/gcc/xtensa-lx106-elf/4.8.2/../../../../xtensa-lx106-elf/lib\libc.a(lib_a-mktm_r.o)
 .debug_line    0x000044f1      0x284 c:/espressif/xtensa-lx106-elf/bin/../lib/gcc/xtensa-lx106-elf/4.8.2/../../../../xtensa-lx106-elf/lib\libc.a(lib_a-strcmp.o)
 .debug_line    0x00004775      0x12c c:/espressif/xtensa-lx106-elf/bin/../lib/gcc/xtensa-lx106-elf/4.8.2/../../../../xtensa-lx106-elf/lib\libc.a(lib_a-strlen.o)
 .debug_line    0x000048a1      0x37d c:/espressif/xtensa-lx106-elf/bin/../lib/gcc/xtensa-lx106-elf/4.8.2/../../../../xtensa-lx106-elf/lib\libc.a(lib_a-strtol.o)
 .debug_line    0x00004c1e       0x5f c:/espressif/xtensa-lx106-elf/bin/../lib/gcc/xtensa-lx106-elf/4.8.2/../../../../xtensa-lx106-elf/lib\libc.a(lib_a-tzlock.o)
 .debug_line    0x00004c7d       0x76 c:/espressif/xtensa-lx106-elf/bin/../lib/gcc/xtensa-lx106-elf/4.8.2/../../../../xtensa-lx106-elf/lib\libc.a(lib_a-tzvars.o)
 .debug_line    0x00004cf3       0x77 c:/espressif/xtensa-lx106-elf/bin/../lib/gcc/xtensa-lx106-elf/4.8.2/../../../../xtensa-lx106-elf/lib\libc.a(lib_a-ctype_.o)
 .debug_line    0x00004d6a      0x119 c:/espressif/xtensa-lx106-elf/bin/../lib/gcc/xtensa-lx106-elf/4.8.2/../../../../xtensa-lx106-elf/lib\libc.a(lib_a-gettzinfo.o)
 .debug_line    0x00004e83      0x12f c:/espressif/xtensa-lx106-elf/bin/../lib/gcc/xtensa-lx106-elf/4.8.2/../../../../xtensa-lx106-elf/lib\libc.a(lib_a-impure.o)
 .debug_line    0x00004fb2      0x127 c:/espressif/xtensa-lx106-elf/bin/../lib/gcc/xtensa-lx106-elf/4.8.2\libgcc.a(_divsi3.o)
 .debug_line    0x000050d9       0xe5 c:/espressif/xtensa-lx106-elf/bin/../lib/gcc/xtensa-lx106-elf/4.8.2\libgcc.a(_modsi3.o)
 .debug_line    0x000051be       0xf7 c:/espressif/xtensa-lx106-elf/bin/../lib/gcc/xtensa-lx106-elf/4.8.2\libgcc.a(_udivsi3.o)
 .debug_line    0x000052b5       0xc7 c:/espressif/xtensa-lx106-elf/bin/../lib/gcc/xtensa-lx106-elf/4.8.2\libgcc.a(_umodsi3.o)
 .debug_line    0x0000537c      0x488 c:/espressif/xtensa-lx106-elf/bin/../lib/gcc/xtensa-lx106-elf/4.8.2\libgcc.a(_addsubsf3.o)
 .debug_line    0x00005804      0x34a c:/espressif/xtensa-lx106-elf/bin/../lib/gcc/xtensa-lx106-elf/4.8.2\libgcc.a(_mulsf3.o)
 .debug_line    0x00005b4e      0x2e4 c:/espressif/xtensa-lx106-elf/bin/../lib/gcc/xtensa-lx106-elf/4.8.2\libgcc.a(_divsf3.o)
 .debug_line    0x00005e32      0x2c6 c:/espressif/xtensa-lx106-elf/bin/../lib/gcc/xtensa-lx106-elf/4.8.2\libgcc.a(_cmpsf2.o)
 .debug_line    0x000060f8       0xe0 c:/espressif/xtensa-lx106-elf/bin/../lib/gcc/xtensa-lx106-elf/4.8.2\libgcc.a(_fixsfsi.o)
 .debug_line    0x000061d8       0xec c:/espressif/xtensa-lx106-elf/bin/../lib/gcc/xtensa-lx106-elf/4.8.2\libgcc.a(_floatsisf.o)
 .debug_line    0x000062c4       0x96 c:/espressif/xtensa-lx106-elf/bin/../lib/gcc/xtensa-lx106-elf/4.8.2\libgcc.a(_muldi3.o)
 .debug_line    0x0000635a      0x103 c:/espressif/xtensa-lx106-elf/bin/../lib/gcc/xtensa-lx106-elf/4.8.2\libgcc.a(_umulsidi3.o)
 .debug_line    0x0000645d      0x18b c:/espressif/xtensa-lx106-elf/bin/../lib/gcc/xtensa-lx106-elf/4.8.2/../../../../xtensa-lx106-elf/lib\libc.a(lib_a-memcmp.o)
 .debug_line    0x000065e8       0x85 c:/espressif/xtensa-lx106-elf/bin/../lib/gcc/xtensa-lx106-elf/4.8.2\libgcc.a(_ashrdi3.o)
 .debug_line    0x0000666d      0x110 c:/espressif/xtensa-lx106-elf/bin/../lib/gcc/xtensa-lx106-elf/4.8.2\libgcc.a(_fixunssfsi.o)
 .debug_line    0x0000677d      0x5f8 c:/espressif/xtensa-lx106-elf/bin/../lib/gcc/xtensa-lx106-elf/4.8.2\libgcc.a(_muldf3.o)
 .debug_line    0x00006d75      0x4a0 c:/espressif/xtensa-lx106-elf/bin/../lib/gcc/xtensa-lx106-elf/4.8.2\libgcc.a(_divdf3.o)
 .debug_line    0x00007215       0xf2 c:/espressif/xtensa-lx106-elf/bin/../lib/gcc/xtensa-lx106-elf/4.8.2\libgcc.a(_fixdfsi.o)
 .debug_line    0x00007307       0xce c:/espressif/xtensa-lx106-elf/bin/../lib/gcc/xtensa-lx106-elf/4.8.2\libgcc.a(_floatsidf.o)
 .debug_line    0x000073d5      0x1a0 c:/espressif/xtensa-lx106-elf/bin/../lib/gcc/xtensa-lx106-elf/4.8.2\libgcc.a(_truncdfsf2.o)
 .debug_line    0x00007575       0x92 c:/espressif/xtensa-lx106-elf/bin/../lib/gcc/xtensa-lx106-elf/4.8.2\libgcc.a(_popcountsi2.o)
 .debug_line    0x00007607      0x1dd c:/espressif/xtensa-lx106-elf/bin/../lib/gcc/xtensa-lx106-elf/4.8.2\libgcc.a(_divdi3.o)
 .debug_line    0x000077e4      0x1a7 c:/espressif/xtensa-lx106-elf/bin/../lib/gcc/xtensa-lx106-elf/4.8.2\libgcc.a(_udivdi3.o)
 .debug_line    0x0000798b      0x200 c:/espressif/xtensa-lx106-elf/bin/../lib/gcc/xtensa-lx106-elf/4.8.2\libgcc.a(_umoddi3.o)
 .debug_line    0x00007b8b       0x47 c:/espressif/xtensa-lx106-elf/bin/../lib/gcc/xtensa-lx106-elf/4.8.2\libgcc.a(_popcount_tab.o)

.debug_str      0x00000000     0x2c03
 .debug_str     0x00000000     0x1023 build/app_app.a(user_main.o)
                               0x1193 (size before relaxing)
 .debug_str     0x00001023      0x7a5 build/app_app.a(mqtt.o)
                                0xf0d (size before relaxing)
 .debug_str     0x000017c8       0x97 build/app_app.a(wifi.o)
                                0x3d6 (size before relaxing)
 .debug_str     0x0000185f      0x114 build/app_app.a(config.o)
                                0x36b (size before relaxing)
 .debug_str     0x00001973      0x250 build/app_app.a(easygpio.o)
                                0x473 (size before relaxing)
 .debug_str     0x00001bc3       0x99 build/app_app.a(dht22.o)
                                0x39d (size before relaxing)
 .debug_str     0x00001c5c      0x14e build/app_app.a(stdout.o)
                                0x2a0 (size before relaxing)
 .debug_str     0x00001daa       0x48 build/app_app.a(utils.o)
                                0x1b7 (size before relaxing)
 .debug_str     0x00001df2       0x4c build/app_app.a(queue.o)
                                0x206 (size before relaxing)
 .debug_str     0x00001e3e      0x196 build/app_app.a(mqtt_msg.o)
                                0x69c (size before relaxing)
 .debug_str     0x00001fd4       0x27 build/app_app.a(ringbuf.o)
                                0x187 (size before relaxing)
 .debug_str     0x00001ffb       0xa6 build/app_app.a(proto.o)
                                0x248 (size before relaxing)
 .debug_str     0x000020a1      0x456 c:/espressif/xtensa-lx106-elf/bin/../lib/gcc/xtensa-lx106-elf/4.8.2/../../../../xtensa-lx106-elf/lib\libc.a(lib_a-atoi.o)
                                0x520 (size before relaxing)
 .debug_str     0x000024f7       0x9f c:/espressif/xtensa-lx106-elf/bin/../lib/gcc/xtensa-lx106-elf/4.8.2/../../../../xtensa-lx106-elf/lib\libc.a(lib_a-lcltime.o)
                                0x576 (size before relaxing)
 .debug_str     0x00002596       0x34 c:/espressif/xtensa-lx106-elf/bin/../lib/gcc/xtensa-lx106-elf/4.8.2/../../../../xtensa-lx106-elf/lib\libc.a(lib_a-lcltime_r.o)
                                0x1b4 (size before relaxing)
 .debug_str     0x000025ca      0x125 c:/espressif/xtensa-lx106-elf/bin/../lib/gcc/xtensa-lx106-elf/4.8.2/../../../../xtensa-lx106-elf/lib\libc.a(lib_a-mktm_r.o)
                                0x2b9 (size before relaxing)
 .debug_str     0x000026ef       0x58 c:/espressif/xtensa-lx106-elf/bin/../lib/gcc/xtensa-lx106-elf/4.8.2/../../../../xtensa-lx106-elf/lib\libc.a(lib_a-strtol.o)
                                0x553 (size before relaxing)
 .debug_str     0x00002747       0x3a c:/espressif/xtensa-lx106-elf/bin/../lib/gcc/xtensa-lx106-elf/4.8.2/../../../../xtensa-lx106-elf/lib\libc.a(lib_a-tzlock.o)
                                0x171 (size before relaxing)
 .debug_str     0x00002781       0x3b c:/espressif/xtensa-lx106-elf/bin/../lib/gcc/xtensa-lx106-elf/4.8.2/../../../../xtensa-lx106-elf/lib\libc.a(lib_a-tzvars.o)
                                0x166 (size before relaxing)
 .debug_str     0x000027bc       0x96 c:/espressif/xtensa-lx106-elf/bin/../lib/gcc/xtensa-lx106-elf/4.8.2/../../../../xtensa-lx106-elf/lib\libc.a(lib_a-ctype_.o)
                                 0xde (size before relaxing)
 .debug_str     0x00002852       0x2c c:/espressif/xtensa-lx106-elf/bin/../lib/gcc/xtensa-lx106-elf/4.8.2/../../../../xtensa-lx106-elf/lib\libc.a(lib_a-gettzinfo.o)
                                0x1cd (size before relaxing)
 .debug_str     0x0000287e       0xad c:/espressif/xtensa-lx106-elf/bin/../lib/gcc/xtensa-lx106-elf/4.8.2/../../../../xtensa-lx106-elf/lib\libc.a(lib_a-impure.o)
                                0x52d (size before relaxing)
 .debug_str     0x0000292b      0x141 c:/espressif/xtensa-lx106-elf/bin/../lib/gcc/xtensa-lx106-elf/4.8.2\libgcc.a(_muldi3.o)
                                0x1c5 (size before relaxing)
 .debug_str     0x00002a6c       0x97 c:/espressif/xtensa-lx106-elf/bin/../lib/gcc/xtensa-lx106-elf/4.8.2/../../../../xtensa-lx106-elf/lib\libc.a(lib_a-memcmp.o)
                                0x15c (size before relaxing)
 .debug_str     0x00002b03       0x25 c:/espressif/xtensa-lx106-elf/bin/../lib/gcc/xtensa-lx106-elf/4.8.2\libgcc.a(_popcountsi2.o)
                                0x1a6 (size before relaxing)
 .debug_str     0x00002b28       0xc7 c:/espressif/xtensa-lx106-elf/bin/../lib/gcc/xtensa-lx106-elf/4.8.2\libgcc.a(_divdi3.o)
                                0x21b (size before relaxing)
 .debug_str     0x00002bef        0xa c:/espressif/xtensa-lx106-elf/bin/../lib/gcc/xtensa-lx106-elf/4.8.2\libgcc.a(_udivdi3.o)
                                0x21c (size before relaxing)
 .debug_str     0x00002bf9        0xa c:/espressif/xtensa-lx106-elf/bin/../lib/gcc/xtensa-lx106-elf/4.8.2\libgcc.a(_umoddi3.o)
                                0x21c (size before relaxing)
 .debug_str     0x00000000      0x190 c:/espressif/xtensa-lx106-elf/bin/../lib/gcc/xtensa-lx106-elf/4.8.2\libgcc.a(_popcount_tab.o)
